 playfile

 Timestamp is 5e90780d (Fri Apr 10 09:43:41 2020)

 Preferred load address is 00400000

 Start         Length     Name                   Class
 0001:00000000 00108c00H .text$mn                CODE
 0001:00108c00 000010e8H .text$x                 CODE
 0002:00000000 00000104H .CRT$XCA                DATA
 0002:00000104 00000104H .CRT$XCAA               DATA
 0002:00000208 00000104H .CRT$XCZ                DATA
 0002:0000030c 00000104H .CRT$XIA                DATA
 0002:00000410 00000104H .CRT$XIAA               DATA
 0002:00000514 00000104H .CRT$XIAC               DATA
 0002:00000618 00000114H .CRT$XIC                DATA
 0002:0000072c 00000104H .CRT$XIZ                DATA
 0002:00000830 00000104H .CRT$XPA                DATA
 0002:00000934 0000010cH .CRT$XPX                DATA
 0002:00000a40 00000104H .CRT$XPXA               DATA
 0002:00000b44 00000104H .CRT$XPZ                DATA
 0002:00000c48 00000104H .CRT$XTA                DATA
 0002:00000d4c 00000104H .CRT$XTZ                DATA
 0002:00000e50 00039dd8H .rdata                  DATA
 0002:0003ac28 00000448H .rdata$r                DATA
 0002:0003b070 0000012cH .rdata$sxdata           DATA
 0002:0003b19c 000001b8H .rdata$zzzdbg           DATA
 0002:0003b354 00000104H .rtc$IAA                DATA
 0002:0003b458 00000104H .rtc$IZZ                DATA
 0002:0003b55c 00000104H .rtc$TAA                DATA
 0002:0003b660 00000108H .rtc$TZZ                DATA
 0002:0003b768 00000f94H .xdata$x                DATA
 0002:0003c6fc 00000000H .edata                  DATA
 0003:00000000 0001d84cH .data                   DATA
 0003:0001d84c 00000254H .data$r                 DATA
 0003:0001daa0 000031b4H .bss                    DATA
 0004:00000000 000003f4H .idata$5                DATA
 0004:000003f4 00000050H .idata$2                DATA
 0004:00000444 00000014H .idata$3                DATA
 0004:00000458 000003f4H .idata$4                DATA
 0004:0000084c 00000d1eH .idata$6                DATA
 0005:00000000 0000020cH .gfids$x                DATA
 0005:0000020c 000001d6H .gfids$y                DATA
 0006:00000000 00000104H .00cfg                  DATA

  Address         Publics by Value              Rva+Base       Lib:Object

 0000:00000000       ___guard_fids_count        00000000     <absolute>
 0000:00000000       ___guard_longjmp_count     00000000     <absolute>
 0000:00000000       ___guard_iat_count         00000000     <absolute>
 0000:00000000       ___guard_longjmp_table     00000000     <absolute>
 0000:00000000       __except_list              00000000     <absolute>
 0000:00000000       ___guard_iat_table         00000000     <absolute>
 0000:00000000       ___guard_fids_table        00000000     <absolute>
 0000:00000000       ___dynamic_value_reloc_table 00000000     <absolute>
 0000:00000009       ___safe_se_handler_count   00000009     <absolute>
 0000:00000100       ___guard_flags             00000100     <absolute>
 0000:00000000       ___ImageBase               00400000     <linker-defined>
 0001:00008fa0       _get_snd_options           00409fa0 f   playfile.obj
 0001:00009300       _dump_pool_usage           0040a300 f   playfile.obj
 0001:000093a0       _main                      0040a3a0 f   playfile.obj
 0001:000099d0       ___local_stdio_printf_options 0040a9d0 f i playfile.obj
 0001:000099e0       __vfprintf_l               0040a9e0 f i playfile.obj
 0001:00009a20       _printf                    0040aa20 f i playfile.obj
 0001:00009a70       _pjmedia_aud_subsys_init   0040aa70 f   pjmedia-audiodev-i386-win32-vc14-debug:audiodev.obj
 0001:00009b80       _pjmedia_aud_subsys_get_pool_factory 0040ab80 f   pjmedia-audiodev-i386-win32-vc14-debug:audiodev.obj
 0001:00009ba0       _pjmedia_aud_subsys_shutdown 0040aba0 f   pjmedia-audiodev-i386-win32-vc14-debug:audiodev.obj
 0001:00009c10       _pjmedia_aud_register_factory 0040ac10 f   pjmedia-audiodev-i386-win32-vc14-debug:audiodev.obj
 0001:00009c80       _pjmedia_aud_unregister_factory 0040ac80 f   pjmedia-audiodev-i386-win32-vc14-debug:audiodev.obj
 0001:00009de0       _pjmedia_audiodev_strerror 0040ade0 f   pjmedia-audiodev-i386-win32-vc14-debug:errno.obj
 0001:0000a070       __snprintf                 0040b070 f i pjmedia-audiodev-i386-win32-vc14-debug:errno.obj
 0001:0000a0c0       __vsnprintf                0040b0c0 f i pjmedia-audiodev-i386-win32-vc14-debug:errno.obj
 0001:0000a0f0       __vsnprintf_l              0040b0f0 f i pjmedia-audiodev-i386-win32-vc14-debug:errno.obj
 0001:0000b560       _pjmedia_wmme_factory      0040c560 f   pjmedia-audiodev-i386-win32-vc14-debug:wmme_dev.obj
 0001:0000d490       _pjmedia_port_info_init    0040e490 f   pjmedia-i386-win32-vc14-debug:port.obj
 0001:0000d570       _pjmedia_port_info_init2   0040e570 f   pjmedia-i386-win32-vc14-debug:port.obj
 0001:0000d5c0       _pjmedia_port_get_clock_src 0040e5c0 f   pjmedia-i386-win32-vc14-debug:port.obj
 0001:0000d5f0       _pjmedia_port_get_frame    0040e5f0 f   pjmedia-i386-win32-vc14-debug:port.obj
 0001:0000d660       _pjmedia_port_put_frame    0040e660 f   pjmedia-i386-win32-vc14-debug:port.obj
 0001:0000d6d0       _pjmedia_port_destroy      0040e6d0 f   pjmedia-i386-win32-vc14-debug:port.obj
 0001:0000d880       _pjmedia_endpt_create2     0040e880 f   pjmedia-i386-win32-vc14-debug:endpoint.obj
 0001:0000db40       _pjmedia_endpt_destroy2    0040eb40 f   pjmedia-i386-win32-vc14-debug:endpoint.obj
 0001:0000dbf0       _pjmedia_endpt_set_flag    0040ebf0 f   pjmedia-i386-win32-vc14-debug:endpoint.obj
 0001:0000dc50       _pjmedia_endpt_get_flag    0040ec50 f   pjmedia-i386-win32-vc14-debug:endpoint.obj
 0001:0000dcb0       _pjmedia_endpt_get_ioqueue 0040ecb0 f   pjmedia-i386-win32-vc14-debug:endpoint.obj
 0001:0000dcf0       _pjmedia_endpt_get_thread_count 0040ecf0 f   pjmedia-i386-win32-vc14-debug:endpoint.obj
 0001:0000dd30       _pjmedia_endpt_get_thread  0040ed30 f   pjmedia-i386-win32-vc14-debug:endpoint.obj
 0001:0000ddb0       _pjmedia_endpt_stop_threads 0040edb0 f   pjmedia-i386-win32-vc14-debug:endpoint.obj
 0001:0000de70       _pjmedia_endpt_create_pool 0040ee70 f   pjmedia-i386-win32-vc14-debug:endpoint.obj
 0001:0000deb0       _pjmedia_endpt_get_codec_mgr 0040eeb0 f   pjmedia-i386-win32-vc14-debug:endpoint.obj
 0001:0000dec0       _pjmedia_endpt_create_sdp  0040eec0 f   pjmedia-i386-win32-vc14-debug:endpoint.obj
 0001:0000dff0       _pjmedia_endpt_create_base_sdp 0040eff0 f   pjmedia-i386-win32-vc14-debug:endpoint.obj
 0001:0000e1c0       _pjmedia_endpt_create_audio_sdp 0040f1c0 f   pjmedia-i386-win32-vc14-debug:endpoint.obj
 0001:0000ed20       _pjmedia_endpt_dump        0040fd20 f   pjmedia-i386-win32-vc14-debug:endpoint.obj
 0001:0000f030       _pjmedia_endpt_atexit      00410030 f   pjmedia-i386-win32-vc14-debug:endpoint.obj
 0001:0000fad0       __vsprintf_l               00410ad0 f i pjmedia-i386-win32-vc14-debug:endpoint.obj
 0001:0000fb00       _sprintf                   00410b00 f i pjmedia-i386-win32-vc14-debug:endpoint.obj
 0001:0000fbe0       _pjmedia_snd_port_param_default 00410be0 f   pjmedia-i386-win32-vc14-debug:sound_port.obj
 0001:0000fc00       _pjmedia_snd_port_create   00410c00 f   pjmedia-i386-win32-vc14-debug:sound_port.obj
 0001:0000fcd0       _pjmedia_snd_port_create_rec 00410cd0 f   pjmedia-i386-win32-vc14-debug:sound_port.obj
 0001:0000fd90       _pjmedia_snd_port_create_player 00410d90 f   pjmedia-i386-win32-vc14-debug:sound_port.obj
 0001:0000fe50       _pjmedia_snd_port_create2  00410e50 f   pjmedia-i386-win32-vc14-debug:sound_port.obj
 0001:00010050       _pjmedia_snd_port_destroy  00411050 f   pjmedia-i386-win32-vc14-debug:sound_port.obj
 0001:00010090       _pjmedia_snd_port_get_snd_stream 00411090 f   pjmedia-i386-win32-vc14-debug:sound_port.obj
 0001:000100d0       _pjmedia_snd_port_set_ec   004110d0 f   pjmedia-i386-win32-vc14-debug:sound_port.obj
 0001:000103c0       _pjmedia_snd_port_get_ec_tail 004113c0 f   pjmedia-i386-win32-vc14-debug:sound_port.obj
 0001:000104c0       _pjmedia_snd_port_get_ec_stat 004114c0 f   pjmedia-i386-win32-vc14-debug:sound_port.obj
 0001:00010530       _pjmedia_snd_port_get_clock_src 00411530 f   pjmedia-i386-win32-vc14-debug:sound_port.obj
 0001:00010560       _pjmedia_snd_port_connect  00411560 f   pjmedia-i386-win32-vc14-debug:sound_port.obj
 0001:00010630       _pjmedia_snd_port_get_port 00411630 f   pjmedia-i386-win32-vc14-debug:sound_port.obj
 0001:00010670       _pjmedia_snd_port_disconnect 00411670 f   pjmedia-i386-win32-vc14-debug:sound_port.obj
 0001:00011310       _pjmedia_wav_player_port_create 00412310 f   pjmedia-i386-win32-vc14-debug:wav_player.obj
 0001:00011940       _pjmedia_wav_player_get_info 00412940 f   pjmedia-i386-win32-vc14-debug:wav_player.obj
 0001:00011a90       _pjmedia_wav_player_get_len 00412a90 f   pjmedia-i386-win32-vc14-debug:wav_player.obj
 0001:00011b20       _pjmedia_wav_player_port_set_pos 00412b20 f   pjmedia-i386-win32-vc14-debug:wav_player.obj
 0001:00011c60       _pjmedia_wav_player_port_get_pos 00412c60 f   pjmedia-i386-win32-vc14-debug:wav_player.obj
 0001:00011d50       _pjmedia_wav_player_set_eof_cb 00412d50 f   pjmedia-i386-win32-vc14-debug:wav_player.obj
 0001:00011e00       _pjmedia_wav_player_set_eof_cb2 00412e00 f   pjmedia-i386-win32-vc14-debug:wav_player.obj
 0001:00012cc0       _pjmedia_get_aud_subsys    00413cc0 f   pjmedia-i386-win32-vc14-debug:audiodev.obj
 0001:00012cd0       _pjmedia_aud_driver_init   00413cd0 f   pjmedia-i386-win32-vc14-debug:audiodev.obj
 0001:00013050       _pjmedia_aud_driver_deinit 00414050 f   pjmedia-i386-win32-vc14-debug:audiodev.obj
 0001:000130c0       _pjmedia_aud_dev_cap_name  004140c0 f   pjmedia-i386-win32-vc14-debug:audiodev.obj
 0001:00013130       _pjmedia_aud_param_set_cap 00414130 f   pjmedia-i386-win32-vc14-debug:audiodev.obj
 0001:00013190       _pjmedia_aud_param_get_cap 00414190 f   pjmedia-i386-win32-vc14-debug:audiodev.obj
 0001:00013200       _pjmedia_aud_dev_refresh   00414200 f   pjmedia-i386-win32-vc14-debug:audiodev.obj
 0001:000132b0       _pjmedia_aud_dev_count     004142b0 f   pjmedia-i386-win32-vc14-debug:audiodev.obj
 0001:000132c0       _pjmedia_aud_dev_get_info  004142c0 f   pjmedia-i386-win32-vc14-debug:audiodev.obj
 0001:00013380       _pjmedia_aud_dev_lookup    00414380 f   pjmedia-i386-win32-vc14-debug:audiodev.obj
 0001:00013560       _pjmedia_aud_dev_default_param 00414560 f   pjmedia-i386-win32-vc14-debug:audiodev.obj
 0001:00013660       _pjmedia_aud_stream_create 00414660 f   pjmedia-i386-win32-vc14-debug:audiodev.obj
 0001:000138e0       _pjmedia_aud_stream_get_param 004148e0 f   pjmedia-i386-win32-vc14-debug:audiodev.obj
 0001:000139b0       _pjmedia_aud_stream_get_cap 004149b0 f   pjmedia-i386-win32-vc14-debug:audiodev.obj
 0001:000139d0       _pjmedia_aud_stream_set_cap 004149d0 f   pjmedia-i386-win32-vc14-debug:audiodev.obj
 0001:000139f0       _pjmedia_aud_stream_start  004149f0 f   pjmedia-i386-win32-vc14-debug:audiodev.obj
 0001:00013a10       _pjmedia_aud_stream_stop   00414a10 f   pjmedia-i386-win32-vc14-debug:audiodev.obj
 0001:00013a30       _pjmedia_aud_stream_destroy 00414a30 f   pjmedia-i386-win32-vc14-debug:audiodev.obj
 0001:00014340       _pjmedia_event_mgr_create  00415340 f   pjmedia-i386-win32-vc14-debug:event.obj
 0001:00014480       _pjmedia_event_mgr_instance 00415480 f   pjmedia-i386-win32-vc14-debug:event.obj
 0001:00014490       _pjmedia_event_mgr_set_instance 00415490 f   pjmedia-i386-win32-vc14-debug:event.obj
 0001:000144a0       _pjmedia_event_mgr_destroy 004154a0 f   pjmedia-i386-win32-vc14-debug:event.obj
 0001:00014580       _pjmedia_event_init        00415580 f   pjmedia-i386-win32-vc14-debug:event.obj
 0001:000145d0       _pjmedia_event_subscribe   004155d0 f   pjmedia-i386-win32-vc14-debug:event.obj
 0001:00014740       _pjmedia_event_unsubscribe 00415740 f   pjmedia-i386-win32-vc14-debug:event.obj
 0001:000148b0       _pjmedia_event_publish     004158b0 f   pjmedia-i386-win32-vc14-debug:event.obj
 0001:00014fe0       _pjmedia_format_copy       00415fe0 f   pjmedia-i386-win32-vc14-debug:format.obj
 0001:00015000       _pjmedia_format_get_audio_format_detail 00416000 f   pjmedia-i386-win32-vc14-debug:format.obj
 0001:00015080       _pjmedia_sdp_attr_create   00416080 f   pjmedia-i386-win32-vc14-debug:sdp.obj
 0001:00015120       _pjmedia_sdp_attr_clone    00416120 f   pjmedia-i386-win32-vc14-debug:sdp.obj
 0001:000151b0       _pjmedia_sdp_attr_find     004161b0 f   pjmedia-i386-win32-vc14-debug:sdp.obj
 0001:00015280       _pjmedia_sdp_attr_find2    00416280 f   pjmedia-i386-win32-vc14-debug:sdp.obj
 0001:000152c0       _pjmedia_sdp_attr_add      004162c0 f   pjmedia-i386-win32-vc14-debug:sdp.obj
 0001:00015360       _pjmedia_sdp_attr_remove_all 00416360 f   pjmedia-i386-win32-vc14-debug:sdp.obj
 0001:00015470       _pjmedia_sdp_attr_remove   00416470 f   pjmedia-i386-win32-vc14-debug:sdp.obj
 0001:00015570       _pjmedia_sdp_attr_to_rtpmap 00416570 f   pjmedia-i386-win32-vc14-debug:sdp.obj
 0001:00015620       _pjmedia_sdp_attr_get_rtpmap 00416620 f   pjmedia-i386-win32-vc14-debug:sdp.obj
 0001:000158a0       _pjmedia_sdp_rtpmap_to_attr 004168a0 f   pjmedia-i386-win32-vc14-debug:sdp.obj
 0001:00015ab0       _pjmedia_sdp_attr_get_fmtp 00416ab0 f   pjmedia-i386-win32-vc14-debug:sdp.obj
 0001:00015bb0       _pjmedia_sdp_attr_get_rtcp 00416bb0 f   pjmedia-i386-win32-vc14-debug:sdp.obj
 0001:00015d60       _pjmedia_sdp_attr_create_rtcp 00416d60 f   pjmedia-i386-win32-vc14-debug:sdp.obj
 0001:00015e90       _pjmedia_sdp_attr_get_ssrc 00416e90 f   pjmedia-i386-win32-vc14-debug:sdp.obj
 0001:00016040       _pjmedia_sdp_attr_create_ssrc 00417040 f   pjmedia-i386-win32-vc14-debug:sdp.obj
 0001:000160d0       _pjmedia_sdp_conn_clone    004170d0 f   pjmedia-i386-win32-vc14-debug:sdp.obj
 0001:00016160       _pjmedia_sdp_bandw_clone   00417160 f   pjmedia-i386-win32-vc14-debug:sdp.obj
 0001:000161b0       _pjmedia_sdp_media_clone   004171b0 f   pjmedia-i386-win32-vc14-debug:sdp.obj
 0001:00016450       _pjmedia_sdp_media_find_attr 00417450 f   pjmedia-i386-win32-vc14-debug:sdp.obj
 0001:000164b0       _pjmedia_sdp_media_find_attr2 004174b0 f   pjmedia-i386-win32-vc14-debug:sdp.obj
 0001:00016510       _pjmedia_sdp_media_add_attr 00417510 f   pjmedia-i386-win32-vc14-debug:sdp.obj
 0001:00016540       _pjmedia_sdp_media_remove_all_attr 00417540 f   pjmedia-i386-win32-vc14-debug:sdp.obj
 0001:00016570       _pjmedia_sdp_media_remove_attr 00417570 f   pjmedia-i386-win32-vc14-debug:sdp.obj
 0001:000165a0       _pjmedia_sdp_transport_cmp 004175a0 f   pjmedia-i386-win32-vc14-debug:sdp.obj
 0001:00016610       _pjmedia_sdp_transport_get_proto 00417610 f   pjmedia-i386-win32-vc14-debug:sdp.obj
 0001:00016790       _pjmedia_sdp_media_deactivate 00417790 f   pjmedia-i386-win32-vc14-debug:sdp.obj
 0001:000167e0       _pjmedia_sdp_media_clone_deactivate 004177e0 f   pjmedia-i386-win32-vc14-debug:sdp.obj
 0001:000169d0       _pjmedia_sdp_parse         004179d0 f   pjmedia-i386-win32-vc14-debug:sdp.obj
 0001:00016f90       _pjmedia_sdp_print         00417f90 f   pjmedia-i386-win32-vc14-debug:sdp.obj
 0001:00016fb0       _pjmedia_sdp_validate      00417fb0 f   pjmedia-i386-win32-vc14-debug:sdp.obj
 0001:00016fd0       _pjmedia_sdp_validate2     00417fd0 f   pjmedia-i386-win32-vc14-debug:sdp.obj
 0001:00017270       _pjmedia_sdp_session_clone 00418270 f   pjmedia-i386-win32-vc14-debug:sdp.obj
 0001:000174f0       _pjmedia_sdp_session_add_attr 004184f0 f   pjmedia-i386-win32-vc14-debug:sdp.obj
 0001:00019720       _pjmedia_codec_param_clone 0041a720 f   pjmedia-i386-win32-vc14-debug:codec.obj
 0001:00019880       _pjmedia_codec_mgr_init    0041a880 f   pjmedia-i386-win32-vc14-debug:codec.obj
 0001:00019950       _pjmedia_codec_mgr_destroy 0041a950 f   pjmedia-i386-win32-vc14-debug:codec.obj
 0001:00019a70       _pjmedia_codec_mgr_register_factory 0041aa70 f   pjmedia-i386-win32-vc14-debug:codec.obj
 0001:00019c90       _pjmedia_codec_mgr_unregister_factory 0041ac90 f   pjmedia-i386-win32-vc14-debug:codec.obj
 0001:00019de0       _pjmedia_codec_mgr_enum_codecs 0041ade0 f   pjmedia-i386-win32-vc14-debug:codec.obj
 0001:00019ee0       _pjmedia_codec_mgr_get_codec_info 0041aee0 f   pjmedia-i386-win32-vc14-debug:codec.obj
 0001:00019fb0       _pjmedia_codec_info_to_id  0041afb0 f   pjmedia-i386-win32-vc14-debug:codec.obj
 0001:0001a060       _pjmedia_codec_mgr_find_codecs_by_id 0041b060 f   pjmedia-i386-win32-vc14-debug:codec.obj
 0001:0001a1b0       _pjmedia_codec_mgr_set_codec_priority 0041b1b0 f   pjmedia-i386-win32-vc14-debug:codec.obj
 0001:0001a2b0       _pjmedia_codec_mgr_get_default_param 0041b2b0 f   pjmedia-i386-win32-vc14-debug:codec.obj
 0001:0001a4a0       _pjmedia_codec_mgr_set_default_param 0041b4a0 f   pjmedia-i386-win32-vc14-debug:codec.obj
 0001:0001a6b0       _pjmedia_codec_mgr_alloc_codec 0041b6b0 f   pjmedia-i386-win32-vc14-debug:codec.obj
 0001:0001a7a0       _pjmedia_codec_mgr_dealloc_codec 0041b7a0 f   pjmedia-i386-win32-vc14-debug:codec.obj
 0001:0001ae00       _pjmedia_strerror          0041be00 f   pjmedia-i386-win32-vc14-debug:errno.obj
 0001:0001b000       _pjmedia_clock_src_init    0041c000 f   pjmedia-i386-win32-vc14-debug:clock_thread.obj
 0001:0001b070       _pjmedia_clock_src_update  0041c070 f   pjmedia-i386-win32-vc14-debug:clock_thread.obj
 0001:0001b0d0       _pjmedia_clock_src_get_current_timestamp 0041c0d0 f   pjmedia-i386-win32-vc14-debug:clock_thread.obj
 0001:0001b170       _pjmedia_clock_src_get_time_msec 0041c170 f   pjmedia-i386-win32-vc14-debug:clock_thread.obj
 0001:0001b1f0       _pjmedia_clock_create      0041c1f0 f   pjmedia-i386-win32-vc14-debug:clock_thread.obj
 0001:0001b250       _pjmedia_clock_create2     0041c250 f   pjmedia-i386-win32-vc14-debug:clock_thread.obj
 0001:0001b420       _pjmedia_clock_start       0041c420 f   pjmedia-i386-win32-vc14-debug:clock_thread.obj
 0001:0001b510       _pjmedia_clock_stop        0041c510 f   pjmedia-i386-win32-vc14-debug:clock_thread.obj
 0001:0001b5b0       _pjmedia_clock_modify      0041c5b0 f   pjmedia-i386-win32-vc14-debug:clock_thread.obj
 0001:0001b610       _pjmedia_clock_wait        0041c610 f   pjmedia-i386-win32-vc14-debug:clock_thread.obj
 0001:0001b790       _pjmedia_clock_destroy     0041c790 f   pjmedia-i386-win32-vc14-debug:clock_thread.obj
 0001:0001bd00       _pjmedia_echo_stat_default 0041cd00 f   pjmedia-i386-win32-vc14-debug:echo_common.obj
 0001:0001bd70       _pjmedia_echo_create       0041cd70 f   pjmedia-i386-win32-vc14-debug:echo_common.obj
 0001:0001bda0       _pjmedia_echo_create2      0041cda0 f   pjmedia-i386-win32-vc14-debug:echo_common.obj
 0001:0001c090       _pjmedia_echo_destroy      0041d090 f   pjmedia-i386-win32-vc14-debug:echo_common.obj
 0001:0001c0e0       _pjmedia_echo_reset        0041d0e0 f   pjmedia-i386-win32-vc14-debug:echo_common.obj
 0001:0001c160       _pjmedia_echo_get_stat     0041d160 f   pjmedia-i386-win32-vc14-debug:echo_common.obj
 0001:0001c1c0       _pjmedia_echo_playback     0041d1c0 f   pjmedia-i386-win32-vc14-debug:echo_common.obj
 0001:0001c2d0       _pjmedia_echo_capture      0041d2d0 f   pjmedia-i386-win32-vc14-debug:echo_common.obj
 0001:0001c3e0       _pjmedia_echo_cancel       0041d3e0 f   pjmedia-i386-win32-vc14-debug:echo_common.obj
 0001:0001c720       _pjmedia_wave_hdr_file_to_host 0041d720 f   pjmedia-i386-win32-vc14-debug:wave.obj
 0001:0001c740       _pjmedia_wave_hdr_host_to_file 0041d740 f   pjmedia-i386-win32-vc14-debug:wave.obj
 0001:0001ca10       _pjmedia_srtp_init_lib     0041da10 f   pjmedia-i386-win32-vc14-debug:transport_srtp.obj
 0001:0001cac0       _pjmedia_srtp_setting_default 0041dac0 f   pjmedia-i386-win32-vc14-debug:transport_srtp.obj
 0001:0001cb10       _pjmedia_srtp_enum_crypto  0041db10 f   pjmedia-i386-win32-vc14-debug:transport_srtp.obj
 0001:0001cbd0       _pjmedia_srtp_enum_keying  0041dbd0 f   pjmedia-i386-win32-vc14-debug:transport_srtp.obj
 0001:0001cc50       _pjmedia_transport_srtp_create 0041dc50 f   pjmedia-i386-win32-vc14-debug:transport_srtp.obj
 0001:0001d040       _pjmedia_transport_srtp_dtls_get_fingerprint 0041e040 f   pjmedia-i386-win32-vc14-debug:transport_srtp.obj
 0001:0001d050       _pjmedia_transport_srtp_dtls_start_nego 0041e050 f   pjmedia-i386-win32-vc14-debug:transport_srtp.obj
 0001:0001d060       _pjmedia_transport_srtp_start 0041e060 f   pjmedia-i386-win32-vc14-debug:transport_srtp.obj
 0001:0001d9c0       _pjmedia_transport_srtp_stop 0041e9c0 f   pjmedia-i386-win32-vc14-debug:transport_srtp.obj
 0001:0001db20       _pjmedia_transport_srtp_decrypt_pkt 0041eb20 f   pjmedia-i386-win32-vc14-debug:transport_srtp.obj
 0001:0001dcf0       _pjmedia_transport_srtp_get_member 0041ecf0 f   pjmedia-i386-win32-vc14-debug:transport_srtp.obj
 0001:0001f580       _get_libsrtp_errstr        00420580 f   pjmedia-i386-win32-vc14-debug:transport_srtp.obj
 0001:00021d30       _echo_supp_create          00422d30 f   pjmedia-i386-win32-vc14-debug:echo_suppress.obj
 0001:00021f00       _echo_supp_destroy         00422f00 f   pjmedia-i386-win32-vc14-debug:echo_suppress.obj
 0001:00021f10       _echo_supp_get_stat        00422f10 f   pjmedia-i386-win32-vc14-debug:echo_suppress.obj
 0001:00022060       _echo_supp_reset           00423060 f   pjmedia-i386-win32-vc14-debug:echo_suppress.obj
 0001:00022190       _echo_supp_cancel_echo     00423190 f   pjmedia-i386-win32-vc14-debug:echo_suppress.obj
 0001:00022680       _echo_supp_soft_reset      00423680 f   pjmedia-i386-win32-vc14-debug:echo_suppress.obj
 0001:00023720       _speex_aec_create          00424720 f   pjmedia-i386-win32-vc14-debug:echo_speex.obj
 0001:00023950       _speex_aec_destroy         00424950 f   pjmedia-i386-win32-vc14-debug:echo_speex.obj
 0001:00023a50       _speex_aec_reset           00424a50 f   pjmedia-i386-win32-vc14-debug:echo_speex.obj
 0001:00023a70       _speex_aec_cancel_echo     00424a70 f   pjmedia-i386-win32-vc14-debug:echo_speex.obj
 0001:00023c00       _speex_aec_playback        00424c00 f   pjmedia-i386-win32-vc14-debug:echo_speex.obj
 0001:00023ca0       _speex_aec_capture         00424ca0 f   pjmedia-i386-win32-vc14-debug:echo_speex.obj
 0001:00023fe0       _pjmedia_delay_buf_create  00424fe0 f   pjmedia-i386-win32-vc14-debug:delaybuf.obj
 0001:000241d0       _pjmedia_delay_buf_put     004251d0 f   pjmedia-i386-win32-vc14-debug:delaybuf.obj
 0001:000243a0       _pjmedia_delay_buf_get     004253a0 f   pjmedia-i386-win32-vc14-debug:delaybuf.obj
 0001:00024590       _pjmedia_delay_buf_reset   00425590 f   pjmedia-i386-win32-vc14-debug:delaybuf.obj
 0001:00024640       _pjmedia_delay_buf_destroy 00425640 f   pjmedia-i386-win32-vc14-debug:delaybuf.obj
 0001:00025170       _pjmedia_silence_det_create 00426170 f   pjmedia-i386-win32-vc14-debug:silencedet.obj
 0001:00025230       _pjmedia_silence_det_set_name 00426230 f   pjmedia-i386-win32-vc14-debug:silencedet.obj
 0001:000252a0       _pjmedia_silence_det_set_fixed 004262a0 f   pjmedia-i386-win32-vc14-debug:silencedet.obj
 0001:00025300       _pjmedia_silence_det_set_adaptive 00426300 f   pjmedia-i386-win32-vc14-debug:silencedet.obj
 0001:00025360       _pjmedia_silence_det_set_params 00426360 f   pjmedia-i386-win32-vc14-debug:silencedet.obj
 0001:000253e0       _pjmedia_silence_det_disable 004263e0 f   pjmedia-i386-win32-vc14-debug:silencedet.obj
 0001:00025420       _pjmedia_silence_det_detect 00426420 f   pjmedia-i386-win32-vc14-debug:silencedet.obj
 0001:00025460       _pjmedia_calc_avg_signal   00426460 f   pjmedia-i386-win32-vc14-debug:silencedet.obj
 0001:000254e0       _pjmedia_silence_det_apply 004264e0 f   pjmedia-i386-win32-vc14-debug:silencedet.obj
 0001:00025990       _pjmedia_wsola_create      00426990 f   pjmedia-i386-win32-vc14-debug:wsola.obj
 0001:00025ce0       _pjmedia_wsola_set_max_expand 00426ce0 f   pjmedia-i386-win32-vc14-debug:wsola.obj
 0001:00025d30       _pjmedia_wsola_destroy     00426d30 f   pjmedia-i386-win32-vc14-debug:wsola.obj
 0001:00025d40       _pjmedia_wsola_reset       00426d40 f   pjmedia-i386-win32-vc14-debug:wsola.obj
 0001:00025de0       _pjmedia_wsola_save        00426de0 f   pjmedia-i386-win32-vc14-debug:wsola.obj
 0001:00026220       _pjmedia_wsola_generate    00427220 f   pjmedia-i386-win32-vc14-debug:wsola.obj
 0001:00026310       _pjmedia_wsola_discard     00427310 f   pjmedia-i386-win32-vc14-debug:wsola.obj
 0001:00027db0       _pj_getopt                 00428db0 f   pjlib-util-i386-win32-vc14-debug:getopt.obj
 0001:00027dd0       _pj_getopt_long            00428dd0 f   pjlib-util-i386-win32-vc14-debug:getopt.obj
 0001:00028e30       _pj_cis_buf_init           00429e30 f   pjlib-util-i386-win32-vc14-debug:scanner.obj
 0001:00028e60       _pj_cis_init               00429e60 f   pjlib-util-i386-win32-vc14-debug:scanner.obj
 0001:00028ee0       _pj_cis_dup                00429ee0 f   pjlib-util-i386-win32-vc14-debug:scanner.obj
 0001:00028fa0       _pj_cis_add_range          00429fa0 f   pjlib-util-i386-win32-vc14-debug:scanner.obj
 0001:00029000       _pj_cis_add_alpha          0042a000 f   pjlib-util-i386-win32-vc14-debug:scanner.obj
 0001:00029030       _pj_cis_add_num            0042a030 f   pjlib-util-i386-win32-vc14-debug:scanner.obj
 0001:00029050       _pj_cis_add_str            0042a050 f   pjlib-util-i386-win32-vc14-debug:scanner.obj
 0001:000290a0       _pj_cis_add_cis            0042a0a0 f   pjlib-util-i386-win32-vc14-debug:scanner.obj
 0001:00029110       _pj_cis_del_range          0042a110 f   pjlib-util-i386-win32-vc14-debug:scanner.obj
 0001:00029150       _pj_cis_del_str            0042a150 f   pjlib-util-i386-win32-vc14-debug:scanner.obj
 0001:000291a0       _pj_cis_invert             0042a1a0 f   pjlib-util-i386-win32-vc14-debug:scanner.obj
 0001:00029230       _pj_scan_init              0042a230 f   pjlib-util-i386-win32-vc14-debug:scanner.obj
 0001:000292a0       _pj_scan_fini              0042a2a0 f   pjlib-util-i386-win32-vc14-debug:scanner.obj
 0001:000292c0       _pj_scan_peek              0042a2c0 f   pjlib-util-i386-win32-vc14-debug:scanner.obj
 0001:00029330       _pj_scan_peek_n            0042a330 f   pjlib-util-i386-win32-vc14-debug:scanner.obj
 0001:00029380       _pj_scan_peek_until        0042a380 f   pjlib-util-i386-win32-vc14-debug:scanner.obj
 0001:00029400       _pj_scan_get               0042a400 f   pjlib-util-i386-win32-vc14-debug:scanner.obj
 0001:000294c0       _pj_scan_get_unescape      0042a4c0 f   pjlib-util-i386-win32-vc14-debug:scanner.obj
 0001:000296e0       _pj_scan_get_quote         0042a6e0 f   pjlib-util-i386-win32-vc14-debug:scanner.obj
 0001:00029710       _pj_scan_get_quotes        0042a710 f   pjlib-util-i386-win32-vc14-debug:scanner.obj
 0001:000298c0       _pj_scan_get_n             0042a8c0 f   pjlib-util-i386-win32-vc14-debug:scanner.obj
 0001:00029930       _pj_scan_get_char          0042a930 f   pjlib-util-i386-win32-vc14-debug:scanner.obj
 0001:00029990       _pj_scan_get_until         0042a990 f   pjlib-util-i386-win32-vc14-debug:scanner.obj
 0001:00029a30       _pj_scan_get_until_ch      0042aa30 f   pjlib-util-i386-win32-vc14-debug:scanner.obj
 0001:00029ac0       _pj_scan_get_until_chr     0042aac0 f   pjlib-util-i386-win32-vc14-debug:scanner.obj
 0001:00029b70       _pj_scan_advance_n         0042ab70 f   pjlib-util-i386-win32-vc14-debug:scanner.obj
 0001:00029bd0       _pj_scan_strcmp            0042abd0 f   pjlib-util-i386-win32-vc14-debug:scanner.obj
 0001:00029c10       _pj_scan_stricmp           0042ac10 f   pjlib-util-i386-win32-vc14-debug:scanner.obj
 0001:00029c50       _pj_scan_stricmp_alnum     0042ac50 f   pjlib-util-i386-win32-vc14-debug:scanner.obj
 0001:00029c90       _pj_scan_get_newline       0042ac90 f   pjlib-util-i386-win32-vc14-debug:scanner.obj
 0001:00029d20       _pj_scan_skip_whitespace   0042ad20 f   pjlib-util-i386-win32-vc14-debug:scanner.obj
 0001:00029f10       _pj_scan_skip_line         0042af10 f   pjlib-util-i386-win32-vc14-debug:scanner.obj
 0001:00029f70       _pj_scan_save_state        0042af70 f   pjlib-util-i386-win32-vc14-debug:scanner.obj
 0001:00029fa0       _pj_scan_restore_state     0042afa0 f   pjlib-util-i386-win32-vc14-debug:scanner.obj
 0001:0002a5a0       _pj_base64_encode          0042b5a0 f   pjlib-util-i386-win32-vc14-debug:base64.obj
 0001:0002a750       _pj_base64_decode          0042b750 f   pjlib-util-i386-win32-vc14-debug:base64.obj
 0001:0002ad00       _pj_init                   0042bd00 f   pjlib-i386-win32-vc14-debug:os_core_win32.obj
 0001:0002aee0       _pj_shutdown               0042bee0 f   pjlib-i386-win32-vc14-debug:os_core_win32.obj
 0001:0002b000       _pj_atexit                 0042c000 f   pjlib-i386-win32-vc14-debug:os_core_win32.obj
 0001:0002b040       _pj_getpid                 0042c040 f   pjlib-i386-win32-vc14-debug:os_core_win32.obj
 0001:0002b060       _pj_thread_create          0042c060 f   pjlib-i386-win32-vc14-debug:os_core_win32.obj
 0001:0002b220       _pj_thread_register        0042c220 f   pjlib-i386-win32-vc14-debug:os_core_win32.obj
 0001:0002b340       _pj_thread_is_registered   0042c340 f   pjlib-i386-win32-vc14-debug:os_core_win32.obj
 0001:0002b370       _pj_thread_get_prio        0042c370 f   pjlib-i386-win32-vc14-debug:os_core_win32.obj
 0001:0002b390       _pj_thread_set_prio        0042c390 f   pjlib-i386-win32-vc14-debug:os_core_win32.obj
 0001:0002b460       _pj_thread_get_prio_min    0042c460 f   pjlib-i386-win32-vc14-debug:os_core_win32.obj
 0001:0002b470       _pj_thread_get_prio_max    0042c470 f   pjlib-i386-win32-vc14-debug:os_core_win32.obj
 0001:0002b480       _pj_thread_get_os_handle   0042c480 f   pjlib-i386-win32-vc14-debug:os_core_win32.obj
 0001:0002b4c0       _pj_thread_get_name        0042c4c0 f   pjlib-i386-win32-vc14-debug:os_core_win32.obj
 0001:0002b520       _pj_thread_resume          0042c520 f   pjlib-i386-win32-vc14-debug:os_core_win32.obj
 0001:0002b5d0       _pj_thread_this            0042c5d0 f   pjlib-i386-win32-vc14-debug:os_core_win32.obj
 0001:0002b620       _pj_thread_join            0042c620 f   pjlib-i386-win32-vc14-debug:os_core_win32.obj
 0001:0002b700       _pj_thread_destroy         0042c700 f   pjlib-i386-win32-vc14-debug:os_core_win32.obj
 0001:0002b7b0       _pj_thread_sleep           0042c7b0 f   pjlib-i386-win32-vc14-debug:os_core_win32.obj
 0001:0002b7e0       _pj_thread_check_stack     0042c7e0 f   pjlib-i386-win32-vc14-debug:os_core_win32.obj
 0001:0002b8a0       _pj_thread_get_stack_max_usage 0042c8a0 f   pjlib-i386-win32-vc14-debug:os_core_win32.obj
 0001:0002b8b0       _pj_thread_get_stack_info  0042c8b0 f   pjlib-i386-win32-vc14-debug:os_core_win32.obj
 0001:0002b8f0       _pj_thread_local_alloc     0042c8f0 f   pjlib-i386-win32-vc14-debug:os_core_win32.obj
 0001:0002b980       _pj_thread_local_free      0042c980 f   pjlib-i386-win32-vc14-debug:os_core_win32.obj
 0001:0002b9b0       _pj_thread_local_set       0042c9b0 f   pjlib-i386-win32-vc14-debug:os_core_win32.obj
 0001:0002ba20       _pj_thread_local_get       0042ca20 f   pjlib-i386-win32-vc14-debug:os_core_win32.obj
 0001:0002ba30       _pj_atomic_create          0042ca30 f   pjlib-i386-win32-vc14-debug:os_core_win32.obj
 0001:0002ba70       _pj_atomic_destroy         0042ca70 f   pjlib-i386-win32-vc14-debug:os_core_win32.obj
 0001:0002bab0       _pj_atomic_set             0042cab0 f   pjlib-i386-win32-vc14-debug:os_core_win32.obj
 0001:0002bb00       _pj_atomic_get             0042cb00 f   pjlib-i386-win32-vc14-debug:os_core_win32.obj
 0001:0002bb50       _pj_atomic_inc             0042cb50 f   pjlib-i386-win32-vc14-debug:os_core_win32.obj
 0001:0002bb90       _pj_atomic_inc_and_get     0042cb90 f   pjlib-i386-win32-vc14-debug:os_core_win32.obj
 0001:0002bbc0       _pj_atomic_dec             0042cbc0 f   pjlib-i386-win32-vc14-debug:os_core_win32.obj
 0001:0002bc00       _pj_atomic_dec_and_get     0042cc00 f   pjlib-i386-win32-vc14-debug:os_core_win32.obj
 0001:0002bc30       _pj_atomic_add             0042cc30 f   pjlib-i386-win32-vc14-debug:os_core_win32.obj
 0001:0002bc70       _pj_atomic_add_and_get     0042cc70 f   pjlib-i386-win32-vc14-debug:os_core_win32.obj
 0001:0002bc90       _pj_mutex_create           0042cc90 f   pjlib-i386-win32-vc14-debug:os_core_win32.obj
 0001:0002bd20       _pj_mutex_create_simple    0042cd20 f   pjlib-i386-win32-vc14-debug:os_core_win32.obj
 0001:0002bd40       _pj_mutex_create_recursive 0042cd40 f   pjlib-i386-win32-vc14-debug:os_core_win32.obj
 0001:0002bd60       _pj_mutex_lock             0042cd60 f   pjlib-i386-win32-vc14-debug:os_core_win32.obj
 0001:0002bdf0       _pj_mutex_unlock           0042cdf0 f   pjlib-i386-win32-vc14-debug:os_core_win32.obj
 0001:0002bea0       _pj_mutex_trylock          0042cea0 f   pjlib-i386-win32-vc14-debug:os_core_win32.obj
 0001:0002bf50       _pj_mutex_destroy          0042cf50 f   pjlib-i386-win32-vc14-debug:os_core_win32.obj
 0001:0002bfb0       _pj_mutex_is_locked        0042cfb0 f   pjlib-i386-win32-vc14-debug:os_core_win32.obj
 0001:0002bfe0       _pj_rwmutex_create         0042cfe0 f   pjlib-i386-win32-vc14-debug:os_core_win32.obj
 0001:0002c0b0       _pj_rwmutex_lock_read      0042d0b0 f   pjlib-i386-win32-vc14-debug:os_core_win32.obj
 0001:0002c180       _pj_rwmutex_lock_write     0042d180 f   pjlib-i386-win32-vc14-debug:os_core_win32.obj
 0001:0002c1c0       _pj_rwmutex_unlock_read    0042d1c0 f   pjlib-i386-win32-vc14-debug:os_core_win32.obj
 0001:0002c290       _pj_rwmutex_unlock_write   0042d290 f   pjlib-i386-win32-vc14-debug:os_core_win32.obj
 0001:0002c300       _pj_rwmutex_destroy        0042d300 f   pjlib-i386-win32-vc14-debug:os_core_win32.obj
 0001:0002c360       _pj_enter_critical_section 0042d360 f   pjlib-i386-win32-vc14-debug:os_core_win32.obj
 0001:0002c380       _pj_leave_critical_section 0042d380 f   pjlib-i386-win32-vc14-debug:os_core_win32.obj
 0001:0002c3a0       _pj_sem_create             0042d3a0 f   pjlib-i386-win32-vc14-debug:os_core_win32.obj
 0001:0002c4e0       _pj_sem_wait               0042d4e0 f   pjlib-i386-win32-vc14-debug:os_core_win32.obj
 0001:0002c540       _pj_sem_trywait            0042d540 f   pjlib-i386-win32-vc14-debug:os_core_win32.obj
 0001:0002c5a0       _pj_sem_post               0042d5a0 f   pjlib-i386-win32-vc14-debug:os_core_win32.obj
 0001:0002c650       _pj_sem_destroy            0042d650 f   pjlib-i386-win32-vc14-debug:os_core_win32.obj
 0001:0002c700       _pj_event_create           0042d700 f   pjlib-i386-win32-vc14-debug:os_core_win32.obj
 0001:0002c880       _pj_event_wait             0042d880 f   pjlib-i386-win32-vc14-debug:os_core_win32.obj
 0001:0002c8d0       _pj_event_trywait          0042d8d0 f   pjlib-i386-win32-vc14-debug:os_core_win32.obj
 0001:0002c920       _pj_event_set              0042d920 f   pjlib-i386-win32-vc14-debug:os_core_win32.obj
 0001:0002c9d0       _pj_event_pulse            0042d9d0 f   pjlib-i386-win32-vc14-debug:os_core_win32.obj
 0001:0002ca80       _pj_event_reset            0042da80 f   pjlib-i386-win32-vc14-debug:os_core_win32.obj
 0001:0002cb30       _pj_event_destroy          0042db30 f   pjlib-i386-win32-vc14-debug:os_core_win32.obj
 0001:0002cbe0       _pj_term_set_color         0042dbe0 f   pjlib-i386-win32-vc14-debug:os_core_win32.obj
 0001:0002cc80       _pj_term_get_color         0042dc80 f   pjlib-i386-win32-vc14-debug:os_core_win32.obj
 0001:0002ccd0       _pj_run_app                0042dcd0 f   pjlib-i386-win32-vc14-debug:os_core_win32.obj
 0001:0002ccf0       _pj_thread_init            0042dcf0 f   pjlib-i386-win32-vc14-debug:os_core_win32.obj
 0001:0002da40       _pj_pool_create            0042ea40 f   pjlib-i386-win32-vc14-debug:pool.obj
 0001:0002da70       _pj_pool_release           0042ea70 f   pjlib-i386-win32-vc14-debug:pool.obj
 0001:0002daa0       _pj_pool_safe_release      0042eaa0 f   pjlib-i386-win32-vc14-debug:pool.obj
 0001:0002dad0       _pj_pool_secure_release    0042ead0 f   pjlib-i386-win32-vc14-debug:pool.obj
 0001:0002db50       _pj_pool_getobjname        0042eb50 f   pjlib-i386-win32-vc14-debug:pool.obj
 0001:0002db60       _pj_pool_reset             0042eb60 f   pjlib-i386-win32-vc14-debug:pool.obj
 0001:0002db80       _pj_pool_get_capacity      0042eb80 f   pjlib-i386-win32-vc14-debug:pool.obj
 0001:0002db90       _pj_pool_get_used_size     0042eb90 f   pjlib-i386-win32-vc14-debug:pool.obj
 0001:0002dbe0       _pj_pool_alloc             0042ebe0 f   pjlib-i386-win32-vc14-debug:pool.obj
 0001:0002dc20       _pj_pool_calloc            0042ec20 f   pjlib-i386-win32-vc14-debug:pool.obj
 0001:0002dc60       _pj_pool_alloc_from_block  0042ec60 f   pjlib-i386-win32-vc14-debug:pool.obj
 0001:0002dcb0       _pj_pool_allocate_find     0042ecb0 f   pjlib-i386-win32-vc14-debug:pool.obj
 0001:0002ddd0       _pj_NO_MEMORY_EXCEPTION    0042edd0 f   pjlib-i386-win32-vc14-debug:pool.obj
 0001:0002dde0       _pj_pool_create_int        0042ede0 f   pjlib-i386-win32-vc14-debug:pool.obj
 0001:0002df00       _pj_pool_init_int          0042ef00 f   pjlib-i386-win32-vc14-debug:pool.obj
 0001:0002dfa0       _pj_pool_destroy_int       0042efa0 f   pjlib-i386-win32-vc14-debug:pool.obj
 0001:0002e3d0       _pj_caching_pool_init      0042f3d0 f   pjlib-i386-win32-vc14-debug:pool_caching.obj
 0001:0002e4d0       _pj_caching_pool_destroy   0042f4d0 f   pjlib-i386-win32-vc14-debug:pool_caching.obj
 0001:0002edd0       _pj_strerror               0042fdd0 f   pjlib-i386-win32-vc14-debug:errno.obj
 0001:0002ef60       _pj_perror                 0042ff60 f   pjlib-i386-win32-vc14-debug:errno.obj
 0001:0002efa0       _pj_register_strerror      0042ffa0 f   pjlib-i386-win32-vc14-debug:errno.obj
 0001:0002f150       _pj_errno_clear_handlers   00430150 f   pjlib-i386-win32-vc14-debug:errno.obj
 0001:0002f170       _pj_perror_1               00430170 f   pjlib-i386-win32-vc14-debug:errno.obj
 0001:0002f1a0       _pj_perror_2               004301a0 f   pjlib-i386-win32-vc14-debug:errno.obj
 0001:0002f1d0       _pj_perror_3               004301d0 f   pjlib-i386-win32-vc14-debug:errno.obj
 0001:0002f200       _pj_perror_4               00430200 f   pjlib-i386-win32-vc14-debug:errno.obj
 0001:0002f230       _pj_perror_5               00430230 f   pjlib-i386-win32-vc14-debug:errno.obj
 0001:0002f5c0       _pj_log                    004305c0 f   pjlib-i386-win32-vc14-debug:log.obj
 0001:0002fe00       _pj_log_set_log_func       00430e00 f   pjlib-i386-win32-vc14-debug:log.obj
 0001:0002fe10       _pj_log_get_log_func       00430e10 f   pjlib-i386-win32-vc14-debug:log.obj
 0001:0002fe20       _pj_log_set_level          00430e20 f   pjlib-i386-win32-vc14-debug:log.obj
 0001:0002fe30       _pj_log_get_level          00430e30 f   pjlib-i386-win32-vc14-debug:log.obj
 0001:0002fe40       _pj_log_set_decor          00430e40 f   pjlib-i386-win32-vc14-debug:log.obj
 0001:0002fe50       _pj_log_get_decor          00430e50 f   pjlib-i386-win32-vc14-debug:log.obj
 0001:0002fe60       _pj_log_add_indent         00430e60 f   pjlib-i386-win32-vc14-debug:log.obj
 0001:0002fe80       _pj_log_push_indent        00430e80 f   pjlib-i386-win32-vc14-debug:log.obj
 0001:0002fe90       _pj_log_pop_indent         00430e90 f   pjlib-i386-win32-vc14-debug:log.obj
 0001:0002fea0       _pj_log_set_color          00430ea0 f   pjlib-i386-win32-vc14-debug:log.obj
 0001:0002ff90       _pj_log_get_color          00430f90 f   pjlib-i386-win32-vc14-debug:log.obj
 0001:00030000       _pj_log_init               00431000 f   pjlib-i386-win32-vc14-debug:log.obj
 0001:00030080       _pj_log_1                  00431080 f   pjlib-i386-win32-vc14-debug:log.obj
 0001:000300b0       _pj_log_2                  004310b0 f   pjlib-i386-win32-vc14-debug:log.obj
 0001:000300e0       _pj_log_3                  004310e0 f   pjlib-i386-win32-vc14-debug:log.obj
 0001:00030110       _pj_log_4                  00431110 f   pjlib-i386-win32-vc14-debug:log.obj
 0001:00030140       _pj_log_5                  00431140 f   pjlib-i386-win32-vc14-debug:log.obj
 0001:000306a0       _pj_pool_factory_get_default_policy 004316a0 f   pjlib-i386-win32-vc14-debug:pool_policy_malloc.obj
 0001:000307d0       _pj_str                    004317d0 f   pjlib-i386-win32-vc14-debug:string.obj
 0001:00030810       _pj_strassign              00431810 f   pjlib-i386-win32-vc14-debug:string.obj
 0001:00030830       _pj_strcpy                 00431830 f   pjlib-i386-win32-vc14-debug:string.obj
 0001:00030870       _pj_strcpy2                00431870 f   pjlib-i386-win32-vc14-debug:string.obj
 0001:000308d0       _pj_strncpy                004318d0 f   pjlib-i386-win32-vc14-debug:string.obj
 0001:00030930       _pj_strncpy_with_null      00431930 f   pjlib-i386-win32-vc14-debug:string.obj
 0001:000309b0       _pj_strdup                 004319b0 f   pjlib-i386-win32-vc14-debug:string.obj
 0001:00030a10       _pj_strdup_with_null       00431a10 f   pjlib-i386-win32-vc14-debug:string.obj
 0001:00030a80       _pj_strdup2                00431a80 f   pjlib-i386-win32-vc14-debug:string.obj
 0001:00030b00       _pj_strdup2_with_null      00431b00 f   pjlib-i386-win32-vc14-debug:string.obj
 0001:00030b80       _pj_strdup3                00431b80 f   pjlib-i386-win32-vc14-debug:string.obj
 0001:00030bb0       _pj_strcmp                 00431bb0 f   pjlib-i386-win32-vc14-debug:string.obj
 0001:00030c90       _pj_strcmp2                00431c90 f   pjlib-i386-win32-vc14-debug:string.obj
 0001:00030ce0       _pj_strncmp                00431ce0 f   pjlib-i386-win32-vc14-debug:string.obj
 0001:00030d40       _pj_strncmp2               00431d40 f   pjlib-i386-win32-vc14-debug:string.obj
 0001:00030d90       _pj_stricmp                00431d90 f   pjlib-i386-win32-vc14-debug:string.obj
 0001:00030e70       _pj_stricmp2               00431e70 f   pjlib-i386-win32-vc14-debug:string.obj
 0001:00030ec0       _pj_strnicmp               00431ec0 f   pjlib-i386-win32-vc14-debug:string.obj
 0001:00030f20       _pj_strnicmp2              00431f20 f   pjlib-i386-win32-vc14-debug:string.obj
 0001:00030f70       _pj_strcat                 00431f70 f   pjlib-i386-win32-vc14-debug:string.obj
 0001:00030fc0       _pj_strcat2                00431fc0 f   pjlib-i386-win32-vc14-debug:string.obj
 0001:00031020       _pj_strspn                 00432020 f   pjlib-i386-win32-vc14-debug:string.obj
 0001:000310b0       _pj_strspn2                004320b0 f   pjlib-i386-win32-vc14-debug:string.obj
 0001:00031130       _pj_strcspn                00432130 f   pjlib-i386-win32-vc14-debug:string.obj
 0001:000311a0       _pj_strcspn2               004321a0 f   pjlib-i386-win32-vc14-debug:string.obj
 0001:00031210       _pj_strtok                 00432210 f   pjlib-i386-win32-vc14-debug:string.obj
 0001:000312c0       _pj_strtok2                004322c0 f   pjlib-i386-win32-vc14-debug:string.obj
 0001:00031370       _pj_strstr                 00432370 f   pjlib-i386-win32-vc14-debug:string.obj
 0001:000313e0       _pj_stristr                004323e0 f   pjlib-i386-win32-vc14-debug:string.obj
 0001:00031450       _pj_strltrim               00432450 f   pjlib-i386-win32-vc14-debug:string.obj
 0001:000314c0       _pj_strrtrim               004324c0 f   pjlib-i386-win32-vc14-debug:string.obj
 0001:00031530       _pj_strtrim                00432530 f   pjlib-i386-win32-vc14-debug:string.obj
 0001:00031550       _pj_create_random_string   00432550 f   pjlib-i386-win32-vc14-debug:string.obj
 0001:00031650       _pj_strtol                 00432650 f   pjlib-i386-win32-vc14-debug:string.obj
 0001:00031710       _pj_strtol2                00432710 f   pjlib-i386-win32-vc14-debug:string.obj
 0001:000318b0       _pj_strtoul                004328b0 f   pjlib-i386-win32-vc14-debug:string.obj
 0001:00031930       _pj_strtoul2               00432930 f   pjlib-i386-win32-vc14-debug:string.obj
 0001:00031a60       _pj_strtoul3               00432a60 f   pjlib-i386-win32-vc14-debug:string.obj
 0001:00031cc0       _pj_strtof                 00432cc0 f   pjlib-i386-win32-vc14-debug:string.obj
 0001:00031e30       _pj_utoa                   00432e30 f   pjlib-i386-win32-vc14-debug:string.obj
 0001:00031e50       _pj_utoa_pad               00432e50 f   pjlib-i386-win32-vc14-debug:string.obj
 0001:00032680       _pj_get_os_error           00433680 f   pjlib-i386-win32-vc14-debug:os_error_win32.obj
 0001:000326b0       _pj_set_os_error           004336b0 f   pjlib-i386-win32-vc14-debug:os_error_win32.obj
 0001:000326e0       _pj_get_netos_error        004336e0 f   pjlib-i386-win32-vc14-debug:os_error_win32.obj
 0001:00032710       _pj_set_netos_error        00433710 f   pjlib-i386-win32-vc14-debug:os_error_win32.obj
 0001:00032760       _platform_strerror         00433760 f   pjlib-i386-win32-vc14-debug:os_error_win32.obj
 0001:00032980       _pj_inet_ntop2             00433980 f   pjlib-i386-win32-vc14-debug:sock_common.obj
 0001:000329c0       _pj_sockaddr_print         004339c0 f   pjlib-i386-win32-vc14-debug:sock_common.obj
 0001:00032ad0       _pj_inet_addr              00433ad0 f   pjlib-i386-win32-vc14-debug:sock_common.obj
 0001:00032af0       _pj_inet_addr2             00433af0 f   pjlib-i386-win32-vc14-debug:sock_common.obj
 0001:00032b20       _pj_sockaddr_in_init       00433b20 f   pjlib-i386-win32-vc14-debug:sock_common.obj
 0001:00032ba0       _pj_sockaddr_init          00433ba0 f   pjlib-i386-win32-vc14-debug:sock_common.obj
 0001:00032c60       _pj_sockaddr_cmp           00433c60 f   pjlib-i386-win32-vc14-debug:sock_common.obj
 0001:00032d30       _pj_sockaddr_get_addr      00433d30 f   pjlib-i386-win32-vc14-debug:sock_common.obj
 0001:00032dd0       _pj_sockaddr_has_addr      00433dd0 f   pjlib-i386-win32-vc14-debug:sock_common.obj
 0001:00032e90       _pj_sockaddr_get_addr_len  00433e90 f   pjlib-i386-win32-vc14-debug:sock_common.obj
 0001:00032f30       _pj_sockaddr_get_len       00433f30 f   pjlib-i386-win32-vc14-debug:sock_common.obj
 0001:00032fd0       _pj_sockaddr_copy_addr     00433fd0 f   pjlib-i386-win32-vc14-debug:sock_common.obj
 0001:00033020       _pj_sockaddr_cp            00434020 f   pjlib-i386-win32-vc14-debug:sock_common.obj
 0001:00033050       _pj_sockaddr_synthesize    00434050 f   pjlib-i386-win32-vc14-debug:sock_common.obj
 0001:00033180       _pj_sockaddr_in_get_addr   00434180 f   pjlib-i386-win32-vc14-debug:sock_common.obj
 0001:000331a0       _pj_sockaddr_in_set_addr   004341a0 f   pjlib-i386-win32-vc14-debug:sock_common.obj
 0001:000331c0       _pj_sockaddr_in_set_str_addr 004341c0 f   pjlib-i386-win32-vc14-debug:sock_common.obj
 0001:00033300       _pj_sockaddr_set_str_addr  00434300 f   pjlib-i386-win32-vc14-debug:sock_common.obj
 0001:00033440       _pj_sockaddr_get_port      00434440 f   pjlib-i386-win32-vc14-debug:sock_common.obj
 0001:000334f0       _pj_sockaddr_in_get_port   004344f0 f   pjlib-i386-win32-vc14-debug:sock_common.obj
 0001:00033510       _pj_sockaddr_set_port      00434510 f   pjlib-i386-win32-vc14-debug:sock_common.obj
 0001:000335b0       _pj_sockaddr_in_set_port   004345b0 f   pjlib-i386-win32-vc14-debug:sock_common.obj
 0001:000335d0       _pj_sockaddr_parse         004345d0 f   pjlib-i386-win32-vc14-debug:sock_common.obj
 0001:00033710       _pj_sockaddr_parse2        00434710 f   pjlib-i386-win32-vc14-debug:sock_common.obj
 0001:00033ab0       _pj_gethostaddr            00434ab0 f   pjlib-i386-win32-vc14-debug:sock_common.obj
 0001:00033af0       _pj_sock_bind_random       00434af0 f   pjlib-i386-win32-vc14-debug:sock_common.obj
 0001:00033c20       _pj_sock_setsockopt_sobuf  00434c20 f   pjlib-i386-win32-vc14-debug:sock_common.obj
 0001:00033dd0       _pj_addr_str_print         00434dd0 f   pjlib-i386-win32-vc14-debug:sock_common.obj
 0001:00033f60       _pj_gethostip              00434f60 f   pjlib-i386-win32-vc14-debug:sock_common.obj
 0001:00034990       _pj_getipinterface         00435990 f   pjlib-i386-win32-vc14-debug:sock_common.obj
 0001:00034b70       _pj_getdefaultipinterface  00435b70 f   pjlib-i386-win32-vc14-debug:sock_common.obj
 0001:00035490       _pj_list_insert_before     00436490 f   pjlib-i386-win32-vc14-debug:list.obj
 0001:000354b0       _pj_list_insert_nodes_before 004364b0 f   pjlib-i386-win32-vc14-debug:list.obj
 0001:000354d0       _pj_list_insert_after      004364d0 f   pjlib-i386-win32-vc14-debug:list.obj
 0001:00035500       _pj_list_insert_nodes_after 00436500 f   pjlib-i386-win32-vc14-debug:list.obj
 0001:00035540       _pj_list_merge_first       00436540 f   pjlib-i386-win32-vc14-debug:list.obj
 0001:00035590       _pj_list_merge_last        00436590 f   pjlib-i386-win32-vc14-debug:list.obj
 0001:000355e0       _pj_list_erase             004365e0 f   pjlib-i386-win32-vc14-debug:list.obj
 0001:00035610       _pj_list_find_node         00436610 f   pjlib-i386-win32-vc14-debug:list.obj
 0001:00035660       _pj_list_search            00436660 f   pjlib-i386-win32-vc14-debug:list.obj
 0001:000356c0       _pj_list_size              004366c0 f   pjlib-i386-win32-vc14-debug:list.obj
 0001:000357f0       _pj_gettimeofday           004367f0 f   pjlib-i386-win32-vc14-debug:os_time_win32.obj
 0001:000358a0       _pj_time_decode            004368a0 f   pjlib-i386-win32-vc14-debug:os_time_win32.obj
 0001:00035970       _pj_time_encode            00436970 f   pjlib-i386-win32-vc14-debug:os_time_win32.obj
 0001:00035bd0       _pj_ioqueue_name           00436bd0 f   pjlib-i386-win32-vc14-debug:ioqueue_select.obj
 0001:00035be0       _pj_ioqueue_create         00436be0 f   pjlib-i386-win32-vc14-debug:ioqueue_select.obj
 0001:00035e60       _pj_ioqueue_destroy        00436e60 f   pjlib-i386-win32-vc14-debug:ioqueue_select.obj
 0001:00035f60       _pj_ioqueue_set_lock       00436f60 f   pjlib-i386-win32-vc14-debug:ioqueue_select.obj
 0001:00035fd0       _pj_ioqueue_set_default_concurrency 00436fd0 f   pjlib-i386-win32-vc14-debug:ioqueue_select.obj
 0001:00036010       _pj_ioqueue_register_sock  00437010 f   pjlib-i386-win32-vc14-debug:ioqueue_select.obj
 0001:00036040       _pj_ioqueue_register_sock2 00437040 f   pjlib-i386-win32-vc14-debug:ioqueue_select.obj
 0001:00036260       _pj_ioqueue_unregister     00437260 f   pjlib-i386-win32-vc14-debug:ioqueue_select.obj
 0001:00036430       _pj_ioqueue_get_user_data  00437430 f   pjlib-i386-win32-vc14-debug:ioqueue_select.obj
 0001:00036470       _pj_ioqueue_set_user_data  00437470 f   pjlib-i386-win32-vc14-debug:ioqueue_select.obj
 0001:000364c0       _pj_ioqueue_set_concurrency 004374c0 f   pjlib-i386-win32-vc14-debug:ioqueue_select.obj
 0001:00036540       _pj_ioqueue_lock_key       00437540 f   pjlib-i386-win32-vc14-debug:ioqueue_select.obj
 0001:00036570       _pj_ioqueue_trylock_key    00437570 f   pjlib-i386-win32-vc14-debug:ioqueue_select.obj
 0001:000365a0       _pj_ioqueue_unlock_key     004375a0 f   pjlib-i386-win32-vc14-debug:ioqueue_select.obj
 0001:000365d0       _pj_ioqueue_op_key_init    004375d0 f   pjlib-i386-win32-vc14-debug:ioqueue_select.obj
 0001:000365f0       _pj_ioqueue_is_pending     004375f0 f   pjlib-i386-win32-vc14-debug:ioqueue_select.obj
 0001:00036620       _pj_ioqueue_post_completion 00437620 f   pjlib-i386-win32-vc14-debug:ioqueue_select.obj
 0001:000367a0       _pj_ioqueue_accept         004377a0 f   pjlib-i386-win32-vc14-debug:ioqueue_select.obj
 0001:00036990       _pj_ioqueue_connect        00437990 f   pjlib-i386-win32-vc14-debug:ioqueue_select.obj
 0001:00036ac0       _pj_ioqueue_poll           00437ac0 f   pjlib-i386-win32-vc14-debug:ioqueue_select.obj
 0001:00037070       _pj_ioqueue_recv           00438070 f   pjlib-i386-win32-vc14-debug:ioqueue_select.obj
 0001:00037230       _pj_ioqueue_recvfrom       00438230 f   pjlib-i386-win32-vc14-debug:ioqueue_select.obj
 0001:00037410       _pj_ioqueue_send           00438410 f   pjlib-i386-win32-vc14-debug:ioqueue_select.obj
 0001:000375e0       _pj_ioqueue_sendto         004385e0 f   pjlib-i386-win32-vc14-debug:ioqueue_select.obj
 0001:00037c30       _ioqueue_dispatch_write_event 00438c30 f   pjlib-i386-win32-vc14-debug:ioqueue_select.obj
 0001:00037ff0       _ioqueue_dispatch_read_event 00438ff0 f   pjlib-i386-win32-vc14-debug:ioqueue_select.obj
 0001:00038320       _ioqueue_dispatch_exception_event 00439320 f   pjlib-i386-win32-vc14-debug:ioqueue_select.obj
 0001:000391c0       _pj_ntohs                  0043a1c0 f   pjlib-i386-win32-vc14-debug:sock_bsd.obj
 0001:000391d0       _pj_htons                  0043a1d0 f   pjlib-i386-win32-vc14-debug:sock_bsd.obj
 0001:000391e0       _pj_ntohl                  0043a1e0 f   pjlib-i386-win32-vc14-debug:sock_bsd.obj
 0001:000391f0       _pj_htonl                  0043a1f0 f   pjlib-i386-win32-vc14-debug:sock_bsd.obj
 0001:00039200       _pj_inet_ntoa              0043a200 f   pjlib-i386-win32-vc14-debug:sock_bsd.obj
 0001:00039230       _pj_inet_aton              0043a230 f   pjlib-i386-win32-vc14-debug:sock_bsd.obj
 0001:00039310       _pj_inet_pton              0043a310 f   pjlib-i386-win32-vc14-debug:sock_bsd.obj
 0001:000394f0       _pj_inet_ntop              0043a4f0 f   pjlib-i386-win32-vc14-debug:sock_bsd.obj
 0001:000396b0       _pj_gethostname            0043a6b0 f   pjlib-i386-win32-vc14-debug:sock_bsd.obj
 0001:00039730       _pj_sock_socket            0043a730 f   pjlib-i386-win32-vc14-debug:sock_bsd.obj
 0001:00039840       _pj_sock_close             0043a840 f   pjlib-i386-win32-vc14-debug:sock_bsd.obj
 0001:000398c0       _pj_sock_bind              0043a8c0 f   pjlib-i386-win32-vc14-debug:sock_bsd.obj
 0001:00039970       _pj_sock_bind_in           0043a970 f   pjlib-i386-win32-vc14-debug:sock_bsd.obj
 0001:000399f0       _pj_sock_listen            0043a9f0 f   pjlib-i386-win32-vc14-debug:sock_bsd.obj
 0001:00039a70       _pj_sock_accept            0043aa70 f   pjlib-i386-win32-vc14-debug:sock_bsd.obj
 0001:00039b20       _pj_sock_connect           0043ab20 f   pjlib-i386-win32-vc14-debug:sock_bsd.obj
 0001:00039ba0       _pj_sock_getpeername       0043aba0 f   pjlib-i386-win32-vc14-debug:sock_bsd.obj
 0001:00039c20       _pj_sock_getsockname       0043ac20 f   pjlib-i386-win32-vc14-debug:sock_bsd.obj
 0001:00039ca0       _pj_sock_getsockopt        0043aca0 f   pjlib-i386-win32-vc14-debug:sock_bsd.obj
 0001:00039d60       _pj_sock_setsockopt        0043ad60 f   pjlib-i386-win32-vc14-debug:sock_bsd.obj
 0001:00039e10       _pj_sock_setsockopt_params 0043ae10 f   pjlib-i386-win32-vc14-debug:sock_bsd.obj
 0001:00039f20       _pj_sock_recv              0043af20 f   pjlib-i386-win32-vc14-debug:sock_bsd.obj
 0001:00039fe0       _pj_sock_recvfrom          0043afe0 f   pjlib-i386-win32-vc14-debug:sock_bsd.obj
 0001:0003a0b0       _pj_sock_send              0043b0b0 f   pjlib-i386-win32-vc14-debug:sock_bsd.obj
 0001:0003a170       _pj_sock_sendto            0043b170 f   pjlib-i386-win32-vc14-debug:sock_bsd.obj
 0001:0003a230       _pj_sock_shutdown          0043b230 f   pjlib-i386-win32-vc14-debug:sock_bsd.obj
 0001:0003a740       _pj_file_exists            0043b740 f   pjlib-i386-win32-vc14-debug:file_access_win32.obj
 0001:0003a7b0       _pj_file_size              0043b7b0 f   pjlib-i386-win32-vc14-debug:file_access_win32.obj
 0001:0003a840       _pj_file_delete            0043b840 f   pjlib-i386-win32-vc14-debug:file_access_win32.obj
 0001:0003a8d0       _pj_file_move              0043b8d0 f   pjlib-i386-win32-vc14-debug:file_access_win32.obj
 0001:0003a970       _pj_file_getstat           0043b970 f   pjlib-i386-win32-vc14-debug:file_access_win32.obj
 0001:0003af20       _pj_file_open              0043bf20 f   pjlib-i386-win32-vc14-debug:file_io_win32.obj
 0001:0003b0f0       _pj_file_close             0043c0f0 f   pjlib-i386-win32-vc14-debug:file_io_win32.obj
 0001:0003b150       _pj_file_write             0043c150 f   pjlib-i386-win32-vc14-debug:file_io_win32.obj
 0001:0003b1d0       _pj_file_read              0043c1d0 f   pjlib-i386-win32-vc14-debug:file_io_win32.obj
 0001:0003b250       _pj_file_setpos            0043c250 f   pjlib-i386-win32-vc14-debug:file_io_win32.obj
 0001:0003b320       _pj_file_getpos            0043c320 f   pjlib-i386-win32-vc14-debug:file_io_win32.obj
 0001:0003b390       _pj_file_flush             0043c390 f   pjlib-i386-win32-vc14-debug:file_io_win32.obj
 0001:0003b610       _pj_array_insert           0043c610 f   pjlib-i386-win32-vc14-debug:array.obj
 0001:0003b670       _pj_array_erase            0043c670 f   pjlib-i386-win32-vc14-debug:array.obj
 0001:0003b6d0       _pj_array_find             0043c6d0 f   pjlib-i386-win32-vc14-debug:array.obj
 0001:0003b7a0       _pj_exception_id_alloc     0043c7a0 f   pjlib-i386-win32-vc14-debug:except.obj
 0001:0003b800       _pj_exception_id_free      0043c800 f   pjlib-i386-win32-vc14-debug:except.obj
 0001:0003b860       _pj_exception_id_name      0043c860 f   pjlib-i386-win32-vc14-debug:except.obj
 0001:0003b8e0       _pj_throw_exception_       0043c8e0 f   pjlib-i386-win32-vc14-debug:except.obj
 0001:0003b960       _pj_push_exception_handler_ 0043c960 f   pjlib-i386-win32-vc14-debug:except.obj
 0001:0003b9e0       _pj_pop_exception_handler_ 0043c9e0 f   pjlib-i386-win32-vc14-debug:except.obj
 0001:0003bb30       _pj_lock_create_simple_mutex 0043cb30 f   pjlib-i386-win32-vc14-debug:lock.obj
 0001:0003bb50       _pj_lock_create_recursive_mutex 0043cb50 f   pjlib-i386-win32-vc14-debug:lock.obj
 0001:0003bb70       _pj_lock_create_null_mutex 0043cb70 f   pjlib-i386-win32-vc14-debug:lock.obj
 0001:0003bbb0       _pj_lock_create_semaphore  0043cbb0 f   pjlib-i386-win32-vc14-debug:lock.obj
 0001:0003bc70       _pj_lock_acquire           0043cc70 f   pjlib-i386-win32-vc14-debug:lock.obj
 0001:0003bcc0       _pj_lock_tryacquire        0043ccc0 f   pjlib-i386-win32-vc14-debug:lock.obj
 0001:0003bd10       _pj_lock_release           0043cd10 f   pjlib-i386-win32-vc14-debug:lock.obj
 0001:0003bd60       _pj_lock_destroy           0043cd60 f   pjlib-i386-win32-vc14-debug:lock.obj
 0001:0003bdb0       _pj_grp_lock_config_default 0043cdb0 f   pjlib-i386-win32-vc14-debug:lock.obj
 0001:0003bdd0       _pj_grp_lock_create        0043cdd0 f   pjlib-i386-win32-vc14-debug:lock.obj
 0001:0003bf50       _pj_grp_lock_create_w_handler 0043cf50 f   pjlib-i386-win32-vc14-debug:lock.obj
 0001:0003bfa0       _pj_grp_lock_destroy       0043cfa0 f   pjlib-i386-win32-vc14-debug:lock.obj
 0001:0003bfc0       _pj_grp_lock_replace       0043cfc0 f   pjlib-i386-win32-vc14-debug:lock.obj
 0001:0003c050       _pj_grp_lock_acquire       0043d050 f   pjlib-i386-win32-vc14-debug:lock.obj
 0001:0003c070       _pj_grp_lock_tryacquire    0043d070 f   pjlib-i386-win32-vc14-debug:lock.obj
 0001:0003c090       _pj_grp_lock_release       0043d090 f   pjlib-i386-win32-vc14-debug:lock.obj
 0001:0003c0b0       _pj_grp_lock_add_handler   0043d0b0 f   pjlib-i386-win32-vc14-debug:lock.obj
 0001:0003c0d0       _pj_grp_lock_del_handler   0043d0d0 f   pjlib-i386-win32-vc14-debug:lock.obj
 0001:0003c140       _pj_grp_lock_add_ref       0043d140 f   pjlib-i386-win32-vc14-debug:lock.obj
 0001:0003c160       _pj_grp_lock_dec_ref       0043d160 f   pjlib-i386-win32-vc14-debug:lock.obj
 0001:0003c180       _pj_grp_lock_get_ref       0043d180 f   pjlib-i386-win32-vc14-debug:lock.obj
 0001:0003c1a0       _pj_grp_lock_dump          0043d1a0 f   pjlib-i386-win32-vc14-debug:lock.obj
 0001:0003c1e0       _pj_grp_lock_chain_lock    0043d1e0 f   pjlib-i386-win32-vc14-debug:lock.obj
 0001:0003c2a0       _pj_grp_lock_unchain_lock  0043d2a0 f   pjlib-i386-win32-vc14-debug:lock.obj
 0001:0003cca0       _pj_get_timestamp          0043dca0 f   pjlib-i386-win32-vc14-debug:os_timestamp_win32.obj
 0001:0003cd10       _pj_get_timestamp_freq     0043dd10 f   pjlib-i386-win32-vc14-debug:os_timestamp_win32.obj
 0001:0003cdb0       _pj_gettickcount           0043ddb0 f   pjlib-i386-win32-vc14-debug:os_timestamp_common.obj
 0001:0003ce00       _pj_elapsed_time           0043de00 f   pjlib-i386-win32-vc14-debug:os_timestamp_common.obj
 0001:0003ceb0       _pj_elapsed_msec           0043deb0 f   pjlib-i386-win32-vc14-debug:os_timestamp_common.obj
 0001:0003cee0       _pj_elapsed_msec64         0043dee0 f   pjlib-i386-win32-vc14-debug:os_timestamp_common.obj
 0001:0003cf10       _pj_elapsed_usec           0043df10 f   pjlib-i386-win32-vc14-debug:os_timestamp_common.obj
 0001:0003cf40       _pj_elapsed_nanosec        0043df40 f   pjlib-i386-win32-vc14-debug:os_timestamp_common.obj
 0001:0003cfd0       _pj_elapsed_cycle          0043dfd0 f   pjlib-i386-win32-vc14-debug:os_timestamp_common.obj
 0001:0003d230       _pj_srand                  0043e230 f   pjlib-i386-win32-vc14-debug:rand.obj
 0001:0003d250       _pj_rand                   0043e250 f   pjlib-i386-win32-vc14-debug:rand.obj
 0001:0003d2b0       _pj_GUID_STRING_LENGTH     0043e2b0 f   pjlib-i386-win32-vc14-debug:guid_win32.obj
 0001:0003d2c0       _pj_generate_unique_string 0043e2c0 f   pjlib-i386-win32-vc14-debug:guid_win32.obj
 0001:0003d450       _pj_get_version            0043e450 f   pjlib-i386-win32-vc14-debug:config.obj
 0001:0003d460       _pj_dump_config            0043e460 f   pjlib-i386-win32-vc14-debug:config.obj
 0001:0003da80       _pj_pool_create_on_buf     0043ea80 f   pjlib-i386-win32-vc14-debug:pool_buf.obj
 0001:0003dcb0       _pj_log_write              0043ecb0 f   pjlib-i386-win32-vc14-debug:log_writer_stdout.obj
 0001:0003ddd0       _pj_enum_ip_interface      0043edd0 f   pjlib-i386-win32-vc14-debug:ip_helper_win32.obj
 0001:0003dee0       _pj_enum_ip_interface2     0043eee0 f   pjlib-i386-win32-vc14-debug:ip_helper_win32.obj
 0001:0003df40       _pj_enum_ip_route          0043ef40 f   pjlib-i386-win32-vc14-debug:ip_helper_win32.obj
 0001:0003ed20       _pj_gethostbyname          0043fd20 f   pjlib-i386-win32-vc14-debug:addr_resolv_sock.obj
 0001:0003ee40       _pj_getaddrinfo            0043fe40 f   pjlib-i386-win32-vc14-debug:addr_resolv_sock.obj
 0001:0003f0f0       _pj_time_val_normalize     004400f0 f   pjlib-i386-win32-vc14-debug:types.obj
 0001:0003f210       _PJ_FD_ZERO                00440210 f   pjlib-i386-win32-vc14-debug:sock_select.obj
 0001:0003f250       _PJ_FD_COUNT               00440250 f   pjlib-i386-win32-vc14-debug:sock_select.obj
 0001:0003f270       _PJ_FD_SET                 00440270 f   pjlib-i386-win32-vc14-debug:sock_select.obj
 0001:0003f360       _PJ_FD_CLR                 00440360 f   pjlib-i386-win32-vc14-debug:sock_select.obj
 0001:0003f460       _PJ_FD_ISSET               00440460 f   pjlib-i386-win32-vc14-debug:sock_select.obj
 0001:0003f4a0       _pj_sock_select            004404a0 f   pjlib-i386-win32-vc14-debug:sock_select.obj
 0001:0003f640       _speex_echo_state_init     00440640 f   libspeex-i386-win32-vc14-debug:mdf.obj
 0001:0003f660       _speex_echo_state_init_mc  00440660 f   libspeex-i386-win32-vc14-debug:mdf.obj
 0001:0003fd30       _speex_echo_state_destroy  00440d30 f   libspeex-i386-win32-vc14-debug:mdf.obj
 0001:0003ff00       _speex_echo_cancellation   00440f00 f   libspeex-i386-win32-vc14-debug:mdf.obj
 0001:00041c50       _speex_echo_cancel         00442c50 f   libspeex-i386-win32-vc14-debug:mdf.obj
 0001:00041c70       _speex_echo_capture        00442c70 f   libspeex-i386-win32-vc14-debug:mdf.obj
 0001:00041dc0       _speex_echo_playback       00442dc0 f   libspeex-i386-win32-vc14-debug:mdf.obj
 0001:00041f30       _speex_echo_state_reset    00442f30 f   libspeex-i386-win32-vc14-debug:mdf.obj
 0001:00042270       _speex_echo_ctl            00443270 f   libspeex-i386-win32-vc14-debug:mdf.obj
 0001:00042500       _speex_echo_get_residual   00443500 f   libspeex-i386-win32-vc14-debug:mdf.obj
 0001:00043c70       _speex_decorrelate_new     00444c70 f   libspeex-i386-win32-vc14-debug:scal.obj
 0001:00043e90       _speex_decorrelate         00444e90 f   libspeex-i386-win32-vc14-debug:scal.obj
 0001:000444f0       _speex_decorrelate_destroy 004454f0 f   libspeex-i386-win32-vc14-debug:scal.obj
 0001:000448c0       _speex_preprocess_state_init 004458c0 f   libspeex-i386-win32-vc14-debug:preprocess.obj
 0001:00045020       _speex_preprocess_state_destroy 00446020 f   libspeex-i386-win32-vc14-debug:preprocess.obj
 0001:000451c0       _speex_preprocess_run      004461c0 f   libspeex-i386-win32-vc14-debug:preprocess.obj
 0001:00046490       _speex_preprocess          00447490 f   libspeex-i386-win32-vc14-debug:preprocess.obj
 0001:000464b0       _speex_preprocess_estimate_update 004474b0 f   libspeex-i386-win32-vc14-debug:preprocess.obj
 0001:00046670       _speex_preprocess_ctl      00447670 f   libspeex-i386-win32-vc14-debug:preprocess.obj
 0001:00048990       _spx_fft_init              00449990 f   libspeex-i386-win32-vc14-debug:fftwrap.obj
 0001:000489c0       _spx_fft_destroy           004499c0 f   libspeex-i386-win32-vc14-debug:fftwrap.obj
 0001:000489e0       _spx_fft                   004499e0 f   libspeex-i386-win32-vc14-debug:fftwrap.obj
 0001:00048ae0       _spx_ifft                  00449ae0 f   libspeex-i386-win32-vc14-debug:fftwrap.obj
 0001:00048b60       _spx_fft_float             00449b60 f   libspeex-i386-win32-vc14-debug:fftwrap.obj
 0001:00048b80       _spx_ifft_float            00449b80 f   libspeex-i386-win32-vc14-debug:fftwrap.obj
 0001:00048c30       _filterbank_new            00449c30 f   libspeex-i386-win32-vc14-debug:filterbank.obj
 0001:00049050       _filterbank_destroy        0044a050 f   libspeex-i386-win32-vc14-debug:filterbank.obj
 0001:000490b0       _filterbank_compute_bank32 0044a0b0 f   libspeex-i386-win32-vc14-debug:filterbank.obj
 0001:00049190       _filterbank_compute_psd16  0044a190 f   libspeex-i386-win32-vc14-debug:filterbank.obj
 0001:00049230       _filterbank_compute_bank   0044a230 f   libspeex-i386-win32-vc14-debug:filterbank.obj
 0001:00049350       _filterbank_compute_psd    0044a350 f   libspeex-i386-win32-vc14-debug:filterbank.obj
 0001:00049430       _filterbank_psy_smooth     0044a430 f   libspeex-i386-win32-vc14-debug:filterbank.obj
 0001:000497b0       _spx_drft_forward          0044a7b0 f   libspeex-i386-win32-vc14-debug:smallft.obj
 0001:000497f0       _spx_drft_backward         0044a7f0 f   libspeex-i386-win32-vc14-debug:smallft.obj
 0001:00049830       _spx_drft_init             0044a830 f   libspeex-i386-win32-vc14-debug:smallft.obj
 0001:00049880       _spx_drft_clear            0044a880 f   libspeex-i386-win32-vc14-debug:smallft.obj
 0001:0004e630       _srtp_init                 0044f630 f   libsrtp-i386-win32-vc14-debug:srtp.obj
 0001:0004e670       _srtp_shutdown             0044f670 f   libsrtp-i386-win32-vc14-debug:srtp.obj
 0001:0004e690       _srtp_protect              0044f690 f   libsrtp-i386-win32-vc14-debug:srtp.obj
 0001:0004e6b0       _srtp_protect_mki          0044f6b0 f   libsrtp-i386-win32-vc14-debug:srtp.obj
 0001:0004ee70       _srtp_unprotect            0044fe70 f   libsrtp-i386-win32-vc14-debug:srtp.obj
 0001:0004ee90       _srtp_unprotect_mki        0044fe90 f   libsrtp-i386-win32-vc14-debug:srtp.obj
 0001:0004f6e0       _srtp_create               004506e0 f   libsrtp-i386-win32-vc14-debug:srtp.obj
 0001:0004f790       _srtp_add_stream           00450790 f   libsrtp-i386-win32-vc14-debug:srtp.obj
 0001:0004f8b0       _srtp_remove_stream        004508b0 f   libsrtp-i386-win32-vc14-debug:srtp.obj
 0001:0004f950       _srtp_update               00450950 f   libsrtp-i386-win32-vc14-debug:srtp.obj
 0001:0004f9b0       _srtp_update_stream        004509b0 f   libsrtp-i386-win32-vc14-debug:srtp.obj
 0001:0004fa30       _srtp_crypto_policy_set_rtp_default 00450a30 f   libsrtp-i386-win32-vc14-debug:srtp.obj
 0001:0004fa70       _srtp_crypto_policy_set_rtcp_default 00450a70 f   libsrtp-i386-win32-vc14-debug:srtp.obj
 0001:0004fab0       _srtp_crypto_policy_set_aes_cm_128_hmac_sha1_32 00450ab0 f   libsrtp-i386-win32-vc14-debug:srtp.obj
 0001:0004faf0       _srtp_crypto_policy_set_aes_cm_128_null_auth 00450af0 f   libsrtp-i386-win32-vc14-debug:srtp.obj
 0001:0004fb30       _srtp_crypto_policy_set_null_cipher_hmac_sha1_80 00450b30 f   libsrtp-i386-win32-vc14-debug:srtp.obj
 0001:0004fb70       _srtp_crypto_policy_set_null_cipher_hmac_null 00450b70 f   libsrtp-i386-win32-vc14-debug:srtp.obj
 0001:0004fbb0       _srtp_crypto_policy_set_aes_cm_256_hmac_sha1_80 00450bb0 f   libsrtp-i386-win32-vc14-debug:srtp.obj
 0001:0004fbf0       _srtp_crypto_policy_set_aes_cm_256_hmac_sha1_32 00450bf0 f   libsrtp-i386-win32-vc14-debug:srtp.obj
 0001:0004fc30       _srtp_crypto_policy_set_aes_cm_256_null_auth 00450c30 f   libsrtp-i386-win32-vc14-debug:srtp.obj
 0001:0004fc70       _srtp_dealloc              00450c70 f   libsrtp-i386-win32-vc14-debug:srtp.obj
 0001:0004fcf0       _srtp_crypto_policy_set_from_profile_for_rtp 00450cf0 f   libsrtp-i386-win32-vc14-debug:srtp.obj
 0001:0004fd50       _srtp_crypto_policy_set_from_profile_for_rtcp 00450d50 f   libsrtp-i386-win32-vc14-debug:srtp.obj
 0001:0004fdb0       _srtp_profile_get_master_key_length 00450db0 f   libsrtp-i386-win32-vc14-debug:srtp.obj
 0001:0004fe30       _srtp_profile_get_master_salt_length 00450e30 f   libsrtp-i386-win32-vc14-debug:srtp.obj
 0001:0004feb0       _srtp_append_salt_to_key   00450eb0 f   libsrtp-i386-win32-vc14-debug:srtp.obj
 0001:0004fed0       _srtp_protect_rtcp         00450ed0 f   libsrtp-i386-win32-vc14-debug:srtp.obj
 0001:0004fef0       _srtp_protect_rtcp_mki     00450ef0 f   libsrtp-i386-win32-vc14-debug:srtp.obj
 0001:000503e0       _srtp_unprotect_rtcp       004513e0 f   libsrtp-i386-win32-vc14-debug:srtp.obj
 0001:00050400       _srtp_unprotect_rtcp_mki   00451400 f   libsrtp-i386-win32-vc14-debug:srtp.obj
 0001:00050ab0       _srtp_set_user_data        00451ab0 f   libsrtp-i386-win32-vc14-debug:srtp.obj
 0001:00050ac0       _srtp_get_user_data        00451ac0 f   libsrtp-i386-win32-vc14-debug:srtp.obj
 0001:00050ad0       _srtp_install_event_handler 00451ad0 f   libsrtp-i386-win32-vc14-debug:srtp.obj
 0001:00050ae0       _srtp_get_version_string   00451ae0 f   libsrtp-i386-win32-vc14-debug:srtp.obj
 0001:00050af0       _srtp_get_version          00451af0 f   libsrtp-i386-win32-vc14-debug:srtp.obj
 0001:00050b80       _srtp_set_debug_module     00451b80 f   libsrtp-i386-win32-vc14-debug:srtp.obj
 0001:00050ba0       _srtp_list_debug_modules   00451ba0 f   libsrtp-i386-win32-vc14-debug:srtp.obj
 0001:00050bb0       _srtp_install_log_handler  00451bb0 f   libsrtp-i386-win32-vc14-debug:srtp.obj
 0001:00050c00       _srtp_get_protect_trailer_length 00451c00 f   libsrtp-i386-win32-vc14-debug:srtp.obj
 0001:00050cc0       _srtp_get_protect_rtcp_trailer_length 00451cc0 f   libsrtp-i386-win32-vc14-debug:srtp.obj
 0001:00050d90       _srtp_set_stream_roc       00451d90 f   libsrtp-i386-win32-vc14-debug:srtp.obj
 0001:00050dd0       _srtp_get_stream_roc       00451dd0 f   libsrtp-i386-win32-vc14-debug:srtp.obj
 0001:00050e70       _srtp_get_stream           00451e70 f   libsrtp-i386-win32-vc14-debug:srtp.obj
 0001:00050eb0       _srtp_stream_init_keys     00451eb0 f   libsrtp-i386-win32-vc14-debug:srtp.obj
 0001:00051ae0       _srtp_stream_init          00452ae0 f   libsrtp-i386-win32-vc14-debug:srtp.obj
 0001:00051e80       _srtp_stream_alloc         00452e80 f   libsrtp-i386-win32-vc14-debug:srtp.obj
 0001:00052250       _srtp_stream_dealloc       00453250 f   libsrtp-i386-win32-vc14-debug:srtp.obj
 0001:000524e0       _srtp_stream_clone         004534e0 f   libsrtp-i386-win32-vc14-debug:srtp.obj
 0001:000529e0       _srtp_validate_policy_master_keys 004539e0 f   libsrtp-i386-win32-vc14-debug:srtp.obj
 0001:00052a70       _srtp_get_session_keys_with_mki_index 00453a70 f   libsrtp-i386-win32-vc14-debug:srtp.obj
 0001:00052aa0       _srtp_inject_mki           00453aa0 f   libsrtp-i386-win32-vc14-debug:srtp.obj
 0001:00052ae0       _srtp_stream_init_all_master_keys 00453ae0 f   libsrtp-i386-win32-vc14-debug:srtp.obj
 0001:00052b90       _srtp_event_reporter       00453b90 f   libsrtp-i386-win32-vc14-debug:srtp.obj
 0001:000531e0       _srtp_get_session_keys     004541e0 f   libsrtp-i386-win32-vc14-debug:srtp.obj
 0001:000547c0       _srtp_err_handler          004557c0 f   libsrtp-i386-win32-vc14-debug:srtp.obj
 0001:000560c0       ___local_stdio_scanf_options 004570c0 f i libsrtp-i386-win32-vc14-debug:srtp.obj
 0001:000560d0       __vsscanf_l                004570d0 f i libsrtp-i386-win32-vc14-debug:srtp.obj
 0001:00056110       _sscanf                    00457110 f i libsrtp-i386-win32-vc14-debug:srtp.obj
 0001:00056150       _srtp_crypto_alloc         00457150 f   libsrtp-i386-win32-vc14-debug:alloc.obj
 0001:000561c0       _srtp_crypto_free          004571c0 f   libsrtp-i386-win32-vc14-debug:alloc.obj
 0001:00056220       _octet_get_weight          00457220 f   libsrtp-i386-win32-vc14-debug:datatypes.obj
 0001:00056230       _srtp_octet_string_hex_string 00457230 f   libsrtp-i386-win32-vc14-debug:datatypes.obj
 0001:000562e0       _v128_bit_string           004572e0 f   libsrtp-i386-win32-vc14-debug:datatypes.obj
 0001:00056380       _v128_hex_string           00457380 f   libsrtp-i386-win32-vc14-debug:datatypes.obj
 0001:00056420       _v128_copy_octet_string    00457420 f   libsrtp-i386-win32-vc14-debug:datatypes.obj
 0001:000565f0       _v128_left_shift           004575f0 f   libsrtp-i386-win32-vc14-debug:datatypes.obj
 0001:00056750       _v128_right_shift          00457750 f   libsrtp-i386-win32-vc14-debug:datatypes.obj
 0001:000568b0       _octet_string_is_eq        004578b0 f   libsrtp-i386-win32-vc14-debug:datatypes.obj
 0001:00056920       _srtp_cleanse              00457920 f   libsrtp-i386-win32-vc14-debug:datatypes.obj
 0001:00056960       _octet_string_set_to_zero  00457960 f   libsrtp-i386-win32-vc14-debug:datatypes.obj
 0001:00056980       _bitvector_alloc           00457980 f   libsrtp-i386-win32-vc14-debug:datatypes.obj
 0001:00056a00       _bitvector_dealloc         00457a00 f   libsrtp-i386-win32-vc14-debug:datatypes.obj
 0001:00056a30       _bitvector_set_to_zero     00457a30 f   libsrtp-i386-win32-vc14-debug:datatypes.obj
 0001:00056a50       _bitvector_left_shift      00457a50 f   libsrtp-i386-win32-vc14-debug:datatypes.obj
 0001:00056b90       _bitvector_bit_string      00457b90 f   libsrtp-i386-win32-vc14-debug:datatypes.obj
 0001:00056c30       _srtp_nibble_to_hex_char   00457c30 f   libsrtp-i386-win32-vc14-debug:datatypes.obj
 0001:00056f40       _srtp_err_reporting_init   00457f40 f   libsrtp-i386-win32-vc14-debug:srtp_err.obj
 0001:00056f50       _srtp_install_err_report_handler 00457f50 f   libsrtp-i386-win32-vc14-debug:srtp_err.obj
 0001:00056f60       _srtp_err_report           00457f60 f   libsrtp-i386-win32-vc14-debug:srtp_err.obj
 0001:00056fa0       _srtp_err_reporting_set_level 00457fa0 f   libsrtp-i386-win32-vc14-debug:srtp_err.obj
 0001:00056fd0       _srtp_rdbx_init            00457fd0 f   libsrtp-i386-win32-vc14-debug:rdbx.obj
 0001:00057010       _srtp_rdbx_dealloc         00458010 f   libsrtp-i386-win32-vc14-debug:rdbx.obj
 0001:00057030       _srtp_rdbx_estimate_index  00458030 f   libsrtp-i386-win32-vc14-debug:rdbx.obj
 0001:00057090       _srtp_rdbx_check           00458090 f   libsrtp-i386-win32-vc14-debug:rdbx.obj
 0001:00057100       _srtp_rdbx_add_index       00458100 f   libsrtp-i386-win32-vc14-debug:rdbx.obj
 0001:000571c0       _srtp_rdbx_set_roc         004581c0 f   libsrtp-i386-win32-vc14-debug:rdbx.obj
 0001:00057250       _srtp_rdbx_get_packet_index 00458250 f   libsrtp-i386-win32-vc14-debug:rdbx.obj
 0001:00057260       _srtp_rdbx_get_window_size 00458260 f   libsrtp-i386-win32-vc14-debug:rdbx.obj
 0001:00057270       _srtp_index_init           00458270 f   libsrtp-i386-win32-vc14-debug:rdbx.obj
 0001:00057290       _srtp_index_advance        00458290 f   libsrtp-i386-win32-vc14-debug:rdbx.obj
 0001:000572b0       _srtp_index_guess          004582b0 f   libsrtp-i386-win32-vc14-debug:rdbx.obj
 0001:000573c0       _srtp_rdbx_get_roc         004583c0 f   libsrtp-i386-win32-vc14-debug:rdbx.obj
 0001:000573e0       _srtp_rdbx_set_roc_seq     004583e0 f   libsrtp-i386-win32-vc14-debug:rdbx.obj
 0001:00057590       _srtp_rdb_init             00458590 f   libsrtp-i386-win32-vc14-debug:rdb.obj
 0001:000575f0       _srtp_rdb_check            004585f0 f   libsrtp-i386-win32-vc14-debug:rdb.obj
 0001:00057650       _srtp_rdb_add_index        00458650 f   libsrtp-i386-win32-vc14-debug:rdb.obj
 0001:000576f0       _srtp_rdb_increment        004586f0 f   libsrtp-i386-win32-vc14-debug:rdb.obj
 0001:00057720       _srtp_rdb_get_value        00458720 f   libsrtp-i386-win32-vc14-debug:rdb.obj
 0001:00057790       _srtp_cipher_get_key_length 00458790 f   libsrtp-i386-win32-vc14-debug:cipher.obj
 0001:000577a0       _srtp_cipher_type_self_test 004587a0 f   libsrtp-i386-win32-vc14-debug:cipher.obj
 0001:000577c0       _srtp_cipher_type_test     004587c0 f   libsrtp-i386-win32-vc14-debug:cipher.obj
 0001:00058870       _srtp_cipher_bits_per_second 00459870 f   libsrtp-i386-win32-vc14-debug:cipher.obj
 0001:000589e0       _srtp_cipher_type_alloc    004599e0 f   libsrtp-i386-win32-vc14-debug:cipher.obj
 0001:00058a10       _srtp_cipher_dealloc       00459a10 f   libsrtp-i386-win32-vc14-debug:cipher.obj
 0001:00058a40       _srtp_cipher_init          00459a40 f   libsrtp-i386-win32-vc14-debug:cipher.obj
 0001:00058a80       _srtp_cipher_set_iv        00459a80 f   libsrtp-i386-win32-vc14-debug:cipher.obj
 0001:00058ac0       _srtp_cipher_output        00459ac0 f   libsrtp-i386-win32-vc14-debug:cipher.obj
 0001:00058b00       _srtp_cipher_encrypt       00459b00 f   libsrtp-i386-win32-vc14-debug:cipher.obj
 0001:00058b40       _srtp_cipher_decrypt       00459b40 f   libsrtp-i386-win32-vc14-debug:cipher.obj
 0001:00058b80       _srtp_cipher_get_tag       00459b80 f   libsrtp-i386-win32-vc14-debug:cipher.obj
 0001:00058be0       _srtp_cipher_set_aad       00459be0 f   libsrtp-i386-win32-vc14-debug:cipher.obj
 0001:000591c0       _srtp_auth_get_key_length  0045a1c0 f   libsrtp-i386-win32-vc14-debug:auth.obj
 0001:000591d0       _srtp_auth_get_tag_length  0045a1d0 f   libsrtp-i386-win32-vc14-debug:auth.obj
 0001:000591e0       _srtp_auth_get_prefix_length 0045a1e0 f   libsrtp-i386-win32-vc14-debug:auth.obj
 0001:000591f0       _srtp_auth_type_self_test  0045a1f0 f   libsrtp-i386-win32-vc14-debug:auth.obj
 0001:00059210       _srtp_auth_type_test       0045a210 f   libsrtp-i386-win32-vc14-debug:auth.obj
 0001:000595f0       _srtp_key_limit_set        0045a5f0 f   libsrtp-i386-win32-vc14-debug:key.obj
 0001:00059630       _srtp_key_limit_clone      0045a630 f   libsrtp-i386-win32-vc14-debug:key.obj
 0001:00059650       _srtp_key_limit_check      0045a650 f   libsrtp-i386-win32-vc14-debug:key.obj
 0001:00059670       _srtp_key_limit_update     0045a670 f   libsrtp-i386-win32-vc14-debug:key.obj
 0001:00059730       _srtp_replace_cipher_type  0045a730 f   libsrtp-i386-win32-vc14-debug:crypto_kernel.obj
 0001:00059750       _srtp_replace_auth_type    0045a750 f   libsrtp-i386-win32-vc14-debug:crypto_kernel.obj
 0001:00059770       _srtp_crypto_kernel_init   0045a770 f   libsrtp-i386-win32-vc14-debug:crypto_kernel.obj
 0001:00059910       _srtp_crypto_kernel_shutdown 0045a910 f   libsrtp-i386-win32-vc14-debug:crypto_kernel.obj
 0001:00059a30       _srtp_crypto_kernel_status 0045aa30 f   libsrtp-i386-win32-vc14-debug:crypto_kernel.obj
 0001:00059b50       _srtp_crypto_kernel_list_debug_modules 0045ab50 f   libsrtp-i386-win32-vc14-debug:crypto_kernel.obj
 0001:00059bd0       _srtp_crypto_kernel_load_cipher_type 0045abd0 f   libsrtp-i386-win32-vc14-debug:crypto_kernel.obj
 0001:00059bf0       _srtp_crypto_kernel_load_auth_type 0045abf0 f   libsrtp-i386-win32-vc14-debug:crypto_kernel.obj
 0001:00059c10       _srtp_crypto_kernel_load_debug_module 0045ac10 f   libsrtp-i386-win32-vc14-debug:crypto_kernel.obj
 0001:00059ca0       _srtp_crypto_kernel_alloc_cipher 0045aca0 f   libsrtp-i386-win32-vc14-debug:crypto_kernel.obj
 0001:00059cf0       _srtp_crypto_kernel_alloc_auth 0045acf0 f   libsrtp-i386-win32-vc14-debug:crypto_kernel.obj
 0001:00059d40       _srtp_crypto_kernel_set_debug_module 0045ad40 f   libsrtp-i386-win32-vc14-debug:crypto_kernel.obj
 0001:00059ea0       _srtp_crypto_kernel_do_load_auth_type 0045aea0 f   libsrtp-i386-win32-vc14-debug:crypto_kernel.obj
 0001:00059fb0       _srtp_crypto_kernel_get_cipher_type 0045afb0 f   libsrtp-i386-win32-vc14-debug:crypto_kernel.obj
 0001:00059ff0       _srtp_crypto_kernel_get_auth_type 0045aff0 f   libsrtp-i386-win32-vc14-debug:crypto_kernel.obj
 0001:0005a270       _srtp_ekt_octets_after_base_tag 0045b270 f   libsrtp-i386-win32-vc14-debug:ekt.obj
 0001:0005a2a0       _srtp_ekt_alloc            0045b2a0 f   libsrtp-i386-win32-vc14-debug:ekt.obj
 0001:0005a2d0       _srtp_ekt_stream_init_from_policy 0045b2d0 f   libsrtp-i386-win32-vc14-debug:ekt.obj
 0001:0005a2f0       _srtp_stream_init_from_ekt 0045b2f0 f   libsrtp-i386-win32-vc14-debug:ekt.obj
 0001:0005a3e0       _srtp_ekt_write_data       0045b3e0 f   libsrtp-i386-win32-vc14-debug:ekt.obj
 0001:0005a5f0       _aes_decrypt_with_raw_key  0045b5f0 f   libsrtp-i386-win32-vc14-debug:ekt.obj
 0001:0005a640       _srtcp_ekt_trailer         0045b640 f   libsrtp-i386-win32-vc14-debug:ekt.obj
 0001:0005a740       _stat_test_monobit         0045b740 f   libsrtp-i386-win32-vc14-debug:stat.obj
 0001:0005a7d0       _stat_test_poker           0045b7d0 f   libsrtp-i386-win32-vc14-debug:stat.obj
 0001:0005a970       _stat_test_runs            0045b970 f   libsrtp-i386-win32-vc14-debug:stat.obj
 0001:0005c470       _srtp_aes_expand_encryption_key 0045d470 f   libsrtp-i386-win32-vc14-debug:aes.obj
 0001:0005c4d0       _srtp_aes_expand_decryption_key 0045d4d0 f   libsrtp-i386-win32-vc14-debug:aes.obj
 0001:0005c9c0       _srtp_aes_encrypt          0045d9c0 f   libsrtp-i386-win32-vc14-debug:aes.obj
 0001:0005cc30       _srtp_aes_decrypt          0045dc30 f   libsrtp-i386-win32-vc14-debug:aes.obj
 0001:0005e3e0       _srtp_sha1_init            0045f3e0 f   libsrtp-i386-win32-vc14-debug:sha1.obj
 0001:0005e460       _srtp_sha1_update          0045f460 f   libsrtp-i386-win32-vc14-debug:sha1.obj
 0001:0005e5a0       _srtp_sha1_final           0045f5a0 f   libsrtp-i386-win32-vc14-debug:sha1.obj
 0001:0005f210       _srtp_sha1_core            00460210 f   libsrtp-i386-win32-vc14-debug:sha1.obj
 0001:0005ff50       _srtp_sha1                 00460f50 f   libsrtp-i386-win32-vc14-debug:sha1.obj
 0001:0006068e       _CoCreateGuid@4            0046168e f   ole32:ole32.dll
 0001:00060694       _WSAStartup@8              00461694 f   ws2_32:WS2_32.dll
 0001:0006069a       _WSACleanup@0              0046169a f   ws2_32:WS2_32.dll
 0001:000606a0       _WSAGetLastError@0         004616a0 f   ws2_32:WS2_32.dll
 0001:000606a6       _WSASetLastError@4         004616a6 f   ws2_32:WS2_32.dll
 0001:000606ac       _ioctlsocket@12            004616ac f   ws2_32:WS2_32.dll
 0001:000606b2       _accept@12                 004616b2 f   ws2_32:WS2_32.dll
 0001:000606b8       _bind@12                   004616b8 f   ws2_32:WS2_32.dll
 0001:000606be       _closesocket@4             004616be f   ws2_32:WS2_32.dll
 0001:000606c4       _connect@12                004616c4 f   ws2_32:WS2_32.dll
 0001:000606ca       _getpeername@12            004616ca f   ws2_32:WS2_32.dll
 0001:000606d0       _getsockname@12            004616d0 f   ws2_32:WS2_32.dll
 0001:000606d6       _getsockopt@20             004616d6 f   ws2_32:WS2_32.dll
 0001:000606dc       _htonl@4                   004616dc f   ws2_32:WS2_32.dll
 0001:000606e2       _htons@4                   004616e2 f   ws2_32:WS2_32.dll
 0001:000606e8       _inet_addr@4               004616e8 f   ws2_32:WS2_32.dll
 0001:000606ee       _inet_ntoa@4               004616ee f   ws2_32:WS2_32.dll
 0001:000606f4       _listen@8                  004616f4 f   ws2_32:WS2_32.dll
 0001:000606fa       _ntohl@4                   004616fa f   ws2_32:WS2_32.dll
 0001:00060700       _ntohs@4                   00461700 f   ws2_32:WS2_32.dll
 0001:00060706       _recv@16                   00461706 f   ws2_32:WS2_32.dll
 0001:0006070c       _recvfrom@24               0046170c f   ws2_32:WS2_32.dll
 0001:00060712       _send@16                   00461712 f   ws2_32:WS2_32.dll
 0001:00060718       _sendto@24                 00461718 f   ws2_32:WS2_32.dll
 0001:0006071e       _setsockopt@20             0046171e f   ws2_32:WS2_32.dll
 0001:00060724       _shutdown@8                00461724 f   ws2_32:WS2_32.dll
 0001:0006072a       _gethostname@8             0046172a f   ws2_32:WS2_32.dll
 0001:00060730       _WSAIoctl@36               00461730 f   ws2_32:WS2_32.dll
 0001:00060736       _WSASocketA@24             00461736 f   ws2_32:WS2_32.dll
 0001:0006073c       _WSAAddressToStringA@20    0046173c f   ws2_32:WS2_32.dll
 0001:00060742       _WSAStringToAddressA@20    00461742 f   ws2_32:WS2_32.dll
 0001:00060748       _gethostbyname@4           00461748 f   ws2_32:WS2_32.dll
 0001:0006074e       ___WSAFDIsSet@8            0046174e f   ws2_32:WS2_32.dll
 0001:00060754       _select@20                 00461754 f   ws2_32:WS2_32.dll
 0001:00060760       @__security_check_cookie@4 00461760 f   LIBCMTD:_secchk_.obj
 0001:00060780       __allmul                   00461780 f   LIBCMTD:llmul.obj
 0001:000607d0       __aulldiv                  004617d0 f   LIBCMTD:ulldiv.obj
 0001:00060c30       ?configure_argv@__scrt_narrow_argv_policy@@SAHXZ 00461c30 f i LIBCMTD:exe_main.obj
 0001:00060c50       ?get_app_type@__scrt_main_policy@@SA?AW4_crt_app_type@@XZ 00461c50 f i LIBCMTD:exe_main.obj
 0001:00060ca0       _mainCRTStartup            00461ca0 f   LIBCMTD:exe_main.obj
 0001:00060cb0       ___raise_securityfailure   00461cb0 f   LIBCMTD:gs_report.obj
 0001:00060cf0       ___report_gsfailure        00461cf0 f   LIBCMTD:gs_report.obj
 0001:00060e40       ___report_rangecheckfailure 00461e40 f   LIBCMTD:gs_report.obj
 0001:00060e50       ___report_securityfailure  00461e50 f   LIBCMTD:gs_report.obj
 0001:00060f60       ___report_securityfailureEx 00461f60 f   LIBCMTD:gs_report.obj
 0001:000610d0       __alldiv                   004620d0 f   LIBCMTD:lldiv.obj
 0001:000611b0       __alloca_probe             004621b0 f   LIBCMTD:chkstk.obj
 0001:000611b0       __chkstk                   004621b0 f   LIBCMTD:chkstk.obj
 0001:000611f0       __allshl                   004621f0 f   LIBCMTD:llshl.obj
 0001:00061220       __allshr                   00462220 f   LIBCMTD:llshr.obj
 0001:00061250       __ftoui3                   00462250 f   LIBCMTD:_ftol3_.obj
 0001:0006125f       __ftoul3                   0046225f f   LIBCMTD:_ftol3_.obj
 0001:0006126e       __ftol3                    0046226e f   LIBCMTD:_ftol3_.obj
 0001:0006127b       __ftol3_NaN                0046227b f   LIBCMTD:_ftol3_.obj
 0001:00061293       __ftol3_work               00462293 f   LIBCMTD:_ftol3_.obj
 0001:00061319       __ftol3_common             00462319 f   LIBCMTD:_ftol3_.obj
 0001:000613db       __ftol3_arg_error          004623db f   LIBCMTD:_ftol3_.obj
 0001:000613ed       __ftol3_except             004623ed f   LIBCMTD:_ftol3_.obj
 0001:00061431       __dtoui3                   00462431 f   LIBCMTD:_ftol3_.obj
 0001:00061440       __dtoul3                   00462440 f   LIBCMTD:_ftol3_.obj
 0001:0006144f       __dtol3                    0046244f f   LIBCMTD:_ftol3_.obj
 0001:0006145c       __dtol3_NaN                0046245c f   LIBCMTD:_ftol3_.obj
 0001:00061479       __dtol3_work               00462479 f   LIBCMTD:_ftol3_.obj
 0001:00061560       __ultod3                   00462560 f   LIBCMTD:_ftol3_.obj
 0001:000615a0       __ltod3                    004625a0 f   LIBCMTD:_ftol3_.obj
 0001:000616b0       __ftol2_sse                004626b0 f   LIBCMTD:_ftol2_.obj
 0001:000616b9       __ftol2_pentium4           004626b9 f   LIBCMTD:_ftol2_.obj
 0001:000616cc       __ftol2_sse_excpt          004626cc f   LIBCMTD:_ftol2_.obj
 0001:000616f0       __ftol2                    004626f0 f   LIBCMTD:_ftol2_.obj
 0001:000617a0       __aullshr                  004627a0 f   LIBCMTD:ullshr.obj
 0001:000617d0       ??$__crt_fast_decode_pointer@PAP6AXXZ@@YAPAP6AXXZQAP6AXXZ@Z 004627d0 f i LIBCMTD:utility.obj
 0001:00061800       ??$__crt_fast_encode_pointer@PAP6AXXZ@@YAPAP6AXXZQAP6AXXZ@Z 00462800 f i LIBCMTD:utility.obj
 0001:00061840       ?__crt_rotate_pointer_value@@YAIIH@Z 00462840 f i LIBCMTD:utility.obj
 0001:00061990       _NtCurrentTeb              00462990 f i LIBCMTD:utility.obj
 0001:000619a0       ___scrt_acquire_startup_lock 004629a0 f   LIBCMTD:utility.obj
 0001:00061a00       ___scrt_dllmain_after_initialize_c 00462a00 f   LIBCMTD:utility.obj
 0001:00061a40       ___scrt_dllmain_before_initialize_c 00462a40 f   LIBCMTD:utility.obj
 0001:00061a70       ___scrt_dllmain_crt_thread_attach 00462a70 f   LIBCMTD:utility.obj
 0001:00061ab0       ___scrt_dllmain_crt_thread_detach 00462ab0 f   LIBCMTD:utility.obj
 0001:00061ad0       ___scrt_dllmain_exception_filter 00462ad0 f   LIBCMTD:utility.obj
 0001:00061b30       ___scrt_dllmain_uninitialize_c 00462b30 f   LIBCMTD:utility.obj
 0001:00061b70       ___scrt_dllmain_uninitialize_critical 00462b70 f   LIBCMTD:utility.obj
 0001:00061b90       ___scrt_initialize_crt     00462b90 f   LIBCMTD:utility.obj
 0001:00061bf0       ___scrt_initialize_onexit_tables 00462bf0 f   LIBCMTD:utility.obj
 0001:00061cf0       ___scrt_is_nonwritable_in_current_image 00462cf0 f   LIBCMTD:utility.obj
 0001:00061e70       ___scrt_release_startup_lock 00462e70 f   LIBCMTD:utility.obj
 0001:00061ea0       ___scrt_uninitialize_crt   00462ea0 f   LIBCMTD:utility.obj
 0001:00061ef0       __onexit                   00462ef0 f   LIBCMTD:utility.obj
 0001:00061f80       _at_quick_exit             00462f80 f   LIBCMTD:utility.obj
 0001:00061fe0       _atexit                    00462fe0 f   LIBCMTD:utility.obj
 0001:00062020       ___security_init_cookie    00463020 f   LIBCMTD:gs_support.obj
 0001:00062140       __matherr                  00463140 f   LIBCMTD:matherr.obj
 0001:00062150       __get_startup_argv_mode    00463150 f   LIBCMTD:argv_mode.obj
 0001:00062160       __get_startup_commit_mode  00463160 f   LIBCMTD:commit_mode.obj
 0001:00062170       __get_startup_file_mode    00463170 f   LIBCMTD:file_mode.obj
 0001:00062180       __get_startup_new_mode     00463180 f   LIBCMTD:new_mode.obj
 0001:00062190       __get_startup_thread_locale_mode 00463190 f   LIBCMTD:thread_locale.obj
 0001:000621a0       ?__scrt_initialize_type_info@@YAXXZ 004631a0 f   LIBCMTD:tncleanup.obj
 0001:000621c0       ?__scrt_uninitialize_type_info@@YAXXZ 004631c0 f   LIBCMTD:tncleanup.obj
 0001:000621e0       __should_initialize_environment 004631e0 f   LIBCMTD:env_mode.obj
 0001:000621f0       __initialize_default_precision 004631f0 f   LIBCMTD:default_precision.obj
 0001:00062220       __initialize_invalid_parameter_handler 00463220 f   LIBCMTD:invalid_parameter_handler.obj
 0001:00062230       __initialize_denormal_control 00463230 f   LIBCMTD:denormal_control.obj
 0001:00062240       ___scrt_initialize_default_local_stdio_options 00463240 f   LIBCMTD:default_local_stdio_options.obj
 0001:00062290       ___scrt_is_user_matherr_present 00463290 f   LIBCMTD:matherr_detection.obj
 0001:000622c0       ___scrt_get_dyn_tls_init_callback 004632c0 f   LIBCMTD:dyn_tls_init.obj
 0001:000622d0       ___scrt_get_dyn_tls_dtor_callback 004632d0 f   LIBCMTD:dyn_tls_dtor.obj
 0001:000622e0       ___scrt_fastfail           004632e0 f   LIBCMTD:utility_desktop.obj
 0001:00062470       ___scrt_get_show_window_mode 00463470 f   LIBCMTD:utility_desktop.obj
 0001:000624c0       ___scrt_initialize_winrt   004634c0 f   LIBCMTD:utility_desktop.obj
 0001:000624d0       ___scrt_is_managed_app     004634d0 f   LIBCMTD:utility_desktop.obj
 0001:00062580       ___scrt_set_unhandled_exception_filter 00463580 f   LIBCMTD:utility_desktop.obj
 0001:000625a0       ___scrt_unhandled_exception_filter@4 004635a0 f   LIBCMTD:utility_desktop.obj
 0001:00062620       __crt_debugger_hook        00463620 f   LIBCMTD:utility_desktop.obj
 0001:00062640       __RTC_Initialize           00463640 f   LIBCMTD:_initsect_.obj
 0001:00062680       __RTC_Terminate            00463680 f   LIBCMTD:_initsect_.obj
 0001:000626c0       @_guard_check_icall@4      004636c0 f i LIBCMTD:checkcfg.obj
 0001:000626e0       ___isa_available_init      004636e0 f   LIBCMTD:_cpu_disp_.obj
 0001:00062a70       ___scrt_is_ucrt_dll_in_use 00463a70 f   LIBCMTD:ucrt_detection.obj
 0001:00062aa0       @_guard_check_icall_nop@4  00463aa0 f i LIBCMTD:guard_support.obj
 0001:00062ab0       __guard_icall_checks_enforced 00463ab0 f i LIBCMTD:guard_support.obj
 0001:00062ae0       _waveOutGetErrorTextA@12   00463ae0 f   winmm:WINMM.dll
 0001:00062ae6       _waveInGetErrorTextA@12    00463ae6 f   winmm:WINMM.dll
 0001:00062aec       _waveOutGetNumDevs@0       00463aec f   winmm:WINMM.dll
 0001:00062af2       _waveOutGetDevCapsA@12     00463af2 f   winmm:WINMM.dll
 0001:00062af8       _waveOutGetVolume@8        00463af8 f   winmm:WINMM.dll
 0001:00062afe       _waveOutSetVolume@8        00463afe f   winmm:WINMM.dll
 0001:00062b04       _waveOutOpen@24            00463b04 f   winmm:WINMM.dll
 0001:00062b0a       _waveOutClose@4            00463b0a f   winmm:WINMM.dll
 0001:00062b10       _waveOutPrepareHeader@12   00463b10 f   winmm:WINMM.dll
 0001:00062b16       _waveOutUnprepareHeader@12 00463b16 f   winmm:WINMM.dll
 0001:00062b1c       _waveOutWrite@12           00463b1c f   winmm:WINMM.dll
 0001:00062b22       _waveOutPause@4            00463b22 f   winmm:WINMM.dll
 0001:00062b28       _waveOutRestart@4          00463b28 f   winmm:WINMM.dll
 0001:00062b2e       _waveOutReset@4            00463b2e f   winmm:WINMM.dll
 0001:00062b34       _waveInGetNumDevs@0        00463b34 f   winmm:WINMM.dll
 0001:00062b3a       _waveInGetDevCapsA@12      00463b3a f   winmm:WINMM.dll
 0001:00062b40       _waveInOpen@24             00463b40 f   winmm:WINMM.dll
 0001:00062b46       _waveInClose@4             00463b46 f   winmm:WINMM.dll
 0001:00062b4c       _waveInPrepareHeader@12    00463b4c f   winmm:WINMM.dll
 0001:00062b52       _waveInUnprepareHeader@12  00463b52 f   winmm:WINMM.dll
 0001:00062b58       _waveInAddBuffer@12        00463b58 f   winmm:WINMM.dll
 0001:00062b5e       _waveInStart@4             00463b5e f   winmm:WINMM.dll
 0001:00062b64       _waveInStop@4              00463b64 f   winmm:WINMM.dll
 0001:00062b6a       _waveInReset@4             00463b6a f   winmm:WINMM.dll
 0001:00062b70       _CloseHandle@4             00463b70 f   kernel32:KERNEL32.dll
 0001:00062b76       _SetEvent@4                00463b76 f   kernel32:KERNEL32.dll
 0001:00062b7c       _CreateEventA@16           00463b7c f   kernel32:KERNEL32.dll
 0001:00062b82       _GetCurrentThread@0        00463b82 f   kernel32:KERNEL32.dll
 0001:00062b88       _SetThreadPriority@8       00463b88 f   kernel32:KERNEL32.dll
 0001:00062b8e       _WaitForMultipleObjects@16 00463b8e f   kernel32:KERNEL32.dll
 0001:00062b94       _GetStdHandle@4            00463b94 f   kernel32:KERNEL32.dll
 0001:00062b9a       _GetLastError@0            00463b9a f   kernel32:KERNEL32.dll
 0001:00062ba0       _InitializeCriticalSection@4 00463ba0 f   kernel32:KERNEL32.dll
 0001:00062ba6       _EnterCriticalSection@4    00463ba6 f   kernel32:KERNEL32.dll
 0001:00062bac       _LeaveCriticalSection@4    00463bac f   kernel32:KERNEL32.dll
 0001:00062bb2       _TryEnterCriticalSection@4 00463bb2 f   kernel32:KERNEL32.dll
 0001:00062bb8       _DeleteCriticalSection@4   00463bb8 f   kernel32:KERNEL32.dll
 0001:00062bbe       _ResetEvent@4              00463bbe f   kernel32:KERNEL32.dll
 0001:00062bc4       _ReleaseSemaphore@12       00463bc4 f   kernel32:KERNEL32.dll
 0001:00062bca       _WaitForSingleObject@8     00463bca f   kernel32:KERNEL32.dll
 0001:00062bd0       _Sleep@4                   00463bd0 f   kernel32:KERNEL32.dll
 0001:00062bd6       _GetCurrentProcessId@0     00463bd6 f   kernel32:KERNEL32.dll
 0001:00062bdc       _CreateThread@24           00463bdc f   kernel32:KERNEL32.dll
 0001:00062be2       _GetCurrentThreadId@0      00463be2 f   kernel32:KERNEL32.dll
 0001:00062be8       _GetThreadPriority@4       00463be8 f   kernel32:KERNEL32.dll
 0001:00062bee       _ResumeThread@4            00463bee f   kernel32:KERNEL32.dll
 0001:00062bf4       _TlsAlloc@0                00463bf4 f   kernel32:KERNEL32.dll
 0001:00062bfa       _TlsGetValue@4             00463bfa f   kernel32:KERNEL32.dll
 0001:00062c00       _TlsSetValue@8             00463c00 f   kernel32:KERNEL32.dll
 0001:00062c06       _TlsFree@4                 00463c06 f   kernel32:KERNEL32.dll
 0001:00062c0c       _PulseEvent@4              00463c0c f   kernel32:KERNEL32.dll
 0001:00062c12       _CreateSemaphoreA@16       00463c12 f   kernel32:KERNEL32.dll
 0001:00062c18       _GetConsoleScreenBufferInfo@8 00463c18 f   kernel32:KERNEL32.dll
 0001:00062c1e       _SetConsoleTextAttribute@8 00463c1e f   kernel32:KERNEL32.dll
 0001:00062c24       _SetLastError@4            00463c24 f   kernel32:KERNEL32.dll
 0001:00062c2a       _FormatMessageA@28         00463c2a f   kernel32:KERNEL32.dll
 0001:00062c30       _GetLocalTime@4            00463c30 f   kernel32:KERNEL32.dll
 0001:00062c36       _FileTimeToSystemTime@8    00463c36 f   kernel32:KERNEL32.dll
 0001:00062c3c       _SystemTimeToFileTime@8    00463c3c f   kernel32:KERNEL32.dll
 0001:00062c42       _CreateFileA@28            00463c42 f   kernel32:KERNEL32.dll
 0001:00062c48       _DeleteFileA@4             00463c48 f   kernel32:KERNEL32.dll
 0001:00062c4e       _FileTimeToLocalFileTime@8 00463c4e f   kernel32:KERNEL32.dll
 0001:00062c54       _GetFileSize@8             00463c54 f   kernel32:KERNEL32.dll
 0001:00062c5a       _GetFileTime@16            00463c5a f   kernel32:KERNEL32.dll
 0001:00062c60       _MoveFileExA@12            00463c60 f   kernel32:KERNEL32.dll
 0001:00062c66       _FlushFileBuffers@4        00463c66 f   kernel32:KERNEL32.dll
 0001:00062c6c       _ReadFile@20               00463c6c f   kernel32:KERNEL32.dll
 0001:00062c72       _SetFilePointer@16         00463c72 f   kernel32:KERNEL32.dll
 0001:00062c78       _WriteFile@20              00463c78 f   kernel32:KERNEL32.dll
 0001:00062c7e       _QueryPerformanceCounter@4 00463c7e f   kernel32:KERNEL32.dll
 0001:00062c84       _QueryPerformanceFrequency@4 00463c84 f   kernel32:KERNEL32.dll
 0001:00062c8a       _FreeLibrary@4             00463c8a f   kernel32:KERNEL32.dll
 0001:00062c90       _GetProcAddress@8          00463c90 f   kernel32:KERNEL32.dll
 0001:00062c96       _LoadLibraryA@4            00463c96 f   kernel32:KERNEL32.dll
 0001:00062c9c       _UnhandledExceptionFilter@4 00463c9c f   kernel32:KERNEL32.dll
 0001:00062ca2       _SetUnhandledExceptionFilter@4 00463ca2 f   kernel32:KERNEL32.dll
 0001:00062ca8       _GetCurrentProcess@0       00463ca8 f   kernel32:KERNEL32.dll
 0001:00062cae       _TerminateProcess@8        00463cae f   kernel32:KERNEL32.dll
 0001:00062cb4       _IsProcessorFeaturePresent@4 00463cb4 f   kernel32:KERNEL32.dll
 0001:00062cba       _GetSystemTimeAsFileTime@4 00463cba f   kernel32:KERNEL32.dll
 0001:00062cc0       _InitializeSListHead@4     00463cc0 f   kernel32:KERNEL32.dll
 0001:00062cc6       _IsDebuggerPresent@0       00463cc6 f   kernel32:KERNEL32.dll
 0001:00062ccc       _GetStartupInfoW@4         00463ccc f   kernel32:KERNEL32.dll
 0001:00062cd2       _GetModuleHandleW@4        00463cd2 f   kernel32:KERNEL32.dll
 0001:00062ce0       _memcpy                    00463ce0 f   libvcruntimed:memcpy.obj
 0001:000633c0       _memset                    004643c0 f   libvcruntimed:memset.obj
 0001:00063570       __setjmp3                  00464570 f   libvcruntimed:_setjmp3_.obj
 0001:00063610       _memmove                   00464610 f   libvcruntimed:memmove.obj
 0001:00063cf0       _memchr                    00464cf0 f   libvcruntimed:memchr.obj
 0001:00063dd0       _strchr                    00464dd0 f   libvcruntimed:strchr.obj
 0001:00063e3e       ___from_strstr_to_strchr   00464e3e     libvcruntimed:strchr.obj
 0001:00064160       _memcmp                    00465160 f   libvcruntimed:_memcmp_.obj
 0001:00064c60       _longjmp                   00465c60 f   libvcruntimed:longjmpc.obj
 0001:00064d10       __except_handler4          00465d10 f   libvcruntimed:_chandler4_.obj
 0001:00064f60       ___vcrt_initialize         00465f60 f   libvcruntimed:initialization.obj
 0001:00064fb0       ___vcrt_thread_attach      00465fb0 f   libvcruntimed:initialization.obj
 0001:00064fd0       ___vcrt_thread_detach      00465fd0 f   libvcruntimed:initialization.obj
 0001:00064ff0       ___vcrt_uninitialize       00465ff0 f   libvcruntimed:initialization.obj
 0001:00065020       ___vcrt_uninitialize_critical 00466020 f   libvcruntimed:initialization.obj
 0001:00065080       ??$?RD@__crt_internal_free_policy@@QBEXQBD@Z 00466080 f i libvcruntimed:std_type_info.obj
 0001:000650b0       ??$?RX@__crt_internal_free_policy@@QBEXQBX@Z 004660b0 f i libvcruntimed:std_type_info.obj
 0001:000650e0       ??$__crt_interlocked_compare_exchange_pointer@$$CBD$$T$$T@@YAPBDPDSBD$$T1@Z 004660e0 f i libvcruntimed:std_type_info.obj
 0001:00065100       ??$__crt_interlocked_compare_exchange_pointer@$$CBDPAD$$T@@YAPBDPDSBDQAD$$T@Z 00466100 f i libvcruntimed:std_type_info.obj
 0001:00065120       ??$__crt_interlocked_read_pointer@$$CBD@@YAPBDPDSBD@Z 00466120 f i libvcruntimed:std_type_info.obj
 0001:00065140       ??0?$__crt_unique_heap_ptr@DU__crt_internal_free_policy@@@@QAE@QAD@Z 00466140 f i libvcruntimed:std_type_info.obj
 0001:00065160       ??0?$__crt_unique_heap_ptr@XU__crt_internal_free_policy@@@@QAE@QAX@Z 00466160 f i libvcruntimed:std_type_info.obj
 0001:00065180       ??1?$__crt_unique_heap_ptr@DU__crt_internal_free_policy@@@@QAE@XZ 00466180 f i libvcruntimed:std_type_info.obj
 0001:000651a0       ??1?$__crt_unique_heap_ptr@XU__crt_internal_free_policy@@@@QAE@XZ 004661a0 f i libvcruntimed:std_type_info.obj
 0001:00065200       ??B?$__crt_unique_heap_ptr@DU__crt_internal_free_policy@@@@QBE_NXZ 00466200 f i libvcruntimed:std_type_info.obj
 0001:00065220       ??B?$__crt_unique_heap_ptr@XU__crt_internal_free_policy@@@@QBE_NXZ 00466220 f i libvcruntimed:std_type_info.obj
 0001:000652a0       ?detach@?$__crt_unique_heap_ptr@XU__crt_internal_free_policy@@@@QAEPAXXZ 004662a0 f i libvcruntimed:std_type_info.obj
 0001:000652d0       ?get@?$__crt_unique_heap_ptr@DU__crt_internal_free_policy@@@@QBEPADXZ 004662d0 f i libvcruntimed:std_type_info.obj
 0001:000652f0       ?get@?$__crt_unique_heap_ptr@XU__crt_internal_free_policy@@@@QBEPAXXZ 004662f0 f i libvcruntimed:std_type_info.obj
 0001:00065310       ?is_valid@?$__crt_unique_heap_ptr@DU__crt_internal_free_policy@@@@QBE_NXZ 00466310 f i libvcruntimed:std_type_info.obj
 0001:00065350       ?is_valid@?$__crt_unique_heap_ptr@XU__crt_internal_free_policy@@@@QBE_NXZ 00466350 f i libvcruntimed:std_type_info.obj
 0001:00065390       ?release@?$__crt_unique_heap_ptr@DU__crt_internal_free_policy@@@@QAEXXZ 00466390 f i libvcruntimed:std_type_info.obj
 0001:000653c0       ?release@?$__crt_unique_heap_ptr@XU__crt_internal_free_policy@@@@QAEXXZ 004663c0 f i libvcruntimed:std_type_info.obj
 0001:000653f0       ___std_type_info_compare   004663f0 f   libvcruntimed:std_type_info.obj
 0001:00065420       ___std_type_info_destroy_list 00466420 f   libvcruntimed:std_type_info.obj
 0001:00065470       ___std_type_info_hash      00466470 f   libvcruntimed:std_type_info.obj
 0001:000654e0       ___std_type_info_name      004664e0 f   libvcruntimed:std_type_info.obj
 0001:00065730       __global_unwind2           00466730 f   libvcruntimed:_exsup_.obj
 0001:00065795       __local_unwind2            00466795 f   libvcruntimed:_exsup_.obj
 0001:00065819       __abnormal_termination     00466819 f   libvcruntimed:_exsup_.obj
 0001:0006583c       __NLG_Notify1              0046683c f   libvcruntimed:_exsup_.obj
 0001:00065845       __NLG_Notify               00466845 f   libvcruntimed:_exsup_.obj
 0001:0006585c       __NLG_Dispatch2            0046685c     libvcruntimed:_exsup_.obj
 0001:0006585c       __NLG_Dispatch             0046685c     libvcruntimed:_exsup_.obj
 0001:00065864       __NLG_Call                 00466864 f   libvcruntimed:_exsup_.obj
 0001:00065866       __NLG_Return2              00466866     libvcruntimed:_exsup_.obj
 0001:000658c0       ___longjmp_internal        004668c0 f   libvcruntimed:_longjmp_.obj
 0001:000659a0       ___except_validate_context_record 004669a0 f   libvcruntimed:jbcxrval.obj
 0001:00065a00       ___except_validate_jump_buffer 00466a00 f   libvcruntimed:jbcxrval.obj
 0001:00065a60       __local_unwind4            00466a60 f   libvcruntimed:_exsup4_.obj
 0001:00065b36       __seh_longjmp_unwind4@4    00466b36 f   libvcruntimed:_exsup4_.obj
 0001:00065b5e       @_EH4_CallFilterFunc@8     00466b5e f   libvcruntimed:_exsup4_.obj
 0001:00065b75       @_EH4_TransferToHandler@8  00466b75 f   libvcruntimed:_exsup4_.obj
 0001:00065b8e       @_EH4_GlobalUnwind2@8      00466b8e f   libvcruntimed:_exsup4_.obj
 0001:00065ba7       @_EH4_LocalUnwind@16       00466ba7 f   libvcruntimed:_exsup4_.obj
 0001:00065c20       ??$?RU__vcrt_ptd@@@__crt_internal_free_policy@@QBEXQBU__vcrt_ptd@@@Z 00466c20 f i libvcruntimed:per_thread_data.obj
 0001:00065c50       ??0?$__crt_unique_heap_ptr@U__vcrt_ptd@@U__crt_internal_free_policy@@@@QAE@QAU__vcrt_ptd@@@Z 00466c50 f i libvcruntimed:per_thread_data.obj
 0001:00065c90       ??1?$__crt_unique_heap_ptr@U__vcrt_ptd@@U__crt_internal_free_policy@@@@QAE@XZ 00466c90 f i libvcruntimed:per_thread_data.obj
 0001:00065cd0       ??B?$__crt_unique_heap_ptr@U__vcrt_ptd@@U__crt_internal_free_policy@@@@QBE_NXZ 00466cd0 f i libvcruntimed:per_thread_data.obj
 0001:00065cf0       ?detach@?$__crt_unique_heap_ptr@U__vcrt_ptd@@U__crt_internal_free_policy@@@@QAEPAU__vcrt_ptd@@XZ 00466cf0 f i libvcruntimed:per_thread_data.obj
 0001:00065d20       ?get@?$__crt_unique_heap_ptr@U__vcrt_ptd@@U__crt_internal_free_policy@@@@QBEPAU__vcrt_ptd@@XZ 00466d20 f i libvcruntimed:per_thread_data.obj
 0001:00065d40       ?is_valid@?$__crt_unique_heap_ptr@U__vcrt_ptd@@U__crt_internal_free_policy@@@@QBE_NXZ 00466d40 f i libvcruntimed:per_thread_data.obj
 0001:00065d80       ?release@?$__crt_unique_heap_ptr@U__vcrt_ptd@@U__crt_internal_free_policy@@@@QAEXXZ 00466d80 f i libvcruntimed:per_thread_data.obj
 0001:00065de0       ___vcrt_freefls@4          00466de0 f   libvcruntimed:per_thread_data.obj
 0001:00065e10       ___vcrt_freeptd            00466e10 f   libvcruntimed:per_thread_data.obj
 0001:00065e80       ___vcrt_getptd             00466e80 f   libvcruntimed:per_thread_data.obj
 0001:00065eb0       ___vcrt_getptd_noexit      00466eb0 f   libvcruntimed:per_thread_data.obj
 0001:00066070       ___vcrt_initialize_ptd     00467070 f   libvcruntimed:per_thread_data.obj
 0001:000660d0       ___vcrt_uninitialize_ptd   004670d0 f   libvcruntimed:per_thread_data.obj
 0001:00066110       ___vcrt_initialize_locks   00467110 f   libvcruntimed:locks.obj
 0001:00066180       ___vcrt_lock               00467180 f   libvcruntimed:locks.obj
 0001:000661a0       ___vcrt_uninitialize_locks 004671a0 f   libvcruntimed:locks.obj
 0001:00066200       ___vcrt_unlock             00467200 f   libvcruntimed:locks.obj
 0001:00066220       ??$?BX@__crt_fast_encoded_nullptr_t@@QBEPAXXZ 00467220 f i libvcruntimed:winapi_downlevel.obj
 0001:00066240       ??$__crt_fast_decode_pointer@PAX@@YAPAXQAX@Z 00467240 f i libvcruntimed:winapi_downlevel.obj
 0001:00066270       ??$__crt_fast_encode_pointer@PAX@@YAPAXQAX@Z 00467270 f i libvcruntimed:winapi_downlevel.obj
 0001:000662b0       ??$__crt_interlocked_compare_exchange_pointer@UHINSTANCE__@@$$T$$T@@YAPAUHINSTANCE__@@PDSAU0@$$T1@Z 004672b0 f i libvcruntimed:winapi_downlevel.obj
 0001:000662d0       ??$__crt_interlocked_compare_exchange_pointer@X$$T$$T@@YAPAXPDSAX$$T1@Z 004672d0 f i libvcruntimed:winapi_downlevel.obj
 0001:000662f0       ??$__crt_interlocked_exchange_pointer@UHINSTANCE__@@PAU1@@@YAPAUHINSTANCE__@@PDSAU0@QAU0@@Z 004672f0 f i libvcruntimed:winapi_downlevel.obj
 0001:00066300       ??$__crt_interlocked_exchange_pointer@UHINSTANCE__@@PAX@@YAPAUHINSTANCE__@@PDSAU0@QAX@Z 00467300 f i libvcruntimed:winapi_downlevel.obj
 0001:00066310       ??$__crt_interlocked_exchange_pointer@XPAX@@YAPAXPDSAXQAX@Z 00467310 f i libvcruntimed:winapi_downlevel.obj
 0001:00066320       ??$__crt_interlocked_read_pointer@UHINSTANCE__@@@@YAPAUHINSTANCE__@@PDSAU0@@Z 00467320 f i libvcruntimed:winapi_downlevel.obj
 0001:00066340       ??$__crt_interlocked_read_pointer@X@@YAPAXPDSAX@Z 00467340 f i libvcruntimed:winapi_downlevel.obj
 0001:00066360       ?__crt_fast_encode_pointer@@YA?AU__crt_fast_encoded_nullptr_t@@$$T@Z 00467360 f i libvcruntimed:winapi_downlevel.obj
 0001:000668f0       ___vcrt_EventRegister      004678f0 f   libvcruntimed:winapi_downlevel.obj
 0001:00066940       ___vcrt_EventSetInformation 00467940 f   libvcruntimed:winapi_downlevel.obj
 0001:000669a0       ___vcrt_EventUnregister    004679a0 f   libvcruntimed:winapi_downlevel.obj
 0001:000669f0       ___vcrt_EventWriteTransfer 004679f0 f   libvcruntimed:winapi_downlevel.obj
 0001:00066a50       ___vcrt_FlsAlloc           00467a50 f   libvcruntimed:winapi_downlevel.obj
 0001:00066aa0       ___vcrt_FlsFree            00467aa0 f   libvcruntimed:winapi_downlevel.obj
 0001:00066af0       ___vcrt_FlsGetValue        00467af0 f   libvcruntimed:winapi_downlevel.obj
 0001:00066b40       ___vcrt_FlsSetValue        00467b40 f   libvcruntimed:winapi_downlevel.obj
 0001:00066ba0       ___vcrt_InitializeCriticalSectionEx 00467ba0 f   libvcruntimed:winapi_downlevel.obj
 0001:00066c00       ___vcrt_initialize_winapi_thunks 00467c00 f   libvcruntimed:winapi_downlevel.obj
 0001:00066c80       ___vcrt_uninitialize_winapi_thunks 00467c80 f   libvcruntimed:winapi_downlevel.obj
 0001:00066d10       ??$?B$$A6AXXZ@__crt_fast_encoded_nullptr_t@@QBEP6AXXZXZ 00467d10 f i libvcruntimed:purevirt_data.obj
 0001:00066d30       ??$__crt_fast_encode_pointer@P6AXXZ@@YAP6AXXZQ6AXXZ@Z 00467d30 f i libvcruntimed:purevirt_data.obj
 0001:00066d70       ___vcrt_initialize_pure_virtual_call_handler 00467d70 f   libvcruntimed:purevirt_data.obj
 0001:00066da0       ??$__vcrt_va_start_verify_argument_type@QBD@@YAXXZ 00467da0 f i libvcruntimed:undname.obj
 0001:00066db0       ??0Block@_HeapManager@@QAE@XZ 00467db0 f i libvcruntimed:undname.obj
 0001:00066dd0       ??0DName@@QAE@AAPBDD@Z     00467dd0 f   libvcruntimed:undname.obj
 0001:00067140       ??0DName@@QAE@ABV0@@Z      00468140 f i libvcruntimed:undname.obj
 0001:00067170       ??0DName@@QAE@D@Z          00468170 f   libvcruntimed:undname.obj
 0001:00067280       ??0DName@@QAE@PAV0@@Z      00468280 f   libvcruntimed:undname.obj
 0001:00067400       ??0DName@@QAE@PBD@Z        00468400 f   libvcruntimed:undname.obj
 0001:00067530       ??0DName@@QAE@W4DNameStatus@@@Z 00468530 f   libvcruntimed:undname.obj
 0001:00067690       ??0DName@@QAE@XZ           00468690 f i libvcruntimed:undname.obj
 0001:00067780       ??0DName@@QAE@_J@Z         00468780 f   libvcruntimed:undname.obj
 0001:00067960       ??0DName@@QAE@_K@Z         00468960 f   libvcruntimed:undname.obj
 0001:00067af0       ??0DNameNode@@IAE@XZ       00468af0 f   libvcruntimed:undname.obj
 0001:00067b10       ??0DNameStatusNode@@AAE@W4DNameStatus@@@Z 00468b10 f   libvcruntimed:undname.obj
 0001:00067b80       ??0Replicator@@QAE@XZ      00468b80 f i libvcruntimed:undname.obj
 0001:00067ba0       ??0UnDecorator@@QAE@PADPBDHP6APADJ@ZK@Z 00468ba0 f i libvcruntimed:undname.obj
 0001:00067c60       ??0charNode@@QAE@D@Z       00468c60 f   libvcruntimed:undname.obj
 0001:00067ca0       ??0pDNameNode@@QAE@PAVDName@@@Z 00468ca0 f   libvcruntimed:undname.obj
 0001:00067d20       ??0pairNode@@QAE@PAVDNameNode@@0@Z 00468d20 f   libvcruntimed:undname.obj
 0001:00067d70       ??0pcharNode@@QAE@PBDH@Z   00468d70 f   libvcruntimed:undname.obj
 0001:00067e30       ??2@YAPAXIAAV_HeapManager@@H@Z 00468e30 f i libvcruntimed:undname.obj
 0001:00067e50       ??4DName@@QAEAAV0@ABV0@@Z  00468e50 f   libvcruntimed:undname.obj
 0001:00067e80       ??4DName@@QAEAAV0@D@Z      00468e80 f i libvcruntimed:undname.obj
 0001:00067f90       ??4DName@@QAEAAV0@PAV0@@Z  00468f90 f   libvcruntimed:undname.obj
 0001:00068110       ??4DName@@QAEAAV0@PBD@Z    00469110 f   libvcruntimed:undname.obj
 0001:00068220       ??4DName@@QAEAAV0@W4DNameStatus@@@Z 00469220 f   libvcruntimed:undname.obj
 0001:00068360       ??AReplicator@@QBE?AVDName@@H@Z 00469360 f   libvcruntimed:undname.obj
 0001:000683e0       ??BUnDecorator@@QAEPADXZ   004693e0 f i libvcruntimed:undname.obj
 0001:00068730       ??H@YA?AVDName@@DABV0@@Z   00469730 f i libvcruntimed:undname.obj
 0001:00068770       ??H@YA?AVDName@@PBDABV0@@Z 00469770 f i libvcruntimed:undname.obj
 0001:000687b0       ??H@YA?AVDName@@W4DNameStatus@@ABV0@@Z 004697b0 f i libvcruntimed:undname.obj
 0001:000687f0       ??HDName@@QBE?AV0@ABV0@@Z  004697f0 f   libvcruntimed:undname.obj
 0001:00068840       ??HDName@@QBE?AV0@D@Z      00469840 f   libvcruntimed:undname.obj
 0001:00068890       ??HDName@@QBE?AV0@PAV0@@Z  00469890 f   libvcruntimed:undname.obj
 0001:000688e0       ??HDName@@QBE?AV0@PBD@Z    004698e0 f   libvcruntimed:undname.obj
 0001:00068930       ??HDName@@QBE?AV0@W4DNameStatus@@@Z 00469930 f   libvcruntimed:undname.obj
 0001:00068980       ??YDName@@QAEAAV0@ABV0@@Z  00469980 f   libvcruntimed:undname.obj
 0001:00068a00       ??YDName@@QAEAAV0@D@Z      00469a00 f   libvcruntimed:undname.obj
 0001:00068aa0       ??YDName@@QAEAAV0@PAV0@@Z  00469aa0 f   libvcruntimed:undname.obj
 0001:00068b80       ??YDName@@QAEAAV0@PBD@Z    00469b80 f   libvcruntimed:undname.obj
 0001:00068c40       ??YDName@@QAEAAV0@W4DNameStatus@@@Z 00469c40 f   libvcruntimed:undname.obj
 0001:00068cc0       ??YReplicator@@QAEAAV0@ABVDName@@@Z 00469cc0 f   libvcruntimed:undname.obj
 0001:00068d70       ??_5DName@@QAEAAV0@ABV0@@Z 00469d70 f   libvcruntimed:undname.obj
 0001:00068de0       ?Constructor@_HeapManager@@QAEXP6APAXI@ZP6AXPAX@Z@Z 00469de0 f i libvcruntimed:undname.obj
 0001:00068e30       ?Destructor@_HeapManager@@QAEXXZ 00469e30 f i libvcruntimed:undname.obj
 0001:00068ea0       ?UScore@UnDecorator@@SAPBDW4Tokens@@@Z 00469ea0 f   libvcruntimed:undname.obj
 0001:00068ee0       ?append@DName@@AAEXPAVDNameNode@@@Z 00469ee0 f   libvcruntimed:undname.obj
 0001:00068f90       ?composeDeclaration@UnDecorator@@CA?AVDName@@ABV2@@Z 00469f90 f i libvcruntimed:undname.obj
 0001:0006b340       ?dbGetString@DName@@QBEPADXZ 0046c340 f   libvcruntimed:undname.obj
 0001:0006b370       ?doAccessSpecifiers@UnDecorator@@SAHXZ 0046c370 f i libvcruntimed:undname.obj
 0001:0006b3a0       ?doAllocationLanguage@UnDecorator@@SAHXZ 0046c3a0 f i libvcruntimed:undname.obj
 0001:0006b3d0       ?doAllocationModel@UnDecorator@@SAHXZ 0046c3d0 f i libvcruntimed:undname.obj
 0001:0006b400       ?doEcsu@UnDecorator@@SAHXZ 0046c400 f i libvcruntimed:undname.obj
 0001:0006b430       ?doEllipsis@UnDecorator@@SAHXZ 0046c430 f i libvcruntimed:undname.obj
 0001:0006b460       ?doFunctionReturns@UnDecorator@@SAHXZ 0046c460 f i libvcruntimed:undname.obj
 0001:0006b490       ?doMSKeywords@UnDecorator@@SAHXZ 0046c490 f i libvcruntimed:undname.obj
 0001:0006b4c0       ?doMemberTypes@UnDecorator@@SAHXZ 0046c4c0 f i libvcruntimed:undname.obj
 0001:0006b4f0       ?doNameOnly@UnDecorator@@SAHXZ 0046c4f0 f i libvcruntimed:undname.obj
 0001:0006b510       ?doNoIdentCharCheck@UnDecorator@@SAHXZ 0046c510 f i libvcruntimed:undname.obj
 0001:0006b530       ?doPchar@DName@@AAEXPBDH@Z 0046c530 f   libvcruntimed:undname.obj
 0001:0006b6c0       ?doPtr64@UnDecorator@@SAHXZ 0046c6c0 f i libvcruntimed:undname.obj
 0001:0006b6f0       ?doRestrictionSpec@UnDecorator@@SAHXZ 0046c6f0 f i libvcruntimed:undname.obj
 0001:0006b720       ?doThisTypes@UnDecorator@@SAHXZ 0046c720 f i libvcruntimed:undname.obj
 0001:0006b760       ?doThrowTypes@UnDecorator@@SAHXZ 0046c760 f i libvcruntimed:undname.obj
 0001:0006b790       ?doTypeOnly@UnDecorator@@SAHXZ 0046c790 f i libvcruntimed:undname.obj
 0001:0006b7b0       ?doUnderScore@UnDecorator@@SAHXZ 0046c7b0 f i libvcruntimed:undname.obj
 0001:0006b7e0       ?getArgumentList@UnDecorator@@CA?AVDName@@XZ 0046c7e0 f   libvcruntimed:undname.obj
 0001:0006b980       ?getArgumentTypes@UnDecorator@@CA?AVDName@@XZ 0046c980 f   libvcruntimed:undname.obj
 0001:0006bb30       ?getArrayType@UnDecorator@@CA?AVDName@@ABV2@@Z 0046cb30 f i libvcruntimed:undname.obj
 0001:0006bdf0       ?getBasedType@UnDecorator@@CA?AVDName@@XZ 0046cdf0 f   libvcruntimed:undname.obj
 0001:0006bee0       ?getBasicDataType@UnDecorator@@CA?AVDName@@ABV2@@Z 0046cee0 f   libvcruntimed:undname.obj
 0001:0006c640       ?getCallIndex@UnDecorator@@CA?AVDName@@XZ 0046d640 f i libvcruntimed:undname.obj
 0001:0006c660       ?getCallingConvention@UnDecorator@@CA?AVDName@@XZ 0046d660 f   libvcruntimed:undname.obj
 0001:0006c850       ?getDataIndirectType@UnDecorator@@CA?AVDName@@ABV2@PBD0H@Z 0046d850 f   libvcruntimed:undname.obj
 0001:0006d200       ?getDataIndirectType@UnDecorator@@CA?AVDName@@XZ 0046e200 f i libvcruntimed:undname.obj
 0001:0006d250       ?getDataType@UnDecorator@@CA?AVDName@@PAV2@@Z 0046e250 f   libvcruntimed:undname.obj
 0001:0006d3b0       ?getDecoratedName@UnDecorator@@CA?AVDName@@XZ 0046e3b0 f   libvcruntimed:undname.obj
 0001:0006d7a0       ?getDimension@UnDecorator@@CA?AVDName@@_N@Z 0046e7a0 f   libvcruntimed:undname.obj
 0001:0006db00       ?getDispatchTarget@UnDecorator@@CA?AVDName@@XZ 0046eb00 f   libvcruntimed:undname.obj
 0001:0006dbc0       ?getDisplacement@UnDecorator@@CA?AVDName@@XZ 0046ebc0 f i libvcruntimed:undname.obj
 0001:0006dbe0       ?getECSUDataType@UnDecorator@@CA?AVDName@@XZ 0046ebe0 f   libvcruntimed:undname.obj
 0001:0006de20       ?getECSUName@UnDecorator@@CA?AVDName@@XZ 0046ee20 f i libvcruntimed:undname.obj
 0001:0006de40       ?getEnumType@UnDecorator@@CA?AVDName@@XZ 0046ee40 f i libvcruntimed:undname.obj
 0001:0006dfe0       ?getExtendedDataIndirectType@UnDecorator@@CA?AVDName@@AAPBDAA_NH@Z 0046efe0 f   libvcruntimed:undname.obj
 0001:0006e2c0       ?getExternalDataType@UnDecorator@@CA?AVDName@@ABV2@@Z 0046f2c0 f i libvcruntimed:undname.obj
 0001:0006e380       ?getFunctionIndirectType@UnDecorator@@CA?AVDName@@ABV2@@Z 0046f380 f   libvcruntimed:undname.obj
 0001:0006e930       ?getGuardNumber@UnDecorator@@CA?AVDName@@XZ 0046f930 f i libvcruntimed:undname.obj
 0001:0006e950       ?getLastChar@DName@@QBEDXZ 0046f950 f i libvcruntimed:undname.obj
 0001:0006e9a0       ?getLastChar@DNameStatusNode@@UBEDXZ 0046f9a0 f i libvcruntimed:undname.obj
 0001:0006e9e0       ?getLastChar@charNode@@UBEDXZ 0046f9e0 f i libvcruntimed:undname.obj
 0001:0006ea00       ?getLastChar@pDNameNode@@UBEDXZ 0046fa00 f i libvcruntimed:undname.obj
 0001:0006ea40       ?getLastChar@pairNode@@UBEDXZ 0046fa40 f i libvcruntimed:undname.obj
 0001:0006eac0       ?getLastChar@pcharNode@@UBEDXZ 0046fac0 f i libvcruntimed:undname.obj
 0001:0006eb00       ?getLexicalFrame@UnDecorator@@CA?AVDName@@XZ 0046fb00 f i libvcruntimed:undname.obj
 0001:0006eb50       ?getMemory@_HeapManager@@QAEPAXIH@Z 0046fb50 f   libvcruntimed:undname.obj
 0001:0006ecb0       ?getNumberOfDimensions@UnDecorator@@CAHXZ 0046fcb0 f   libvcruntimed:undname.obj
 0001:0006edf0       ?getOperatorName@UnDecorator@@CA?AVDName@@_NPA_N@Z 0046fdf0 f i libvcruntimed:undname.obj
 0001:0006fab0       ?getPointerType@UnDecorator@@CA?AVDName@@ABV2@0@Z 00470ab0 f i libvcruntimed:undname.obj
 0001:0006faf0       ?getPointerTypeArray@UnDecorator@@CA?AVDName@@ABV2@0@Z 00470af0 f i libvcruntimed:undname.obj
 0001:0006fb30       ?getPrimaryDataType@UnDecorator@@CA?AVDName@@ABV2@@Z 00470b30 f   libvcruntimed:undname.obj
 0001:00070020       ?getPtrRefDataType@UnDecorator@@CA?AVDName@@ABV2@H@Z 00471020 f   libvcruntimed:undname.obj
 0001:00070220       ?getPtrRefType@UnDecorator@@CA?AVDName@@ABV2@0PBD@Z 00471220 f   libvcruntimed:undname.obj
 0001:000703f0       ?getReferenceType@UnDecorator@@CA?AVDName@@ABV2@0PBD@Z 004713f0 f i libvcruntimed:undname.obj
 0001:00070420       ?getRestrictionSpec@UnDecorator@@CA?AVDName@@XZ 00471420 f   libvcruntimed:undname.obj
 0001:000705c0       ?getReturnType@UnDecorator@@CA?AVDName@@PAV2@@Z 004715c0 f   libvcruntimed:undname.obj
 0001:00070620       ?getScope@UnDecorator@@CA?AVDName@@XZ 00471620 f   libvcruntimed:undname.obj
 0001:00070c50       ?getScopedName@UnDecorator@@CA?AVDName@@XZ 00471c50 f   libvcruntimed:undname.obj
 0001:00070db0       ?getSignedDimension@UnDecorator@@CA?AVDName@@XZ 00471db0 f   libvcruntimed:undname.obj
 0001:00070e50       ?getStorageConvention@UnDecorator@@CA?AVDName@@XZ 00471e50 f i libvcruntimed:undname.obj
 0001:00070e70       ?getString@DName@@QBEPADPAD0@Z 00471e70 f i libvcruntimed:undname.obj
 0001:00070ed0       ?getString@DName@@QBEPADPADH@Z 00471ed0 f i libvcruntimed:undname.obj
 0001:00070f80       ?getString@DNameStatusNode@@UBEPADPAD0@Z 00471f80 f i libvcruntimed:undname.obj
 0001:00070fc0       ?getString@charNode@@UBEPADPAD0@Z 00471fc0 f i libvcruntimed:undname.obj
 0001:00071000       ?getString@pDNameNode@@UBEPADPAD0@Z 00472000 f i libvcruntimed:undname.obj
 0001:00071050       ?getString@pairNode@@UBEPADPAD0@Z 00472050 f i libvcruntimed:undname.obj
 0001:000710f0       ?getString@pcharNode@@UBEPADPAD0@Z 004720f0 f i libvcruntimed:undname.obj
 0001:00071130       ?getStringEncoding@UnDecorator@@CA?AVDName@@PADH@Z 00472130 f   libvcruntimed:undname.obj
 0001:00071280       ?getStringHelper@@YAPADPAD00H@Z 00472280 f i libvcruntimed:undname.obj
 0001:000712d0       ?getSymbolName@UnDecorator@@CA?AVDName@@XZ 004722d0 f i libvcruntimed:undname.obj
 0001:00071380       ?getTemplateArgumentList@UnDecorator@@CA?AVDName@@XZ 00472380 f   libvcruntimed:undname.obj
 0001:00071860       ?getTemplateConstant@UnDecorator@@CA?AVDName@@XZ 00472860 f   libvcruntimed:undname.obj
 0001:00071f70       ?getTemplateName@UnDecorator@@CA?AVDName@@_N@Z 00472f70 f   libvcruntimed:undname.obj
 0001:000721b0       ?getThisType@UnDecorator@@CA?AVDName@@XZ 004731b0 f i libvcruntimed:undname.obj
 0001:00072200       ?getThrowTypes@UnDecorator@@CA?AVDName@@XZ 00473200 f   libvcruntimed:undname.obj
 0001:000722d0       ?getTypeEncoding@UnDecorator@@CAHXZ 004732d0 f i libvcruntimed:undname.obj
 0001:00072fa0       ?getVCallThunkType@UnDecorator@@CA?AVDName@@XZ 00473fa0 f i libvcruntimed:undname.obj
 0001:00073020       ?getVbTableType@UnDecorator@@CA?AVDName@@ABV2@@Z 00474020 f i libvcruntimed:undname.obj
 0001:00073040       ?getVdispMapType@UnDecorator@@CA?AVDName@@ABV2@@Z 00474040 f i libvcruntimed:undname.obj
 0001:000730d0       ?getVfTableType@UnDecorator@@CA?AVDName@@ABV2@@Z 004740d0 f i libvcruntimed:undname.obj
 0001:00073300       ?getZName@UnDecorator@@CA?AVDName@@_N0@Z 00474300 f   libvcruntimed:undname.obj
 0001:00073680       ?haveTemplateParameters@UnDecorator@@SAHXZ 00474680 f i libvcruntimed:undname.obj
 0001:000736a0       ?isArray@DName@@QBEHXZ     004746a0 f i libvcruntimed:undname.obj
 0001:000736c0       ?isComArray@DName@@QBEHXZ  004746c0 f i libvcruntimed:undname.obj
 0001:000736e0       ?isEmpty@DName@@QBEHXZ     004746e0 f i libvcruntimed:undname.obj
 0001:00073720       ?isFull@Replicator@@QBEHXZ 00474720 f i libvcruntimed:undname.obj
 0001:00073760       ?isNoTE@DName@@QBEHXZ      00474760 f i libvcruntimed:undname.obj
 0001:00073780       ?isPinPtr@DName@@QBEHXZ    00474780 f i libvcruntimed:undname.obj
 0001:000737a0       ?isPtrRef@DName@@QBEHXZ    004747a0 f i libvcruntimed:undname.obj
 0001:000737c0       ?isUDC@DName@@QBEHXZ       004747c0 f i libvcruntimed:undname.obj
 0001:00073810       ?isUDTThunk@DName@@QBEHXZ  00474810 f i libvcruntimed:undname.obj
 0001:00073860       ?isVCallThunk@DName@@QBEHXZ 00474860 f i libvcruntimed:undname.obj
 0001:00073880       ?isValid@DName@@QBEHXZ     00474880 f i libvcruntimed:undname.obj
 0001:000738c0       ?length@DName@@QBEHXZ      004748c0 f i libvcruntimed:undname.obj
 0001:00073910       ?length@DNameStatusNode@@UBEHXZ 00474910 f i libvcruntimed:undname.obj
 0001:00073930       ?length@charNode@@UBEHXZ   00474930 f i libvcruntimed:undname.obj
 0001:00073950       ?length@pDNameNode@@UBEHXZ 00474950 f i libvcruntimed:undname.obj
 0001:00073990       ?length@pairNode@@UBEHXZ   00474990 f i libvcruntimed:undname.obj
 0001:00073a20       ?length@pcharNode@@UBEHXZ  00474a20 f i libvcruntimed:undname.obj
 0001:00073a40       ?make@DNameStatusNode@@SAPAV1@W4DNameStatus@@@Z 00474a40 f i libvcruntimed:undname.obj
 0001:00073ad0       ?setIsArray@DName@@QAEXXZ  00474ad0 f i libvcruntimed:undname.obj
 0001:00073b00       ?setIsComArray@DName@@QAEXXZ 00474b00 f i libvcruntimed:undname.obj
 0001:00073b30       ?setIsNoTE@DName@@QAEXXZ   00474b30 f i libvcruntimed:undname.obj
 0001:00073b60       ?setIsPinPtr@DName@@QAEXXZ 00474b60 f i libvcruntimed:undname.obj
 0001:00073b90       ?setIsUDC@DName@@QAEXXZ    00474b90 f i libvcruntimed:undname.obj
 0001:00073bd0       ?setIsVCallThunk@DName@@QAEXXZ 00474bd0 f i libvcruntimed:undname.obj
 0001:00073c00       ?setPtrRef@DName@@QAEAAV1@XZ 00474c00 f i libvcruntimed:undname.obj
 0001:00073c30       ?status@DName@@QBE?AW4DNameStatus@@XZ 00474c30 f i libvcruntimed:undname.obj
 0001:00073d50       ___unDName                 00474d50 f   libvcruntimed:undname.obj
 0001:00073e50       ___unDNameEx               00474e50 f   libvcruntimed:undname.obj
 0001:00073f50       __vsprintf_s_l             00474f50 f i libvcruntimed:undname.obj
 0001:00073fb0       _sprintf_s                 00474fb0 f i libvcruntimed:undname.obj
 0001:00074000       __rt_probe_read4@4         00475000 f   libvcruntimed:_sehsupp_.obj
 0001:000740d0       ??$__crt_fast_decode_pointer@P6AXXZ@@YAP6AXXZQ6AXXZ@Z 004750d0 f i libvcruntimed:purevirt.obj
 0001:00074100       ??$__crt_interlocked_compare_exchange_pointer@$$A6AXXZ$$T$$T@@YAP6AXXZPDS6AXXZ$$T1@Z 00475100 f i libvcruntimed:purevirt.obj
 0001:00074120       ??$__crt_interlocked_exchange_pointer@$$A6AXXZP6AXXZ@@YAP6AXXZPDS6AXXZQ6AXXZ@Z 00475120 f i libvcruntimed:purevirt.obj
 0001:00074130       ??$__crt_interlocked_read_pointer@$$A6AXXZ@@YAP6AXXZPDS6AXXZ@Z 00475130 f i libvcruntimed:purevirt.obj
 0001:00074150       __get_purecall_handler     00475150 f   libvcruntimed:purevirt.obj
 0001:00074180       __purecall                 00475180 f   libvcruntimed:purevirt.obj
 0001:000741c0       __set_purecall_handler     004751c0 f   libvcruntimed:purevirt.obj
 0001:00074200       ??$?RPAU__crt_stdio_stream_data@@@__crt_internal_free_policy@@QBEXQBQAU__crt_stdio_stream_data@@@Z 00475200 f i libucrtd:_file.obj
 0001:00074230       ??0?$__crt_unique_heap_ptr@PAU__crt_stdio_stream_data@@U__crt_internal_free_policy@@@@QAE@QAPAU__crt_stdio_stream_data@@@Z 00475230 f i libucrtd:_file.obj
 0001:00074250       ??0__crt_stdio_stream@@QAE@QAU_iobuf@@@Z 00475250 f i libucrtd:_file.obj
 0001:00074270       ??1?$__crt_unique_heap_ptr@PAU__crt_stdio_stream_data@@U__crt_internal_free_policy@@@@QAE@XZ 00475270 f i libucrtd:_file.obj
 0001:00074290       ??C__crt_stdio_stream@@QBEPAU__crt_stdio_stream_data@@XZ 00475290 f i libucrtd:_file.obj
 0001:000742b0       ?detach@?$__crt_unique_heap_ptr@PAU__crt_stdio_stream_data@@U__crt_internal_free_policy@@@@QAEPAPAU__crt_stdio_stream_data@@XZ 004752b0 f i libucrtd:_file.obj
 0001:000742e0       ?release@?$__crt_unique_heap_ptr@PAU__crt_stdio_stream_data@@U__crt_internal_free_policy@@@@QAEXXZ 004752e0 f i libucrtd:_file.obj
 0001:00074320       ___acrt_initialize_stdio   00475320 f   libucrtd:_file.obj
 0001:000744f0       ___acrt_iob_func           004754f0 f   libucrtd:_file.obj
 0001:00074510       ___acrt_uninitialize_stdio 00475510 f   libucrtd:_file.obj
 0001:000745b0       __get_stream_buffer_pointers 004755b0 f   libucrtd:_file.obj
 0001:000746c0       __lock_file                004756c0 f   libucrtd:_file.obj
 0001:000746f0       __unlock_file              004756f0 f   libucrtd:_file.obj
 0001:00074720       ??$__crt_interlocked_read@J@@YAJPDJ@Z 00475720 f i libucrtd:fgets.obj
 0001:00074dd0       ??$getc_nolock@PAU_iobuf@@@?$__crt_char_traits@D@@SAH$$QAPAU_iobuf@@@Z 00475dd0 f i libucrtd:fgets.obj
 0001:00074df0       ??$getc_nolock@PAU_iobuf@@@?$__crt_char_traits@_W@@SAG$$QAPAU_iobuf@@@Z 00475df0 f i libucrtd:fgets.obj
 0001:00074e10       ?__crt_interlocked_read_32@@YAHPDH@Z 00475e10 f i libucrtd:fgets.obj
 0001:00074e30       ?get_flags@__crt_stdio_stream@@QBEJXZ 00475e30 f i libucrtd:fgets.obj
 0001:00074e60       ?is_string_backed@__crt_stdio_stream@@QBE_NXZ 00475e60 f i libucrtd:fgets.obj
 0001:00074ea0       ?public_stream@__crt_stdio_stream@@QBEPAU_iobuf@@XZ 00475ea0 f i libucrtd:fgets.obj
 0001:00074ec0       ?valid@__crt_stdio_stream@@QBE_NXZ 00475ec0 f i libucrtd:fgets.obj
 0001:00074f00       ?validate_stream_is_ansi_if_required@?$__acrt_stdio_char_traits@D@@SA_NQAU_iobuf@@@Z 00475f00 f i libucrtd:fgets.obj
 0001:00075080       ?validate_stream_is_ansi_if_required@?$__acrt_stdio_char_traits@_W@@SA_NQAU_iobuf@@@Z 00476080 f i libucrtd:fgets.obj
 0001:00075090       _fgets                     00476090 f   libucrtd:fgets.obj
 0001:000750d0       _fgetws                    004760d0 f   libucrtd:fgets.obj
 0001:00075110       ??$?RV<lambda_1fb4243d5e107ad4daf16ff362ca4a34>@@AAV<lambda_55f9cbce55698c0319f95c01c080475b>@@V<lambda_d740392b9cecdfa14abfd902a66ab607>@@@?$__crt_seh_guarded_call@H@@QAEH$$QAV<lambda_1fb4243d5e107ad4daf16ff362ca4a34>@@AAV<lambda_55f9cbce55698c0319f95c01c080475b>@@$$QAV<lambda_d740392b9cecdfa14abfd902a66ab607>@@@Z 00476110 f i libucrtd:puts.obj
 0001:000751c0       ??$__acrt_lock_stream_and_call@V<lambda_55f9cbce55698c0319f95c01c080475b>@@@@YAHQAU_iobuf@@$$QAV<lambda_55f9cbce55698c0319f95c01c080475b>@@@Z 004761c0 f i libucrtd:puts.obj
 0001:000752b0       ??0__acrt_stdio_temporary_buffering_guard@@QAE@QAU_iobuf@@@Z 004762b0 f i libucrtd:puts.obj
 0001:000752f0       ??1__acrt_stdio_temporary_buffering_guard@@QAE@XZ 004762f0 f i libucrtd:puts.obj
 0001:00075440       _puts                      00476440 f   libucrtd:puts.obj
 0001:00075690       ??$?0ABV?$stream_output_adapter@D@__crt_stdio_output@@AB_KABQBDABQAU__crt_locale_pointers@@ABQAD@?$format_validation_base@DV?$stream_output_adapter@D@__crt_stdio_output@@@__crt_stdio_output@@IAE@ABV?$stream_output_adapter@D@1@AB_KABQBDABQAU__crt_locale_pointers@@ABQAD@Z 00476690 f i libucrtd:output.obj
 0001:000756d0       ??$?0ABV?$stream_output_adapter@D@__crt_stdio_output@@AB_KABQBDABQAU__crt_locale_pointers@@ABQAD@?$positional_parameter_base@DV?$stream_output_adapter@D@__crt_stdio_output@@@__crt_stdio_output@@IAE@ABV?$stream_output_adapter@D@1@AB_KABQBDABQAU__crt_locale_pointers@@ABQAD@Z 004766d0 f i libucrtd:output.obj
 0001:00075760       ??$?0ABV?$stream_output_adapter@D@__crt_stdio_output@@AB_KABQBDABQAU__crt_locale_pointers@@ABQAD@?$standard_base@DV?$stream_output_adapter@D@__crt_stdio_output@@@__crt_stdio_output@@IAE@ABV?$stream_output_adapter@D@1@AB_KABQBDABQAU__crt_locale_pointers@@ABQAD@Z 00476760 f i libucrtd:output.obj
 0001:000757c0       ??$?0ABV?$stream_output_adapter@_W@__crt_stdio_output@@AB_KABQB_WABQAU__crt_locale_pointers@@ABQAD@?$format_validation_base@_WV?$stream_output_adapter@_W@__crt_stdio_output@@@__crt_stdio_output@@IAE@ABV?$stream_output_adapter@_W@1@AB_KABQB_WABQAU__crt_locale_pointers@@ABQAD@Z 004767c0 f i libucrtd:output.obj
 0001:00075800       ??$?0ABV?$stream_output_adapter@_W@__crt_stdio_output@@AB_KABQB_WABQAU__crt_locale_pointers@@ABQAD@?$positional_parameter_base@_WV?$stream_output_adapter@_W@__crt_stdio_output@@@__crt_stdio_output@@IAE@ABV?$stream_output_adapter@_W@1@AB_KABQB_WABQAU__crt_locale_pointers@@ABQAD@Z 00476800 f i libucrtd:output.obj
 0001:00075890       ??$?0ABV?$stream_output_adapter@_W@__crt_stdio_output@@AB_KABQB_WABQAU__crt_locale_pointers@@ABQAD@?$standard_base@_WV?$stream_output_adapter@_W@__crt_stdio_output@@@__crt_stdio_output@@IAE@ABV?$stream_output_adapter@_W@1@AB_KABQB_WABQAU__crt_locale_pointers@@ABQAD@Z 00476890 f i libucrtd:output.obj
 0001:000758f0       ??$?0ABV?$string_output_adapter@D@__crt_stdio_output@@AB_KABQBDABQAU__crt_locale_pointers@@ABQAD@?$format_validation_base@DV?$string_output_adapter@D@__crt_stdio_output@@@__crt_stdio_output@@IAE@ABV?$string_output_adapter@D@1@AB_KABQBDABQAU__crt_locale_pointers@@ABQAD@Z 004768f0 f i libucrtd:output.obj
 0001:00075930       ??$?0ABV?$string_output_adapter@D@__crt_stdio_output@@AB_KABQBDABQAU__crt_locale_pointers@@ABQAD@?$positional_parameter_base@DV?$string_output_adapter@D@__crt_stdio_output@@@__crt_stdio_output@@IAE@ABV?$string_output_adapter@D@1@AB_KABQBDABQAU__crt_locale_pointers@@ABQAD@Z 00476930 f i libucrtd:output.obj
 0001:000759c0       ??$?0ABV?$string_output_adapter@D@__crt_stdio_output@@AB_KABQBDABQAU__crt_locale_pointers@@ABQAD@?$standard_base@DV?$string_output_adapter@D@__crt_stdio_output@@@__crt_stdio_output@@IAE@ABV?$string_output_adapter@D@1@AB_KABQBDABQAU__crt_locale_pointers@@ABQAD@Z 004769c0 f i libucrtd:output.obj
 0001:00075a20       ??$?0ABV?$string_output_adapter@_W@__crt_stdio_output@@AB_KABQB_WABQAU__crt_locale_pointers@@ABQAD@?$format_validation_base@_WV?$string_output_adapter@_W@__crt_stdio_output@@@__crt_stdio_output@@IAE@ABV?$string_output_adapter@_W@1@AB_KABQB_WABQAU__crt_locale_pointers@@ABQAD@Z 00476a20 f i libucrtd:output.obj
 0001:00075a60       ??$?0ABV?$string_output_adapter@_W@__crt_stdio_output@@AB_KABQB_WABQAU__crt_locale_pointers@@ABQAD@?$positional_parameter_base@_WV?$string_output_adapter@_W@__crt_stdio_output@@@__crt_stdio_output@@IAE@ABV?$string_output_adapter@_W@1@AB_KABQB_WABQAU__crt_locale_pointers@@ABQAD@Z 00476a60 f i libucrtd:output.obj
 0001:00075af0       ??$?0ABV?$string_output_adapter@_W@__crt_stdio_output@@AB_KABQB_WABQAU__crt_locale_pointers@@ABQAD@?$standard_base@_WV?$string_output_adapter@_W@__crt_stdio_output@@@__crt_stdio_output@@IAE@ABV?$string_output_adapter@_W@1@AB_KABQB_WABQAU__crt_locale_pointers@@ABQAD@Z 00476af0 f i libucrtd:output.obj
 0001:00075b50       ??$?RV<lambda_2293f24e3ce1ad6fe22ccfb9dec07671>@@AAV<lambda_2565fc715a641e539f44ad02d6823606>@@V<lambda_d3217f279b832965d9ca670dc2993570>@@@?$__crt_seh_guarded_call@H@@QAEH$$QAV<lambda_2293f24e3ce1ad6fe22ccfb9dec07671>@@AAV<lambda_2565fc715a641e539f44ad02d6823606>@@$$QAV<lambda_d3217f279b832965d9ca670dc2993570>@@@Z 00476b50 f i libucrtd:output.obj
 0001:00075c00       ??$?RV<lambda_4d4ac866be0fa3c441830420fabdd2cb>@@AAV<lambda_63a10c2dc8dbb9e4dd1890be52af7c93>@@V<lambda_002af9fa0f8fe472b648c51882d4fc32>@@@?$__crt_seh_guarded_call@H@@QAEH$$QAV<lambda_4d4ac866be0fa3c441830420fabdd2cb>@@AAV<lambda_63a10c2dc8dbb9e4dd1890be52af7c93>@@$$QAV<lambda_002af9fa0f8fe472b648c51882d4fc32>@@@Z 00476c00 f i libucrtd:output.obj
 0001:00075cb0       ??$?RV<lambda_5be909dfbae0a631386585770cd7b676>@@AAV<lambda_e516058a9c289d98c8ca9fea99247804>@@V<lambda_afe2e0cdc5e0ecf6f0d6f5e2f8985e38>@@@?$__crt_seh_guarded_call@H@@QAEH$$QAV<lambda_5be909dfbae0a631386585770cd7b676>@@AAV<lambda_e516058a9c289d98c8ca9fea99247804>@@$$QAV<lambda_afe2e0cdc5e0ecf6f0d6f5e2f8985e38>@@@Z 00476cb0 f i libucrtd:output.obj
 0001:00075d60       ??$?RV<lambda_823d65812123d985753d53e2a8c25d20>@@AAV<lambda_0a97c9e57da7be065955385c79108ff2>@@V<lambda_4d2973f3ad2d226f00468307185dca1b>@@@?$__crt_seh_guarded_call@H@@QAEH$$QAV<lambda_823d65812123d985753d53e2a8c25d20>@@AAV<lambda_0a97c9e57da7be065955385c79108ff2>@@$$QAV<lambda_4d2973f3ad2d226f00468307185dca1b>@@@Z 00476d60 f i libucrtd:output.obj
 0001:00075e10       ??$?RV<lambda_ab9923ffb5d694ec0d78876dd103e44f>@@AAV<lambda_481dd5778c961fbcd3b60b650e9b9dc4>@@V<lambda_7923d86c9e3f319b415918ec4b39749c>@@@?$__crt_seh_guarded_call@H@@QAEH$$QAV<lambda_ab9923ffb5d694ec0d78876dd103e44f>@@AAV<lambda_481dd5778c961fbcd3b60b650e9b9dc4>@@$$QAV<lambda_7923d86c9e3f319b415918ec4b39749c>@@@Z 00476e10 f i libucrtd:output.obj
 0001:00075ec0       ??$?RV<lambda_db08b09ef7aa9d4f8620ce68402612bc>@@AAV<lambda_4f2c1eaeead2a5fc776db5b62ea0fb9b>@@V<lambda_3ae262bc35d4ba6a3825c4f6bcaaf95c>@@@?$__crt_seh_guarded_call@H@@QAEH$$QAV<lambda_db08b09ef7aa9d4f8620ce68402612bc>@@AAV<lambda_4f2c1eaeead2a5fc776db5b62ea0fb9b>@@$$QAV<lambda_3ae262bc35d4ba6a3825c4f6bcaaf95c>@@@Z 00476ec0 f i libucrtd:output.obj
 0001:00075f70       ??$__acrt_lock_stream_and_call@V<lambda_0a97c9e57da7be065955385c79108ff2>@@@@YAHQAU_iobuf@@$$QAV<lambda_0a97c9e57da7be065955385c79108ff2>@@@Z 00476f70 f i libucrtd:output.obj
 0001:00075fc0       ??$__acrt_lock_stream_and_call@V<lambda_2565fc715a641e539f44ad02d6823606>@@@@YAHQAU_iobuf@@$$QAV<lambda_2565fc715a641e539f44ad02d6823606>@@@Z 00476fc0 f i libucrtd:output.obj
 0001:00076010       ??$__acrt_lock_stream_and_call@V<lambda_481dd5778c961fbcd3b60b650e9b9dc4>@@@@YAHQAU_iobuf@@$$QAV<lambda_481dd5778c961fbcd3b60b650e9b9dc4>@@@Z 00477010 f i libucrtd:output.obj
 0001:00076060       ??$__acrt_lock_stream_and_call@V<lambda_4f2c1eaeead2a5fc776db5b62ea0fb9b>@@@@YAHQAU_iobuf@@$$QAV<lambda_4f2c1eaeead2a5fc776db5b62ea0fb9b>@@@Z 00477060 f i libucrtd:output.obj
 0001:000760b0       ??$__acrt_lock_stream_and_call@V<lambda_63a10c2dc8dbb9e4dd1890be52af7c93>@@@@YAHQAU_iobuf@@$$QAV<lambda_63a10c2dc8dbb9e4dd1890be52af7c93>@@@Z 004770b0 f i libucrtd:output.obj
 0001:00076100       ??$__acrt_lock_stream_and_call@V<lambda_e516058a9c289d98c8ca9fea99247804>@@@@YAHQAU_iobuf@@$$QAV<lambda_e516058a9c289d98c8ca9fea99247804>@@@Z 00477100 f i libucrtd:output.obj
 0001:000799d0       ??$count@D@formatting_buffer@__crt_stdio_output@@QBEIXZ 0047a9d0 f i libucrtd:output.obj
 0001:00079a20       ??$data@D@formatting_buffer@__crt_stdio_output@@QAEPADXZ 0047aa20 f i libucrtd:output.obj
 0001:00079a70       ??$data@_W@formatting_buffer@__crt_stdio_output@@QAEPA_WXZ 0047aa70 f i libucrtd:output.obj
 0001:00079ac0       ??$ensure_buffer_is_big_enough@D@formatting_buffer@__crt_stdio_output@@QAE_NI@Z 0047aac0 f i libucrtd:output.obj
 0001:00079be0       ??$extract_argument_from_va_list@C_J@?$positional_parameter_base@DV?$stream_output_adapter@D@__crt_stdio_output@@@__crt_stdio_output@@IAE_NAA_J@Z 0047abe0 f i libucrtd:output.obj
 0001:00079d60       ??$extract_argument_from_va_list@C_J@?$positional_parameter_base@DV?$string_output_adapter@D@__crt_stdio_output@@@__crt_stdio_output@@IAE_NAA_J@Z 0047ad60 f i libucrtd:output.obj
 0001:00079ee0       ??$extract_argument_from_va_list@C_J@?$positional_parameter_base@_WV?$stream_output_adapter@_W@__crt_stdio_output@@@__crt_stdio_output@@IAE_NAA_J@Z 0047aee0 f i libucrtd:output.obj
 0001:0007a060       ??$extract_argument_from_va_list@C_J@?$positional_parameter_base@_WV?$string_output_adapter@_W@__crt_stdio_output@@@__crt_stdio_output@@IAE_NAA_J@Z 0047b060 f i libucrtd:output.obj
 0001:0007a1e0       ??$extract_argument_from_va_list@C_J@?$standard_base@DV?$stream_output_adapter@D@__crt_stdio_output@@@__crt_stdio_output@@IAE_NAA_J@Z 0047b1e0 f i libucrtd:output.obj
 0001:0007a220       ??$extract_argument_from_va_list@C_J@?$standard_base@DV?$string_output_adapter@D@__crt_stdio_output@@@__crt_stdio_output@@IAE_NAA_J@Z 0047b220 f i libucrtd:output.obj
 0001:0007a260       ??$extract_argument_from_va_list@C_J@?$standard_base@_WV?$stream_output_adapter@_W@__crt_stdio_output@@@__crt_stdio_output@@IAE_NAA_J@Z 0047b260 f i libucrtd:output.obj
 0001:0007a2a0       ??$extract_argument_from_va_list@C_J@?$standard_base@_WV?$string_output_adapter@_W@__crt_stdio_output@@@__crt_stdio_output@@IAE_NAA_J@Z 0047b2a0 f i libucrtd:output.obj
 0001:0007a2e0       ??$extract_argument_from_va_list@E_J@?$positional_parameter_base@DV?$stream_output_adapter@D@__crt_stdio_output@@@__crt_stdio_output@@IAE_NAA_J@Z 0047b2e0 f i libucrtd:output.obj
 0001:0007a460       ??$extract_argument_from_va_list@E_J@?$positional_parameter_base@DV?$string_output_adapter@D@__crt_stdio_output@@@__crt_stdio_output@@IAE_NAA_J@Z 0047b460 f i libucrtd:output.obj
 0001:0007a5e0       ??$extract_argument_from_va_list@E_J@?$positional_parameter_base@_WV?$stream_output_adapter@_W@__crt_stdio_output@@@__crt_stdio_output@@IAE_NAA_J@Z 0047b5e0 f i libucrtd:output.obj
 0001:0007a760       ??$extract_argument_from_va_list@E_J@?$positional_parameter_base@_WV?$string_output_adapter@_W@__crt_stdio_output@@@__crt_stdio_output@@IAE_NAA_J@Z 0047b760 f i libucrtd:output.obj
 0001:0007a8e0       ??$extract_argument_from_va_list@E_J@?$standard_base@DV?$stream_output_adapter@D@__crt_stdio_output@@@__crt_stdio_output@@IAE_NAA_J@Z 0047b8e0 f i libucrtd:output.obj
 0001:0007a920       ??$extract_argument_from_va_list@E_J@?$standard_base@DV?$string_output_adapter@D@__crt_stdio_output@@@__crt_stdio_output@@IAE_NAA_J@Z 0047b920 f i libucrtd:output.obj
 0001:0007a960       ??$extract_argument_from_va_list@E_J@?$standard_base@_WV?$stream_output_adapter@_W@__crt_stdio_output@@@__crt_stdio_output@@IAE_NAA_J@Z 0047b960 f i libucrtd:output.obj
 0001:0007a9a0       ??$extract_argument_from_va_list@E_J@?$standard_base@_WV?$string_output_adapter@_W@__crt_stdio_output@@@__crt_stdio_output@@IAE_NAA_J@Z 0047b9a0 f i libucrtd:output.obj
 0001:0007a9e0       ??$extract_argument_from_va_list@F_J@?$positional_parameter_base@DV?$stream_output_adapter@D@__crt_stdio_output@@@__crt_stdio_output@@IAE_NAA_J@Z 0047b9e0 f i libucrtd:output.obj
 0001:0007ab60       ??$extract_argument_from_va_list@F_J@?$positional_parameter_base@DV?$string_output_adapter@D@__crt_stdio_output@@@__crt_stdio_output@@IAE_NAA_J@Z 0047bb60 f i libucrtd:output.obj
 0001:0007ace0       ??$extract_argument_from_va_list@F_J@?$positional_parameter_base@_WV?$stream_output_adapter@_W@__crt_stdio_output@@@__crt_stdio_output@@IAE_NAA_J@Z 0047bce0 f i libucrtd:output.obj
 0001:0007ae60       ??$extract_argument_from_va_list@F_J@?$positional_parameter_base@_WV?$string_output_adapter@_W@__crt_stdio_output@@@__crt_stdio_output@@IAE_NAA_J@Z 0047be60 f i libucrtd:output.obj
 0001:0007afe0       ??$extract_argument_from_va_list@F_J@?$standard_base@DV?$stream_output_adapter@D@__crt_stdio_output@@@__crt_stdio_output@@IAE_NAA_J@Z 0047bfe0 f i libucrtd:output.obj
 0001:0007b020       ??$extract_argument_from_va_list@F_J@?$standard_base@DV?$string_output_adapter@D@__crt_stdio_output@@@__crt_stdio_output@@IAE_NAA_J@Z 0047c020 f i libucrtd:output.obj
 0001:0007b060       ??$extract_argument_from_va_list@F_J@?$standard_base@_WV?$stream_output_adapter@_W@__crt_stdio_output@@@__crt_stdio_output@@IAE_NAA_J@Z 0047c060 f i libucrtd:output.obj
 0001:0007b0a0       ??$extract_argument_from_va_list@F_J@?$standard_base@_WV?$string_output_adapter@_W@__crt_stdio_output@@@__crt_stdio_output@@IAE_NAA_J@Z 0047c0a0 f i libucrtd:output.obj
 0001:0007b0e0       ??$extract_argument_from_va_list@GD@?$positional_parameter_base@DV?$stream_output_adapter@D@__crt_stdio_output@@@__crt_stdio_output@@IAE_NAAD@Z 0047c0e0 f i libucrtd:output.obj
 0001:0007b260       ??$extract_argument_from_va_list@GD@?$positional_parameter_base@DV?$string_output_adapter@D@__crt_stdio_output@@@__crt_stdio_output@@IAE_NAAD@Z 0047c260 f i libucrtd:output.obj
 0001:0007b3e0       ??$extract_argument_from_va_list@GD@?$standard_base@DV?$stream_output_adapter@D@__crt_stdio_output@@@__crt_stdio_output@@IAE_NAAD@Z 0047c3e0 f i libucrtd:output.obj
 0001:0007b410       ??$extract_argument_from_va_list@GD@?$standard_base@DV?$string_output_adapter@D@__crt_stdio_output@@@__crt_stdio_output@@IAE_NAAD@Z 0047c410 f i libucrtd:output.obj
 0001:0007b440       ??$extract_argument_from_va_list@G_J@?$positional_parameter_base@DV?$stream_output_adapter@D@__crt_stdio_output@@@__crt_stdio_output@@IAE_NAA_J@Z 0047c440 f i libucrtd:output.obj
 0001:0007b5c0       ??$extract_argument_from_va_list@G_J@?$positional_parameter_base@DV?$string_output_adapter@D@__crt_stdio_output@@@__crt_stdio_output@@IAE_NAA_J@Z 0047c5c0 f i libucrtd:output.obj
 0001:0007b740       ??$extract_argument_from_va_list@G_J@?$positional_parameter_base@_WV?$stream_output_adapter@_W@__crt_stdio_output@@@__crt_stdio_output@@IAE_NAA_J@Z 0047c740 f i libucrtd:output.obj
 0001:0007b8c0       ??$extract_argument_from_va_list@G_J@?$positional_parameter_base@_WV?$string_output_adapter@_W@__crt_stdio_output@@@__crt_stdio_output@@IAE_NAA_J@Z 0047c8c0 f i libucrtd:output.obj
 0001:0007ba40       ??$extract_argument_from_va_list@G_J@?$standard_base@DV?$stream_output_adapter@D@__crt_stdio_output@@@__crt_stdio_output@@IAE_NAA_J@Z 0047ca40 f i libucrtd:output.obj
 0001:0007ba80       ??$extract_argument_from_va_list@G_J@?$standard_base@DV?$string_output_adapter@D@__crt_stdio_output@@@__crt_stdio_output@@IAE_NAA_J@Z 0047ca80 f i libucrtd:output.obj
 0001:0007bac0       ??$extract_argument_from_va_list@G_J@?$standard_base@_WV?$stream_output_adapter@_W@__crt_stdio_output@@@__crt_stdio_output@@IAE_NAA_J@Z 0047cac0 f i libucrtd:output.obj
 0001:0007bb00       ??$extract_argument_from_va_list@G_J@?$standard_base@_WV?$string_output_adapter@_W@__crt_stdio_output@@@__crt_stdio_output@@IAE_NAA_J@Z 0047cb00 f i libucrtd:output.obj
 0001:0007bb40       ??$extract_argument_from_va_list@H_J@?$positional_parameter_base@DV?$stream_output_adapter@D@__crt_stdio_output@@@__crt_stdio_output@@IAE_NAA_J@Z 0047cb40 f i libucrtd:output.obj
 0001:0007bcc0       ??$extract_argument_from_va_list@H_J@?$positional_parameter_base@DV?$string_output_adapter@D@__crt_stdio_output@@@__crt_stdio_output@@IAE_NAA_J@Z 0047ccc0 f i libucrtd:output.obj
 0001:0007be40       ??$extract_argument_from_va_list@H_J@?$positional_parameter_base@_WV?$stream_output_adapter@_W@__crt_stdio_output@@@__crt_stdio_output@@IAE_NAA_J@Z 0047ce40 f i libucrtd:output.obj
 0001:0007bfc0       ??$extract_argument_from_va_list@H_J@?$positional_parameter_base@_WV?$string_output_adapter@_W@__crt_stdio_output@@@__crt_stdio_output@@IAE_NAA_J@Z 0047cfc0 f i libucrtd:output.obj
 0001:0007c140       ??$extract_argument_from_va_list@H_J@?$standard_base@DV?$stream_output_adapter@D@__crt_stdio_output@@@__crt_stdio_output@@IAE_NAA_J@Z 0047d140 f i libucrtd:output.obj
 0001:0007c180       ??$extract_argument_from_va_list@H_J@?$standard_base@DV?$string_output_adapter@D@__crt_stdio_output@@@__crt_stdio_output@@IAE_NAA_J@Z 0047d180 f i libucrtd:output.obj
 0001:0007c1c0       ??$extract_argument_from_va_list@H_J@?$standard_base@_WV?$stream_output_adapter@_W@__crt_stdio_output@@@__crt_stdio_output@@IAE_NAA_J@Z 0047d1c0 f i libucrtd:output.obj
 0001:0007c200       ??$extract_argument_from_va_list@H_J@?$standard_base@_WV?$string_output_adapter@_W@__crt_stdio_output@@@__crt_stdio_output@@IAE_NAA_J@Z 0047d200 f i libucrtd:output.obj
 0001:0007c240       ??$extract_argument_from_va_list@I_J@?$positional_parameter_base@DV?$stream_output_adapter@D@__crt_stdio_output@@@__crt_stdio_output@@IAE_NAA_J@Z 0047d240 f i libucrtd:output.obj
 0001:0007c3c0       ??$extract_argument_from_va_list@I_J@?$positional_parameter_base@DV?$string_output_adapter@D@__crt_stdio_output@@@__crt_stdio_output@@IAE_NAA_J@Z 0047d3c0 f i libucrtd:output.obj
 0001:0007c540       ??$extract_argument_from_va_list@I_J@?$positional_parameter_base@_WV?$stream_output_adapter@_W@__crt_stdio_output@@@__crt_stdio_output@@IAE_NAA_J@Z 0047d540 f i libucrtd:output.obj
 0001:0007c6c0       ??$extract_argument_from_va_list@I_J@?$positional_parameter_base@_WV?$string_output_adapter@_W@__crt_stdio_output@@@__crt_stdio_output@@IAE_NAA_J@Z 0047d6c0 f i libucrtd:output.obj
 0001:0007c840       ??$extract_argument_from_va_list@I_J@?$standard_base@DV?$stream_output_adapter@D@__crt_stdio_output@@@__crt_stdio_output@@IAE_NAA_J@Z 0047d840 f i libucrtd:output.obj
 0001:0007c880       ??$extract_argument_from_va_list@I_J@?$standard_base@DV?$string_output_adapter@D@__crt_stdio_output@@@__crt_stdio_output@@IAE_NAA_J@Z 0047d880 f i libucrtd:output.obj
 0001:0007c8c0       ??$extract_argument_from_va_list@I_J@?$standard_base@_WV?$stream_output_adapter@_W@__crt_stdio_output@@@__crt_stdio_output@@IAE_NAA_J@Z 0047d8c0 f i libucrtd:output.obj
 0001:0007c900       ??$extract_argument_from_va_list@I_J@?$standard_base@_WV?$string_output_adapter@_W@__crt_stdio_output@@@__crt_stdio_output@@IAE_NAA_J@Z 0047d900 f i libucrtd:output.obj
 0001:0007c940       ??$extract_argument_from_va_list@PADPAD@?$positional_parameter_base@DV?$stream_output_adapter@D@__crt_stdio_output@@@__crt_stdio_output@@IAE_NAAPAD@Z 0047d940 f i libucrtd:output.obj
 0001:0007cac0       ??$extract_argument_from_va_list@PADPAD@?$positional_parameter_base@DV?$string_output_adapter@D@__crt_stdio_output@@@__crt_stdio_output@@IAE_NAAPAD@Z 0047dac0 f i libucrtd:output.obj
 0001:0007cc40       ??$extract_argument_from_va_list@PADPAD@?$positional_parameter_base@_WV?$stream_output_adapter@_W@__crt_stdio_output@@@__crt_stdio_output@@IAE_NAAPAD@Z 0047dc40 f i libucrtd:output.obj
 0001:0007cdc0       ??$extract_argument_from_va_list@PADPAD@?$positional_parameter_base@_WV?$string_output_adapter@_W@__crt_stdio_output@@@__crt_stdio_output@@IAE_NAAPAD@Z 0047ddc0 f i libucrtd:output.obj
 0001:0007cf40       ??$extract_argument_from_va_list@PADPAD@?$standard_base@DV?$stream_output_adapter@D@__crt_stdio_output@@@__crt_stdio_output@@IAE_NAAPAD@Z 0047df40 f i libucrtd:output.obj
 0001:0007cf70       ??$extract_argument_from_va_list@PADPAD@?$standard_base@DV?$string_output_adapter@D@__crt_stdio_output@@@__crt_stdio_output@@IAE_NAAPAD@Z 0047df70 f i libucrtd:output.obj
 0001:0007cfa0       ??$extract_argument_from_va_list@PADPAD@?$standard_base@_WV?$stream_output_adapter@_W@__crt_stdio_output@@@__crt_stdio_output@@IAE_NAAPAD@Z 0047dfa0 f i libucrtd:output.obj
 0001:0007cfd0       ??$extract_argument_from_va_list@PADPAD@?$standard_base@_WV?$string_output_adapter@_W@__crt_stdio_output@@@__crt_stdio_output@@IAE_NAAPAD@Z 0047dfd0 f i libucrtd:output.obj
 0001:0007d000       ??$extract_argument_from_va_list@PAUansi_string@?1??type_case_Z@?$output_processor@DV?$stream_output_adapter@D@__crt_stdio_output@@V?$format_validation_base@DV?$stream_output_adapter@D@__crt_stdio_output@@@2@@__crt_stdio_output@@AAE_NXZ@PAU1?1??234@AAE_NXZ@@?$standard_base@DV?$stream_output_adapter@D@__crt_stdio_output@@@__crt_stdio_output@@IAE_NAAPAUansi_string@?1??type_case_Z@?$output_processor@DV?$stream_output_adapter@D@__crt_stdio_output@@V?$format_validation_base@DV?$stream_output_adapter@D@__crt_stdio_output@@@2@@1@AAE_NXZ@@Z 0047e000 f i libucrtd:output.obj
 0001:0007d030       ??$extract_argument_from_va_list@PAUansi_string@?1??type_case_Z@?$output_processor@DV?$stream_output_adapter@D@__crt_stdio_output@@V?$positional_parameter_base@DV?$stream_output_adapter@D@__crt_stdio_output@@@2@@__crt_stdio_output@@AAE_NXZ@PAU1?1??234@AAE_NXZ@@?$positional_parameter_base@DV?$stream_output_adapter@D@__crt_stdio_output@@@__crt_stdio_output@@IAE_NAAPAUansi_string@?1??type_case_Z@?$output_processor@DV?$stream_output_adapter@D@__crt_stdio_output@@V?$positional_parameter_base@DV?$stream_output_adapter@D@__crt_stdio_output@@@2@@1@AAE_NXZ@@Z 0047e030 f i libucrtd:output.obj
 0001:0007d1b0       ??$extract_argument_from_va_list@PAUansi_string@?1??type_case_Z@?$output_processor@DV?$stream_output_adapter@D@__crt_stdio_output@@V?$positional_parameter_base@DV?$stream_output_adapter@D@__crt_stdio_output@@@2@@__crt_stdio_output@@AAE_NXZ@PAU1?1??234@AAE_NXZ@@?$standard_base@DV?$stream_output_adapter@D@__crt_stdio_output@@@__crt_stdio_output@@IAE_NAAPAUansi_string@?1??type_case_Z@?$output_processor@DV?$stream_output_adapter@D@__crt_stdio_output@@V?$positional_parameter_base@DV?$stream_output_adapter@D@__crt_stdio_output@@@2@@1@AAE_NXZ@@Z 0047e1b0 f i libucrtd:output.obj
 0001:0007d1e0       ??$extract_argument_from_va_list@PAUansi_string@?1??type_case_Z@?$output_processor@DV?$stream_output_adapter@D@__crt_stdio_output@@V?$standard_base@DV?$stream_output_adapter@D@__crt_stdio_output@@@2@@__crt_stdio_output@@AAE_NXZ@PAU1?1??234@AAE_NXZ@@?$standard_base@DV?$stream_output_adapter@D@__crt_stdio_output@@@__crt_stdio_output@@IAE_NAAPAUansi_string@?1??type_case_Z@?$output_processor@DV?$stream_output_adapter@D@__crt_stdio_output@@V?$standard_base@DV?$stream_output_adapter@D@__crt_stdio_output@@@2@@1@AAE_NXZ@@Z 0047e1e0 f i libucrtd:output.obj
 0001:0007d210       ??$extract_argument_from_va_list@PAUansi_string@?1??type_case_Z@?$output_processor@DV?$string_output_adapter@D@__crt_stdio_output@@V?$format_validation_base@DV?$string_output_adapter@D@__crt_stdio_output@@@2@@__crt_stdio_output@@AAE_NXZ@PAU1?1??234@AAE_NXZ@@?$standard_base@DV?$string_output_adapter@D@__crt_stdio_output@@@__crt_stdio_output@@IAE_NAAPAUansi_string@?1??type_case_Z@?$output_processor@DV?$string_output_adapter@D@__crt_stdio_output@@V?$format_validation_base@DV?$string_output_adapter@D@__crt_stdio_output@@@2@@1@AAE_NXZ@@Z 0047e210 f i libucrtd:output.obj
 0001:0007d240       ??$extract_argument_from_va_list@PAUansi_string@?1??type_case_Z@?$output_processor@DV?$string_output_adapter@D@__crt_stdio_output@@V?$positional_parameter_base@DV?$string_output_adapter@D@__crt_stdio_output@@@2@@__crt_stdio_output@@AAE_NXZ@PAU1?1??234@AAE_NXZ@@?$positional_parameter_base@DV?$string_output_adapter@D@__crt_stdio_output@@@__crt_stdio_output@@IAE_NAAPAUansi_string@?1??type_case_Z@?$output_processor@DV?$string_output_adapter@D@__crt_stdio_output@@V?$positional_parameter_base@DV?$string_output_adapter@D@__crt_stdio_output@@@2@@1@AAE_NXZ@@Z 0047e240 f i libucrtd:output.obj
 0001:0007d3c0       ??$extract_argument_from_va_list@PAUansi_string@?1??type_case_Z@?$output_processor@DV?$string_output_adapter@D@__crt_stdio_output@@V?$positional_parameter_base@DV?$string_output_adapter@D@__crt_stdio_output@@@2@@__crt_stdio_output@@AAE_NXZ@PAU1?1??234@AAE_NXZ@@?$standard_base@DV?$string_output_adapter@D@__crt_stdio_output@@@__crt_stdio_output@@IAE_NAAPAUansi_string@?1??type_case_Z@?$output_processor@DV?$string_output_adapter@D@__crt_stdio_output@@V?$positional_parameter_base@DV?$string_output_adapter@D@__crt_stdio_output@@@2@@1@AAE_NXZ@@Z 0047e3c0 f i libucrtd:output.obj
 0001:0007d3f0       ??$extract_argument_from_va_list@PAUansi_string@?1??type_case_Z@?$output_processor@DV?$string_output_adapter@D@__crt_stdio_output@@V?$standard_base@DV?$string_output_adapter@D@__crt_stdio_output@@@2@@__crt_stdio_output@@AAE_NXZ@PAU1?1??234@AAE_NXZ@@?$standard_base@DV?$string_output_adapter@D@__crt_stdio_output@@@__crt_stdio_output@@IAE_NAAPAUansi_string@?1??type_case_Z@?$output_processor@DV?$string_output_adapter@D@__crt_stdio_output@@V?$standard_base@DV?$string_output_adapter@D@__crt_stdio_output@@@2@@1@AAE_NXZ@@Z 0047e3f0 f i libucrtd:output.obj
 0001:0007d420       ??$extract_argument_from_va_list@PAUansi_string@?1??type_case_Z@?$output_processor@_WV?$stream_output_adapter@_W@__crt_stdio_output@@V?$format_validation_base@_WV?$stream_output_adapter@_W@__crt_stdio_output@@@2@@__crt_stdio_output@@AAE_NXZ@PAU1?1??234@AAE_NXZ@@?$standard_base@_WV?$stream_output_adapter@_W@__crt_stdio_output@@@__crt_stdio_output@@IAE_NAAPAUansi_string@?1??type_case_Z@?$output_processor@_WV?$stream_output_adapter@_W@__crt_stdio_output@@V?$format_validation_base@_WV?$stream_output_adapter@_W@__crt_stdio_output@@@2@@1@AAE_NXZ@@Z 0047e420 f i libucrtd:output.obj
 0001:0007d450       ??$extract_argument_from_va_list@PAUansi_string@?1??type_case_Z@?$output_processor@_WV?$stream_output_adapter@_W@__crt_stdio_output@@V?$positional_parameter_base@_WV?$stream_output_adapter@_W@__crt_stdio_output@@@2@@__crt_stdio_output@@AAE_NXZ@PAU1?1??234@AAE_NXZ@@?$positional_parameter_base@_WV?$stream_output_adapter@_W@__crt_stdio_output@@@__crt_stdio_output@@IAE_NAAPAUansi_string@?1??type_case_Z@?$output_processor@_WV?$stream_output_adapter@_W@__crt_stdio_output@@V?$positional_parameter_base@_WV?$stream_output_adapter@_W@__crt_stdio_output@@@2@@1@AAE_NXZ@@Z 0047e450 f i libucrtd:output.obj
 0001:0007d5d0       ??$extract_argument_from_va_list@PAUansi_string@?1??type_case_Z@?$output_processor@_WV?$stream_output_adapter@_W@__crt_stdio_output@@V?$positional_parameter_base@_WV?$stream_output_adapter@_W@__crt_stdio_output@@@2@@__crt_stdio_output@@AAE_NXZ@PAU1?1??234@AAE_NXZ@@?$standard_base@_WV?$stream_output_adapter@_W@__crt_stdio_output@@@__crt_stdio_output@@IAE_NAAPAUansi_string@?1??type_case_Z@?$output_processor@_WV?$stream_output_adapter@_W@__crt_stdio_output@@V?$positional_parameter_base@_WV?$stream_output_adapter@_W@__crt_stdio_output@@@2@@1@AAE_NXZ@@Z 0047e5d0 f i libucrtd:output.obj
 0001:0007d600       ??$extract_argument_from_va_list@PAUansi_string@?1??type_case_Z@?$output_processor@_WV?$stream_output_adapter@_W@__crt_stdio_output@@V?$standard_base@_WV?$stream_output_adapter@_W@__crt_stdio_output@@@2@@__crt_stdio_output@@AAE_NXZ@PAU1?1??234@AAE_NXZ@@?$standard_base@_WV?$stream_output_adapter@_W@__crt_stdio_output@@@__crt_stdio_output@@IAE_NAAPAUansi_string@?1??type_case_Z@?$output_processor@_WV?$stream_output_adapter@_W@__crt_stdio_output@@V?$standard_base@_WV?$stream_output_adapter@_W@__crt_stdio_output@@@2@@1@AAE_NXZ@@Z 0047e600 f i libucrtd:output.obj
 0001:0007d630       ??$extract_argument_from_va_list@PAUansi_string@?1??type_case_Z@?$output_processor@_WV?$string_output_adapter@_W@__crt_stdio_output@@V?$format_validation_base@_WV?$string_output_adapter@_W@__crt_stdio_output@@@2@@__crt_stdio_output@@AAE_NXZ@PAU1?1??234@AAE_NXZ@@?$standard_base@_WV?$string_output_adapter@_W@__crt_stdio_output@@@__crt_stdio_output@@IAE_NAAPAUansi_string@?1??type_case_Z@?$output_processor@_WV?$string_output_adapter@_W@__crt_stdio_output@@V?$format_validation_base@_WV?$string_output_adapter@_W@__crt_stdio_output@@@2@@1@AAE_NXZ@@Z 0047e630 f i libucrtd:output.obj
 0001:0007d660       ??$extract_argument_from_va_list@PAUansi_string@?1??type_case_Z@?$output_processor@_WV?$string_output_adapter@_W@__crt_stdio_output@@V?$positional_parameter_base@_WV?$string_output_adapter@_W@__crt_stdio_output@@@2@@__crt_stdio_output@@AAE_NXZ@PAU1?1??234@AAE_NXZ@@?$positional_parameter_base@_WV?$string_output_adapter@_W@__crt_stdio_output@@@__crt_stdio_output@@IAE_NAAPAUansi_string@?1??type_case_Z@?$output_processor@_WV?$string_output_adapter@_W@__crt_stdio_output@@V?$positional_parameter_base@_WV?$string_output_adapter@_W@__crt_stdio_output@@@2@@1@AAE_NXZ@@Z 0047e660 f i libucrtd:output.obj
 0001:0007d7e0       ??$extract_argument_from_va_list@PAUansi_string@?1??type_case_Z@?$output_processor@_WV?$string_output_adapter@_W@__crt_stdio_output@@V?$positional_parameter_base@_WV?$string_output_adapter@_W@__crt_stdio_output@@@2@@__crt_stdio_output@@AAE_NXZ@PAU1?1??234@AAE_NXZ@@?$standard_base@_WV?$string_output_adapter@_W@__crt_stdio_output@@@__crt_stdio_output@@IAE_NAAPAUansi_string@?1??type_case_Z@?$output_processor@_WV?$string_output_adapter@_W@__crt_stdio_output@@V?$positional_parameter_base@_WV?$string_output_adapter@_W@__crt_stdio_output@@@2@@1@AAE_NXZ@@Z 0047e7e0 f i libucrtd:output.obj
 0001:0007d810       ??$extract_argument_from_va_list@PAUansi_string@?1??type_case_Z@?$output_processor@_WV?$string_output_adapter@_W@__crt_stdio_output@@V?$standard_base@_WV?$string_output_adapter@_W@__crt_stdio_output@@@2@@__crt_stdio_output@@AAE_NXZ@PAU1?1??234@AAE_NXZ@@?$standard_base@_WV?$string_output_adapter@_W@__crt_stdio_output@@@__crt_stdio_output@@IAE_NAAPAUansi_string@?1??type_case_Z@?$output_processor@_WV?$string_output_adapter@_W@__crt_stdio_output@@V?$standard_base@_WV?$string_output_adapter@_W@__crt_stdio_output@@@2@@1@AAE_NXZ@@Z 0047e810 f i libucrtd:output.obj
 0001:0007d840       ??$extract_argument_from_va_list@PAXPAX@?$positional_parameter_base@DV?$stream_output_adapter@D@__crt_stdio_output@@@__crt_stdio_output@@IAE_NAAPAX@Z 0047e840 f i libucrtd:output.obj
 0001:0007d9c0       ??$extract_argument_from_va_list@PAXPAX@?$positional_parameter_base@DV?$string_output_adapter@D@__crt_stdio_output@@@__crt_stdio_output@@IAE_NAAPAX@Z 0047e9c0 f i libucrtd:output.obj
 0001:0007db40       ??$extract_argument_from_va_list@PAXPAX@?$positional_parameter_base@_WV?$stream_output_adapter@_W@__crt_stdio_output@@@__crt_stdio_output@@IAE_NAAPAX@Z 0047eb40 f i libucrtd:output.obj
 0001:0007dcc0       ??$extract_argument_from_va_list@PAXPAX@?$positional_parameter_base@_WV?$string_output_adapter@_W@__crt_stdio_output@@@__crt_stdio_output@@IAE_NAAPAX@Z 0047ecc0 f i libucrtd:output.obj
 0001:0007de40       ??$extract_argument_from_va_list@PAXPAX@?$standard_base@DV?$stream_output_adapter@D@__crt_stdio_output@@@__crt_stdio_output@@IAE_NAAPAX@Z 0047ee40 f i libucrtd:output.obj
 0001:0007de70       ??$extract_argument_from_va_list@PAXPAX@?$standard_base@DV?$string_output_adapter@D@__crt_stdio_output@@@__crt_stdio_output@@IAE_NAAPAX@Z 0047ee70 f i libucrtd:output.obj
 0001:0007dea0       ??$extract_argument_from_va_list@PAXPAX@?$standard_base@_WV?$stream_output_adapter@_W@__crt_stdio_output@@@__crt_stdio_output@@IAE_NAAPAX@Z 0047eea0 f i libucrtd:output.obj
 0001:0007ded0       ??$extract_argument_from_va_list@PAXPAX@?$standard_base@_WV?$string_output_adapter@_W@__crt_stdio_output@@@__crt_stdio_output@@IAE_NAAPAX@Z 0047eed0 f i libucrtd:output.obj
 0001:0007df00       ??$extract_argument_from_va_list@U_CRT_DOUBLE@@U1@@?$positional_parameter_base@DV?$stream_output_adapter@D@__crt_stdio_output@@@__crt_stdio_output@@IAE_NAAU_CRT_DOUBLE@@@Z 0047ef00 f i libucrtd:output.obj
 0001:0007e0b0       ??$extract_argument_from_va_list@U_CRT_DOUBLE@@U1@@?$positional_parameter_base@DV?$string_output_adapter@D@__crt_stdio_output@@@__crt_stdio_output@@IAE_NAAU_CRT_DOUBLE@@@Z 0047f0b0 f i libucrtd:output.obj
 0001:0007e260       ??$extract_argument_from_va_list@U_CRT_DOUBLE@@U1@@?$positional_parameter_base@_WV?$stream_output_adapter@_W@__crt_stdio_output@@@__crt_stdio_output@@IAE_NAAU_CRT_DOUBLE@@@Z 0047f260 f i libucrtd:output.obj
 0001:0007e410       ??$extract_argument_from_va_list@U_CRT_DOUBLE@@U1@@?$positional_parameter_base@_WV?$string_output_adapter@_W@__crt_stdio_output@@@__crt_stdio_output@@IAE_NAAU_CRT_DOUBLE@@@Z 0047f410 f i libucrtd:output.obj
 0001:0007e5c0       ??$extract_argument_from_va_list@U_CRT_DOUBLE@@U1@@?$standard_base@DV?$stream_output_adapter@D@__crt_stdio_output@@@__crt_stdio_output@@IAE_NAAU_CRT_DOUBLE@@@Z 0047f5c0 f i libucrtd:output.obj
 0001:0007e620       ??$extract_argument_from_va_list@U_CRT_DOUBLE@@U1@@?$standard_base@DV?$string_output_adapter@D@__crt_stdio_output@@@__crt_stdio_output@@IAE_NAAU_CRT_DOUBLE@@@Z 0047f620 f i libucrtd:output.obj
 0001:0007e680       ??$extract_argument_from_va_list@U_CRT_DOUBLE@@U1@@?$standard_base@_WV?$stream_output_adapter@_W@__crt_stdio_output@@@__crt_stdio_output@@IAE_NAAU_CRT_DOUBLE@@@Z 0047f680 f i libucrtd:output.obj
 0001:0007e6e0       ??$extract_argument_from_va_list@U_CRT_DOUBLE@@U1@@?$standard_base@_WV?$string_output_adapter@_W@__crt_stdio_output@@@__crt_stdio_output@@IAE_NAAU_CRT_DOUBLE@@@Z 0047f6e0 f i libucrtd:output.obj
 0001:0007e740       ??$extract_argument_from_va_list@_J_J@?$positional_parameter_base@DV?$stream_output_adapter@D@__crt_stdio_output@@@__crt_stdio_output@@IAE_NAA_J@Z 0047f740 f i libucrtd:output.obj
 0001:0007e8c0       ??$extract_argument_from_va_list@_J_J@?$positional_parameter_base@DV?$string_output_adapter@D@__crt_stdio_output@@@__crt_stdio_output@@IAE_NAA_J@Z 0047f8c0 f i libucrtd:output.obj
 0001:0007ea40       ??$extract_argument_from_va_list@_J_J@?$positional_parameter_base@_WV?$stream_output_adapter@_W@__crt_stdio_output@@@__crt_stdio_output@@IAE_NAA_J@Z 0047fa40 f i libucrtd:output.obj
 0001:0007ebc0       ??$extract_argument_from_va_list@_J_J@?$positional_parameter_base@_WV?$string_output_adapter@_W@__crt_stdio_output@@@__crt_stdio_output@@IAE_NAA_J@Z 0047fbc0 f i libucrtd:output.obj
 0001:0007ed40       ??$extract_argument_from_va_list@_J_J@?$standard_base@DV?$stream_output_adapter@D@__crt_stdio_output@@@__crt_stdio_output@@IAE_NAA_J@Z 0047fd40 f i libucrtd:output.obj
 0001:0007ed80       ??$extract_argument_from_va_list@_J_J@?$standard_base@DV?$string_output_adapter@D@__crt_stdio_output@@@__crt_stdio_output@@IAE_NAA_J@Z 0047fd80 f i libucrtd:output.obj
 0001:0007edc0       ??$extract_argument_from_va_list@_J_J@?$standard_base@_WV?$stream_output_adapter@_W@__crt_stdio_output@@@__crt_stdio_output@@IAE_NAA_J@Z 0047fdc0 f i libucrtd:output.obj
 0001:0007ee00       ??$extract_argument_from_va_list@_J_J@?$standard_base@_WV?$string_output_adapter@_W@__crt_stdio_output@@@__crt_stdio_output@@IAE_NAA_J@Z 0047fe00 f i libucrtd:output.obj
 0001:0007ee40       ??$extract_argument_from_va_list@_K_J@?$positional_parameter_base@DV?$stream_output_adapter@D@__crt_stdio_output@@@__crt_stdio_output@@IAE_NAA_J@Z 0047fe40 f i libucrtd:output.obj
 0001:0007efc0       ??$extract_argument_from_va_list@_K_J@?$positional_parameter_base@DV?$string_output_adapter@D@__crt_stdio_output@@@__crt_stdio_output@@IAE_NAA_J@Z 0047ffc0 f i libucrtd:output.obj
 0001:0007f140       ??$extract_argument_from_va_list@_K_J@?$positional_parameter_base@_WV?$stream_output_adapter@_W@__crt_stdio_output@@@__crt_stdio_output@@IAE_NAA_J@Z 00480140 f i libucrtd:output.obj
 0001:0007f2c0       ??$extract_argument_from_va_list@_K_J@?$positional_parameter_base@_WV?$string_output_adapter@_W@__crt_stdio_output@@@__crt_stdio_output@@IAE_NAA_J@Z 004802c0 f i libucrtd:output.obj
 0001:0007f440       ??$extract_argument_from_va_list@_K_J@?$standard_base@DV?$stream_output_adapter@D@__crt_stdio_output@@@__crt_stdio_output@@IAE_NAA_J@Z 00480440 f i libucrtd:output.obj
 0001:0007f480       ??$extract_argument_from_va_list@_K_J@?$standard_base@DV?$string_output_adapter@D@__crt_stdio_output@@@__crt_stdio_output@@IAE_NAA_J@Z 00480480 f i libucrtd:output.obj
 0001:0007f4c0       ??$extract_argument_from_va_list@_K_J@?$standard_base@_WV?$stream_output_adapter@_W@__crt_stdio_output@@@__crt_stdio_output@@IAE_NAA_J@Z 004804c0 f i libucrtd:output.obj
 0001:0007f500       ??$extract_argument_from_va_list@_K_J@?$standard_base@_WV?$string_output_adapter@_W@__crt_stdio_output@@@__crt_stdio_output@@IAE_NAA_J@Z 00480500 f i libucrtd:output.obj
 0001:0007f540       ??$extract_argument_from_va_list@_W_W@?$positional_parameter_base@DV?$stream_output_adapter@D@__crt_stdio_output@@@__crt_stdio_output@@IAE_NAA_W@Z 00480540 f i libucrtd:output.obj
 0001:0007f6c0       ??$extract_argument_from_va_list@_W_W@?$positional_parameter_base@DV?$string_output_adapter@D@__crt_stdio_output@@@__crt_stdio_output@@IAE_NAA_W@Z 004806c0 f i libucrtd:output.obj
 0001:0007f840       ??$extract_argument_from_va_list@_W_W@?$positional_parameter_base@_WV?$stream_output_adapter@_W@__crt_stdio_output@@@__crt_stdio_output@@IAE_NAA_W@Z 00480840 f i libucrtd:output.obj
 0001:0007f9c0       ??$extract_argument_from_va_list@_W_W@?$positional_parameter_base@_WV?$string_output_adapter@_W@__crt_stdio_output@@@__crt_stdio_output@@IAE_NAA_W@Z 004809c0 f i libucrtd:output.obj
 0001:0007fb40       ??$extract_argument_from_va_list@_W_W@?$standard_base@DV?$stream_output_adapter@D@__crt_stdio_output@@@__crt_stdio_output@@IAE_NAA_W@Z 00480b40 f i libucrtd:output.obj
 0001:0007fb70       ??$extract_argument_from_va_list@_W_W@?$standard_base@DV?$string_output_adapter@D@__crt_stdio_output@@@__crt_stdio_output@@IAE_NAA_W@Z 00480b70 f i libucrtd:output.obj
 0001:0007fba0       ??$extract_argument_from_va_list@_W_W@?$standard_base@_WV?$stream_output_adapter@_W@__crt_stdio_output@@@__crt_stdio_output@@IAE_NAA_W@Z 00480ba0 f i libucrtd:output.obj
 0001:0007fbd0       ??$extract_argument_from_va_list@_W_W@?$standard_base@_WV?$string_output_adapter@_W@__crt_stdio_output@@@__crt_stdio_output@@IAE_NAA_W@Z 00480bd0 f i libucrtd:output.obj
 0001:0007fc00       ??$get_parameter_type@D@?$positional_parameter_base@DV?$stream_output_adapter@D@__crt_stdio_output@@@__crt_stdio_output@@CA?AW4parameter_type@01@PAD@Z 00480c00 f i libucrtd:output.obj
 0001:0007fc10       ??$get_parameter_type@D@?$positional_parameter_base@DV?$string_output_adapter@D@__crt_stdio_output@@@__crt_stdio_output@@CA?AW4parameter_type@01@PAD@Z 00480c10 f i libucrtd:output.obj
 0001:0007fc20       ??$get_parameter_type@D@?$positional_parameter_base@_WV?$stream_output_adapter@_W@__crt_stdio_output@@@__crt_stdio_output@@CA?AW4parameter_type@01@PAD@Z 00480c20 f i libucrtd:output.obj
 0001:0007fc30       ??$get_parameter_type@D@?$positional_parameter_base@_WV?$string_output_adapter@_W@__crt_stdio_output@@@__crt_stdio_output@@CA?AW4parameter_type@01@PAD@Z 00480c30 f i libucrtd:output.obj
 0001:0007fc40       ??$get_parameter_type@Uansi_string@?1??type_case_Z@?$output_processor@DV?$stream_output_adapter@D@__crt_stdio_output@@V?$positional_parameter_base@DV?$stream_output_adapter@D@__crt_stdio_output@@@2@@__crt_stdio_output@@AAE_NXZ@@?$positional_parameter_base@DV?$stream_output_adapter@D@__crt_stdio_output@@@__crt_stdio_output@@CA?AW4parameter_type@01@PAUansi_string@?1??type_case_Z@?$output_processor@DV?$stream_output_adapter@D@__crt_stdio_output@@V?$positional_parameter_base@DV?$stream_output_adapter@D@__crt_stdio_output@@@2@@1@AAE_NXZ@@Z 00480c40 f i libucrtd:output.obj
 0001:0007fc50       ??$get_parameter_type@Uansi_string@?1??type_case_Z@?$output_processor@DV?$string_output_adapter@D@__crt_stdio_output@@V?$positional_parameter_base@DV?$string_output_adapter@D@__crt_stdio_output@@@2@@__crt_stdio_output@@AAE_NXZ@@?$positional_parameter_base@DV?$string_output_adapter@D@__crt_stdio_output@@@__crt_stdio_output@@CA?AW4parameter_type@01@PAUansi_string@?1??type_case_Z@?$output_processor@DV?$string_output_adapter@D@__crt_stdio_output@@V?$positional_parameter_base@DV?$string_output_adapter@D@__crt_stdio_output@@@2@@1@AAE_NXZ@@Z 00480c50 f i libucrtd:output.obj
 0001:0007fc60       ??$get_parameter_type@Uansi_string@?1??type_case_Z@?$output_processor@_WV?$stream_output_adapter@_W@__crt_stdio_output@@V?$positional_parameter_base@_WV?$stream_output_adapter@_W@__crt_stdio_output@@@2@@__crt_stdio_output@@AAE_NXZ@@?$positional_parameter_base@_WV?$stream_output_adapter@_W@__crt_stdio_output@@@__crt_stdio_output@@CA?AW4parameter_type@01@PAUansi_string@?1??type_case_Z@?$output_processor@_WV?$stream_output_adapter@_W@__crt_stdio_output@@V?$positional_parameter_base@_WV?$stream_output_adapter@_W@__crt_stdio_output@@@2@@1@AAE_NXZ@@Z 00480c60 f i libucrtd:output.obj
 0001:0007fc70       ??$get_parameter_type@Uansi_string@?1??type_case_Z@?$output_processor@_WV?$string_output_adapter@_W@__crt_stdio_output@@V?$positional_parameter_base@_WV?$string_output_adapter@_W@__crt_stdio_output@@@2@@__crt_stdio_output@@AAE_NXZ@@?$positional_parameter_base@_WV?$string_output_adapter@_W@__crt_stdio_output@@@__crt_stdio_output@@CA?AW4parameter_type@01@PAUansi_string@?1??type_case_Z@?$output_processor@_WV?$string_output_adapter@_W@__crt_stdio_output@@V?$positional_parameter_base@_WV?$string_output_adapter@_W@__crt_stdio_output@@@2@@1@AAE_NXZ@@Z 00480c70 f i libucrtd:output.obj
 0001:0007fc80       ??$get_parameter_type@X@?$positional_parameter_base@DV?$stream_output_adapter@D@__crt_stdio_output@@@__crt_stdio_output@@CA?AW4parameter_type@01@PAX@Z 00480c80 f i libucrtd:output.obj
 0001:0007fc90       ??$get_parameter_type@X@?$positional_parameter_base@DV?$string_output_adapter@D@__crt_stdio_output@@@__crt_stdio_output@@CA?AW4parameter_type@01@PAX@Z 00480c90 f i libucrtd:output.obj
 0001:0007fca0       ??$get_parameter_type@X@?$positional_parameter_base@_WV?$stream_output_adapter@_W@__crt_stdio_output@@@__crt_stdio_output@@CA?AW4parameter_type@01@PAX@Z 00480ca0 f i libucrtd:output.obj
 0001:0007fcb0       ??$get_parameter_type@X@?$positional_parameter_base@_WV?$string_output_adapter@_W@__crt_stdio_output@@@__crt_stdio_output@@CA?AW4parameter_type@01@PAX@Z 00480cb0 f i libucrtd:output.obj
 0001:0007fcc0       ??$is_character_specifier@D@?$positional_parameter_base@DV?$stream_output_adapter@D@__crt_stdio_output@@@__crt_stdio_output@@CA_ND@Z 00480cc0 f i libucrtd:output.obj
 0001:0007fd00       ??$is_character_specifier@D@?$positional_parameter_base@DV?$string_output_adapter@D@__crt_stdio_output@@@__crt_stdio_output@@CA_ND@Z 00480d00 f i libucrtd:output.obj
 0001:0007fd40       ??$is_character_specifier@_W@?$positional_parameter_base@_WV?$stream_output_adapter@_W@__crt_stdio_output@@@__crt_stdio_output@@CA_N_W@Z 00480d40 f i libucrtd:output.obj
 0001:0007fd80       ??$is_character_specifier@_W@?$positional_parameter_base@_WV?$string_output_adapter@_W@__crt_stdio_output@@@__crt_stdio_output@@CA_N_W@Z 00480d80 f i libucrtd:output.obj
 0001:0007fdc0       ??$is_integral_specifier@D@?$positional_parameter_base@DV?$stream_output_adapter@D@__crt_stdio_output@@@__crt_stdio_output@@CA_ND@Z 00480dc0 f i libucrtd:output.obj
 0001:0007fe40       ??$is_integral_specifier@D@?$positional_parameter_base@DV?$string_output_adapter@D@__crt_stdio_output@@@__crt_stdio_output@@CA_ND@Z 00480e40 f i libucrtd:output.obj
 0001:0007fec0       ??$is_integral_specifier@_W@?$positional_parameter_base@_WV?$stream_output_adapter@_W@__crt_stdio_output@@@__crt_stdio_output@@CA_N_W@Z 00480ec0 f i libucrtd:output.obj
 0001:0007ff40       ??$is_integral_specifier@_W@?$positional_parameter_base@_WV?$string_output_adapter@_W@__crt_stdio_output@@@__crt_stdio_output@@CA_N_W@Z 00480f40 f i libucrtd:output.obj
 0001:0007ffc0       ??$is_pointer_specifier@D@?$positional_parameter_base@DV?$stream_output_adapter@D@__crt_stdio_output@@@__crt_stdio_output@@CA_ND@Z 00480fc0 f i libucrtd:output.obj
 0001:0007fff0       ??$is_pointer_specifier@D@?$positional_parameter_base@DV?$string_output_adapter@D@__crt_stdio_output@@@__crt_stdio_output@@CA_ND@Z 00480ff0 f i libucrtd:output.obj
 0001:00080020       ??$is_pointer_specifier@_W@?$positional_parameter_base@_WV?$stream_output_adapter@_W@__crt_stdio_output@@@__crt_stdio_output@@CA_N_W@Z 00481020 f i libucrtd:output.obj
 0001:00080050       ??$is_pointer_specifier@_W@?$positional_parameter_base@_WV?$string_output_adapter@_W@__crt_stdio_output@@@__crt_stdio_output@@CA_N_W@Z 00481050 f i libucrtd:output.obj
 0001:00080080       ??$is_string_specifier@D@?$positional_parameter_base@DV?$stream_output_adapter@D@__crt_stdio_output@@@__crt_stdio_output@@CA_ND@Z 00481080 f i libucrtd:output.obj
 0001:000800c0       ??$is_string_specifier@D@?$positional_parameter_base@DV?$string_output_adapter@D@__crt_stdio_output@@@__crt_stdio_output@@CA_ND@Z 004810c0 f i libucrtd:output.obj
 0001:00080100       ??$is_string_specifier@_W@?$positional_parameter_base@_WV?$stream_output_adapter@_W@__crt_stdio_output@@@__crt_stdio_output@@CA_N_W@Z 00481100 f i libucrtd:output.obj
 0001:00080140       ??$is_string_specifier@_W@?$positional_parameter_base@_WV?$string_output_adapter@_W@__crt_stdio_output@@@__crt_stdio_output@@CA_N_W@Z 00481140 f i libucrtd:output.obj
 0001:00080180       ??$is_wide_character_specifier@D@__crt_stdio_output@@YA_N_KDW4length_modifier@0@@Z 00481180 f i libucrtd:output.obj
 0001:00080220       ??$is_wide_character_specifier@_W@__crt_stdio_output@@YA_N_K_WW4length_modifier@0@@Z 00481220 f i libucrtd:output.obj
 0001:00080310       ??$peek_va_arg@C@__crt_stdio_output@@YACPAD@Z 00481310 f i libucrtd:output.obj
 0001:00080330       ??$peek_va_arg@E@__crt_stdio_output@@YAEPAD@Z 00481330 f i libucrtd:output.obj
 0001:00080350       ??$peek_va_arg@F@__crt_stdio_output@@YAFPAD@Z 00481350 f i libucrtd:output.obj
 0001:00080370       ??$peek_va_arg@G@__crt_stdio_output@@YAGPAD@Z 00481370 f i libucrtd:output.obj
 0001:00080390       ??$peek_va_arg@H@__crt_stdio_output@@YAHPAD@Z 00481390 f i libucrtd:output.obj
 0001:000803b0       ??$peek_va_arg@I@__crt_stdio_output@@YAIPAD@Z 004813b0 f i libucrtd:output.obj
 0001:000803d0       ??$peek_va_arg@PAD@__crt_stdio_output@@YAPADPAD@Z 004813d0 f i libucrtd:output.obj
 0001:000803f0       ??$peek_va_arg@PAUansi_string@?1??type_case_Z@?$output_processor@DV?$stream_output_adapter@D@__crt_stdio_output@@V?$positional_parameter_base@DV?$stream_output_adapter@D@__crt_stdio_output@@@2@@__crt_stdio_output@@AAE_NXZ@@__crt_stdio_output@@YAPAUansi_string@?1??type_case_Z@?$output_processor@DV?$stream_output_adapter@D@__crt_stdio_output@@V?$positional_parameter_base@DV?$stream_output_adapter@D@__crt_stdio_output@@@2@@0@AAE_NXZ@PAD@Z 004813f0 f i libucrtd:output.obj
 0001:00080410       ??$peek_va_arg@PAUansi_string@?1??type_case_Z@?$output_processor@DV?$string_output_adapter@D@__crt_stdio_output@@V?$positional_parameter_base@DV?$string_output_adapter@D@__crt_stdio_output@@@2@@__crt_stdio_output@@AAE_NXZ@@__crt_stdio_output@@YAPAUansi_string@?1??type_case_Z@?$output_processor@DV?$string_output_adapter@D@__crt_stdio_output@@V?$positional_parameter_base@DV?$string_output_adapter@D@__crt_stdio_output@@@2@@0@AAE_NXZ@PAD@Z 00481410 f i libucrtd:output.obj
 0001:00080430       ??$peek_va_arg@PAUansi_string@?1??type_case_Z@?$output_processor@_WV?$stream_output_adapter@_W@__crt_stdio_output@@V?$positional_parameter_base@_WV?$stream_output_adapter@_W@__crt_stdio_output@@@2@@__crt_stdio_output@@AAE_NXZ@@__crt_stdio_output@@YAPAUansi_string@?1??type_case_Z@?$output_processor@_WV?$stream_output_adapter@_W@__crt_stdio_output@@V?$positional_parameter_base@_WV?$stream_output_adapter@_W@__crt_stdio_output@@@2@@0@AAE_NXZ@PAD@Z 00481430 f i libucrtd:output.obj
 0001:00080450       ??$peek_va_arg@PAUansi_string@?1??type_case_Z@?$output_processor@_WV?$string_output_adapter@_W@__crt_stdio_output@@V?$positional_parameter_base@_WV?$string_output_adapter@_W@__crt_stdio_output@@@2@@__crt_stdio_output@@AAE_NXZ@@__crt_stdio_output@@YAPAUansi_string@?1??type_case_Z@?$output_processor@_WV?$string_output_adapter@_W@__crt_stdio_output@@V?$positional_parameter_base@_WV?$string_output_adapter@_W@__crt_stdio_output@@@2@@0@AAE_NXZ@PAD@Z 00481450 f i libucrtd:output.obj
 0001:00080470       ??$peek_va_arg@PAX@__crt_stdio_output@@YAPAXPAD@Z 00481470 f i libucrtd:output.obj
 0001:00080490       ??$peek_va_arg@U_CRT_DOUBLE@@@__crt_stdio_output@@YA?AU_CRT_DOUBLE@@PAD@Z 00481490 f i libucrtd:output.obj
 0001:000804b0       ??$peek_va_arg@_J@__crt_stdio_output@@YA_JPAD@Z 004814b0 f i libucrtd:output.obj
 0001:000804d0       ??$peek_va_arg@_K@__crt_stdio_output@@YA_KPAD@Z 004814d0 f i libucrtd:output.obj
 0001:000804f0       ??$peek_va_arg@_W@__crt_stdio_output@@YA_WPAD@Z 004814f0 f i libucrtd:output.obj
 0001:00080510       ??$puttc_nolock@ABDPAU_iobuf@@@?$__crt_char_traits@D@@SAHABD$$QAPAU_iobuf@@@Z 00481510 f i libucrtd:output.obj
 0001:00080540       ??$puttc_nolock@AB_WPAU_iobuf@@@?$__crt_char_traits@_W@@SAGAB_W$$QAPAU_iobuf@@@Z 00481540 f i libucrtd:output.obj
 0001:00080570       ??$read_va_arg@C@__crt_stdio_output@@YACAAPAD@Z 00481570 f i libucrtd:output.obj
 0001:000805a0       ??$read_va_arg@E@__crt_stdio_output@@YAEAAPAD@Z 004815a0 f i libucrtd:output.obj
 0001:000805d0       ??$read_va_arg@F@__crt_stdio_output@@YAFAAPAD@Z 004815d0 f i libucrtd:output.obj
 0001:00080600       ??$read_va_arg@G@__crt_stdio_output@@YAGAAPAD@Z 00481600 f i libucrtd:output.obj
 0001:00080630       ??$read_va_arg@H@__crt_stdio_output@@YAHAAPAD@Z 00481630 f i libucrtd:output.obj
 0001:00080660       ??$read_va_arg@I@__crt_stdio_output@@YAIAAPAD@Z 00481660 f i libucrtd:output.obj
 0001:00080690       ??$read_va_arg@PAD@__crt_stdio_output@@YAPADAAPAD@Z 00481690 f i libucrtd:output.obj
 0001:000806c0       ??$read_va_arg@PAUansi_string@?1??type_case_Z@?$output_processor@DV?$stream_output_adapter@D@__crt_stdio_output@@V?$format_validation_base@DV?$stream_output_adapter@D@__crt_stdio_output@@@2@@__crt_stdio_output@@AAE_NXZ@@__crt_stdio_output@@YAPAUansi_string@?1??type_case_Z@?$output_processor@DV?$stream_output_adapter@D@__crt_stdio_output@@V?$format_validation_base@DV?$stream_output_adapter@D@__crt_stdio_output@@@2@@0@AAE_NXZ@AAPAD@Z 004816c0 f i libucrtd:output.obj
 0001:000806f0       ??$read_va_arg@PAUansi_string@?1??type_case_Z@?$output_processor@DV?$stream_output_adapter@D@__crt_stdio_output@@V?$positional_parameter_base@DV?$stream_output_adapter@D@__crt_stdio_output@@@2@@__crt_stdio_output@@AAE_NXZ@@__crt_stdio_output@@YAPAUansi_string@?1??type_case_Z@?$output_processor@DV?$stream_output_adapter@D@__crt_stdio_output@@V?$positional_parameter_base@DV?$stream_output_adapter@D@__crt_stdio_output@@@2@@0@AAE_NXZ@AAPAD@Z 004816f0 f i libucrtd:output.obj
 0001:00080720       ??$read_va_arg@PAUansi_string@?1??type_case_Z@?$output_processor@DV?$stream_output_adapter@D@__crt_stdio_output@@V?$standard_base@DV?$stream_output_adapter@D@__crt_stdio_output@@@2@@__crt_stdio_output@@AAE_NXZ@@__crt_stdio_output@@YAPAUansi_string@?1??type_case_Z@?$output_processor@DV?$stream_output_adapter@D@__crt_stdio_output@@V?$standard_base@DV?$stream_output_adapter@D@__crt_stdio_output@@@2@@0@AAE_NXZ@AAPAD@Z 00481720 f i libucrtd:output.obj
 0001:00080750       ??$read_va_arg@PAUansi_string@?1??type_case_Z@?$output_processor@DV?$string_output_adapter@D@__crt_stdio_output@@V?$format_validation_base@DV?$string_output_adapter@D@__crt_stdio_output@@@2@@__crt_stdio_output@@AAE_NXZ@@__crt_stdio_output@@YAPAUansi_string@?1??type_case_Z@?$output_processor@DV?$string_output_adapter@D@__crt_stdio_output@@V?$format_validation_base@DV?$string_output_adapter@D@__crt_stdio_output@@@2@@0@AAE_NXZ@AAPAD@Z 00481750 f i libucrtd:output.obj
 0001:00080780       ??$read_va_arg@PAUansi_string@?1??type_case_Z@?$output_processor@DV?$string_output_adapter@D@__crt_stdio_output@@V?$positional_parameter_base@DV?$string_output_adapter@D@__crt_stdio_output@@@2@@__crt_stdio_output@@AAE_NXZ@@__crt_stdio_output@@YAPAUansi_string@?1??type_case_Z@?$output_processor@DV?$string_output_adapter@D@__crt_stdio_output@@V?$positional_parameter_base@DV?$string_output_adapter@D@__crt_stdio_output@@@2@@0@AAE_NXZ@AAPAD@Z 00481780 f i libucrtd:output.obj
 0001:000807b0       ??$read_va_arg@PAUansi_string@?1??type_case_Z@?$output_processor@DV?$string_output_adapter@D@__crt_stdio_output@@V?$standard_base@DV?$string_output_adapter@D@__crt_stdio_output@@@2@@__crt_stdio_output@@AAE_NXZ@@__crt_stdio_output@@YAPAUansi_string@?1??type_case_Z@?$output_processor@DV?$string_output_adapter@D@__crt_stdio_output@@V?$standard_base@DV?$string_output_adapter@D@__crt_stdio_output@@@2@@0@AAE_NXZ@AAPAD@Z 004817b0 f i libucrtd:output.obj
 0001:000807e0       ??$read_va_arg@PAUansi_string@?1??type_case_Z@?$output_processor@_WV?$stream_output_adapter@_W@__crt_stdio_output@@V?$format_validation_base@_WV?$stream_output_adapter@_W@__crt_stdio_output@@@2@@__crt_stdio_output@@AAE_NXZ@@__crt_stdio_output@@YAPAUansi_string@?1??type_case_Z@?$output_processor@_WV?$stream_output_adapter@_W@__crt_stdio_output@@V?$format_validation_base@_WV?$stream_output_adapter@_W@__crt_stdio_output@@@2@@0@AAE_NXZ@AAPAD@Z 004817e0 f i libucrtd:output.obj
 0001:00080810       ??$read_va_arg@PAUansi_string@?1??type_case_Z@?$output_processor@_WV?$stream_output_adapter@_W@__crt_stdio_output@@V?$positional_parameter_base@_WV?$stream_output_adapter@_W@__crt_stdio_output@@@2@@__crt_stdio_output@@AAE_NXZ@@__crt_stdio_output@@YAPAUansi_string@?1??type_case_Z@?$output_processor@_WV?$stream_output_adapter@_W@__crt_stdio_output@@V?$positional_parameter_base@_WV?$stream_output_adapter@_W@__crt_stdio_output@@@2@@0@AAE_NXZ@AAPAD@Z 00481810 f i libucrtd:output.obj
 0001:00080840       ??$read_va_arg@PAUansi_string@?1??type_case_Z@?$output_processor@_WV?$stream_output_adapter@_W@__crt_stdio_output@@V?$standard_base@_WV?$stream_output_adapter@_W@__crt_stdio_output@@@2@@__crt_stdio_output@@AAE_NXZ@@__crt_stdio_output@@YAPAUansi_string@?1??type_case_Z@?$output_processor@_WV?$stream_output_adapter@_W@__crt_stdio_output@@V?$standard_base@_WV?$stream_output_adapter@_W@__crt_stdio_output@@@2@@0@AAE_NXZ@AAPAD@Z 00481840 f i libucrtd:output.obj
 0001:00080870       ??$read_va_arg@PAUansi_string@?1??type_case_Z@?$output_processor@_WV?$string_output_adapter@_W@__crt_stdio_output@@V?$format_validation_base@_WV?$string_output_adapter@_W@__crt_stdio_output@@@2@@__crt_stdio_output@@AAE_NXZ@@__crt_stdio_output@@YAPAUansi_string@?1??type_case_Z@?$output_processor@_WV?$string_output_adapter@_W@__crt_stdio_output@@V?$format_validation_base@_WV?$string_output_adapter@_W@__crt_stdio_output@@@2@@0@AAE_NXZ@AAPAD@Z 00481870 f i libucrtd:output.obj
 0001:000808a0       ??$read_va_arg@PAUansi_string@?1??type_case_Z@?$output_processor@_WV?$string_output_adapter@_W@__crt_stdio_output@@V?$positional_parameter_base@_WV?$string_output_adapter@_W@__crt_stdio_output@@@2@@__crt_stdio_output@@AAE_NXZ@@__crt_stdio_output@@YAPAUansi_string@?1??type_case_Z@?$output_processor@_WV?$string_output_adapter@_W@__crt_stdio_output@@V?$positional_parameter_base@_WV?$string_output_adapter@_W@__crt_stdio_output@@@2@@0@AAE_NXZ@AAPAD@Z 004818a0 f i libucrtd:output.obj
 0001:000808d0       ??$read_va_arg@PAUansi_string@?1??type_case_Z@?$output_processor@_WV?$string_output_adapter@_W@__crt_stdio_output@@V?$standard_base@_WV?$string_output_adapter@_W@__crt_stdio_output@@@2@@__crt_stdio_output@@AAE_NXZ@@__crt_stdio_output@@YAPAUansi_string@?1??type_case_Z@?$output_processor@_WV?$string_output_adapter@_W@__crt_stdio_output@@V?$standard_base@_WV?$string_output_adapter@_W@__crt_stdio_output@@@2@@0@AAE_NXZ@AAPAD@Z 004818d0 f i libucrtd:output.obj
 0001:00080900       ??$read_va_arg@PAX@__crt_stdio_output@@YAPAXAAPAD@Z 00481900 f i libucrtd:output.obj
 0001:00080930       ??$read_va_arg@U_CRT_DOUBLE@@@__crt_stdio_output@@YA?AU_CRT_DOUBLE@@AAPAD@Z 00481930 f i libucrtd:output.obj
 0001:00080960       ??$read_va_arg@_J@__crt_stdio_output@@YA_JAAPAD@Z 00481960 f i libucrtd:output.obj
 0001:00080990       ??$read_va_arg@_K@__crt_stdio_output@@YA_KAAPAD@Z 00481990 f i libucrtd:output.obj
 0001:000809c0       ??$read_va_arg@_W@__crt_stdio_output@@YA_WAAPAD@Z 004819c0 f i libucrtd:output.obj
 0001:000809f0       ??$scratch_count@D@formatting_buffer@__crt_stdio_output@@QBEIXZ 004819f0 f i libucrtd:output.obj
 0001:00080a10       ??$scratch_data@D@formatting_buffer@__crt_stdio_output@@QAEPADXZ 00481a10 f i libucrtd:output.obj
 0001:00080a70       ??$tcstol@AAPBDPAPADH@?$__crt_char_traits@D@@SAJAAPBD$$QAPAPAD$$QAH@Z 00481a70 f i libucrtd:output.obj
 0001:00080aa0       ??$tcstol@AAPB_WPAPA_WH@?$__crt_char_traits@_W@@SAJAAPB_W$$QAPAPA_W$$QAH@Z 00481aa0 f i libucrtd:output.obj
 0001:00080ad0       ??$tcstol@PBDPAPADH@?$__crt_char_traits@D@@SAJ$$QAPBD$$QAPAPAD$$QAH@Z 00481ad0 f i libucrtd:output.obj
 0001:00080b00       ??$tcstol@PB_WPAPA_WH@?$__crt_char_traits@_W@@SAJ$$QAPB_W$$QAPAPA_W$$QAH@Z 00481b00 f i libucrtd:output.obj
 0001:00080b30       ??$type_case_integer_parse_into_buffer@I@?$output_processor@DV?$stream_output_adapter@D@__crt_stdio_output@@V?$format_validation_base@DV?$stream_output_adapter@D@__crt_stdio_output@@@2@@__crt_stdio_output@@AAEXII_N@Z 00481b30 f i libucrtd:output.obj
 0001:00080c30       ??$type_case_integer_parse_into_buffer@I@?$output_processor@DV?$stream_output_adapter@D@__crt_stdio_output@@V?$positional_parameter_base@DV?$stream_output_adapter@D@__crt_stdio_output@@@2@@__crt_stdio_output@@AAEXII_N@Z 00481c30 f i libucrtd:output.obj
 0001:00080d30       ??$type_case_integer_parse_into_buffer@I@?$output_processor@DV?$stream_output_adapter@D@__crt_stdio_output@@V?$standard_base@DV?$stream_output_adapter@D@__crt_stdio_output@@@2@@__crt_stdio_output@@AAEXII_N@Z 00481d30 f i libucrtd:output.obj
 0001:00080e30       ??$type_case_integer_parse_into_buffer@I@?$output_processor@DV?$string_output_adapter@D@__crt_stdio_output@@V?$format_validation_base@DV?$string_output_adapter@D@__crt_stdio_output@@@2@@__crt_stdio_output@@AAEXII_N@Z 00481e30 f i libucrtd:output.obj
 0001:00080f30       ??$type_case_integer_parse_into_buffer@I@?$output_processor@DV?$string_output_adapter@D@__crt_stdio_output@@V?$positional_parameter_base@DV?$string_output_adapter@D@__crt_stdio_output@@@2@@__crt_stdio_output@@AAEXII_N@Z 00481f30 f i libucrtd:output.obj
 0001:00081030       ??$type_case_integer_parse_into_buffer@I@?$output_processor@DV?$string_output_adapter@D@__crt_stdio_output@@V?$standard_base@DV?$string_output_adapter@D@__crt_stdio_output@@@2@@__crt_stdio_output@@AAEXII_N@Z 00482030 f i libucrtd:output.obj
 0001:00081130       ??$type_case_integer_parse_into_buffer@I@?$output_processor@_WV?$stream_output_adapter@_W@__crt_stdio_output@@V?$format_validation_base@_WV?$stream_output_adapter@_W@__crt_stdio_output@@@2@@__crt_stdio_output@@AAEXII_N@Z 00482130 f i libucrtd:output.obj
 0001:00081240       ??$type_case_integer_parse_into_buffer@I@?$output_processor@_WV?$stream_output_adapter@_W@__crt_stdio_output@@V?$positional_parameter_base@_WV?$stream_output_adapter@_W@__crt_stdio_output@@@2@@__crt_stdio_output@@AAEXII_N@Z 00482240 f i libucrtd:output.obj
 0001:00081350       ??$type_case_integer_parse_into_buffer@I@?$output_processor@_WV?$stream_output_adapter@_W@__crt_stdio_output@@V?$standard_base@_WV?$stream_output_adapter@_W@__crt_stdio_output@@@2@@__crt_stdio_output@@AAEXII_N@Z 00482350 f i libucrtd:output.obj
 0001:00081460       ??$type_case_integer_parse_into_buffer@I@?$output_processor@_WV?$string_output_adapter@_W@__crt_stdio_output@@V?$format_validation_base@_WV?$string_output_adapter@_W@__crt_stdio_output@@@2@@__crt_stdio_output@@AAEXII_N@Z 00482460 f i libucrtd:output.obj
 0001:00081570       ??$type_case_integer_parse_into_buffer@I@?$output_processor@_WV?$string_output_adapter@_W@__crt_stdio_output@@V?$positional_parameter_base@_WV?$string_output_adapter@_W@__crt_stdio_output@@@2@@__crt_stdio_output@@AAEXII_N@Z 00482570 f i libucrtd:output.obj
 0001:00081680       ??$type_case_integer_parse_into_buffer@I@?$output_processor@_WV?$string_output_adapter@_W@__crt_stdio_output@@V?$standard_base@_WV?$string_output_adapter@_W@__crt_stdio_output@@@2@@__crt_stdio_output@@AAEXII_N@Z 00482680 f i libucrtd:output.obj
 0001:00081790       ??$type_case_integer_parse_into_buffer@_K@?$output_processor@DV?$stream_output_adapter@D@__crt_stdio_output@@V?$format_validation_base@DV?$stream_output_adapter@D@__crt_stdio_output@@@2@@__crt_stdio_output@@AAEX_KI_N@Z 00482790 f i libucrtd:output.obj
 0001:000818c0       ??$type_case_integer_parse_into_buffer@_K@?$output_processor@DV?$stream_output_adapter@D@__crt_stdio_output@@V?$positional_parameter_base@DV?$stream_output_adapter@D@__crt_stdio_output@@@2@@__crt_stdio_output@@AAEX_KI_N@Z 004828c0 f i libucrtd:output.obj
 0001:000819f0       ??$type_case_integer_parse_into_buffer@_K@?$output_processor@DV?$stream_output_adapter@D@__crt_stdio_output@@V?$standard_base@DV?$stream_output_adapter@D@__crt_stdio_output@@@2@@__crt_stdio_output@@AAEX_KI_N@Z 004829f0 f i libucrtd:output.obj
 0001:00081b20       ??$type_case_integer_parse_into_buffer@_K@?$output_processor@DV?$string_output_adapter@D@__crt_stdio_output@@V?$format_validation_base@DV?$string_output_adapter@D@__crt_stdio_output@@@2@@__crt_stdio_output@@AAEX_KI_N@Z 00482b20 f i libucrtd:output.obj
 0001:00081c50       ??$type_case_integer_parse_into_buffer@_K@?$output_processor@DV?$string_output_adapter@D@__crt_stdio_output@@V?$positional_parameter_base@DV?$string_output_adapter@D@__crt_stdio_output@@@2@@__crt_stdio_output@@AAEX_KI_N@Z 00482c50 f i libucrtd:output.obj
 0001:00081d80       ??$type_case_integer_parse_into_buffer@_K@?$output_processor@DV?$string_output_adapter@D@__crt_stdio_output@@V?$standard_base@DV?$string_output_adapter@D@__crt_stdio_output@@@2@@__crt_stdio_output@@AAEX_KI_N@Z 00482d80 f i libucrtd:output.obj
 0001:00081eb0       ??$type_case_integer_parse_into_buffer@_K@?$output_processor@_WV?$stream_output_adapter@_W@__crt_stdio_output@@V?$format_validation_base@_WV?$stream_output_adapter@_W@__crt_stdio_output@@@2@@__crt_stdio_output@@AAEX_KI_N@Z 00482eb0 f i libucrtd:output.obj
 0001:00081ff0       ??$type_case_integer_parse_into_buffer@_K@?$output_processor@_WV?$stream_output_adapter@_W@__crt_stdio_output@@V?$positional_parameter_base@_WV?$stream_output_adapter@_W@__crt_stdio_output@@@2@@__crt_stdio_output@@AAEX_KI_N@Z 00482ff0 f i libucrtd:output.obj
 0001:00082130       ??$type_case_integer_parse_into_buffer@_K@?$output_processor@_WV?$stream_output_adapter@_W@__crt_stdio_output@@V?$standard_base@_WV?$stream_output_adapter@_W@__crt_stdio_output@@@2@@__crt_stdio_output@@AAEX_KI_N@Z 00483130 f i libucrtd:output.obj
 0001:00082270       ??$type_case_integer_parse_into_buffer@_K@?$output_processor@_WV?$string_output_adapter@_W@__crt_stdio_output@@V?$format_validation_base@_WV?$string_output_adapter@_W@__crt_stdio_output@@@2@@__crt_stdio_output@@AAEX_KI_N@Z 00483270 f i libucrtd:output.obj
 0001:000823b0       ??$type_case_integer_parse_into_buffer@_K@?$output_processor@_WV?$string_output_adapter@_W@__crt_stdio_output@@V?$positional_parameter_base@_WV?$string_output_adapter@_W@__crt_stdio_output@@@2@@__crt_stdio_output@@AAEX_KI_N@Z 004833b0 f i libucrtd:output.obj
 0001:000824f0       ??$type_case_integer_parse_into_buffer@_K@?$output_processor@_WV?$string_output_adapter@_W@__crt_stdio_output@@V?$standard_base@_WV?$string_output_adapter@_W@__crt_stdio_output@@@2@@__crt_stdio_output@@AAEX_KI_N@Z 004834f0 f i libucrtd:output.obj
 0001:00082630       ??$write_multiple_characters@V?$stream_output_adapter@D@__crt_stdio_output@@D@__crt_stdio_output@@YAXABV?$stream_output_adapter@D@0@DHQAH@Z 00483630 f i libucrtd:output.obj
 0001:00082690       ??$write_multiple_characters@V?$stream_output_adapter@_W@__crt_stdio_output@@D@__crt_stdio_output@@YAXABV?$stream_output_adapter@_W@0@DHQAH@Z 00483690 f i libucrtd:output.obj
 0001:000826f0       ??$write_multiple_characters@V?$string_output_adapter@D@__crt_stdio_output@@D@__crt_stdio_output@@YAXABV?$string_output_adapter@D@0@DHQAH@Z 004836f0 f i libucrtd:output.obj
 0001:00082750       ??$write_multiple_characters@V?$string_output_adapter@_W@__crt_stdio_output@@D@__crt_stdio_output@@YAXABV?$string_output_adapter@_W@0@DHQAH@Z 00483750 f i libucrtd:output.obj
 0001:00082bd0       ??0?$common_data@D@__crt_stdio_output@@IAE@XZ 00483bd0 f i libucrtd:output.obj
 0001:00082ca0       ??0?$common_data@_W@__crt_stdio_output@@IAE@XZ 00483ca0 f i libucrtd:output.obj
 0001:00082d70       ??0?$output_adapter_data@DV?$stream_output_adapter@D@__crt_stdio_output@@@__crt_stdio_output@@IAE@ABV?$stream_output_adapter@D@1@_KQBDQAU__crt_locale_pointers@@QAD@Z 00483d70 f i libucrtd:output.obj
 0001:00082de0       ??0?$output_adapter_data@DV?$string_output_adapter@D@__crt_stdio_output@@@__crt_stdio_output@@IAE@ABV?$string_output_adapter@D@1@_KQBDQAU__crt_locale_pointers@@QAD@Z 00483de0 f i libucrtd:output.obj
 0001:00082e50       ??0?$output_adapter_data@_WV?$stream_output_adapter@_W@__crt_stdio_output@@@__crt_stdio_output@@IAE@ABV?$stream_output_adapter@_W@1@_KQB_WQAU__crt_locale_pointers@@QAD@Z 00483e50 f i libucrtd:output.obj
 0001:00082ec0       ??0?$output_adapter_data@_WV?$string_output_adapter@_W@__crt_stdio_output@@@__crt_stdio_output@@IAE@ABV?$string_output_adapter@_W@1@_KQB_WQAU__crt_locale_pointers@@QAD@Z 00483ec0 f i libucrtd:output.obj
 0001:00082f30       ??0?$output_processor@DV?$stream_output_adapter@D@__crt_stdio_output@@V?$format_validation_base@DV?$stream_output_adapter@D@__crt_stdio_output@@@2@@__crt_stdio_output@@QAE@ABV?$stream_output_adapter@D@1@_KQBDQAU__crt_locale_pointers@@QAD@Z 00483f30 f i libucrtd:output.obj
 0001:00082f80       ??0?$output_processor@DV?$stream_output_adapter@D@__crt_stdio_output@@V?$positional_parameter_base@DV?$stream_output_adapter@D@__crt_stdio_output@@@2@@__crt_stdio_output@@QAE@ABV?$stream_output_adapter@D@1@_KQBDQAU__crt_locale_pointers@@QAD@Z 00483f80 f i libucrtd:output.obj
 0001:00082fd0       ??0?$output_processor@DV?$stream_output_adapter@D@__crt_stdio_output@@V?$standard_base@DV?$stream_output_adapter@D@__crt_stdio_output@@@2@@__crt_stdio_output@@QAE@ABV?$stream_output_adapter@D@1@_KQBDQAU__crt_locale_pointers@@QAD@Z 00483fd0 f i libucrtd:output.obj
 0001:00083020       ??0?$output_processor@DV?$string_output_adapter@D@__crt_stdio_output@@V?$format_validation_base@DV?$string_output_adapter@D@__crt_stdio_output@@@2@@__crt_stdio_output@@QAE@ABV?$string_output_adapter@D@1@_KQBDQAU__crt_locale_pointers@@QAD@Z 00484020 f i libucrtd:output.obj
 0001:00083070       ??0?$output_processor@DV?$string_output_adapter@D@__crt_stdio_output@@V?$positional_parameter_base@DV?$string_output_adapter@D@__crt_stdio_output@@@2@@__crt_stdio_output@@QAE@ABV?$string_output_adapter@D@1@_KQBDQAU__crt_locale_pointers@@QAD@Z 00484070 f i libucrtd:output.obj
 0001:000830c0       ??0?$output_processor@DV?$string_output_adapter@D@__crt_stdio_output@@V?$standard_base@DV?$string_output_adapter@D@__crt_stdio_output@@@2@@__crt_stdio_output@@QAE@ABV?$string_output_adapter@D@1@_KQBDQAU__crt_locale_pointers@@QAD@Z 004840c0 f i libucrtd:output.obj
 0001:00083110       ??0?$output_processor@_WV?$stream_output_adapter@_W@__crt_stdio_output@@V?$format_validation_base@_WV?$stream_output_adapter@_W@__crt_stdio_output@@@2@@__crt_stdio_output@@QAE@ABV?$stream_output_adapter@_W@1@_KQB_WQAU__crt_locale_pointers@@QAD@Z 00484110 f i libucrtd:output.obj
 0001:00083160       ??0?$output_processor@_WV?$stream_output_adapter@_W@__crt_stdio_output@@V?$positional_parameter_base@_WV?$stream_output_adapter@_W@__crt_stdio_output@@@2@@__crt_stdio_output@@QAE@ABV?$stream_output_adapter@_W@1@_KQB_WQAU__crt_locale_pointers@@QAD@Z 00484160 f i libucrtd:output.obj
 0001:000831b0       ??0?$output_processor@_WV?$stream_output_adapter@_W@__crt_stdio_output@@V?$standard_base@_WV?$stream_output_adapter@_W@__crt_stdio_output@@@2@@__crt_stdio_output@@QAE@ABV?$stream_output_adapter@_W@1@_KQB_WQAU__crt_locale_pointers@@QAD@Z 004841b0 f i libucrtd:output.obj
 0001:00083200       ??0?$output_processor@_WV?$string_output_adapter@_W@__crt_stdio_output@@V?$format_validation_base@_WV?$string_output_adapter@_W@__crt_stdio_output@@@2@@__crt_stdio_output@@QAE@ABV?$string_output_adapter@_W@1@_KQB_WQAU__crt_locale_pointers@@QAD@Z 00484200 f i libucrtd:output.obj
 0001:00083250       ??0?$output_processor@_WV?$string_output_adapter@_W@__crt_stdio_output@@V?$positional_parameter_base@_WV?$string_output_adapter@_W@__crt_stdio_output@@@2@@__crt_stdio_output@@QAE@ABV?$string_output_adapter@_W@1@_KQB_WQAU__crt_locale_pointers@@QAD@Z 00484250 f i libucrtd:output.obj
 0001:000832a0       ??0?$output_processor@_WV?$string_output_adapter@_W@__crt_stdio_output@@V?$standard_base@_WV?$string_output_adapter@_W@__crt_stdio_output@@@2@@__crt_stdio_output@@QAE@ABV?$string_output_adapter@_W@1@_KQB_WQAU__crt_locale_pointers@@QAD@Z 004842a0 f i libucrtd:output.obj
 0001:000832f0       ??0?$stream_output_adapter@D@__crt_stdio_output@@QAE@QAU_iobuf@@@Z 004842f0 f i libucrtd:output.obj
 0001:00083320       ??0?$stream_output_adapter@_W@__crt_stdio_output@@QAE@QAU_iobuf@@@Z 00484320 f i libucrtd:output.obj
 0001:00083350       ??0?$string_output_adapter@D@__crt_stdio_output@@QAE@QAU?$string_output_adapter_context@D@1@@Z 00484350 f i libucrtd:output.obj
 0001:00083370       ??0?$string_output_adapter@_W@__crt_stdio_output@@QAE@QAU?$string_output_adapter_context@_W@1@@Z 00484370 f i libucrtd:output.obj
 0001:00083390       ??0_LocaleUpdate@@QAE@QAU__crt_locale_pointers@@@Z 00484390 f i libucrtd:output.obj
 0001:000834b0       ??0__crt_errno_guard@@QAE@QAH@Z 004844b0 f i libucrtd:output.obj
 0001:000834f0       ??0formatting_buffer@__crt_stdio_output@@QAE@XZ 004844f0 f i libucrtd:output.obj
 0001:00083530       ??1?$common_data@D@__crt_stdio_output@@QAE@XZ 00484530 f i libucrtd:output.obj
 0001:00083550       ??1?$common_data@_W@__crt_stdio_output@@QAE@XZ 00484550 f i libucrtd:output.obj
 0001:00083570       ??1?$format_validation_base@DV?$stream_output_adapter@D@__crt_stdio_output@@@__crt_stdio_output@@QAE@XZ 00484570 f i libucrtd:output.obj
 0001:00083590       ??1?$format_validation_base@DV?$string_output_adapter@D@__crt_stdio_output@@@__crt_stdio_output@@QAE@XZ 00484590 f i libucrtd:output.obj
 0001:000835b0       ??1?$format_validation_base@_WV?$stream_output_adapter@_W@__crt_stdio_output@@@__crt_stdio_output@@QAE@XZ 004845b0 f i libucrtd:output.obj
 0001:000835d0       ??1?$format_validation_base@_WV?$string_output_adapter@_W@__crt_stdio_output@@@__crt_stdio_output@@QAE@XZ 004845d0 f i libucrtd:output.obj
 0001:000835f0       ??1?$output_adapter_data@DV?$stream_output_adapter@D@__crt_stdio_output@@@__crt_stdio_output@@QAE@XZ 004845f0 f i libucrtd:output.obj
 0001:00083610       ??1?$output_adapter_data@DV?$string_output_adapter@D@__crt_stdio_output@@@__crt_stdio_output@@QAE@XZ 00484610 f i libucrtd:output.obj
 0001:00083630       ??1?$output_adapter_data@_WV?$stream_output_adapter@_W@__crt_stdio_output@@@__crt_stdio_output@@QAE@XZ 00484630 f i libucrtd:output.obj
 0001:00083650       ??1?$output_adapter_data@_WV?$string_output_adapter@_W@__crt_stdio_output@@@__crt_stdio_output@@QAE@XZ 00484650 f i libucrtd:output.obj
 0001:00083670       ??1?$output_processor@DV?$stream_output_adapter@D@__crt_stdio_output@@V?$format_validation_base@DV?$stream_output_adapter@D@__crt_stdio_output@@@2@@__crt_stdio_output@@QAE@XZ 00484670 f i libucrtd:output.obj
 0001:00083690       ??1?$output_processor@DV?$stream_output_adapter@D@__crt_stdio_output@@V?$positional_parameter_base@DV?$stream_output_adapter@D@__crt_stdio_output@@@2@@__crt_stdio_output@@QAE@XZ 00484690 f i libucrtd:output.obj
 0001:000836b0       ??1?$output_processor@DV?$stream_output_adapter@D@__crt_stdio_output@@V?$standard_base@DV?$stream_output_adapter@D@__crt_stdio_output@@@2@@__crt_stdio_output@@QAE@XZ 004846b0 f i libucrtd:output.obj
 0001:000836d0       ??1?$output_processor@DV?$string_output_adapter@D@__crt_stdio_output@@V?$format_validation_base@DV?$string_output_adapter@D@__crt_stdio_output@@@2@@__crt_stdio_output@@QAE@XZ 004846d0 f i libucrtd:output.obj
 0001:000836f0       ??1?$output_processor@DV?$string_output_adapter@D@__crt_stdio_output@@V?$positional_parameter_base@DV?$string_output_adapter@D@__crt_stdio_output@@@2@@__crt_stdio_output@@QAE@XZ 004846f0 f i libucrtd:output.obj
 0001:00083710       ??1?$output_processor@DV?$string_output_adapter@D@__crt_stdio_output@@V?$standard_base@DV?$string_output_adapter@D@__crt_stdio_output@@@2@@__crt_stdio_output@@QAE@XZ 00484710 f i libucrtd:output.obj
 0001:00083730       ??1?$output_processor@_WV?$stream_output_adapter@_W@__crt_stdio_output@@V?$format_validation_base@_WV?$stream_output_adapter@_W@__crt_stdio_output@@@2@@__crt_stdio_output@@QAE@XZ 00484730 f i libucrtd:output.obj
 0001:00083750       ??1?$output_processor@_WV?$stream_output_adapter@_W@__crt_stdio_output@@V?$positional_parameter_base@_WV?$stream_output_adapter@_W@__crt_stdio_output@@@2@@__crt_stdio_output@@QAE@XZ 00484750 f i libucrtd:output.obj
 0001:00083770       ??1?$output_processor@_WV?$stream_output_adapter@_W@__crt_stdio_output@@V?$standard_base@_WV?$stream_output_adapter@_W@__crt_stdio_output@@@2@@__crt_stdio_output@@QAE@XZ 00484770 f i libucrtd:output.obj
 0001:00083790       ??1?$output_processor@_WV?$string_output_adapter@_W@__crt_stdio_output@@V?$format_validation_base@_WV?$string_output_adapter@_W@__crt_stdio_output@@@2@@__crt_stdio_output@@QAE@XZ 00484790 f i libucrtd:output.obj
 0001:000837b0       ??1?$output_processor@_WV?$string_output_adapter@_W@__crt_stdio_output@@V?$positional_parameter_base@_WV?$string_output_adapter@_W@__crt_stdio_output@@@2@@__crt_stdio_output@@QAE@XZ 004847b0 f i libucrtd:output.obj
 0001:000837d0       ??1?$output_processor@_WV?$string_output_adapter@_W@__crt_stdio_output@@V?$standard_base@_WV?$string_output_adapter@_W@__crt_stdio_output@@@2@@__crt_stdio_output@@QAE@XZ 004847d0 f i libucrtd:output.obj
 0001:000837f0       ??1?$positional_parameter_base@DV?$stream_output_adapter@D@__crt_stdio_output@@@__crt_stdio_output@@QAE@XZ 004847f0 f i libucrtd:output.obj
 0001:00083810       ??1?$positional_parameter_base@DV?$string_output_adapter@D@__crt_stdio_output@@@__crt_stdio_output@@QAE@XZ 00484810 f i libucrtd:output.obj
 0001:00083830       ??1?$positional_parameter_base@_WV?$stream_output_adapter@_W@__crt_stdio_output@@@__crt_stdio_output@@QAE@XZ 00484830 f i libucrtd:output.obj
 0001:00083850       ??1?$positional_parameter_base@_WV?$string_output_adapter@_W@__crt_stdio_output@@@__crt_stdio_output@@QAE@XZ 00484850 f i libucrtd:output.obj
 0001:00083870       ??1?$standard_base@DV?$stream_output_adapter@D@__crt_stdio_output@@@__crt_stdio_output@@QAE@XZ 00484870 f i libucrtd:output.obj
 0001:00083890       ??1?$standard_base@DV?$string_output_adapter@D@__crt_stdio_output@@@__crt_stdio_output@@QAE@XZ 00484890 f i libucrtd:output.obj
 0001:000838b0       ??1?$standard_base@_WV?$stream_output_adapter@_W@__crt_stdio_output@@@__crt_stdio_output@@QAE@XZ 004848b0 f i libucrtd:output.obj
 0001:000838d0       ??1?$standard_base@_WV?$string_output_adapter@_W@__crt_stdio_output@@@__crt_stdio_output@@QAE@XZ 004848d0 f i libucrtd:output.obj
 0001:000838f0       ??1_LocaleUpdate@@QAE@XZ   004848f0 f i libucrtd:output.obj
 0001:00083930       ??1__crt_errno_guard@@QAE@XZ 00484930 f i libucrtd:output.obj
 0001:00083970       ??1formatting_buffer@__crt_stdio_output@@QAE@XZ 00484970 f i libucrtd:output.obj
 0001:000839a0       ??4?$__crt_unique_heap_ptr@DU__crt_internal_free_policy@@@@QAEAAV0@$$QAV0@@Z 004849a0 f i libucrtd:output.obj
 0001:000842e0       ?GetLocaleT@_LocaleUpdate@@QAEPAU__crt_locale_pointers@@XZ 004852e0 f i libucrtd:output.obj
 0001:00084300       ?adjust_hexit@?$output_processor@DV?$stream_output_adapter@D@__crt_stdio_output@@V?$format_validation_base@DV?$stream_output_adapter@D@__crt_stdio_output@@@2@@__crt_stdio_output@@CADH_N@Z 00485300 f i libucrtd:output.obj
 0001:00084350       ?adjust_hexit@?$output_processor@DV?$stream_output_adapter@D@__crt_stdio_output@@V?$positional_parameter_base@DV?$stream_output_adapter@D@__crt_stdio_output@@@2@@__crt_stdio_output@@CADH_N@Z 00485350 f i libucrtd:output.obj
 0001:000843a0       ?adjust_hexit@?$output_processor@DV?$stream_output_adapter@D@__crt_stdio_output@@V?$standard_base@DV?$stream_output_adapter@D@__crt_stdio_output@@@2@@__crt_stdio_output@@CADH_N@Z 004853a0 f i libucrtd:output.obj
 0001:000843f0       ?adjust_hexit@?$output_processor@DV?$string_output_adapter@D@__crt_stdio_output@@V?$format_validation_base@DV?$string_output_adapter@D@__crt_stdio_output@@@2@@__crt_stdio_output@@CADH_N@Z 004853f0 f i libucrtd:output.obj
 0001:00084440       ?adjust_hexit@?$output_processor@DV?$string_output_adapter@D@__crt_stdio_output@@V?$positional_parameter_base@DV?$string_output_adapter@D@__crt_stdio_output@@@2@@__crt_stdio_output@@CADH_N@Z 00485440 f i libucrtd:output.obj
 0001:00084490       ?adjust_hexit@?$output_processor@DV?$string_output_adapter@D@__crt_stdio_output@@V?$standard_base@DV?$string_output_adapter@D@__crt_stdio_output@@@2@@__crt_stdio_output@@CADH_N@Z 00485490 f i libucrtd:output.obj
 0001:000844e0       ?adjust_hexit@?$output_processor@_WV?$stream_output_adapter@_W@__crt_stdio_output@@V?$format_validation_base@_WV?$stream_output_adapter@_W@__crt_stdio_output@@@2@@__crt_stdio_output@@CADH_N@Z 004854e0 f i libucrtd:output.obj
 0001:00084530       ?adjust_hexit@?$output_processor@_WV?$stream_output_adapter@_W@__crt_stdio_output@@V?$positional_parameter_base@_WV?$stream_output_adapter@_W@__crt_stdio_output@@@2@@__crt_stdio_output@@CADH_N@Z 00485530 f i libucrtd:output.obj
 0001:00084580       ?adjust_hexit@?$output_processor@_WV?$stream_output_adapter@_W@__crt_stdio_output@@V?$standard_base@_WV?$stream_output_adapter@_W@__crt_stdio_output@@@2@@__crt_stdio_output@@CADH_N@Z 00485580 f i libucrtd:output.obj
 0001:000845d0       ?adjust_hexit@?$output_processor@_WV?$string_output_adapter@_W@__crt_stdio_output@@V?$format_validation_base@_WV?$string_output_adapter@_W@__crt_stdio_output@@@2@@__crt_stdio_output@@CADH_N@Z 004855d0 f i libucrtd:output.obj
 0001:00084620       ?adjust_hexit@?$output_processor@_WV?$string_output_adapter@_W@__crt_stdio_output@@V?$positional_parameter_base@_WV?$string_output_adapter@_W@__crt_stdio_output@@@2@@__crt_stdio_output@@CADH_N@Z 00485620 f i libucrtd:output.obj
 0001:00084670       ?adjust_hexit@?$output_processor@_WV?$string_output_adapter@_W@__crt_stdio_output@@V?$standard_base@_WV?$string_output_adapter@_W@__crt_stdio_output@@@2@@__crt_stdio_output@@CADH_N@Z 00485670 f i libucrtd:output.obj
 0001:000846c0       ?advance_to_next_pass@?$positional_parameter_base@DV?$stream_output_adapter@D@__crt_stdio_output@@@__crt_stdio_output@@IAE_NXZ 004856c0 f i libucrtd:output.obj
 0001:00084780       ?advance_to_next_pass@?$positional_parameter_base@DV?$string_output_adapter@D@__crt_stdio_output@@@__crt_stdio_output@@IAE_NXZ 00485780 f i libucrtd:output.obj
 0001:00084840       ?advance_to_next_pass@?$positional_parameter_base@_WV?$stream_output_adapter@_W@__crt_stdio_output@@@__crt_stdio_output@@IAE_NXZ 00485840 f i libucrtd:output.obj
 0001:00084900       ?advance_to_next_pass@?$positional_parameter_base@_WV?$string_output_adapter@_W@__crt_stdio_output@@@__crt_stdio_output@@IAE_NXZ 00485900 f i libucrtd:output.obj
 0001:000849c0       ?advance_to_next_pass@?$standard_base@DV?$stream_output_adapter@D@__crt_stdio_output@@@__crt_stdio_output@@IAE_NXZ 004859c0 f i libucrtd:output.obj
 0001:00084a20       ?advance_to_next_pass@?$standard_base@DV?$string_output_adapter@D@__crt_stdio_output@@@__crt_stdio_output@@IAE_NXZ 00485a20 f i libucrtd:output.obj
 0001:00084a80       ?advance_to_next_pass@?$standard_base@_WV?$stream_output_adapter@_W@__crt_stdio_output@@@__crt_stdio_output@@IAE_NXZ 00485a80 f i libucrtd:output.obj
 0001:00084ae0       ?advance_to_next_pass@?$standard_base@_WV?$string_output_adapter@_W@__crt_stdio_output@@@__crt_stdio_output@@IAE_NXZ 00485ae0 f i libucrtd:output.obj
 0001:00084b40       ?crop_zeroes@__crt_stdio_output@@YAXPADQAU__crt_locale_pointers@@@Z 00485b40 f i libucrtd:output.obj
 0001:00084c70       ?find_next_state@?$output_processor@DV?$stream_output_adapter@D@__crt_stdio_output@@V?$format_validation_base@DV?$stream_output_adapter@D@__crt_stdio_output@@@2@@__crt_stdio_output@@ABE?AW4state@2@DW432@@Z 00485c70 f i libucrtd:output.obj
 0001:00084d00       ?find_next_state@?$output_processor@DV?$stream_output_adapter@D@__crt_stdio_output@@V?$positional_parameter_base@DV?$stream_output_adapter@D@__crt_stdio_output@@@2@@__crt_stdio_output@@ABE?AW4state@2@DW432@@Z 00485d00 f i libucrtd:output.obj
 0001:00084d90       ?find_next_state@?$output_processor@DV?$stream_output_adapter@D@__crt_stdio_output@@V?$standard_base@DV?$stream_output_adapter@D@__crt_stdio_output@@@2@@__crt_stdio_output@@ABE?AW4state@2@DW432@@Z 00485d90 f i libucrtd:output.obj
 0001:00084e20       ?find_next_state@?$output_processor@DV?$string_output_adapter@D@__crt_stdio_output@@V?$format_validation_base@DV?$string_output_adapter@D@__crt_stdio_output@@@2@@__crt_stdio_output@@ABE?AW4state@2@DW432@@Z 00485e20 f i libucrtd:output.obj
 0001:00084eb0       ?find_next_state@?$output_processor@DV?$string_output_adapter@D@__crt_stdio_output@@V?$positional_parameter_base@DV?$string_output_adapter@D@__crt_stdio_output@@@2@@__crt_stdio_output@@ABE?AW4state@2@DW432@@Z 00485eb0 f i libucrtd:output.obj
 0001:00084f40       ?find_next_state@?$output_processor@DV?$string_output_adapter@D@__crt_stdio_output@@V?$standard_base@DV?$string_output_adapter@D@__crt_stdio_output@@@2@@__crt_stdio_output@@ABE?AW4state@2@DW432@@Z 00485f40 f i libucrtd:output.obj
 0001:00084fd0       ?find_next_state@?$output_processor@_WV?$stream_output_adapter@_W@__crt_stdio_output@@V?$format_validation_base@_WV?$stream_output_adapter@_W@__crt_stdio_output@@@2@@__crt_stdio_output@@ABE?AW4state@2@_WW432@@Z 00485fd0 f i libucrtd:output.obj
 0001:00085060       ?find_next_state@?$output_processor@_WV?$stream_output_adapter@_W@__crt_stdio_output@@V?$positional_parameter_base@_WV?$stream_output_adapter@_W@__crt_stdio_output@@@2@@__crt_stdio_output@@ABE?AW4state@2@_WW432@@Z 00486060 f i libucrtd:output.obj
 0001:000850f0       ?find_next_state@?$output_processor@_WV?$stream_output_adapter@_W@__crt_stdio_output@@V?$standard_base@_WV?$stream_output_adapter@_W@__crt_stdio_output@@@2@@__crt_stdio_output@@ABE?AW4state@2@_WW432@@Z 004860f0 f i libucrtd:output.obj
 0001:00085180       ?find_next_state@?$output_processor@_WV?$string_output_adapter@_W@__crt_stdio_output@@V?$format_validation_base@_WV?$string_output_adapter@_W@__crt_stdio_output@@@2@@__crt_stdio_output@@ABE?AW4state@2@_WW432@@Z 00486180 f i libucrtd:output.obj
 0001:00085210       ?find_next_state@?$output_processor@_WV?$string_output_adapter@_W@__crt_stdio_output@@V?$positional_parameter_base@_WV?$string_output_adapter@_W@__crt_stdio_output@@@2@@__crt_stdio_output@@ABE?AW4state@2@_WW432@@Z 00486210 f i libucrtd:output.obj
 0001:000852a0       ?find_next_state@?$output_processor@_WV?$string_output_adapter@_W@__crt_stdio_output@@V?$standard_base@_WV?$string_output_adapter@_W@__crt_stdio_output@@@2@@__crt_stdio_output@@ABE?AW4state@2@_WW432@@Z 004862a0 f i libucrtd:output.obj
 0001:00085330       ?force_decimal_point@__crt_stdio_output@@YAXPADQAU__crt_locale_pointers@@@Z 00486330 f i libucrtd:output.obj
 0001:00085410       ?get_parameter_type@?$positional_parameter_base@DV?$stream_output_adapter@D@__crt_stdio_output@@@__crt_stdio_output@@CA?AW4parameter_type@12@F@Z 00486410 f i libucrtd:output.obj
 0001:00085420       ?get_parameter_type@?$positional_parameter_base@DV?$stream_output_adapter@D@__crt_stdio_output@@@__crt_stdio_output@@CA?AW4parameter_type@12@G@Z 00486420 f i libucrtd:output.obj
 0001:00085430       ?get_parameter_type@?$positional_parameter_base@DV?$stream_output_adapter@D@__crt_stdio_output@@@__crt_stdio_output@@CA?AW4parameter_type@12@H@Z 00486430 f i libucrtd:output.obj
 0001:00085440       ?get_parameter_type@?$positional_parameter_base@DV?$stream_output_adapter@D@__crt_stdio_output@@@__crt_stdio_output@@CA?AW4parameter_type@12@I@Z 00486440 f i libucrtd:output.obj
 0001:00085450       ?get_parameter_type@?$positional_parameter_base@DV?$stream_output_adapter@D@__crt_stdio_output@@@__crt_stdio_output@@CA?AW4parameter_type@12@U_CRT_DOUBLE@@@Z 00486450 f i libucrtd:output.obj
 0001:00085460       ?get_parameter_type@?$positional_parameter_base@DV?$stream_output_adapter@D@__crt_stdio_output@@@__crt_stdio_output@@CA?AW4parameter_type@12@_J@Z 00486460 f i libucrtd:output.obj
 0001:00085470       ?get_parameter_type@?$positional_parameter_base@DV?$stream_output_adapter@D@__crt_stdio_output@@@__crt_stdio_output@@CA?AW4parameter_type@12@_K@Z 00486470 f i libucrtd:output.obj
 0001:00085480       ?get_parameter_type@?$positional_parameter_base@DV?$stream_output_adapter@D@__crt_stdio_output@@@__crt_stdio_output@@CA?AW4parameter_type@12@_W@Z 00486480 f i libucrtd:output.obj
 0001:00085490       ?get_parameter_type@?$positional_parameter_base@DV?$string_output_adapter@D@__crt_stdio_output@@@__crt_stdio_output@@CA?AW4parameter_type@12@F@Z 00486490 f i libucrtd:output.obj
 0001:000854a0       ?get_parameter_type@?$positional_parameter_base@DV?$string_output_adapter@D@__crt_stdio_output@@@__crt_stdio_output@@CA?AW4parameter_type@12@G@Z 004864a0 f i libucrtd:output.obj
 0001:000854b0       ?get_parameter_type@?$positional_parameter_base@DV?$string_output_adapter@D@__crt_stdio_output@@@__crt_stdio_output@@CA?AW4parameter_type@12@H@Z 004864b0 f i libucrtd:output.obj
 0001:000854c0       ?get_parameter_type@?$positional_parameter_base@DV?$string_output_adapter@D@__crt_stdio_output@@@__crt_stdio_output@@CA?AW4parameter_type@12@I@Z 004864c0 f i libucrtd:output.obj
 0001:000854d0       ?get_parameter_type@?$positional_parameter_base@DV?$string_output_adapter@D@__crt_stdio_output@@@__crt_stdio_output@@CA?AW4parameter_type@12@U_CRT_DOUBLE@@@Z 004864d0 f i libucrtd:output.obj
 0001:000854e0       ?get_parameter_type@?$positional_parameter_base@DV?$string_output_adapter@D@__crt_stdio_output@@@__crt_stdio_output@@CA?AW4parameter_type@12@_J@Z 004864e0 f i libucrtd:output.obj
 0001:000854f0       ?get_parameter_type@?$positional_parameter_base@DV?$string_output_adapter@D@__crt_stdio_output@@@__crt_stdio_output@@CA?AW4parameter_type@12@_K@Z 004864f0 f i libucrtd:output.obj
 0001:00085500       ?get_parameter_type@?$positional_parameter_base@DV?$string_output_adapter@D@__crt_stdio_output@@@__crt_stdio_output@@CA?AW4parameter_type@12@_W@Z 00486500 f i libucrtd:output.obj
 0001:00085510       ?get_parameter_type@?$positional_parameter_base@_WV?$stream_output_adapter@_W@__crt_stdio_output@@@__crt_stdio_output@@CA?AW4parameter_type@12@F@Z 00486510 f i libucrtd:output.obj
 0001:00085520       ?get_parameter_type@?$positional_parameter_base@_WV?$stream_output_adapter@_W@__crt_stdio_output@@@__crt_stdio_output@@CA?AW4parameter_type@12@G@Z 00486520 f i libucrtd:output.obj
 0001:00085530       ?get_parameter_type@?$positional_parameter_base@_WV?$stream_output_adapter@_W@__crt_stdio_output@@@__crt_stdio_output@@CA?AW4parameter_type@12@H@Z 00486530 f i libucrtd:output.obj
 0001:00085540       ?get_parameter_type@?$positional_parameter_base@_WV?$stream_output_adapter@_W@__crt_stdio_output@@@__crt_stdio_output@@CA?AW4parameter_type@12@I@Z 00486540 f i libucrtd:output.obj
 0001:00085550       ?get_parameter_type@?$positional_parameter_base@_WV?$stream_output_adapter@_W@__crt_stdio_output@@@__crt_stdio_output@@CA?AW4parameter_type@12@U_CRT_DOUBLE@@@Z 00486550 f i libucrtd:output.obj
 0001:00085560       ?get_parameter_type@?$positional_parameter_base@_WV?$stream_output_adapter@_W@__crt_stdio_output@@@__crt_stdio_output@@CA?AW4parameter_type@12@_J@Z 00486560 f i libucrtd:output.obj
 0001:00085570       ?get_parameter_type@?$positional_parameter_base@_WV?$stream_output_adapter@_W@__crt_stdio_output@@@__crt_stdio_output@@CA?AW4parameter_type@12@_K@Z 00486570 f i libucrtd:output.obj
 0001:00085580       ?get_parameter_type@?$positional_parameter_base@_WV?$stream_output_adapter@_W@__crt_stdio_output@@@__crt_stdio_output@@CA?AW4parameter_type@12@_W@Z 00486580 f i libucrtd:output.obj
 0001:00085590       ?get_parameter_type@?$positional_parameter_base@_WV?$string_output_adapter@_W@__crt_stdio_output@@@__crt_stdio_output@@CA?AW4parameter_type@12@F@Z 00486590 f i libucrtd:output.obj
 0001:000855a0       ?get_parameter_type@?$positional_parameter_base@_WV?$string_output_adapter@_W@__crt_stdio_output@@@__crt_stdio_output@@CA?AW4parameter_type@12@G@Z 004865a0 f i libucrtd:output.obj
 0001:000855b0       ?get_parameter_type@?$positional_parameter_base@_WV?$string_output_adapter@_W@__crt_stdio_output@@@__crt_stdio_output@@CA?AW4parameter_type@12@H@Z 004865b0 f i libucrtd:output.obj
 0001:000855c0       ?get_parameter_type@?$positional_parameter_base@_WV?$string_output_adapter@_W@__crt_stdio_output@@@__crt_stdio_output@@CA?AW4parameter_type@12@I@Z 004865c0 f i libucrtd:output.obj
 0001:000855d0       ?get_parameter_type@?$positional_parameter_base@_WV?$string_output_adapter@_W@__crt_stdio_output@@@__crt_stdio_output@@CA?AW4parameter_type@12@U_CRT_DOUBLE@@@Z 004865d0 f i libucrtd:output.obj
 0001:000855e0       ?get_parameter_type@?$positional_parameter_base@_WV?$string_output_adapter@_W@__crt_stdio_output@@@__crt_stdio_output@@CA?AW4parameter_type@12@_J@Z 004865e0 f i libucrtd:output.obj
 0001:000855f0       ?get_parameter_type@?$positional_parameter_base@_WV?$string_output_adapter@_W@__crt_stdio_output@@@__crt_stdio_output@@CA?AW4parameter_type@12@_K@Z 004865f0 f i libucrtd:output.obj
 0001:00085600       ?get_parameter_type@?$positional_parameter_base@_WV?$string_output_adapter@_W@__crt_stdio_output@@@__crt_stdio_output@@CA?AW4parameter_type@12@_W@Z 00486600 f i libucrtd:output.obj
 0001:00085610       ?has_flag@?$output_processor@DV?$stream_output_adapter@D@__crt_stdio_output@@V?$format_validation_base@DV?$stream_output_adapter@D@__crt_stdio_output@@@2@@__crt_stdio_output@@ABE_NI@Z 00486610 f i libucrtd:output.obj
 0001:00085650       ?has_flag@?$output_processor@DV?$stream_output_adapter@D@__crt_stdio_output@@V?$positional_parameter_base@DV?$stream_output_adapter@D@__crt_stdio_output@@@2@@__crt_stdio_output@@ABE_NI@Z 00486650 f i libucrtd:output.obj
 0001:00085690       ?has_flag@?$output_processor@DV?$stream_output_adapter@D@__crt_stdio_output@@V?$standard_base@DV?$stream_output_adapter@D@__crt_stdio_output@@@2@@__crt_stdio_output@@ABE_NI@Z 00486690 f i libucrtd:output.obj
 0001:000856d0       ?has_flag@?$output_processor@DV?$string_output_adapter@D@__crt_stdio_output@@V?$format_validation_base@DV?$string_output_adapter@D@__crt_stdio_output@@@2@@__crt_stdio_output@@ABE_NI@Z 004866d0 f i libucrtd:output.obj
 0001:00085710       ?has_flag@?$output_processor@DV?$string_output_adapter@D@__crt_stdio_output@@V?$positional_parameter_base@DV?$string_output_adapter@D@__crt_stdio_output@@@2@@__crt_stdio_output@@ABE_NI@Z 00486710 f i libucrtd:output.obj
 0001:00085750       ?has_flag@?$output_processor@DV?$string_output_adapter@D@__crt_stdio_output@@V?$standard_base@DV?$string_output_adapter@D@__crt_stdio_output@@@2@@__crt_stdio_output@@ABE_NI@Z 00486750 f i libucrtd:output.obj
 0001:00085790       ?has_flag@?$output_processor@_WV?$stream_output_adapter@_W@__crt_stdio_output@@V?$format_validation_base@_WV?$stream_output_adapter@_W@__crt_stdio_output@@@2@@__crt_stdio_output@@ABE_NI@Z 00486790 f i libucrtd:output.obj
 0001:000857d0       ?has_flag@?$output_processor@_WV?$stream_output_adapter@_W@__crt_stdio_output@@V?$positional_parameter_base@_WV?$stream_output_adapter@_W@__crt_stdio_output@@@2@@__crt_stdio_output@@ABE_NI@Z 004867d0 f i libucrtd:output.obj
 0001:00085810       ?has_flag@?$output_processor@_WV?$stream_output_adapter@_W@__crt_stdio_output@@V?$standard_base@_WV?$stream_output_adapter@_W@__crt_stdio_output@@@2@@__crt_stdio_output@@ABE_NI@Z 00486810 f i libucrtd:output.obj
 0001:00085850       ?has_flag@?$output_processor@_WV?$string_output_adapter@_W@__crt_stdio_output@@V?$format_validation_base@_WV?$string_output_adapter@_W@__crt_stdio_output@@@2@@__crt_stdio_output@@ABE_NI@Z 00486850 f i libucrtd:output.obj
 0001:00085890       ?has_flag@?$output_processor@_WV?$string_output_adapter@_W@__crt_stdio_output@@V?$positional_parameter_base@_WV?$string_output_adapter@_W@__crt_stdio_output@@@2@@__crt_stdio_output@@ABE_NI@Z 00486890 f i libucrtd:output.obj
 0001:000858d0       ?has_flag@?$output_processor@_WV?$string_output_adapter@_W@__crt_stdio_output@@V?$standard_base@_WV?$string_output_adapter@_W@__crt_stdio_output@@@2@@__crt_stdio_output@@ABE_NI@Z 004868d0 f i libucrtd:output.obj
 0001:00085910       ?is_positional_parameter_reappearance_consistent@?$positional_parameter_base@DV?$stream_output_adapter@D@__crt_stdio_output@@@__crt_stdio_output@@AAE_NABUparameter_data@12@W4parameter_type@12@DW4length_modifier@2@@Z 00486910 f i libucrtd:output.obj
 0001:00085bc0       ?is_positional_parameter_reappearance_consistent@?$positional_parameter_base@DV?$string_output_adapter@D@__crt_stdio_output@@@__crt_stdio_output@@AAE_NABUparameter_data@12@W4parameter_type@12@DW4length_modifier@2@@Z 00486bc0 f i libucrtd:output.obj
 0001:00085e70       ?is_positional_parameter_reappearance_consistent@?$positional_parameter_base@_WV?$stream_output_adapter@_W@__crt_stdio_output@@@__crt_stdio_output@@AAE_NABUparameter_data@12@W4parameter_type@12@_WW4length_modifier@2@@Z 00486e70 f i libucrtd:output.obj
 0001:00086120       ?is_positional_parameter_reappearance_consistent@?$positional_parameter_base@_WV?$string_output_adapter@_W@__crt_stdio_output@@@__crt_stdio_output@@AAE_NABUparameter_data@12@W4parameter_type@12@_WW4length_modifier@2@@Z 00487120 f i libucrtd:output.obj
 0001:000863d0       ?narrow_null_string@?$output_processor@DV?$stream_output_adapter@D@__crt_stdio_output@@V?$format_validation_base@DV?$stream_output_adapter@D@__crt_stdio_output@@@2@@__crt_stdio_output@@CAPADXZ 004873d0 f i libucrtd:output.obj
 0001:000863e0       ?narrow_null_string@?$output_processor@DV?$stream_output_adapter@D@__crt_stdio_output@@V?$positional_parameter_base@DV?$stream_output_adapter@D@__crt_stdio_output@@@2@@__crt_stdio_output@@CAPADXZ 004873e0 f i libucrtd:output.obj
 0001:000863f0       ?narrow_null_string@?$output_processor@DV?$stream_output_adapter@D@__crt_stdio_output@@V?$standard_base@DV?$stream_output_adapter@D@__crt_stdio_output@@@2@@__crt_stdio_output@@CAPADXZ 004873f0 f i libucrtd:output.obj
 0001:00086400       ?narrow_null_string@?$output_processor@DV?$string_output_adapter@D@__crt_stdio_output@@V?$format_validation_base@DV?$string_output_adapter@D@__crt_stdio_output@@@2@@__crt_stdio_output@@CAPADXZ 00487400 f i libucrtd:output.obj
 0001:00086410       ?narrow_null_string@?$output_processor@DV?$string_output_adapter@D@__crt_stdio_output@@V?$positional_parameter_base@DV?$string_output_adapter@D@__crt_stdio_output@@@2@@__crt_stdio_output@@CAPADXZ 00487410 f i libucrtd:output.obj
 0001:00086420       ?narrow_null_string@?$output_processor@DV?$string_output_adapter@D@__crt_stdio_output@@V?$standard_base@DV?$string_output_adapter@D@__crt_stdio_output@@@2@@__crt_stdio_output@@CAPADXZ 00487420 f i libucrtd:output.obj
 0001:00086430       ?narrow_null_string@?$output_processor@_WV?$stream_output_adapter@_W@__crt_stdio_output@@V?$format_validation_base@_WV?$stream_output_adapter@_W@__crt_stdio_output@@@2@@__crt_stdio_output@@CAPADXZ 00487430 f i libucrtd:output.obj
 0001:00086440       ?narrow_null_string@?$output_processor@_WV?$stream_output_adapter@_W@__crt_stdio_output@@V?$positional_parameter_base@_WV?$stream_output_adapter@_W@__crt_stdio_output@@@2@@__crt_stdio_output@@CAPADXZ 00487440 f i libucrtd:output.obj
 0001:00086450       ?narrow_null_string@?$output_processor@_WV?$stream_output_adapter@_W@__crt_stdio_output@@V?$standard_base@_WV?$stream_output_adapter@_W@__crt_stdio_output@@@2@@__crt_stdio_output@@CAPADXZ 00487450 f i libucrtd:output.obj
 0001:00086460       ?narrow_null_string@?$output_processor@_WV?$string_output_adapter@_W@__crt_stdio_output@@V?$format_validation_base@_WV?$string_output_adapter@_W@__crt_stdio_output@@@2@@__crt_stdio_output@@CAPADXZ 00487460 f i libucrtd:output.obj
 0001:00086470       ?narrow_null_string@?$output_processor@_WV?$string_output_adapter@_W@__crt_stdio_output@@V?$positional_parameter_base@_WV?$string_output_adapter@_W@__crt_stdio_output@@@2@@__crt_stdio_output@@CAPADXZ 00487470 f i libucrtd:output.obj
 0001:00086480       ?narrow_null_string@?$output_processor@_WV?$string_output_adapter@_W@__crt_stdio_output@@V?$standard_base@_WV?$string_output_adapter@_W@__crt_stdio_output@@@2@@__crt_stdio_output@@CAPADXZ 00487480 f i libucrtd:output.obj
 0001:00086490       ?parse_int_from_format_string@?$output_processor@DV?$stream_output_adapter@D@__crt_stdio_output@@V?$format_validation_base@DV?$stream_output_adapter@D@__crt_stdio_output@@@2@@__crt_stdio_output@@AAE_NQAH@Z 00487490 f i libucrtd:output.obj
 0001:00086570       ?parse_int_from_format_string@?$output_processor@DV?$stream_output_adapter@D@__crt_stdio_output@@V?$positional_parameter_base@DV?$stream_output_adapter@D@__crt_stdio_output@@@2@@__crt_stdio_output@@AAE_NQAH@Z 00487570 f i libucrtd:output.obj
 0001:00086650       ?parse_int_from_format_string@?$output_processor@DV?$stream_output_adapter@D@__crt_stdio_output@@V?$standard_base@DV?$stream_output_adapter@D@__crt_stdio_output@@@2@@__crt_stdio_output@@AAE_NQAH@Z 00487650 f i libucrtd:output.obj
 0001:00086730       ?parse_int_from_format_string@?$output_processor@DV?$string_output_adapter@D@__crt_stdio_output@@V?$format_validation_base@DV?$string_output_adapter@D@__crt_stdio_output@@@2@@__crt_stdio_output@@AAE_NQAH@Z 00487730 f i libucrtd:output.obj
 0001:00086810       ?parse_int_from_format_string@?$output_processor@DV?$string_output_adapter@D@__crt_stdio_output@@V?$positional_parameter_base@DV?$string_output_adapter@D@__crt_stdio_output@@@2@@__crt_stdio_output@@AAE_NQAH@Z 00487810 f i libucrtd:output.obj
 0001:000868f0       ?parse_int_from_format_string@?$output_processor@DV?$string_output_adapter@D@__crt_stdio_output@@V?$standard_base@DV?$string_output_adapter@D@__crt_stdio_output@@@2@@__crt_stdio_output@@AAE_NQAH@Z 004878f0 f i libucrtd:output.obj
 0001:000869d0       ?parse_int_from_format_string@?$output_processor@_WV?$stream_output_adapter@_W@__crt_stdio_output@@V?$format_validation_base@_WV?$stream_output_adapter@_W@__crt_stdio_output@@@2@@__crt_stdio_output@@AAE_NQAH@Z 004879d0 f i libucrtd:output.obj
 0001:00086ab0       ?parse_int_from_format_string@?$output_processor@_WV?$stream_output_adapter@_W@__crt_stdio_output@@V?$positional_parameter_base@_WV?$stream_output_adapter@_W@__crt_stdio_output@@@2@@__crt_stdio_output@@AAE_NQAH@Z 00487ab0 f i libucrtd:output.obj
 0001:00086b90       ?parse_int_from_format_string@?$output_processor@_WV?$stream_output_adapter@_W@__crt_stdio_output@@V?$standard_base@_WV?$stream_output_adapter@_W@__crt_stdio_output@@@2@@__crt_stdio_output@@AAE_NQAH@Z 00487b90 f i libucrtd:output.obj
 0001:00086c70       ?parse_int_from_format_string@?$output_processor@_WV?$string_output_adapter@_W@__crt_stdio_output@@V?$format_validation_base@_WV?$string_output_adapter@_W@__crt_stdio_output@@@2@@__crt_stdio_output@@AAE_NQAH@Z 00487c70 f i libucrtd:output.obj
 0001:00086d50       ?parse_int_from_format_string@?$output_processor@_WV?$string_output_adapter@_W@__crt_stdio_output@@V?$positional_parameter_base@_WV?$string_output_adapter@_W@__crt_stdio_output@@@2@@__crt_stdio_output@@AAE_NQAH@Z 00487d50 f i libucrtd:output.obj
 0001:00086e30       ?parse_int_from_format_string@?$output_processor@_WV?$string_output_adapter@_W@__crt_stdio_output@@V?$standard_base@_WV?$string_output_adapter@_W@__crt_stdio_output@@@2@@__crt_stdio_output@@AAE_NQAH@Z 00487e30 f i libucrtd:output.obj
 0001:00086f10       ?process@?$output_processor@DV?$stream_output_adapter@D@__crt_stdio_output@@V?$format_validation_base@DV?$stream_output_adapter@D@__crt_stdio_output@@@2@@__crt_stdio_output@@QAEHXZ 00487f10 f i libucrtd:output.obj
 0001:00087260       ?process@?$output_processor@DV?$stream_output_adapter@D@__crt_stdio_output@@V?$positional_parameter_base@DV?$stream_output_adapter@D@__crt_stdio_output@@@2@@__crt_stdio_output@@QAEHXZ 00488260 f i libucrtd:output.obj
 0001:000875b0       ?process@?$output_processor@DV?$stream_output_adapter@D@__crt_stdio_output@@V?$standard_base@DV?$stream_output_adapter@D@__crt_stdio_output@@@2@@__crt_stdio_output@@QAEHXZ 004885b0 f i libucrtd:output.obj
 0001:00087900       ?process@?$output_processor@DV?$string_output_adapter@D@__crt_stdio_output@@V?$format_validation_base@DV?$string_output_adapter@D@__crt_stdio_output@@@2@@__crt_stdio_output@@QAEHXZ 00488900 f i libucrtd:output.obj
 0001:00087c50       ?process@?$output_processor@DV?$string_output_adapter@D@__crt_stdio_output@@V?$positional_parameter_base@DV?$string_output_adapter@D@__crt_stdio_output@@@2@@__crt_stdio_output@@QAEHXZ 00488c50 f i libucrtd:output.obj
 0001:00087fa0       ?process@?$output_processor@DV?$string_output_adapter@D@__crt_stdio_output@@V?$standard_base@DV?$string_output_adapter@D@__crt_stdio_output@@@2@@__crt_stdio_output@@QAEHXZ 00488fa0 f i libucrtd:output.obj
 0001:000882f0       ?process@?$output_processor@_WV?$stream_output_adapter@_W@__crt_stdio_output@@V?$format_validation_base@_WV?$stream_output_adapter@_W@__crt_stdio_output@@@2@@__crt_stdio_output@@QAEHXZ 004892f0 f i libucrtd:output.obj
 0001:00088640       ?process@?$output_processor@_WV?$stream_output_adapter@_W@__crt_stdio_output@@V?$positional_parameter_base@_WV?$stream_output_adapter@_W@__crt_stdio_output@@@2@@__crt_stdio_output@@QAEHXZ 00489640 f i libucrtd:output.obj
 0001:00088990       ?process@?$output_processor@_WV?$stream_output_adapter@_W@__crt_stdio_output@@V?$standard_base@_WV?$stream_output_adapter@_W@__crt_stdio_output@@@2@@__crt_stdio_output@@QAEHXZ 00489990 f i libucrtd:output.obj
 0001:00088ce0       ?process@?$output_processor@_WV?$string_output_adapter@_W@__crt_stdio_output@@V?$format_validation_base@_WV?$string_output_adapter@_W@__crt_stdio_output@@@2@@__crt_stdio_output@@QAEHXZ 00489ce0 f i libucrtd:output.obj
 0001:00089030       ?process@?$output_processor@_WV?$string_output_adapter@_W@__crt_stdio_output@@V?$positional_parameter_base@_WV?$string_output_adapter@_W@__crt_stdio_output@@@2@@__crt_stdio_output@@QAEHXZ 0048a030 f i libucrtd:output.obj
 0001:00089380       ?process@?$output_processor@_WV?$string_output_adapter@_W@__crt_stdio_output@@V?$standard_base@_WV?$string_output_adapter@_W@__crt_stdio_output@@@2@@__crt_stdio_output@@QAEHXZ 0048a380 f i libucrtd:output.obj
 0001:000896d0       ?set_flag@?$output_processor@DV?$stream_output_adapter@D@__crt_stdio_output@@V?$format_validation_base@DV?$stream_output_adapter@D@__crt_stdio_output@@@2@@__crt_stdio_output@@AAEXI@Z 0048a6d0 f i libucrtd:output.obj
 0001:00089700       ?set_flag@?$output_processor@DV?$stream_output_adapter@D@__crt_stdio_output@@V?$positional_parameter_base@DV?$stream_output_adapter@D@__crt_stdio_output@@@2@@__crt_stdio_output@@AAEXI@Z 0048a700 f i libucrtd:output.obj
 0001:00089730       ?set_flag@?$output_processor@DV?$stream_output_adapter@D@__crt_stdio_output@@V?$standard_base@DV?$stream_output_adapter@D@__crt_stdio_output@@@2@@__crt_stdio_output@@AAEXI@Z 0048a730 f i libucrtd:output.obj
 0001:00089760       ?set_flag@?$output_processor@DV?$string_output_adapter@D@__crt_stdio_output@@V?$format_validation_base@DV?$string_output_adapter@D@__crt_stdio_output@@@2@@__crt_stdio_output@@AAEXI@Z 0048a760 f i libucrtd:output.obj
 0001:00089790       ?set_flag@?$output_processor@DV?$string_output_adapter@D@__crt_stdio_output@@V?$positional_parameter_base@DV?$string_output_adapter@D@__crt_stdio_output@@@2@@__crt_stdio_output@@AAEXI@Z 0048a790 f i libucrtd:output.obj
 0001:000897c0       ?set_flag@?$output_processor@DV?$string_output_adapter@D@__crt_stdio_output@@V?$standard_base@DV?$string_output_adapter@D@__crt_stdio_output@@@2@@__crt_stdio_output@@AAEXI@Z 0048a7c0 f i libucrtd:output.obj
 0001:000897f0       ?set_flag@?$output_processor@_WV?$stream_output_adapter@_W@__crt_stdio_output@@V?$format_validation_base@_WV?$stream_output_adapter@_W@__crt_stdio_output@@@2@@__crt_stdio_output@@AAEXI@Z 0048a7f0 f i libucrtd:output.obj
 0001:00089820       ?set_flag@?$output_processor@_WV?$stream_output_adapter@_W@__crt_stdio_output@@V?$positional_parameter_base@_WV?$stream_output_adapter@_W@__crt_stdio_output@@@2@@__crt_stdio_output@@AAEXI@Z 0048a820 f i libucrtd:output.obj
 0001:00089850       ?set_flag@?$output_processor@_WV?$stream_output_adapter@_W@__crt_stdio_output@@V?$standard_base@_WV?$stream_output_adapter@_W@__crt_stdio_output@@@2@@__crt_stdio_output@@AAEXI@Z 0048a850 f i libucrtd:output.obj
 0001:00089880       ?set_flag@?$output_processor@_WV?$string_output_adapter@_W@__crt_stdio_output@@V?$format_validation_base@_WV?$string_output_adapter@_W@__crt_stdio_output@@@2@@__crt_stdio_output@@AAEXI@Z 0048a880 f i libucrtd:output.obj
 0001:000898b0       ?set_flag@?$output_processor@_WV?$string_output_adapter@_W@__crt_stdio_output@@V?$positional_parameter_base@_WV?$string_output_adapter@_W@__crt_stdio_output@@@2@@__crt_stdio_output@@AAEXI@Z 0048a8b0 f i libucrtd:output.obj
 0001:000898e0       ?set_flag@?$output_processor@_WV?$string_output_adapter@_W@__crt_stdio_output@@V?$standard_base@_WV?$string_output_adapter@_W@__crt_stdio_output@@@2@@__crt_stdio_output@@AAEXI@Z 0048a8e0 f i libucrtd:output.obj
 0001:00089910       ?should_format@?$positional_parameter_base@DV?$stream_output_adapter@D@__crt_stdio_output@@@__crt_stdio_output@@IAE_NXZ 0048a910 f i libucrtd:output.obj
 0001:00089960       ?should_format@?$positional_parameter_base@DV?$string_output_adapter@D@__crt_stdio_output@@@__crt_stdio_output@@IAE_NXZ 0048a960 f i libucrtd:output.obj
 0001:000899b0       ?should_format@?$positional_parameter_base@_WV?$stream_output_adapter@_W@__crt_stdio_output@@@__crt_stdio_output@@IAE_NXZ 0048a9b0 f i libucrtd:output.obj
 0001:00089a00       ?should_format@?$positional_parameter_base@_WV?$string_output_adapter@_W@__crt_stdio_output@@@__crt_stdio_output@@IAE_NXZ 0048aa00 f i libucrtd:output.obj
 0001:00089a50       ?should_format@?$standard_base@DV?$stream_output_adapter@D@__crt_stdio_output@@@__crt_stdio_output@@IAE_NXZ 0048aa50 f i libucrtd:output.obj
 0001:00089a70       ?should_format@?$standard_base@DV?$string_output_adapter@D@__crt_stdio_output@@@__crt_stdio_output@@IAE_NXZ 0048aa70 f i libucrtd:output.obj
 0001:00089a90       ?should_format@?$standard_base@_WV?$stream_output_adapter@_W@__crt_stdio_output@@@__crt_stdio_output@@IAE_NXZ 0048aa90 f i libucrtd:output.obj
 0001:00089ab0       ?should_format@?$standard_base@_WV?$string_output_adapter@_W@__crt_stdio_output@@@__crt_stdio_output@@IAE_NXZ 0048aab0 f i libucrtd:output.obj
 0001:00089ad0       ?should_skip_normal_state_processing@?$positional_parameter_base@DV?$stream_output_adapter@D@__crt_stdio_output@@@__crt_stdio_output@@IAE_NXZ 0048aad0 f i libucrtd:output.obj
 0001:00089b30       ?should_skip_normal_state_processing@?$positional_parameter_base@DV?$string_output_adapter@D@__crt_stdio_output@@@__crt_stdio_output@@IAE_NXZ 0048ab30 f i libucrtd:output.obj
 0001:00089b90       ?should_skip_normal_state_processing@?$positional_parameter_base@_WV?$stream_output_adapter@_W@__crt_stdio_output@@@__crt_stdio_output@@IAE_NXZ 0048ab90 f i libucrtd:output.obj
 0001:00089bf0       ?should_skip_normal_state_processing@?$positional_parameter_base@_WV?$string_output_adapter@_W@__crt_stdio_output@@@__crt_stdio_output@@IAE_NXZ 0048abf0 f i libucrtd:output.obj
 0001:00089c50       ?should_skip_normal_state_processing@?$standard_base@DV?$stream_output_adapter@D@__crt_stdio_output@@@__crt_stdio_output@@IAE_NXZ 0048ac50 f i libucrtd:output.obj
 0001:00089c70       ?should_skip_normal_state_processing@?$standard_base@DV?$string_output_adapter@D@__crt_stdio_output@@@__crt_stdio_output@@IAE_NXZ 0048ac70 f i libucrtd:output.obj
 0001:00089c90       ?should_skip_normal_state_processing@?$standard_base@_WV?$stream_output_adapter@_W@__crt_stdio_output@@@__crt_stdio_output@@IAE_NXZ 0048ac90 f i libucrtd:output.obj
 0001:00089cb0       ?should_skip_normal_state_processing@?$standard_base@_WV?$string_output_adapter@_W@__crt_stdio_output@@@__crt_stdio_output@@IAE_NXZ 0048acb0 f i libucrtd:output.obj
 0001:00089cd0       ?should_skip_type_state_output@?$positional_parameter_base@DV?$stream_output_adapter@D@__crt_stdio_output@@@__crt_stdio_output@@IBE_NXZ 0048acd0 f i libucrtd:output.obj
 0001:00089d20       ?should_skip_type_state_output@?$positional_parameter_base@DV?$string_output_adapter@D@__crt_stdio_output@@@__crt_stdio_output@@IBE_NXZ 0048ad20 f i libucrtd:output.obj
 0001:00089d70       ?should_skip_type_state_output@?$positional_parameter_base@_WV?$stream_output_adapter@_W@__crt_stdio_output@@@__crt_stdio_output@@IBE_NXZ 0048ad70 f i libucrtd:output.obj
 0001:00089dc0       ?should_skip_type_state_output@?$positional_parameter_base@_WV?$string_output_adapter@_W@__crt_stdio_output@@@__crt_stdio_output@@IBE_NXZ 0048adc0 f i libucrtd:output.obj
 0001:00089e10       ?should_skip_type_state_output@?$standard_base@DV?$stream_output_adapter@D@__crt_stdio_output@@@__crt_stdio_output@@IBE_NXZ 0048ae10 f i libucrtd:output.obj
 0001:00089e30       ?should_skip_type_state_output@?$standard_base@DV?$string_output_adapter@D@__crt_stdio_output@@@__crt_stdio_output@@IBE_NXZ 0048ae30 f i libucrtd:output.obj
 0001:00089e50       ?should_skip_type_state_output@?$standard_base@_WV?$stream_output_adapter@_W@__crt_stdio_output@@@__crt_stdio_output@@IBE_NXZ 0048ae50 f i libucrtd:output.obj
 0001:00089e70       ?should_skip_type_state_output@?$standard_base@_WV?$string_output_adapter@_W@__crt_stdio_output@@@__crt_stdio_output@@IBE_NXZ 0048ae70 f i libucrtd:output.obj
 0001:00089e90       ?state_case_dot@?$output_processor@DV?$stream_output_adapter@D@__crt_stdio_output@@V?$format_validation_base@DV?$stream_output_adapter@D@__crt_stdio_output@@@2@@__crt_stdio_output@@AAE_NXZ 0048ae90 f i libucrtd:output.obj
 0001:00089eb0       ?state_case_dot@?$output_processor@DV?$stream_output_adapter@D@__crt_stdio_output@@V?$positional_parameter_base@DV?$stream_output_adapter@D@__crt_stdio_output@@@2@@__crt_stdio_output@@AAE_NXZ 0048aeb0 f i libucrtd:output.obj
 0001:00089ed0       ?state_case_dot@?$output_processor@DV?$stream_output_adapter@D@__crt_stdio_output@@V?$standard_base@DV?$stream_output_adapter@D@__crt_stdio_output@@@2@@__crt_stdio_output@@AAE_NXZ 0048aed0 f i libucrtd:output.obj
 0001:00089ef0       ?state_case_dot@?$output_processor@DV?$string_output_adapter@D@__crt_stdio_output@@V?$format_validation_base@DV?$string_output_adapter@D@__crt_stdio_output@@@2@@__crt_stdio_output@@AAE_NXZ 0048aef0 f i libucrtd:output.obj
 0001:00089f10       ?state_case_dot@?$output_processor@DV?$string_output_adapter@D@__crt_stdio_output@@V?$positional_parameter_base@DV?$string_output_adapter@D@__crt_stdio_output@@@2@@__crt_stdio_output@@AAE_NXZ 0048af10 f i libucrtd:output.obj
 0001:00089f30       ?state_case_dot@?$output_processor@DV?$string_output_adapter@D@__crt_stdio_output@@V?$standard_base@DV?$string_output_adapter@D@__crt_stdio_output@@@2@@__crt_stdio_output@@AAE_NXZ 0048af30 f i libucrtd:output.obj
 0001:00089f50       ?state_case_dot@?$output_processor@_WV?$stream_output_adapter@_W@__crt_stdio_output@@V?$format_validation_base@_WV?$stream_output_adapter@_W@__crt_stdio_output@@@2@@__crt_stdio_output@@AAE_NXZ 0048af50 f i libucrtd:output.obj
 0001:00089f70       ?state_case_dot@?$output_processor@_WV?$stream_output_adapter@_W@__crt_stdio_output@@V?$positional_parameter_base@_WV?$stream_output_adapter@_W@__crt_stdio_output@@@2@@__crt_stdio_output@@AAE_NXZ 0048af70 f i libucrtd:output.obj
 0001:00089f90       ?state_case_dot@?$output_processor@_WV?$stream_output_adapter@_W@__crt_stdio_output@@V?$standard_base@_WV?$stream_output_adapter@_W@__crt_stdio_output@@@2@@__crt_stdio_output@@AAE_NXZ 0048af90 f i libucrtd:output.obj
 0001:00089fb0       ?state_case_dot@?$output_processor@_WV?$string_output_adapter@_W@__crt_stdio_output@@V?$format_validation_base@_WV?$string_output_adapter@_W@__crt_stdio_output@@@2@@__crt_stdio_output@@AAE_NXZ 0048afb0 f i libucrtd:output.obj
 0001:00089fd0       ?state_case_dot@?$output_processor@_WV?$string_output_adapter@_W@__crt_stdio_output@@V?$positional_parameter_base@_WV?$string_output_adapter@_W@__crt_stdio_output@@@2@@__crt_stdio_output@@AAE_NXZ 0048afd0 f i libucrtd:output.obj
 0001:00089ff0       ?state_case_dot@?$output_processor@_WV?$string_output_adapter@_W@__crt_stdio_output@@V?$standard_base@_WV?$string_output_adapter@_W@__crt_stdio_output@@@2@@__crt_stdio_output@@AAE_NXZ 0048aff0 f i libucrtd:output.obj
 0001:0008a010       ?state_case_flag@?$output_processor@DV?$stream_output_adapter@D@__crt_stdio_output@@V?$format_validation_base@DV?$stream_output_adapter@D@__crt_stdio_output@@@2@@__crt_stdio_output@@AAE_NXZ 0048b010 f i libucrtd:output.obj
 0001:0008a0e0       ?state_case_flag@?$output_processor@DV?$stream_output_adapter@D@__crt_stdio_output@@V?$positional_parameter_base@DV?$stream_output_adapter@D@__crt_stdio_output@@@2@@__crt_stdio_output@@AAE_NXZ 0048b0e0 f i libucrtd:output.obj
 0001:0008a1b0       ?state_case_flag@?$output_processor@DV?$stream_output_adapter@D@__crt_stdio_output@@V?$standard_base@DV?$stream_output_adapter@D@__crt_stdio_output@@@2@@__crt_stdio_output@@AAE_NXZ 0048b1b0 f i libucrtd:output.obj
 0001:0008a280       ?state_case_flag@?$output_processor@DV?$string_output_adapter@D@__crt_stdio_output@@V?$format_validation_base@DV?$string_output_adapter@D@__crt_stdio_output@@@2@@__crt_stdio_output@@AAE_NXZ 0048b280 f i libucrtd:output.obj
 0001:0008a350       ?state_case_flag@?$output_processor@DV?$string_output_adapter@D@__crt_stdio_output@@V?$positional_parameter_base@DV?$string_output_adapter@D@__crt_stdio_output@@@2@@__crt_stdio_output@@AAE_NXZ 0048b350 f i libucrtd:output.obj
 0001:0008a420       ?state_case_flag@?$output_processor@DV?$string_output_adapter@D@__crt_stdio_output@@V?$standard_base@DV?$string_output_adapter@D@__crt_stdio_output@@@2@@__crt_stdio_output@@AAE_NXZ 0048b420 f i libucrtd:output.obj
 0001:0008a4f0       ?state_case_flag@?$output_processor@_WV?$stream_output_adapter@_W@__crt_stdio_output@@V?$format_validation_base@_WV?$stream_output_adapter@_W@__crt_stdio_output@@@2@@__crt_stdio_output@@AAE_NXZ 0048b4f0 f i libucrtd:output.obj
 0001:0008a5c0       ?state_case_flag@?$output_processor@_WV?$stream_output_adapter@_W@__crt_stdio_output@@V?$positional_parameter_base@_WV?$stream_output_adapter@_W@__crt_stdio_output@@@2@@__crt_stdio_output@@AAE_NXZ 0048b5c0 f i libucrtd:output.obj
 0001:0008a690       ?state_case_flag@?$output_processor@_WV?$stream_output_adapter@_W@__crt_stdio_output@@V?$standard_base@_WV?$stream_output_adapter@_W@__crt_stdio_output@@@2@@__crt_stdio_output@@AAE_NXZ 0048b690 f i libucrtd:output.obj
 0001:0008a760       ?state_case_flag@?$output_processor@_WV?$string_output_adapter@_W@__crt_stdio_output@@V?$format_validation_base@_WV?$string_output_adapter@_W@__crt_stdio_output@@@2@@__crt_stdio_output@@AAE_NXZ 0048b760 f i libucrtd:output.obj
 0001:0008a830       ?state_case_flag@?$output_processor@_WV?$string_output_adapter@_W@__crt_stdio_output@@V?$positional_parameter_base@_WV?$string_output_adapter@_W@__crt_stdio_output@@@2@@__crt_stdio_output@@AAE_NXZ 0048b830 f i libucrtd:output.obj
 0001:0008a900       ?state_case_flag@?$output_processor@_WV?$string_output_adapter@_W@__crt_stdio_output@@V?$standard_base@_WV?$string_output_adapter@_W@__crt_stdio_output@@@2@@__crt_stdio_output@@AAE_NXZ 0048b900 f i libucrtd:output.obj
 0001:0008a9d0       ?state_case_normal@?$output_processor@DV?$stream_output_adapter@D@__crt_stdio_output@@V?$format_validation_base@DV?$stream_output_adapter@D@__crt_stdio_output@@@2@@__crt_stdio_output@@AAE_NXZ 0048b9d0 f i libucrtd:output.obj
 0001:0008aab0       ?state_case_normal@?$output_processor@DV?$stream_output_adapter@D@__crt_stdio_output@@V?$positional_parameter_base@DV?$stream_output_adapter@D@__crt_stdio_output@@@2@@__crt_stdio_output@@AAE_NXZ 0048bab0 f i libucrtd:output.obj
 0001:0008ab90       ?state_case_normal@?$output_processor@DV?$stream_output_adapter@D@__crt_stdio_output@@V?$standard_base@DV?$stream_output_adapter@D@__crt_stdio_output@@@2@@__crt_stdio_output@@AAE_NXZ 0048bb90 f i libucrtd:output.obj
 0001:0008ac70       ?state_case_normal@?$output_processor@DV?$string_output_adapter@D@__crt_stdio_output@@V?$format_validation_base@DV?$string_output_adapter@D@__crt_stdio_output@@@2@@__crt_stdio_output@@AAE_NXZ 0048bc70 f i libucrtd:output.obj
 0001:0008ad50       ?state_case_normal@?$output_processor@DV?$string_output_adapter@D@__crt_stdio_output@@V?$positional_parameter_base@DV?$string_output_adapter@D@__crt_stdio_output@@@2@@__crt_stdio_output@@AAE_NXZ 0048bd50 f i libucrtd:output.obj
 0001:0008ae30       ?state_case_normal@?$output_processor@DV?$string_output_adapter@D@__crt_stdio_output@@V?$standard_base@DV?$string_output_adapter@D@__crt_stdio_output@@@2@@__crt_stdio_output@@AAE_NXZ 0048be30 f i libucrtd:output.obj
 0001:0008af10       ?state_case_normal@?$output_processor@_WV?$stream_output_adapter@_W@__crt_stdio_output@@V?$format_validation_base@_WV?$stream_output_adapter@_W@__crt_stdio_output@@@2@@__crt_stdio_output@@AAE_NXZ 0048bf10 f i libucrtd:output.obj
 0001:0008aff0       ?state_case_normal@?$output_processor@_WV?$stream_output_adapter@_W@__crt_stdio_output@@V?$positional_parameter_base@_WV?$stream_output_adapter@_W@__crt_stdio_output@@@2@@__crt_stdio_output@@AAE_NXZ 0048bff0 f i libucrtd:output.obj
 0001:0008b0d0       ?state_case_normal@?$output_processor@_WV?$stream_output_adapter@_W@__crt_stdio_output@@V?$standard_base@_WV?$stream_output_adapter@_W@__crt_stdio_output@@@2@@__crt_stdio_output@@AAE_NXZ 0048c0d0 f i libucrtd:output.obj
 0001:0008b1b0       ?state_case_normal@?$output_processor@_WV?$string_output_adapter@_W@__crt_stdio_output@@V?$format_validation_base@_WV?$string_output_adapter@_W@__crt_stdio_output@@@2@@__crt_stdio_output@@AAE_NXZ 0048c1b0 f i libucrtd:output.obj
 0001:0008b290       ?state_case_normal@?$output_processor@_WV?$string_output_adapter@_W@__crt_stdio_output@@V?$positional_parameter_base@_WV?$string_output_adapter@_W@__crt_stdio_output@@@2@@__crt_stdio_output@@AAE_NXZ 0048c290 f i libucrtd:output.obj
 0001:0008b370       ?state_case_normal@?$output_processor@_WV?$string_output_adapter@_W@__crt_stdio_output@@V?$standard_base@_WV?$string_output_adapter@_W@__crt_stdio_output@@@2@@__crt_stdio_output@@AAE_NXZ 0048c370 f i libucrtd:output.obj
 0001:0008b450       ?state_case_normal_common@?$output_processor@DV?$stream_output_adapter@D@__crt_stdio_output@@V?$format_validation_base@DV?$stream_output_adapter@D@__crt_stdio_output@@@2@@__crt_stdio_output@@AAE_NXZ 0048c450 f i libucrtd:output.obj
 0001:0008b4b0       ?state_case_normal_common@?$output_processor@DV?$stream_output_adapter@D@__crt_stdio_output@@V?$positional_parameter_base@DV?$stream_output_adapter@D@__crt_stdio_output@@@2@@__crt_stdio_output@@AAE_NXZ 0048c4b0 f i libucrtd:output.obj
 0001:0008b510       ?state_case_normal_common@?$output_processor@DV?$stream_output_adapter@D@__crt_stdio_output@@V?$standard_base@DV?$stream_output_adapter@D@__crt_stdio_output@@@2@@__crt_stdio_output@@AAE_NXZ 0048c510 f i libucrtd:output.obj
 0001:0008b570       ?state_case_normal_common@?$output_processor@DV?$string_output_adapter@D@__crt_stdio_output@@V?$format_validation_base@DV?$string_output_adapter@D@__crt_stdio_output@@@2@@__crt_stdio_output@@AAE_NXZ 0048c570 f i libucrtd:output.obj
 0001:0008b5d0       ?state_case_normal_common@?$output_processor@DV?$string_output_adapter@D@__crt_stdio_output@@V?$positional_parameter_base@DV?$string_output_adapter@D@__crt_stdio_output@@@2@@__crt_stdio_output@@AAE_NXZ 0048c5d0 f i libucrtd:output.obj
 0001:0008b630       ?state_case_normal_common@?$output_processor@DV?$string_output_adapter@D@__crt_stdio_output@@V?$standard_base@DV?$string_output_adapter@D@__crt_stdio_output@@@2@@__crt_stdio_output@@AAE_NXZ 0048c630 f i libucrtd:output.obj
 0001:0008b690       ?state_case_normal_common@?$output_processor@_WV?$stream_output_adapter@_W@__crt_stdio_output@@V?$format_validation_base@_WV?$stream_output_adapter@_W@__crt_stdio_output@@@2@@__crt_stdio_output@@AAE_NXZ 0048c690 f i libucrtd:output.obj
 0001:0008b6f0       ?state_case_normal_common@?$output_processor@_WV?$stream_output_adapter@_W@__crt_stdio_output@@V?$positional_parameter_base@_WV?$stream_output_adapter@_W@__crt_stdio_output@@@2@@__crt_stdio_output@@AAE_NXZ 0048c6f0 f i libucrtd:output.obj
 0001:0008b750       ?state_case_normal_common@?$output_processor@_WV?$stream_output_adapter@_W@__crt_stdio_output@@V?$standard_base@_WV?$stream_output_adapter@_W@__crt_stdio_output@@@2@@__crt_stdio_output@@AAE_NXZ 0048c750 f i libucrtd:output.obj
 0001:0008b7b0       ?state_case_normal_common@?$output_processor@_WV?$string_output_adapter@_W@__crt_stdio_output@@V?$format_validation_base@_WV?$string_output_adapter@_W@__crt_stdio_output@@@2@@__crt_stdio_output@@AAE_NXZ 0048c7b0 f i libucrtd:output.obj
 0001:0008b810       ?state_case_normal_common@?$output_processor@_WV?$string_output_adapter@_W@__crt_stdio_output@@V?$positional_parameter_base@_WV?$string_output_adapter@_W@__crt_stdio_output@@@2@@__crt_stdio_output@@AAE_NXZ 0048c810 f i libucrtd:output.obj
 0001:0008b870       ?state_case_normal_common@?$output_processor@_WV?$string_output_adapter@_W@__crt_stdio_output@@V?$standard_base@_WV?$string_output_adapter@_W@__crt_stdio_output@@@2@@__crt_stdio_output@@AAE_NXZ 0048c870 f i libucrtd:output.obj
 0001:0008b8d0       ?state_case_normal_tchar@?$output_processor@DV?$stream_output_adapter@D@__crt_stdio_output@@V?$format_validation_base@DV?$stream_output_adapter@D@__crt_stdio_output@@@2@@__crt_stdio_output@@AAE_ND@Z 0048c8d0 f i libucrtd:output.obj
 0001:0008ba00       ?state_case_normal_tchar@?$output_processor@DV?$stream_output_adapter@D@__crt_stdio_output@@V?$positional_parameter_base@DV?$stream_output_adapter@D@__crt_stdio_output@@@2@@__crt_stdio_output@@AAE_ND@Z 0048ca00 f i libucrtd:output.obj
 0001:0008bb30       ?state_case_normal_tchar@?$output_processor@DV?$stream_output_adapter@D@__crt_stdio_output@@V?$standard_base@DV?$stream_output_adapter@D@__crt_stdio_output@@@2@@__crt_stdio_output@@AAE_ND@Z 0048cb30 f i libucrtd:output.obj
 0001:0008bc60       ?state_case_normal_tchar@?$output_processor@DV?$string_output_adapter@D@__crt_stdio_output@@V?$format_validation_base@DV?$string_output_adapter@D@__crt_stdio_output@@@2@@__crt_stdio_output@@AAE_ND@Z 0048cc60 f i libucrtd:output.obj
 0001:0008bd90       ?state_case_normal_tchar@?$output_processor@DV?$string_output_adapter@D@__crt_stdio_output@@V?$positional_parameter_base@DV?$string_output_adapter@D@__crt_stdio_output@@@2@@__crt_stdio_output@@AAE_ND@Z 0048cd90 f i libucrtd:output.obj
 0001:0008bec0       ?state_case_normal_tchar@?$output_processor@DV?$string_output_adapter@D@__crt_stdio_output@@V?$standard_base@DV?$string_output_adapter@D@__crt_stdio_output@@@2@@__crt_stdio_output@@AAE_ND@Z 0048cec0 f i libucrtd:output.obj
 0001:0008bff0       ?state_case_normal_tchar@?$output_processor@_WV?$stream_output_adapter@_W@__crt_stdio_output@@V?$format_validation_base@_WV?$stream_output_adapter@_W@__crt_stdio_output@@@2@@__crt_stdio_output@@AAE_N_W@Z 0048cff0 f i libucrtd:output.obj
 0001:0008c010       ?state_case_normal_tchar@?$output_processor@_WV?$stream_output_adapter@_W@__crt_stdio_output@@V?$positional_parameter_base@_WV?$stream_output_adapter@_W@__crt_stdio_output@@@2@@__crt_stdio_output@@AAE_N_W@Z 0048d010 f i libucrtd:output.obj
 0001:0008c030       ?state_case_normal_tchar@?$output_processor@_WV?$stream_output_adapter@_W@__crt_stdio_output@@V?$standard_base@_WV?$stream_output_adapter@_W@__crt_stdio_output@@@2@@__crt_stdio_output@@AAE_N_W@Z 0048d030 f i libucrtd:output.obj
 0001:0008c050       ?state_case_normal_tchar@?$output_processor@_WV?$string_output_adapter@_W@__crt_stdio_output@@V?$format_validation_base@_WV?$string_output_adapter@_W@__crt_stdio_output@@@2@@__crt_stdio_output@@AAE_N_W@Z 0048d050 f i libucrtd:output.obj
 0001:0008c070       ?state_case_normal_tchar@?$output_processor@_WV?$string_output_adapter@_W@__crt_stdio_output@@V?$positional_parameter_base@_WV?$string_output_adapter@_W@__crt_stdio_output@@@2@@__crt_stdio_output@@AAE_N_W@Z 0048d070 f i libucrtd:output.obj
 0001:0008c090       ?state_case_normal_tchar@?$output_processor@_WV?$string_output_adapter@_W@__crt_stdio_output@@V?$standard_base@_WV?$string_output_adapter@_W@__crt_stdio_output@@@2@@__crt_stdio_output@@AAE_N_W@Z 0048d090 f i libucrtd:output.obj
 0001:0008c0b0       ?state_case_percent@?$output_processor@DV?$stream_output_adapter@D@__crt_stdio_output@@V?$format_validation_base@DV?$stream_output_adapter@D@__crt_stdio_output@@@2@@__crt_stdio_output@@AAE_NXZ 0048d0b0 f i libucrtd:output.obj
 0001:0008c110       ?state_case_percent@?$output_processor@DV?$stream_output_adapter@D@__crt_stdio_output@@V?$positional_parameter_base@DV?$stream_output_adapter@D@__crt_stdio_output@@@2@@__crt_stdio_output@@AAE_NXZ 0048d110 f i libucrtd:output.obj
 0001:0008c170       ?state_case_percent@?$output_processor@DV?$stream_output_adapter@D@__crt_stdio_output@@V?$standard_base@DV?$stream_output_adapter@D@__crt_stdio_output@@@2@@__crt_stdio_output@@AAE_NXZ 0048d170 f i libucrtd:output.obj
 0001:0008c1d0       ?state_case_percent@?$output_processor@DV?$string_output_adapter@D@__crt_stdio_output@@V?$format_validation_base@DV?$string_output_adapter@D@__crt_stdio_output@@@2@@__crt_stdio_output@@AAE_NXZ 0048d1d0 f i libucrtd:output.obj
 0001:0008c230       ?state_case_percent@?$output_processor@DV?$string_output_adapter@D@__crt_stdio_output@@V?$positional_parameter_base@DV?$string_output_adapter@D@__crt_stdio_output@@@2@@__crt_stdio_output@@AAE_NXZ 0048d230 f i libucrtd:output.obj
 0001:0008c290       ?state_case_percent@?$output_processor@DV?$string_output_adapter@D@__crt_stdio_output@@V?$standard_base@DV?$string_output_adapter@D@__crt_stdio_output@@@2@@__crt_stdio_output@@AAE_NXZ 0048d290 f i libucrtd:output.obj
 0001:0008c2f0       ?state_case_percent@?$output_processor@_WV?$stream_output_adapter@_W@__crt_stdio_output@@V?$format_validation_base@_WV?$stream_output_adapter@_W@__crt_stdio_output@@@2@@__crt_stdio_output@@AAE_NXZ 0048d2f0 f i libucrtd:output.obj
 0001:0008c350       ?state_case_percent@?$output_processor@_WV?$stream_output_adapter@_W@__crt_stdio_output@@V?$positional_parameter_base@_WV?$stream_output_adapter@_W@__crt_stdio_output@@@2@@__crt_stdio_output@@AAE_NXZ 0048d350 f i libucrtd:output.obj
 0001:0008c3b0       ?state_case_percent@?$output_processor@_WV?$stream_output_adapter@_W@__crt_stdio_output@@V?$standard_base@_WV?$stream_output_adapter@_W@__crt_stdio_output@@@2@@__crt_stdio_output@@AAE_NXZ 0048d3b0 f i libucrtd:output.obj
 0001:0008c410       ?state_case_percent@?$output_processor@_WV?$string_output_adapter@_W@__crt_stdio_output@@V?$format_validation_base@_WV?$string_output_adapter@_W@__crt_stdio_output@@@2@@__crt_stdio_output@@AAE_NXZ 0048d410 f i libucrtd:output.obj
 0001:0008c470       ?state_case_percent@?$output_processor@_WV?$string_output_adapter@_W@__crt_stdio_output@@V?$positional_parameter_base@_WV?$string_output_adapter@_W@__crt_stdio_output@@@2@@__crt_stdio_output@@AAE_NXZ 0048d470 f i libucrtd:output.obj
 0001:0008c4d0       ?state_case_percent@?$output_processor@_WV?$string_output_adapter@_W@__crt_stdio_output@@V?$standard_base@_WV?$string_output_adapter@_W@__crt_stdio_output@@@2@@__crt_stdio_output@@AAE_NXZ 0048d4d0 f i libucrtd:output.obj
 0001:0008c530       ?state_case_precision@?$output_processor@DV?$stream_output_adapter@D@__crt_stdio_output@@V?$format_validation_base@DV?$stream_output_adapter@D@__crt_stdio_output@@@2@@__crt_stdio_output@@AAE_NXZ 0048d530 f i libucrtd:output.obj
 0001:0008c5b0       ?state_case_precision@?$output_processor@DV?$stream_output_adapter@D@__crt_stdio_output@@V?$positional_parameter_base@DV?$stream_output_adapter@D@__crt_stdio_output@@@2@@__crt_stdio_output@@AAE_NXZ 0048d5b0 f i libucrtd:output.obj
 0001:0008c630       ?state_case_precision@?$output_processor@DV?$stream_output_adapter@D@__crt_stdio_output@@V?$standard_base@DV?$stream_output_adapter@D@__crt_stdio_output@@@2@@__crt_stdio_output@@AAE_NXZ 0048d630 f i libucrtd:output.obj
 0001:0008c6b0       ?state_case_precision@?$output_processor@DV?$string_output_adapter@D@__crt_stdio_output@@V?$format_validation_base@DV?$string_output_adapter@D@__crt_stdio_output@@@2@@__crt_stdio_output@@AAE_NXZ 0048d6b0 f i libucrtd:output.obj
 0001:0008c730       ?state_case_precision@?$output_processor@DV?$string_output_adapter@D@__crt_stdio_output@@V?$positional_parameter_base@DV?$string_output_adapter@D@__crt_stdio_output@@@2@@__crt_stdio_output@@AAE_NXZ 0048d730 f i libucrtd:output.obj
 0001:0008c7b0       ?state_case_precision@?$output_processor@DV?$string_output_adapter@D@__crt_stdio_output@@V?$standard_base@DV?$string_output_adapter@D@__crt_stdio_output@@@2@@__crt_stdio_output@@AAE_NXZ 0048d7b0 f i libucrtd:output.obj
 0001:0008c830       ?state_case_precision@?$output_processor@_WV?$stream_output_adapter@_W@__crt_stdio_output@@V?$format_validation_base@_WV?$stream_output_adapter@_W@__crt_stdio_output@@@2@@__crt_stdio_output@@AAE_NXZ 0048d830 f i libucrtd:output.obj
 0001:0008c8b0       ?state_case_precision@?$output_processor@_WV?$stream_output_adapter@_W@__crt_stdio_output@@V?$positional_parameter_base@_WV?$stream_output_adapter@_W@__crt_stdio_output@@@2@@__crt_stdio_output@@AAE_NXZ 0048d8b0 f i libucrtd:output.obj
 0001:0008c930       ?state_case_precision@?$output_processor@_WV?$stream_output_adapter@_W@__crt_stdio_output@@V?$standard_base@_WV?$stream_output_adapter@_W@__crt_stdio_output@@@2@@__crt_stdio_output@@AAE_NXZ 0048d930 f i libucrtd:output.obj
 0001:0008c9b0       ?state_case_precision@?$output_processor@_WV?$string_output_adapter@_W@__crt_stdio_output@@V?$format_validation_base@_WV?$string_output_adapter@_W@__crt_stdio_output@@@2@@__crt_stdio_output@@AAE_NXZ 0048d9b0 f i libucrtd:output.obj
 0001:0008ca30       ?state_case_precision@?$output_processor@_WV?$string_output_adapter@_W@__crt_stdio_output@@V?$positional_parameter_base@_WV?$string_output_adapter@_W@__crt_stdio_output@@@2@@__crt_stdio_output@@AAE_NXZ 0048da30 f i libucrtd:output.obj
 0001:0008cab0       ?state_case_precision@?$output_processor@_WV?$string_output_adapter@_W@__crt_stdio_output@@V?$standard_base@_WV?$string_output_adapter@_W@__crt_stdio_output@@@2@@__crt_stdio_output@@AAE_NXZ 0048dab0 f i libucrtd:output.obj
 0001:0008cb30       ?state_case_size@?$output_processor@DV?$stream_output_adapter@D@__crt_stdio_output@@V?$format_validation_base@DV?$stream_output_adapter@D@__crt_stdio_output@@@2@@__crt_stdio_output@@AAE_NXZ 0048db30 f i libucrtd:output.obj
 0001:0008cff0       ?state_case_size@?$output_processor@DV?$stream_output_adapter@D@__crt_stdio_output@@V?$positional_parameter_base@DV?$stream_output_adapter@D@__crt_stdio_output@@@2@@__crt_stdio_output@@AAE_NXZ 0048dff0 f i libucrtd:output.obj
 0001:0008d4b0       ?state_case_size@?$output_processor@DV?$stream_output_adapter@D@__crt_stdio_output@@V?$standard_base@DV?$stream_output_adapter@D@__crt_stdio_output@@@2@@__crt_stdio_output@@AAE_NXZ 0048e4b0 f i libucrtd:output.obj
 0001:0008d970       ?state_case_size@?$output_processor@DV?$string_output_adapter@D@__crt_stdio_output@@V?$format_validation_base@DV?$string_output_adapter@D@__crt_stdio_output@@@2@@__crt_stdio_output@@AAE_NXZ 0048e970 f i libucrtd:output.obj
 0001:0008de30       ?state_case_size@?$output_processor@DV?$string_output_adapter@D@__crt_stdio_output@@V?$positional_parameter_base@DV?$string_output_adapter@D@__crt_stdio_output@@@2@@__crt_stdio_output@@AAE_NXZ 0048ee30 f i libucrtd:output.obj
 0001:0008e2f0       ?state_case_size@?$output_processor@DV?$string_output_adapter@D@__crt_stdio_output@@V?$standard_base@DV?$string_output_adapter@D@__crt_stdio_output@@@2@@__crt_stdio_output@@AAE_NXZ 0048f2f0 f i libucrtd:output.obj
 0001:0008e7b0       ?state_case_size@?$output_processor@_WV?$stream_output_adapter@_W@__crt_stdio_output@@V?$format_validation_base@_WV?$stream_output_adapter@_W@__crt_stdio_output@@@2@@__crt_stdio_output@@AAE_NXZ 0048f7b0 f i libucrtd:output.obj
 0001:0008ec70       ?state_case_size@?$output_processor@_WV?$stream_output_adapter@_W@__crt_stdio_output@@V?$positional_parameter_base@_WV?$stream_output_adapter@_W@__crt_stdio_output@@@2@@__crt_stdio_output@@AAE_NXZ 0048fc70 f i libucrtd:output.obj
 0001:0008f130       ?state_case_size@?$output_processor@_WV?$stream_output_adapter@_W@__crt_stdio_output@@V?$standard_base@_WV?$stream_output_adapter@_W@__crt_stdio_output@@@2@@__crt_stdio_output@@AAE_NXZ 00490130 f i libucrtd:output.obj
 0001:0008f5f0       ?state_case_size@?$output_processor@_WV?$string_output_adapter@_W@__crt_stdio_output@@V?$format_validation_base@_WV?$string_output_adapter@_W@__crt_stdio_output@@@2@@__crt_stdio_output@@AAE_NXZ 004905f0 f i libucrtd:output.obj
 0001:0008fab0       ?state_case_size@?$output_processor@_WV?$string_output_adapter@_W@__crt_stdio_output@@V?$positional_parameter_base@_WV?$string_output_adapter@_W@__crt_stdio_output@@@2@@__crt_stdio_output@@AAE_NXZ 00490ab0 f i libucrtd:output.obj
 0001:0008ff70       ?state_case_size@?$output_processor@_WV?$string_output_adapter@_W@__crt_stdio_output@@V?$standard_base@_WV?$string_output_adapter@_W@__crt_stdio_output@@@2@@__crt_stdio_output@@AAE_NXZ 00490f70 f i libucrtd:output.obj
 0001:00090430       ?state_case_type@?$output_processor@DV?$stream_output_adapter@D@__crt_stdio_output@@V?$format_validation_base@DV?$stream_output_adapter@D@__crt_stdio_output@@@2@@__crt_stdio_output@@AAE_NXZ 00491430 f i libucrtd:output.obj
 0001:000908d0       ?state_case_type@?$output_processor@DV?$stream_output_adapter@D@__crt_stdio_output@@V?$positional_parameter_base@DV?$stream_output_adapter@D@__crt_stdio_output@@@2@@__crt_stdio_output@@AAE_NXZ 004918d0 f i libucrtd:output.obj
 0001:00090d70       ?state_case_type@?$output_processor@DV?$stream_output_adapter@D@__crt_stdio_output@@V?$standard_base@DV?$stream_output_adapter@D@__crt_stdio_output@@@2@@__crt_stdio_output@@AAE_NXZ 00491d70 f i libucrtd:output.obj
 0001:00091210       ?state_case_type@?$output_processor@DV?$string_output_adapter@D@__crt_stdio_output@@V?$format_validation_base@DV?$string_output_adapter@D@__crt_stdio_output@@@2@@__crt_stdio_output@@AAE_NXZ 00492210 f i libucrtd:output.obj
 0001:000916b0       ?state_case_type@?$output_processor@DV?$string_output_adapter@D@__crt_stdio_output@@V?$positional_parameter_base@DV?$string_output_adapter@D@__crt_stdio_output@@@2@@__crt_stdio_output@@AAE_NXZ 004926b0 f i libucrtd:output.obj
 0001:00091b50       ?state_case_type@?$output_processor@DV?$string_output_adapter@D@__crt_stdio_output@@V?$standard_base@DV?$string_output_adapter@D@__crt_stdio_output@@@2@@__crt_stdio_output@@AAE_NXZ 00492b50 f i libucrtd:output.obj
 0001:00091ff0       ?state_case_type@?$output_processor@_WV?$stream_output_adapter@_W@__crt_stdio_output@@V?$format_validation_base@_WV?$stream_output_adapter@_W@__crt_stdio_output@@@2@@__crt_stdio_output@@AAE_NXZ 00492ff0 f i libucrtd:output.obj
 0001:000924c0       ?state_case_type@?$output_processor@_WV?$stream_output_adapter@_W@__crt_stdio_output@@V?$positional_parameter_base@_WV?$stream_output_adapter@_W@__crt_stdio_output@@@2@@__crt_stdio_output@@AAE_NXZ 004934c0 f i libucrtd:output.obj
 0001:00092990       ?state_case_type@?$output_processor@_WV?$stream_output_adapter@_W@__crt_stdio_output@@V?$standard_base@_WV?$stream_output_adapter@_W@__crt_stdio_output@@@2@@__crt_stdio_output@@AAE_NXZ 00493990 f i libucrtd:output.obj
 0001:00092e60       ?state_case_type@?$output_processor@_WV?$string_output_adapter@_W@__crt_stdio_output@@V?$format_validation_base@_WV?$string_output_adapter@_W@__crt_stdio_output@@@2@@__crt_stdio_output@@AAE_NXZ 00493e60 f i libucrtd:output.obj
 0001:00093330       ?state_case_type@?$output_processor@_WV?$string_output_adapter@_W@__crt_stdio_output@@V?$positional_parameter_base@_WV?$string_output_adapter@_W@__crt_stdio_output@@@2@@__crt_stdio_output@@AAE_NXZ 00494330 f i libucrtd:output.obj
 0001:00093800       ?state_case_type@?$output_processor@_WV?$string_output_adapter@_W@__crt_stdio_output@@V?$standard_base@_WV?$string_output_adapter@_W@__crt_stdio_output@@@2@@__crt_stdio_output@@AAE_NXZ 00494800 f i libucrtd:output.obj
 0001:00093cd0       ?state_case_width@?$output_processor@DV?$stream_output_adapter@D@__crt_stdio_output@@V?$format_validation_base@DV?$stream_output_adapter@D@__crt_stdio_output@@@2@@__crt_stdio_output@@AAE_NXZ 00494cd0 f i libucrtd:output.obj
 0001:00093d60       ?state_case_width@?$output_processor@DV?$stream_output_adapter@D@__crt_stdio_output@@V?$positional_parameter_base@DV?$stream_output_adapter@D@__crt_stdio_output@@@2@@__crt_stdio_output@@AAE_NXZ 00494d60 f i libucrtd:output.obj
 0001:00093df0       ?state_case_width@?$output_processor@DV?$stream_output_adapter@D@__crt_stdio_output@@V?$standard_base@DV?$stream_output_adapter@D@__crt_stdio_output@@@2@@__crt_stdio_output@@AAE_NXZ 00494df0 f i libucrtd:output.obj
 0001:00093e80       ?state_case_width@?$output_processor@DV?$string_output_adapter@D@__crt_stdio_output@@V?$format_validation_base@DV?$string_output_adapter@D@__crt_stdio_output@@@2@@__crt_stdio_output@@AAE_NXZ 00494e80 f i libucrtd:output.obj
 0001:00093f10       ?state_case_width@?$output_processor@DV?$string_output_adapter@D@__crt_stdio_output@@V?$positional_parameter_base@DV?$string_output_adapter@D@__crt_stdio_output@@@2@@__crt_stdio_output@@AAE_NXZ 00494f10 f i libucrtd:output.obj
 0001:00093fa0       ?state_case_width@?$output_processor@DV?$string_output_adapter@D@__crt_stdio_output@@V?$standard_base@DV?$string_output_adapter@D@__crt_stdio_output@@@2@@__crt_stdio_output@@AAE_NXZ 00494fa0 f i libucrtd:output.obj
 0001:00094030       ?state_case_width@?$output_processor@_WV?$stream_output_adapter@_W@__crt_stdio_output@@V?$format_validation_base@_WV?$stream_output_adapter@_W@__crt_stdio_output@@@2@@__crt_stdio_output@@AAE_NXZ 00495030 f i libucrtd:output.obj
 0001:000940c0       ?state_case_width@?$output_processor@_WV?$stream_output_adapter@_W@__crt_stdio_output@@V?$positional_parameter_base@_WV?$stream_output_adapter@_W@__crt_stdio_output@@@2@@__crt_stdio_output@@AAE_NXZ 004950c0 f i libucrtd:output.obj
 0001:00094150       ?state_case_width@?$output_processor@_WV?$stream_output_adapter@_W@__crt_stdio_output@@V?$standard_base@_WV?$stream_output_adapter@_W@__crt_stdio_output@@@2@@__crt_stdio_output@@AAE_NXZ 00495150 f i libucrtd:output.obj
 0001:000941e0       ?state_case_width@?$output_processor@_WV?$string_output_adapter@_W@__crt_stdio_output@@V?$format_validation_base@_WV?$string_output_adapter@_W@__crt_stdio_output@@@2@@__crt_stdio_output@@AAE_NXZ 004951e0 f i libucrtd:output.obj
 0001:00094270       ?state_case_width@?$output_processor@_WV?$string_output_adapter@_W@__crt_stdio_output@@V?$positional_parameter_base@_WV?$string_output_adapter@_W@__crt_stdio_output@@@2@@__crt_stdio_output@@AAE_NXZ 00495270 f i libucrtd:output.obj
 0001:00094300       ?state_case_width@?$output_processor@_WV?$string_output_adapter@_W@__crt_stdio_output@@V?$standard_base@_WV?$string_output_adapter@_W@__crt_stdio_output@@@2@@__crt_stdio_output@@AAE_NXZ 00495300 f i libucrtd:output.obj
 0001:00094390       ?state_count@?$format_validation_base@DV?$stream_output_adapter@D@__crt_stdio_output@@@__crt_stdio_output@@KAIXZ 00495390 f i libucrtd:output.obj
 0001:000943a0       ?state_count@?$format_validation_base@DV?$string_output_adapter@D@__crt_stdio_output@@@__crt_stdio_output@@KAIXZ 004953a0 f i libucrtd:output.obj
 0001:000943b0       ?state_count@?$format_validation_base@_WV?$stream_output_adapter@_W@__crt_stdio_output@@@__crt_stdio_output@@KAIXZ 004953b0 f i libucrtd:output.obj
 0001:000943c0       ?state_count@?$format_validation_base@_WV?$string_output_adapter@_W@__crt_stdio_output@@@__crt_stdio_output@@KAIXZ 004953c0 f i libucrtd:output.obj
 0001:000943d0       ?state_count@?$standard_base@DV?$stream_output_adapter@D@__crt_stdio_output@@@__crt_stdio_output@@KAIXZ 004953d0 f i libucrtd:output.obj
 0001:000943e0       ?state_count@?$standard_base@DV?$string_output_adapter@D@__crt_stdio_output@@@__crt_stdio_output@@KAIXZ 004953e0 f i libucrtd:output.obj
 0001:000943f0       ?state_count@?$standard_base@_WV?$stream_output_adapter@_W@__crt_stdio_output@@@__crt_stdio_output@@KAIXZ 004953f0 f i libucrtd:output.obj
 0001:00094400       ?state_count@?$standard_base@_WV?$string_output_adapter@_W@__crt_stdio_output@@@__crt_stdio_output@@KAIXZ 00495400 f i libucrtd:output.obj
 0001:00094410       ?state_transition_table@?$format_validation_base@DV?$stream_output_adapter@D@__crt_stdio_output@@@__crt_stdio_output@@KAPBEXZ 00495410 f i libucrtd:output.obj
 0001:00094420       ?state_transition_table@?$format_validation_base@DV?$string_output_adapter@D@__crt_stdio_output@@@__crt_stdio_output@@KAPBEXZ 00495420 f i libucrtd:output.obj
 0001:00094430       ?state_transition_table@?$format_validation_base@_WV?$stream_output_adapter@_W@__crt_stdio_output@@@__crt_stdio_output@@KAPBEXZ 00495430 f i libucrtd:output.obj
 0001:00094440       ?state_transition_table@?$format_validation_base@_WV?$string_output_adapter@_W@__crt_stdio_output@@@__crt_stdio_output@@KAPBEXZ 00495440 f i libucrtd:output.obj
 0001:00094450       ?state_transition_table@?$standard_base@DV?$stream_output_adapter@D@__crt_stdio_output@@@__crt_stdio_output@@KAPBEXZ 00495450 f i libucrtd:output.obj
 0001:00094460       ?state_transition_table@?$standard_base@DV?$string_output_adapter@D@__crt_stdio_output@@@__crt_stdio_output@@KAPBEXZ 00495460 f i libucrtd:output.obj
 0001:00094470       ?state_transition_table@?$standard_base@_WV?$stream_output_adapter@_W@__crt_stdio_output@@@__crt_stdio_output@@KAPBEXZ 00495470 f i libucrtd:output.obj
 0001:00094480       ?state_transition_table@?$standard_base@_WV?$string_output_adapter@_W@__crt_stdio_output@@@__crt_stdio_output@@KAPBEXZ 00495480 f i libucrtd:output.obj
 0001:00094490       ?to_integer_size@__crt_stdio_output@@YAIW4length_modifier@1@@Z 00495490 f i libucrtd:output.obj
 0001:00094560       ?type_case_X@?$output_processor@DV?$stream_output_adapter@D@__crt_stdio_output@@V?$format_validation_base@DV?$stream_output_adapter@D@__crt_stdio_output@@@2@@__crt_stdio_output@@AAE_NXZ 00495560 f i libucrtd:output.obj
 0001:00094580       ?type_case_X@?$output_processor@DV?$stream_output_adapter@D@__crt_stdio_output@@V?$positional_parameter_base@DV?$stream_output_adapter@D@__crt_stdio_output@@@2@@__crt_stdio_output@@AAE_NXZ 00495580 f i libucrtd:output.obj
 0001:000945a0       ?type_case_X@?$output_processor@DV?$stream_output_adapter@D@__crt_stdio_output@@V?$standard_base@DV?$stream_output_adapter@D@__crt_stdio_output@@@2@@__crt_stdio_output@@AAE_NXZ 004955a0 f i libucrtd:output.obj
 0001:000945c0       ?type_case_X@?$output_processor@DV?$string_output_adapter@D@__crt_stdio_output@@V?$format_validation_base@DV?$string_output_adapter@D@__crt_stdio_output@@@2@@__crt_stdio_output@@AAE_NXZ 004955c0 f i libucrtd:output.obj
 0001:000945e0       ?type_case_X@?$output_processor@DV?$string_output_adapter@D@__crt_stdio_output@@V?$positional_parameter_base@DV?$string_output_adapter@D@__crt_stdio_output@@@2@@__crt_stdio_output@@AAE_NXZ 004955e0 f i libucrtd:output.obj
 0001:00094600       ?type_case_X@?$output_processor@DV?$string_output_adapter@D@__crt_stdio_output@@V?$standard_base@DV?$string_output_adapter@D@__crt_stdio_output@@@2@@__crt_stdio_output@@AAE_NXZ 00495600 f i libucrtd:output.obj
 0001:00094620       ?type_case_X@?$output_processor@_WV?$stream_output_adapter@_W@__crt_stdio_output@@V?$format_validation_base@_WV?$stream_output_adapter@_W@__crt_stdio_output@@@2@@__crt_stdio_output@@AAE_NXZ 00495620 f i libucrtd:output.obj
 0001:00094640       ?type_case_X@?$output_processor@_WV?$stream_output_adapter@_W@__crt_stdio_output@@V?$positional_parameter_base@_WV?$stream_output_adapter@_W@__crt_stdio_output@@@2@@__crt_stdio_output@@AAE_NXZ 00495640 f i libucrtd:output.obj
 0001:00094660       ?type_case_X@?$output_processor@_WV?$stream_output_adapter@_W@__crt_stdio_output@@V?$standard_base@_WV?$stream_output_adapter@_W@__crt_stdio_output@@@2@@__crt_stdio_output@@AAE_NXZ 00495660 f i libucrtd:output.obj
 0001:00094680       ?type_case_X@?$output_processor@_WV?$string_output_adapter@_W@__crt_stdio_output@@V?$format_validation_base@_WV?$string_output_adapter@_W@__crt_stdio_output@@@2@@__crt_stdio_output@@AAE_NXZ 00495680 f i libucrtd:output.obj
 0001:000946a0       ?type_case_X@?$output_processor@_WV?$string_output_adapter@_W@__crt_stdio_output@@V?$positional_parameter_base@_WV?$string_output_adapter@_W@__crt_stdio_output@@@2@@__crt_stdio_output@@AAE_NXZ 004956a0 f i libucrtd:output.obj
 0001:000946c0       ?type_case_X@?$output_processor@_WV?$string_output_adapter@_W@__crt_stdio_output@@V?$standard_base@_WV?$string_output_adapter@_W@__crt_stdio_output@@@2@@__crt_stdio_output@@AAE_NXZ 004956c0 f i libucrtd:output.obj
 0001:000946e0       ?type_case_Z@?$output_processor@DV?$stream_output_adapter@D@__crt_stdio_output@@V?$format_validation_base@DV?$stream_output_adapter@D@__crt_stdio_output@@@2@@__crt_stdio_output@@AAE_NXZ 004956e0 f i libucrtd:output.obj
 0001:00094810       ?type_case_Z@?$output_processor@DV?$stream_output_adapter@D@__crt_stdio_output@@V?$positional_parameter_base@DV?$stream_output_adapter@D@__crt_stdio_output@@@2@@__crt_stdio_output@@AAE_NXZ 00495810 f i libucrtd:output.obj
 0001:00094940       ?type_case_Z@?$output_processor@DV?$stream_output_adapter@D@__crt_stdio_output@@V?$standard_base@DV?$stream_output_adapter@D@__crt_stdio_output@@@2@@__crt_stdio_output@@AAE_NXZ 00495940 f i libucrtd:output.obj
 0001:00094a70       ?type_case_Z@?$output_processor@DV?$string_output_adapter@D@__crt_stdio_output@@V?$format_validation_base@DV?$string_output_adapter@D@__crt_stdio_output@@@2@@__crt_stdio_output@@AAE_NXZ 00495a70 f i libucrtd:output.obj
 0001:00094ba0       ?type_case_Z@?$output_processor@DV?$string_output_adapter@D@__crt_stdio_output@@V?$positional_parameter_base@DV?$string_output_adapter@D@__crt_stdio_output@@@2@@__crt_stdio_output@@AAE_NXZ 00495ba0 f i libucrtd:output.obj
 0001:00094cd0       ?type_case_Z@?$output_processor@DV?$string_output_adapter@D@__crt_stdio_output@@V?$standard_base@DV?$string_output_adapter@D@__crt_stdio_output@@@2@@__crt_stdio_output@@AAE_NXZ 00495cd0 f i libucrtd:output.obj
 0001:00094e00       ?type_case_Z@?$output_processor@_WV?$stream_output_adapter@_W@__crt_stdio_output@@V?$format_validation_base@_WV?$stream_output_adapter@_W@__crt_stdio_output@@@2@@__crt_stdio_output@@AAE_NXZ 00495e00 f i libucrtd:output.obj
 0001:00094f30       ?type_case_Z@?$output_processor@_WV?$stream_output_adapter@_W@__crt_stdio_output@@V?$positional_parameter_base@_WV?$stream_output_adapter@_W@__crt_stdio_output@@@2@@__crt_stdio_output@@AAE_NXZ 00495f30 f i libucrtd:output.obj
 0001:00095060       ?type_case_Z@?$output_processor@_WV?$stream_output_adapter@_W@__crt_stdio_output@@V?$standard_base@_WV?$stream_output_adapter@_W@__crt_stdio_output@@@2@@__crt_stdio_output@@AAE_NXZ 00496060 f i libucrtd:output.obj
 0001:00095190       ?type_case_Z@?$output_processor@_WV?$string_output_adapter@_W@__crt_stdio_output@@V?$format_validation_base@_WV?$string_output_adapter@_W@__crt_stdio_output@@@2@@__crt_stdio_output@@AAE_NXZ 00496190 f i libucrtd:output.obj
 0001:000952c0       ?type_case_Z@?$output_processor@_WV?$string_output_adapter@_W@__crt_stdio_output@@V?$positional_parameter_base@_WV?$string_output_adapter@_W@__crt_stdio_output@@@2@@__crt_stdio_output@@AAE_NXZ 004962c0 f i libucrtd:output.obj
 0001:000953f0       ?type_case_Z@?$output_processor@_WV?$string_output_adapter@_W@__crt_stdio_output@@V?$standard_base@_WV?$string_output_adapter@_W@__crt_stdio_output@@@2@@__crt_stdio_output@@AAE_NXZ 004963f0 f i libucrtd:output.obj
 0001:00095520       ?type_case_a@?$output_processor@DV?$stream_output_adapter@D@__crt_stdio_output@@V?$format_validation_base@DV?$stream_output_adapter@D@__crt_stdio_output@@@2@@__crt_stdio_output@@AAE_NXZ 00496520 f i libucrtd:output.obj
 0001:00095810       ?type_case_a@?$output_processor@DV?$stream_output_adapter@D@__crt_stdio_output@@V?$positional_parameter_base@DV?$stream_output_adapter@D@__crt_stdio_output@@@2@@__crt_stdio_output@@AAE_NXZ 00496810 f i libucrtd:output.obj
 0001:00095b00       ?type_case_a@?$output_processor@DV?$stream_output_adapter@D@__crt_stdio_output@@V?$standard_base@DV?$stream_output_adapter@D@__crt_stdio_output@@@2@@__crt_stdio_output@@AAE_NXZ 00496b00 f i libucrtd:output.obj
 0001:00095df0       ?type_case_a@?$output_processor@DV?$string_output_adapter@D@__crt_stdio_output@@V?$format_validation_base@DV?$string_output_adapter@D@__crt_stdio_output@@@2@@__crt_stdio_output@@AAE_NXZ 00496df0 f i libucrtd:output.obj
 0001:000960e0       ?type_case_a@?$output_processor@DV?$string_output_adapter@D@__crt_stdio_output@@V?$positional_parameter_base@DV?$string_output_adapter@D@__crt_stdio_output@@@2@@__crt_stdio_output@@AAE_NXZ 004970e0 f i libucrtd:output.obj
 0001:000963d0       ?type_case_a@?$output_processor@DV?$string_output_adapter@D@__crt_stdio_output@@V?$standard_base@DV?$string_output_adapter@D@__crt_stdio_output@@@2@@__crt_stdio_output@@AAE_NXZ 004973d0 f i libucrtd:output.obj
 0001:000966c0       ?type_case_a@?$output_processor@_WV?$stream_output_adapter@_W@__crt_stdio_output@@V?$format_validation_base@_WV?$stream_output_adapter@_W@__crt_stdio_output@@@2@@__crt_stdio_output@@AAE_NXZ 004976c0 f i libucrtd:output.obj
 0001:000969c0       ?type_case_a@?$output_processor@_WV?$stream_output_adapter@_W@__crt_stdio_output@@V?$positional_parameter_base@_WV?$stream_output_adapter@_W@__crt_stdio_output@@@2@@__crt_stdio_output@@AAE_NXZ 004979c0 f i libucrtd:output.obj
 0001:00096cc0       ?type_case_a@?$output_processor@_WV?$stream_output_adapter@_W@__crt_stdio_output@@V?$standard_base@_WV?$stream_output_adapter@_W@__crt_stdio_output@@@2@@__crt_stdio_output@@AAE_NXZ 00497cc0 f i libucrtd:output.obj
 0001:00096fc0       ?type_case_a@?$output_processor@_WV?$string_output_adapter@_W@__crt_stdio_output@@V?$format_validation_base@_WV?$string_output_adapter@_W@__crt_stdio_output@@@2@@__crt_stdio_output@@AAE_NXZ 00497fc0 f i libucrtd:output.obj
 0001:000972c0       ?type_case_a@?$output_processor@_WV?$string_output_adapter@_W@__crt_stdio_output@@V?$positional_parameter_base@_WV?$string_output_adapter@_W@__crt_stdio_output@@@2@@__crt_stdio_output@@AAE_NXZ 004982c0 f i libucrtd:output.obj
 0001:000975c0       ?type_case_a@?$output_processor@_WV?$string_output_adapter@_W@__crt_stdio_output@@V?$standard_base@_WV?$string_output_adapter@_W@__crt_stdio_output@@@2@@__crt_stdio_output@@AAE_NXZ 004985c0 f i libucrtd:output.obj
 0001:000978c0       ?type_case_c@?$output_processor@DV?$stream_output_adapter@D@__crt_stdio_output@@V?$format_validation_base@DV?$stream_output_adapter@D@__crt_stdio_output@@@2@@__crt_stdio_output@@AAE_NXZ 004988c0 f i libucrtd:output.obj
 0001:000978e0       ?type_case_c@?$output_processor@DV?$stream_output_adapter@D@__crt_stdio_output@@V?$positional_parameter_base@DV?$stream_output_adapter@D@__crt_stdio_output@@@2@@__crt_stdio_output@@AAE_NXZ 004988e0 f i libucrtd:output.obj
 0001:00097900       ?type_case_c@?$output_processor@DV?$stream_output_adapter@D@__crt_stdio_output@@V?$standard_base@DV?$stream_output_adapter@D@__crt_stdio_output@@@2@@__crt_stdio_output@@AAE_NXZ 00498900 f i libucrtd:output.obj
 0001:00097920       ?type_case_c@?$output_processor@DV?$string_output_adapter@D@__crt_stdio_output@@V?$format_validation_base@DV?$string_output_adapter@D@__crt_stdio_output@@@2@@__crt_stdio_output@@AAE_NXZ 00498920 f i libucrtd:output.obj
 0001:00097940       ?type_case_c@?$output_processor@DV?$string_output_adapter@D@__crt_stdio_output@@V?$positional_parameter_base@DV?$string_output_adapter@D@__crt_stdio_output@@@2@@__crt_stdio_output@@AAE_NXZ 00498940 f i libucrtd:output.obj
 0001:00097960       ?type_case_c@?$output_processor@DV?$string_output_adapter@D@__crt_stdio_output@@V?$standard_base@DV?$string_output_adapter@D@__crt_stdio_output@@@2@@__crt_stdio_output@@AAE_NXZ 00498960 f i libucrtd:output.obj
 0001:00097980       ?type_case_c@?$output_processor@_WV?$stream_output_adapter@_W@__crt_stdio_output@@V?$format_validation_base@_WV?$stream_output_adapter@_W@__crt_stdio_output@@@2@@__crt_stdio_output@@AAE_NXZ 00498980 f i libucrtd:output.obj
 0001:000979a0       ?type_case_c@?$output_processor@_WV?$stream_output_adapter@_W@__crt_stdio_output@@V?$positional_parameter_base@_WV?$stream_output_adapter@_W@__crt_stdio_output@@@2@@__crt_stdio_output@@AAE_NXZ 004989a0 f i libucrtd:output.obj
 0001:000979c0       ?type_case_c@?$output_processor@_WV?$stream_output_adapter@_W@__crt_stdio_output@@V?$standard_base@_WV?$stream_output_adapter@_W@__crt_stdio_output@@@2@@__crt_stdio_output@@AAE_NXZ 004989c0 f i libucrtd:output.obj
 0001:000979e0       ?type_case_c@?$output_processor@_WV?$string_output_adapter@_W@__crt_stdio_output@@V?$format_validation_base@_WV?$string_output_adapter@_W@__crt_stdio_output@@@2@@__crt_stdio_output@@AAE_NXZ 004989e0 f i libucrtd:output.obj
 0001:00097a00       ?type_case_c@?$output_processor@_WV?$string_output_adapter@_W@__crt_stdio_output@@V?$positional_parameter_base@_WV?$string_output_adapter@_W@__crt_stdio_output@@@2@@__crt_stdio_output@@AAE_NXZ 00498a00 f i libucrtd:output.obj
 0001:00097a20       ?type_case_c@?$output_processor@_WV?$string_output_adapter@_W@__crt_stdio_output@@V?$standard_base@_WV?$string_output_adapter@_W@__crt_stdio_output@@@2@@__crt_stdio_output@@AAE_NXZ 00498a20 f i libucrtd:output.obj
 0001:00097a40       ?type_case_c_tchar@?$output_processor@DV?$stream_output_adapter@D@__crt_stdio_output@@V?$format_validation_base@DV?$stream_output_adapter@D@__crt_stdio_output@@@2@@__crt_stdio_output@@AAE_ND@Z 00498a40 f i libucrtd:output.obj
 0001:00097b90       ?type_case_c_tchar@?$output_processor@DV?$stream_output_adapter@D@__crt_stdio_output@@V?$positional_parameter_base@DV?$stream_output_adapter@D@__crt_stdio_output@@@2@@__crt_stdio_output@@AAE_ND@Z 00498b90 f i libucrtd:output.obj
 0001:00097ce0       ?type_case_c_tchar@?$output_processor@DV?$stream_output_adapter@D@__crt_stdio_output@@V?$standard_base@DV?$stream_output_adapter@D@__crt_stdio_output@@@2@@__crt_stdio_output@@AAE_ND@Z 00498ce0 f i libucrtd:output.obj
 0001:00097e30       ?type_case_c_tchar@?$output_processor@DV?$string_output_adapter@D@__crt_stdio_output@@V?$format_validation_base@DV?$string_output_adapter@D@__crt_stdio_output@@@2@@__crt_stdio_output@@AAE_ND@Z 00498e30 f i libucrtd:output.obj
 0001:00097f80       ?type_case_c_tchar@?$output_processor@DV?$string_output_adapter@D@__crt_stdio_output@@V?$positional_parameter_base@DV?$string_output_adapter@D@__crt_stdio_output@@@2@@__crt_stdio_output@@AAE_ND@Z 00498f80 f i libucrtd:output.obj
 0001:000980d0       ?type_case_c_tchar@?$output_processor@DV?$string_output_adapter@D@__crt_stdio_output@@V?$standard_base@DV?$string_output_adapter@D@__crt_stdio_output@@@2@@__crt_stdio_output@@AAE_ND@Z 004990d0 f i libucrtd:output.obj
 0001:00098220       ?type_case_c_tchar@?$output_processor@_WV?$stream_output_adapter@_W@__crt_stdio_output@@V?$format_validation_base@_WV?$stream_output_adapter@_W@__crt_stdio_output@@@2@@__crt_stdio_output@@AAE_N_W@Z 00499220 f i libucrtd:output.obj
 0001:00098360       ?type_case_c_tchar@?$output_processor@_WV?$stream_output_adapter@_W@__crt_stdio_output@@V?$positional_parameter_base@_WV?$stream_output_adapter@_W@__crt_stdio_output@@@2@@__crt_stdio_output@@AAE_N_W@Z 00499360 f i libucrtd:output.obj
 0001:000984a0       ?type_case_c_tchar@?$output_processor@_WV?$stream_output_adapter@_W@__crt_stdio_output@@V?$standard_base@_WV?$stream_output_adapter@_W@__crt_stdio_output@@@2@@__crt_stdio_output@@AAE_N_W@Z 004994a0 f i libucrtd:output.obj
 0001:000985e0       ?type_case_c_tchar@?$output_processor@_WV?$string_output_adapter@_W@__crt_stdio_output@@V?$format_validation_base@_WV?$string_output_adapter@_W@__crt_stdio_output@@@2@@__crt_stdio_output@@AAE_N_W@Z 004995e0 f i libucrtd:output.obj
 0001:00098720       ?type_case_c_tchar@?$output_processor@_WV?$string_output_adapter@_W@__crt_stdio_output@@V?$positional_parameter_base@_WV?$string_output_adapter@_W@__crt_stdio_output@@@2@@__crt_stdio_output@@AAE_N_W@Z 00499720 f i libucrtd:output.obj
 0001:00098860       ?type_case_c_tchar@?$output_processor@_WV?$string_output_adapter@_W@__crt_stdio_output@@V?$standard_base@_WV?$string_output_adapter@_W@__crt_stdio_output@@@2@@__crt_stdio_output@@AAE_N_W@Z 00499860 f i libucrtd:output.obj
 0001:000989a0       ?type_case_d@?$output_processor@DV?$stream_output_adapter@D@__crt_stdio_output@@V?$format_validation_base@DV?$stream_output_adapter@D@__crt_stdio_output@@@2@@__crt_stdio_output@@AAE_NXZ 004999a0 f i libucrtd:output.obj
 0001:000989d0       ?type_case_d@?$output_processor@DV?$stream_output_adapter@D@__crt_stdio_output@@V?$positional_parameter_base@DV?$stream_output_adapter@D@__crt_stdio_output@@@2@@__crt_stdio_output@@AAE_NXZ 004999d0 f i libucrtd:output.obj
 0001:00098a00       ?type_case_d@?$output_processor@DV?$stream_output_adapter@D@__crt_stdio_output@@V?$standard_base@DV?$stream_output_adapter@D@__crt_stdio_output@@@2@@__crt_stdio_output@@AAE_NXZ 00499a00 f i libucrtd:output.obj
 0001:00098a30       ?type_case_d@?$output_processor@DV?$string_output_adapter@D@__crt_stdio_output@@V?$format_validation_base@DV?$string_output_adapter@D@__crt_stdio_output@@@2@@__crt_stdio_output@@AAE_NXZ 00499a30 f i libucrtd:output.obj
 0001:00098a60       ?type_case_d@?$output_processor@DV?$string_output_adapter@D@__crt_stdio_output@@V?$positional_parameter_base@DV?$string_output_adapter@D@__crt_stdio_output@@@2@@__crt_stdio_output@@AAE_NXZ 00499a60 f i libucrtd:output.obj
 0001:00098a90       ?type_case_d@?$output_processor@DV?$string_output_adapter@D@__crt_stdio_output@@V?$standard_base@DV?$string_output_adapter@D@__crt_stdio_output@@@2@@__crt_stdio_output@@AAE_NXZ 00499a90 f i libucrtd:output.obj
 0001:00098ac0       ?type_case_d@?$output_processor@_WV?$stream_output_adapter@_W@__crt_stdio_output@@V?$format_validation_base@_WV?$stream_output_adapter@_W@__crt_stdio_output@@@2@@__crt_stdio_output@@AAE_NXZ 00499ac0 f i libucrtd:output.obj
 0001:00098af0       ?type_case_d@?$output_processor@_WV?$stream_output_adapter@_W@__crt_stdio_output@@V?$positional_parameter_base@_WV?$stream_output_adapter@_W@__crt_stdio_output@@@2@@__crt_stdio_output@@AAE_NXZ 00499af0 f i libucrtd:output.obj
 0001:00098b20       ?type_case_d@?$output_processor@_WV?$stream_output_adapter@_W@__crt_stdio_output@@V?$standard_base@_WV?$stream_output_adapter@_W@__crt_stdio_output@@@2@@__crt_stdio_output@@AAE_NXZ 00499b20 f i libucrtd:output.obj
 0001:00098b50       ?type_case_d@?$output_processor@_WV?$string_output_adapter@_W@__crt_stdio_output@@V?$format_validation_base@_WV?$string_output_adapter@_W@__crt_stdio_output@@@2@@__crt_stdio_output@@AAE_NXZ 00499b50 f i libucrtd:output.obj
 0001:00098b80       ?type_case_d@?$output_processor@_WV?$string_output_adapter@_W@__crt_stdio_output@@V?$positional_parameter_base@_WV?$string_output_adapter@_W@__crt_stdio_output@@@2@@__crt_stdio_output@@AAE_NXZ 00499b80 f i libucrtd:output.obj
 0001:00098bb0       ?type_case_d@?$output_processor@_WV?$string_output_adapter@_W@__crt_stdio_output@@V?$standard_base@_WV?$string_output_adapter@_W@__crt_stdio_output@@@2@@__crt_stdio_output@@AAE_NXZ 00499bb0 f i libucrtd:output.obj
 0001:00098be0       ?type_case_integer@?$output_processor@DV?$stream_output_adapter@D@__crt_stdio_output@@V?$format_validation_base@DV?$stream_output_adapter@D@__crt_stdio_output@@@2@@__crt_stdio_output@@AAE_NI_N@Z 00499be0 f i libucrtd:output.obj
 0001:00098ff0       ?type_case_integer@?$output_processor@DV?$stream_output_adapter@D@__crt_stdio_output@@V?$positional_parameter_base@DV?$stream_output_adapter@D@__crt_stdio_output@@@2@@__crt_stdio_output@@AAE_NI_N@Z 00499ff0 f i libucrtd:output.obj
 0001:00099400       ?type_case_integer@?$output_processor@DV?$stream_output_adapter@D@__crt_stdio_output@@V?$standard_base@DV?$stream_output_adapter@D@__crt_stdio_output@@@2@@__crt_stdio_output@@AAE_NI_N@Z 0049a400 f i libucrtd:output.obj
 0001:00099810       ?type_case_integer@?$output_processor@DV?$string_output_adapter@D@__crt_stdio_output@@V?$format_validation_base@DV?$string_output_adapter@D@__crt_stdio_output@@@2@@__crt_stdio_output@@AAE_NI_N@Z 0049a810 f i libucrtd:output.obj
 0001:00099c20       ?type_case_integer@?$output_processor@DV?$string_output_adapter@D@__crt_stdio_output@@V?$positional_parameter_base@DV?$string_output_adapter@D@__crt_stdio_output@@@2@@__crt_stdio_output@@AAE_NI_N@Z 0049ac20 f i libucrtd:output.obj
 0001:0009a030       ?type_case_integer@?$output_processor@DV?$string_output_adapter@D@__crt_stdio_output@@V?$standard_base@DV?$string_output_adapter@D@__crt_stdio_output@@@2@@__crt_stdio_output@@AAE_NI_N@Z 0049b030 f i libucrtd:output.obj
 0001:0009a440       ?type_case_integer@?$output_processor@_WV?$stream_output_adapter@_W@__crt_stdio_output@@V?$format_validation_base@_WV?$stream_output_adapter@_W@__crt_stdio_output@@@2@@__crt_stdio_output@@AAE_NI_N@Z 0049b440 f i libucrtd:output.obj
 0001:0009a850       ?type_case_integer@?$output_processor@_WV?$stream_output_adapter@_W@__crt_stdio_output@@V?$positional_parameter_base@_WV?$stream_output_adapter@_W@__crt_stdio_output@@@2@@__crt_stdio_output@@AAE_NI_N@Z 0049b850 f i libucrtd:output.obj
 0001:0009ac60       ?type_case_integer@?$output_processor@_WV?$stream_output_adapter@_W@__crt_stdio_output@@V?$standard_base@_WV?$stream_output_adapter@_W@__crt_stdio_output@@@2@@__crt_stdio_output@@AAE_NI_N@Z 0049bc60 f i libucrtd:output.obj
 0001:0009b070       ?type_case_integer@?$output_processor@_WV?$string_output_adapter@_W@__crt_stdio_output@@V?$format_validation_base@_WV?$string_output_adapter@_W@__crt_stdio_output@@@2@@__crt_stdio_output@@AAE_NI_N@Z 0049c070 f i libucrtd:output.obj
 0001:0009b480       ?type_case_integer@?$output_processor@_WV?$string_output_adapter@_W@__crt_stdio_output@@V?$positional_parameter_base@_WV?$string_output_adapter@_W@__crt_stdio_output@@@2@@__crt_stdio_output@@AAE_NI_N@Z 0049c480 f i libucrtd:output.obj
 0001:0009b890       ?type_case_integer@?$output_processor@_WV?$string_output_adapter@_W@__crt_stdio_output@@V?$standard_base@_WV?$string_output_adapter@_W@__crt_stdio_output@@@2@@__crt_stdio_output@@AAE_NI_N@Z 0049c890 f i libucrtd:output.obj
 0001:0009bca0       ?type_case_n@?$output_processor@DV?$stream_output_adapter@D@__crt_stdio_output@@V?$format_validation_base@DV?$stream_output_adapter@D@__crt_stdio_output@@@2@@__crt_stdio_output@@AAE_NXZ 0049cca0 f i libucrtd:output.obj
 0001:0009bf10       ?type_case_n@?$output_processor@DV?$stream_output_adapter@D@__crt_stdio_output@@V?$positional_parameter_base@DV?$stream_output_adapter@D@__crt_stdio_output@@@2@@__crt_stdio_output@@AAE_NXZ 0049cf10 f i libucrtd:output.obj
 0001:0009c180       ?type_case_n@?$output_processor@DV?$stream_output_adapter@D@__crt_stdio_output@@V?$standard_base@DV?$stream_output_adapter@D@__crt_stdio_output@@@2@@__crt_stdio_output@@AAE_NXZ 0049d180 f i libucrtd:output.obj
 0001:0009c3f0       ?type_case_n@?$output_processor@DV?$string_output_adapter@D@__crt_stdio_output@@V?$format_validation_base@DV?$string_output_adapter@D@__crt_stdio_output@@@2@@__crt_stdio_output@@AAE_NXZ 0049d3f0 f i libucrtd:output.obj
 0001:0009c660       ?type_case_n@?$output_processor@DV?$string_output_adapter@D@__crt_stdio_output@@V?$positional_parameter_base@DV?$string_output_adapter@D@__crt_stdio_output@@@2@@__crt_stdio_output@@AAE_NXZ 0049d660 f i libucrtd:output.obj
 0001:0009c8d0       ?type_case_n@?$output_processor@DV?$string_output_adapter@D@__crt_stdio_output@@V?$standard_base@DV?$string_output_adapter@D@__crt_stdio_output@@@2@@__crt_stdio_output@@AAE_NXZ 0049d8d0 f i libucrtd:output.obj
 0001:0009cb40       ?type_case_n@?$output_processor@_WV?$stream_output_adapter@_W@__crt_stdio_output@@V?$format_validation_base@_WV?$stream_output_adapter@_W@__crt_stdio_output@@@2@@__crt_stdio_output@@AAE_NXZ 0049db40 f i libucrtd:output.obj
 0001:0009cdb0       ?type_case_n@?$output_processor@_WV?$stream_output_adapter@_W@__crt_stdio_output@@V?$positional_parameter_base@_WV?$stream_output_adapter@_W@__crt_stdio_output@@@2@@__crt_stdio_output@@AAE_NXZ 0049ddb0 f i libucrtd:output.obj
 0001:0009d020       ?type_case_n@?$output_processor@_WV?$stream_output_adapter@_W@__crt_stdio_output@@V?$standard_base@_WV?$stream_output_adapter@_W@__crt_stdio_output@@@2@@__crt_stdio_output@@AAE_NXZ 0049e020 f i libucrtd:output.obj
 0001:0009d290       ?type_case_n@?$output_processor@_WV?$string_output_adapter@_W@__crt_stdio_output@@V?$format_validation_base@_WV?$string_output_adapter@_W@__crt_stdio_output@@@2@@__crt_stdio_output@@AAE_NXZ 0049e290 f i libucrtd:output.obj
 0001:0009d500       ?type_case_n@?$output_processor@_WV?$string_output_adapter@_W@__crt_stdio_output@@V?$positional_parameter_base@_WV?$string_output_adapter@_W@__crt_stdio_output@@@2@@__crt_stdio_output@@AAE_NXZ 0049e500 f i libucrtd:output.obj
 0001:0009d770       ?type_case_n@?$output_processor@_WV?$string_output_adapter@_W@__crt_stdio_output@@V?$standard_base@_WV?$string_output_adapter@_W@__crt_stdio_output@@@2@@__crt_stdio_output@@AAE_NXZ 0049e770 f i libucrtd:output.obj
 0001:0009d9e0       ?type_case_o@?$output_processor@DV?$stream_output_adapter@D@__crt_stdio_output@@V?$format_validation_base@DV?$stream_output_adapter@D@__crt_stdio_output@@@2@@__crt_stdio_output@@AAE_NXZ 0049e9e0 f i libucrtd:output.obj
 0001:0009da30       ?type_case_o@?$output_processor@DV?$stream_output_adapter@D@__crt_stdio_output@@V?$positional_parameter_base@DV?$stream_output_adapter@D@__crt_stdio_output@@@2@@__crt_stdio_output@@AAE_NXZ 0049ea30 f i libucrtd:output.obj
 0001:0009da80       ?type_case_o@?$output_processor@DV?$stream_output_adapter@D@__crt_stdio_output@@V?$standard_base@DV?$stream_output_adapter@D@__crt_stdio_output@@@2@@__crt_stdio_output@@AAE_NXZ 0049ea80 f i libucrtd:output.obj
 0001:0009dad0       ?type_case_o@?$output_processor@DV?$string_output_adapter@D@__crt_stdio_output@@V?$format_validation_base@DV?$string_output_adapter@D@__crt_stdio_output@@@2@@__crt_stdio_output@@AAE_NXZ 0049ead0 f i libucrtd:output.obj
 0001:0009db20       ?type_case_o@?$output_processor@DV?$string_output_adapter@D@__crt_stdio_output@@V?$positional_parameter_base@DV?$string_output_adapter@D@__crt_stdio_output@@@2@@__crt_stdio_output@@AAE_NXZ 0049eb20 f i libucrtd:output.obj
 0001:0009db70       ?type_case_o@?$output_processor@DV?$string_output_adapter@D@__crt_stdio_output@@V?$standard_base@DV?$string_output_adapter@D@__crt_stdio_output@@@2@@__crt_stdio_output@@AAE_NXZ 0049eb70 f i libucrtd:output.obj
 0001:0009dbc0       ?type_case_o@?$output_processor@_WV?$stream_output_adapter@_W@__crt_stdio_output@@V?$format_validation_base@_WV?$stream_output_adapter@_W@__crt_stdio_output@@@2@@__crt_stdio_output@@AAE_NXZ 0049ebc0 f i libucrtd:output.obj
 0001:0009dc10       ?type_case_o@?$output_processor@_WV?$stream_output_adapter@_W@__crt_stdio_output@@V?$positional_parameter_base@_WV?$stream_output_adapter@_W@__crt_stdio_output@@@2@@__crt_stdio_output@@AAE_NXZ 0049ec10 f i libucrtd:output.obj
 0001:0009dc60       ?type_case_o@?$output_processor@_WV?$stream_output_adapter@_W@__crt_stdio_output@@V?$standard_base@_WV?$stream_output_adapter@_W@__crt_stdio_output@@@2@@__crt_stdio_output@@AAE_NXZ 0049ec60 f i libucrtd:output.obj
 0001:0009dcb0       ?type_case_o@?$output_processor@_WV?$string_output_adapter@_W@__crt_stdio_output@@V?$format_validation_base@_WV?$string_output_adapter@_W@__crt_stdio_output@@@2@@__crt_stdio_output@@AAE_NXZ 0049ecb0 f i libucrtd:output.obj
 0001:0009dd00       ?type_case_o@?$output_processor@_WV?$string_output_adapter@_W@__crt_stdio_output@@V?$positional_parameter_base@_WV?$string_output_adapter@_W@__crt_stdio_output@@@2@@__crt_stdio_output@@AAE_NXZ 0049ed00 f i libucrtd:output.obj
 0001:0009dd50       ?type_case_o@?$output_processor@_WV?$string_output_adapter@_W@__crt_stdio_output@@V?$standard_base@_WV?$string_output_adapter@_W@__crt_stdio_output@@@2@@__crt_stdio_output@@AAE_NXZ 0049ed50 f i libucrtd:output.obj
 0001:0009dda0       ?type_case_p@?$output_processor@DV?$stream_output_adapter@D@__crt_stdio_output@@V?$format_validation_base@DV?$stream_output_adapter@D@__crt_stdio_output@@@2@@__crt_stdio_output@@AAE_NXZ 0049eda0 f i libucrtd:output.obj
 0001:0009dde0       ?type_case_p@?$output_processor@DV?$stream_output_adapter@D@__crt_stdio_output@@V?$positional_parameter_base@DV?$stream_output_adapter@D@__crt_stdio_output@@@2@@__crt_stdio_output@@AAE_NXZ 0049ede0 f i libucrtd:output.obj
 0001:0009de20       ?type_case_p@?$output_processor@DV?$stream_output_adapter@D@__crt_stdio_output@@V?$standard_base@DV?$stream_output_adapter@D@__crt_stdio_output@@@2@@__crt_stdio_output@@AAE_NXZ 0049ee20 f i libucrtd:output.obj
 0001:0009de60       ?type_case_p@?$output_processor@DV?$string_output_adapter@D@__crt_stdio_output@@V?$format_validation_base@DV?$string_output_adapter@D@__crt_stdio_output@@@2@@__crt_stdio_output@@AAE_NXZ 0049ee60 f i libucrtd:output.obj
 0001:0009dea0       ?type_case_p@?$output_processor@DV?$string_output_adapter@D@__crt_stdio_output@@V?$positional_parameter_base@DV?$string_output_adapter@D@__crt_stdio_output@@@2@@__crt_stdio_output@@AAE_NXZ 0049eea0 f i libucrtd:output.obj
 0001:0009dee0       ?type_case_p@?$output_processor@DV?$string_output_adapter@D@__crt_stdio_output@@V?$standard_base@DV?$string_output_adapter@D@__crt_stdio_output@@@2@@__crt_stdio_output@@AAE_NXZ 0049eee0 f i libucrtd:output.obj
 0001:0009df20       ?type_case_p@?$output_processor@_WV?$stream_output_adapter@_W@__crt_stdio_output@@V?$format_validation_base@_WV?$stream_output_adapter@_W@__crt_stdio_output@@@2@@__crt_stdio_output@@AAE_NXZ 0049ef20 f i libucrtd:output.obj
 0001:0009df60       ?type_case_p@?$output_processor@_WV?$stream_output_adapter@_W@__crt_stdio_output@@V?$positional_parameter_base@_WV?$stream_output_adapter@_W@__crt_stdio_output@@@2@@__crt_stdio_output@@AAE_NXZ 0049ef60 f i libucrtd:output.obj
 0001:0009dfa0       ?type_case_p@?$output_processor@_WV?$stream_output_adapter@_W@__crt_stdio_output@@V?$standard_base@_WV?$stream_output_adapter@_W@__crt_stdio_output@@@2@@__crt_stdio_output@@AAE_NXZ 0049efa0 f i libucrtd:output.obj
 0001:0009dfe0       ?type_case_p@?$output_processor@_WV?$string_output_adapter@_W@__crt_stdio_output@@V?$format_validation_base@_WV?$string_output_adapter@_W@__crt_stdio_output@@@2@@__crt_stdio_output@@AAE_NXZ 0049efe0 f i libucrtd:output.obj
 0001:0009e020       ?type_case_p@?$output_processor@_WV?$string_output_adapter@_W@__crt_stdio_output@@V?$positional_parameter_base@_WV?$string_output_adapter@_W@__crt_stdio_output@@@2@@__crt_stdio_output@@AAE_NXZ 0049f020 f i libucrtd:output.obj
 0001:0009e060       ?type_case_p@?$output_processor@_WV?$string_output_adapter@_W@__crt_stdio_output@@V?$standard_base@_WV?$string_output_adapter@_W@__crt_stdio_output@@@2@@__crt_stdio_output@@AAE_NXZ 0049f060 f i libucrtd:output.obj
 0001:0009e0a0       ?type_case_s@?$output_processor@DV?$stream_output_adapter@D@__crt_stdio_output@@V?$format_validation_base@DV?$stream_output_adapter@D@__crt_stdio_output@@@2@@__crt_stdio_output@@AAE_NXZ 0049f0a0 f i libucrtd:output.obj
 0001:0009e1d0       ?type_case_s@?$output_processor@DV?$stream_output_adapter@D@__crt_stdio_output@@V?$positional_parameter_base@DV?$stream_output_adapter@D@__crt_stdio_output@@@2@@__crt_stdio_output@@AAE_NXZ 0049f1d0 f i libucrtd:output.obj
 0001:0009e300       ?type_case_s@?$output_processor@DV?$stream_output_adapter@D@__crt_stdio_output@@V?$standard_base@DV?$stream_output_adapter@D@__crt_stdio_output@@@2@@__crt_stdio_output@@AAE_NXZ 0049f300 f i libucrtd:output.obj
 0001:0009e430       ?type_case_s@?$output_processor@DV?$string_output_adapter@D@__crt_stdio_output@@V?$format_validation_base@DV?$string_output_adapter@D@__crt_stdio_output@@@2@@__crt_stdio_output@@AAE_NXZ 0049f430 f i libucrtd:output.obj
 0001:0009e560       ?type_case_s@?$output_processor@DV?$string_output_adapter@D@__crt_stdio_output@@V?$positional_parameter_base@DV?$string_output_adapter@D@__crt_stdio_output@@@2@@__crt_stdio_output@@AAE_NXZ 0049f560 f i libucrtd:output.obj
 0001:0009e690       ?type_case_s@?$output_processor@DV?$string_output_adapter@D@__crt_stdio_output@@V?$standard_base@DV?$string_output_adapter@D@__crt_stdio_output@@@2@@__crt_stdio_output@@AAE_NXZ 0049f690 f i libucrtd:output.obj
 0001:0009e7c0       ?type_case_s@?$output_processor@_WV?$stream_output_adapter@_W@__crt_stdio_output@@V?$format_validation_base@_WV?$stream_output_adapter@_W@__crt_stdio_output@@@2@@__crt_stdio_output@@AAE_NXZ 0049f7c0 f i libucrtd:output.obj
 0001:0009e8f0       ?type_case_s@?$output_processor@_WV?$stream_output_adapter@_W@__crt_stdio_output@@V?$positional_parameter_base@_WV?$stream_output_adapter@_W@__crt_stdio_output@@@2@@__crt_stdio_output@@AAE_NXZ 0049f8f0 f i libucrtd:output.obj
 0001:0009ea20       ?type_case_s@?$output_processor@_WV?$stream_output_adapter@_W@__crt_stdio_output@@V?$standard_base@_WV?$stream_output_adapter@_W@__crt_stdio_output@@@2@@__crt_stdio_output@@AAE_NXZ 0049fa20 f i libucrtd:output.obj
 0001:0009eb50       ?type_case_s@?$output_processor@_WV?$string_output_adapter@_W@__crt_stdio_output@@V?$format_validation_base@_WV?$string_output_adapter@_W@__crt_stdio_output@@@2@@__crt_stdio_output@@AAE_NXZ 0049fb50 f i libucrtd:output.obj
 0001:0009ec80       ?type_case_s@?$output_processor@_WV?$string_output_adapter@_W@__crt_stdio_output@@V?$positional_parameter_base@_WV?$string_output_adapter@_W@__crt_stdio_output@@@2@@__crt_stdio_output@@AAE_NXZ 0049fc80 f i libucrtd:output.obj
 0001:0009edb0       ?type_case_s@?$output_processor@_WV?$string_output_adapter@_W@__crt_stdio_output@@V?$standard_base@_WV?$string_output_adapter@_W@__crt_stdio_output@@@2@@__crt_stdio_output@@AAE_NXZ 0049fdb0 f i libucrtd:output.obj
 0001:0009eee0       ?type_case_s_compute_narrow_string_length@?$output_processor@DV?$stream_output_adapter@D@__crt_stdio_output@@V?$format_validation_base@DV?$stream_output_adapter@D@__crt_stdio_output@@@2@@__crt_stdio_output@@ABEHHD@Z 0049fee0 f i libucrtd:output.obj
 0001:0009ef10       ?type_case_s_compute_narrow_string_length@?$output_processor@DV?$stream_output_adapter@D@__crt_stdio_output@@V?$positional_parameter_base@DV?$stream_output_adapter@D@__crt_stdio_output@@@2@@__crt_stdio_output@@ABEHHD@Z 0049ff10 f i libucrtd:output.obj
 0001:0009ef40       ?type_case_s_compute_narrow_string_length@?$output_processor@DV?$stream_output_adapter@D@__crt_stdio_output@@V?$standard_base@DV?$stream_output_adapter@D@__crt_stdio_output@@@2@@__crt_stdio_output@@ABEHHD@Z 0049ff40 f i libucrtd:output.obj
 0001:0009ef70       ?type_case_s_compute_narrow_string_length@?$output_processor@DV?$string_output_adapter@D@__crt_stdio_output@@V?$format_validation_base@DV?$string_output_adapter@D@__crt_stdio_output@@@2@@__crt_stdio_output@@ABEHHD@Z 0049ff70 f i libucrtd:output.obj
 0001:0009efa0       ?type_case_s_compute_narrow_string_length@?$output_processor@DV?$string_output_adapter@D@__crt_stdio_output@@V?$positional_parameter_base@DV?$string_output_adapter@D@__crt_stdio_output@@@2@@__crt_stdio_output@@ABEHHD@Z 0049ffa0 f i libucrtd:output.obj
 0001:0009efd0       ?type_case_s_compute_narrow_string_length@?$output_processor@DV?$string_output_adapter@D@__crt_stdio_output@@V?$standard_base@DV?$string_output_adapter@D@__crt_stdio_output@@@2@@__crt_stdio_output@@ABEHHD@Z 0049ffd0 f i libucrtd:output.obj
 0001:0009f000       ?type_case_s_compute_narrow_string_length@?$output_processor@_WV?$stream_output_adapter@_W@__crt_stdio_output@@V?$format_validation_base@_WV?$stream_output_adapter@_W@__crt_stdio_output@@@2@@__crt_stdio_output@@ABEHH_W@Z 004a0000 f i libucrtd:output.obj
 0001:0009f090       ?type_case_s_compute_narrow_string_length@?$output_processor@_WV?$stream_output_adapter@_W@__crt_stdio_output@@V?$positional_parameter_base@_WV?$stream_output_adapter@_W@__crt_stdio_output@@@2@@__crt_stdio_output@@ABEHH_W@Z 004a0090 f i libucrtd:output.obj
 0001:0009f120       ?type_case_s_compute_narrow_string_length@?$output_processor@_WV?$stream_output_adapter@_W@__crt_stdio_output@@V?$standard_base@_WV?$stream_output_adapter@_W@__crt_stdio_output@@@2@@__crt_stdio_output@@ABEHH_W@Z 004a0120 f i libucrtd:output.obj
 0001:0009f1b0       ?type_case_s_compute_narrow_string_length@?$output_processor@_WV?$string_output_adapter@_W@__crt_stdio_output@@V?$format_validation_base@_WV?$string_output_adapter@_W@__crt_stdio_output@@@2@@__crt_stdio_output@@ABEHH_W@Z 004a01b0 f i libucrtd:output.obj
 0001:0009f240       ?type_case_s_compute_narrow_string_length@?$output_processor@_WV?$string_output_adapter@_W@__crt_stdio_output@@V?$positional_parameter_base@_WV?$string_output_adapter@_W@__crt_stdio_output@@@2@@__crt_stdio_output@@ABEHH_W@Z 004a0240 f i libucrtd:output.obj
 0001:0009f2d0       ?type_case_s_compute_narrow_string_length@?$output_processor@_WV?$string_output_adapter@_W@__crt_stdio_output@@V?$standard_base@_WV?$string_output_adapter@_W@__crt_stdio_output@@@2@@__crt_stdio_output@@ABEHH_W@Z 004a02d0 f i libucrtd:output.obj
 0001:0009f360       ?type_case_u@?$output_processor@DV?$stream_output_adapter@D@__crt_stdio_output@@V?$format_validation_base@DV?$stream_output_adapter@D@__crt_stdio_output@@@2@@__crt_stdio_output@@AAE_NXZ 004a0360 f i libucrtd:output.obj
 0001:0009f380       ?type_case_u@?$output_processor@DV?$stream_output_adapter@D@__crt_stdio_output@@V?$positional_parameter_base@DV?$stream_output_adapter@D@__crt_stdio_output@@@2@@__crt_stdio_output@@AAE_NXZ 004a0380 f i libucrtd:output.obj
 0001:0009f3a0       ?type_case_u@?$output_processor@DV?$stream_output_adapter@D@__crt_stdio_output@@V?$standard_base@DV?$stream_output_adapter@D@__crt_stdio_output@@@2@@__crt_stdio_output@@AAE_NXZ 004a03a0 f i libucrtd:output.obj
 0001:0009f3c0       ?type_case_u@?$output_processor@DV?$string_output_adapter@D@__crt_stdio_output@@V?$format_validation_base@DV?$string_output_adapter@D@__crt_stdio_output@@@2@@__crt_stdio_output@@AAE_NXZ 004a03c0 f i libucrtd:output.obj
 0001:0009f3e0       ?type_case_u@?$output_processor@DV?$string_output_adapter@D@__crt_stdio_output@@V?$positional_parameter_base@DV?$string_output_adapter@D@__crt_stdio_output@@@2@@__crt_stdio_output@@AAE_NXZ 004a03e0 f i libucrtd:output.obj
 0001:0009f400       ?type_case_u@?$output_processor@DV?$string_output_adapter@D@__crt_stdio_output@@V?$standard_base@DV?$string_output_adapter@D@__crt_stdio_output@@@2@@__crt_stdio_output@@AAE_NXZ 004a0400 f i libucrtd:output.obj
 0001:0009f420       ?type_case_u@?$output_processor@_WV?$stream_output_adapter@_W@__crt_stdio_output@@V?$format_validation_base@_WV?$stream_output_adapter@_W@__crt_stdio_output@@@2@@__crt_stdio_output@@AAE_NXZ 004a0420 f i libucrtd:output.obj
 0001:0009f440       ?type_case_u@?$output_processor@_WV?$stream_output_adapter@_W@__crt_stdio_output@@V?$positional_parameter_base@_WV?$stream_output_adapter@_W@__crt_stdio_output@@@2@@__crt_stdio_output@@AAE_NXZ 004a0440 f i libucrtd:output.obj
 0001:0009f460       ?type_case_u@?$output_processor@_WV?$stream_output_adapter@_W@__crt_stdio_output@@V?$standard_base@_WV?$stream_output_adapter@_W@__crt_stdio_output@@@2@@__crt_stdio_output@@AAE_NXZ 004a0460 f i libucrtd:output.obj
 0001:0009f480       ?type_case_u@?$output_processor@_WV?$string_output_adapter@_W@__crt_stdio_output@@V?$format_validation_base@_WV?$string_output_adapter@_W@__crt_stdio_output@@@2@@__crt_stdio_output@@AAE_NXZ 004a0480 f i libucrtd:output.obj
 0001:0009f4a0       ?type_case_u@?$output_processor@_WV?$string_output_adapter@_W@__crt_stdio_output@@V?$positional_parameter_base@_WV?$string_output_adapter@_W@__crt_stdio_output@@@2@@__crt_stdio_output@@AAE_NXZ 004a04a0 f i libucrtd:output.obj
 0001:0009f4c0       ?type_case_u@?$output_processor@_WV?$string_output_adapter@_W@__crt_stdio_output@@V?$standard_base@_WV?$string_output_adapter@_W@__crt_stdio_output@@@2@@__crt_stdio_output@@AAE_NXZ 004a04c0 f i libucrtd:output.obj
 0001:0009f4e0       ?type_case_x@?$output_processor@DV?$stream_output_adapter@D@__crt_stdio_output@@V?$format_validation_base@DV?$stream_output_adapter@D@__crt_stdio_output@@@2@@__crt_stdio_output@@AAE_NXZ 004a04e0 f i libucrtd:output.obj
 0001:0009f500       ?type_case_x@?$output_processor@DV?$stream_output_adapter@D@__crt_stdio_output@@V?$positional_parameter_base@DV?$stream_output_adapter@D@__crt_stdio_output@@@2@@__crt_stdio_output@@AAE_NXZ 004a0500 f i libucrtd:output.obj
 0001:0009f520       ?type_case_x@?$output_processor@DV?$stream_output_adapter@D@__crt_stdio_output@@V?$standard_base@DV?$stream_output_adapter@D@__crt_stdio_output@@@2@@__crt_stdio_output@@AAE_NXZ 004a0520 f i libucrtd:output.obj
 0001:0009f540       ?type_case_x@?$output_processor@DV?$string_output_adapter@D@__crt_stdio_output@@V?$format_validation_base@DV?$string_output_adapter@D@__crt_stdio_output@@@2@@__crt_stdio_output@@AAE_NXZ 004a0540 f i libucrtd:output.obj
 0001:0009f560       ?type_case_x@?$output_processor@DV?$string_output_adapter@D@__crt_stdio_output@@V?$positional_parameter_base@DV?$string_output_adapter@D@__crt_stdio_output@@@2@@__crt_stdio_output@@AAE_NXZ 004a0560 f i libucrtd:output.obj
 0001:0009f580       ?type_case_x@?$output_processor@DV?$string_output_adapter@D@__crt_stdio_output@@V?$standard_base@DV?$string_output_adapter@D@__crt_stdio_output@@@2@@__crt_stdio_output@@AAE_NXZ 004a0580 f i libucrtd:output.obj
 0001:0009f5a0       ?type_case_x@?$output_processor@_WV?$stream_output_adapter@_W@__crt_stdio_output@@V?$format_validation_base@_WV?$stream_output_adapter@_W@__crt_stdio_output@@@2@@__crt_stdio_output@@AAE_NXZ 004a05a0 f i libucrtd:output.obj
 0001:0009f5c0       ?type_case_x@?$output_processor@_WV?$stream_output_adapter@_W@__crt_stdio_output@@V?$positional_parameter_base@_WV?$stream_output_adapter@_W@__crt_stdio_output@@@2@@__crt_stdio_output@@AAE_NXZ 004a05c0 f i libucrtd:output.obj
 0001:0009f5e0       ?type_case_x@?$output_processor@_WV?$stream_output_adapter@_W@__crt_stdio_output@@V?$standard_base@_WV?$stream_output_adapter@_W@__crt_stdio_output@@@2@@__crt_stdio_output@@AAE_NXZ 004a05e0 f i libucrtd:output.obj
 0001:0009f600       ?type_case_x@?$output_processor@_WV?$string_output_adapter@_W@__crt_stdio_output@@V?$format_validation_base@_WV?$string_output_adapter@_W@__crt_stdio_output@@@2@@__crt_stdio_output@@AAE_NXZ 004a0600 f i libucrtd:output.obj
 0001:0009f620       ?type_case_x@?$output_processor@_WV?$string_output_adapter@_W@__crt_stdio_output@@V?$positional_parameter_base@_WV?$string_output_adapter@_W@__crt_stdio_output@@@2@@__crt_stdio_output@@AAE_NXZ 004a0620 f i libucrtd:output.obj
 0001:0009f640       ?type_case_x@?$output_processor@_WV?$string_output_adapter@_W@__crt_stdio_output@@V?$standard_base@_WV?$string_output_adapter@_W@__crt_stdio_output@@@2@@__crt_stdio_output@@AAE_NXZ 004a0640 f i libucrtd:output.obj
 0001:0009f660       ?unset_flag@?$output_processor@DV?$stream_output_adapter@D@__crt_stdio_output@@V?$format_validation_base@DV?$stream_output_adapter@D@__crt_stdio_output@@@2@@__crt_stdio_output@@AAEXI@Z 004a0660 f i libucrtd:output.obj
 0001:0009f690       ?unset_flag@?$output_processor@DV?$stream_output_adapter@D@__crt_stdio_output@@V?$positional_parameter_base@DV?$stream_output_adapter@D@__crt_stdio_output@@@2@@__crt_stdio_output@@AAEXI@Z 004a0690 f i libucrtd:output.obj
 0001:0009f6c0       ?unset_flag@?$output_processor@DV?$stream_output_adapter@D@__crt_stdio_output@@V?$standard_base@DV?$stream_output_adapter@D@__crt_stdio_output@@@2@@__crt_stdio_output@@AAEXI@Z 004a06c0 f i libucrtd:output.obj
 0001:0009f6f0       ?unset_flag@?$output_processor@DV?$string_output_adapter@D@__crt_stdio_output@@V?$format_validation_base@DV?$string_output_adapter@D@__crt_stdio_output@@@2@@__crt_stdio_output@@AAEXI@Z 004a06f0 f i libucrtd:output.obj
 0001:0009f720       ?unset_flag@?$output_processor@DV?$string_output_adapter@D@__crt_stdio_output@@V?$positional_parameter_base@DV?$string_output_adapter@D@__crt_stdio_output@@@2@@__crt_stdio_output@@AAEXI@Z 004a0720 f i libucrtd:output.obj
 0001:0009f750       ?unset_flag@?$output_processor@DV?$string_output_adapter@D@__crt_stdio_output@@V?$standard_base@DV?$string_output_adapter@D@__crt_stdio_output@@@2@@__crt_stdio_output@@AAEXI@Z 004a0750 f i libucrtd:output.obj
 0001:0009f780       ?unset_flag@?$output_processor@_WV?$stream_output_adapter@_W@__crt_stdio_output@@V?$format_validation_base@_WV?$stream_output_adapter@_W@__crt_stdio_output@@@2@@__crt_stdio_output@@AAEXI@Z 004a0780 f i libucrtd:output.obj
 0001:0009f7b0       ?unset_flag@?$output_processor@_WV?$stream_output_adapter@_W@__crt_stdio_output@@V?$positional_parameter_base@_WV?$stream_output_adapter@_W@__crt_stdio_output@@@2@@__crt_stdio_output@@AAEXI@Z 004a07b0 f i libucrtd:output.obj
 0001:0009f7e0       ?unset_flag@?$output_processor@_WV?$stream_output_adapter@_W@__crt_stdio_output@@V?$standard_base@_WV?$stream_output_adapter@_W@__crt_stdio_output@@@2@@__crt_stdio_output@@AAEXI@Z 004a07e0 f i libucrtd:output.obj
 0001:0009f810       ?unset_flag@?$output_processor@_WV?$string_output_adapter@_W@__crt_stdio_output@@V?$format_validation_base@_WV?$string_output_adapter@_W@__crt_stdio_output@@@2@@__crt_stdio_output@@AAEXI@Z 004a0810 f i libucrtd:output.obj
 0001:0009f840       ?unset_flag@?$output_processor@_WV?$string_output_adapter@_W@__crt_stdio_output@@V?$positional_parameter_base@_WV?$string_output_adapter@_W@__crt_stdio_output@@@2@@__crt_stdio_output@@AAEXI@Z 004a0840 f i libucrtd:output.obj
 0001:0009f870       ?unset_flag@?$output_processor@_WV?$string_output_adapter@_W@__crt_stdio_output@@V?$standard_base@_WV?$string_output_adapter@_W@__crt_stdio_output@@@2@@__crt_stdio_output@@AAEXI@Z 004a0870 f i libucrtd:output.obj
 0001:0009f8a0       ?update_field_width@?$positional_parameter_base@DV?$stream_output_adapter@D@__crt_stdio_output@@@__crt_stdio_output@@IAE_NXZ 004a08a0 f i libucrtd:output.obj
 0001:0009fa80       ?update_field_width@?$positional_parameter_base@DV?$string_output_adapter@D@__crt_stdio_output@@@__crt_stdio_output@@IAE_NXZ 004a0a80 f i libucrtd:output.obj
 0001:0009fc60       ?update_field_width@?$positional_parameter_base@_WV?$stream_output_adapter@_W@__crt_stdio_output@@@__crt_stdio_output@@IAE_NXZ 004a0c60 f i libucrtd:output.obj
 0001:0009fe40       ?update_field_width@?$positional_parameter_base@_WV?$string_output_adapter@_W@__crt_stdio_output@@@__crt_stdio_output@@IAE_NXZ 004a0e40 f i libucrtd:output.obj
 0001:000a0020       ?update_field_width@?$standard_base@DV?$stream_output_adapter@D@__crt_stdio_output@@@__crt_stdio_output@@IAE_NXZ 004a1020 f i libucrtd:output.obj
 0001:000a0050       ?update_field_width@?$standard_base@DV?$string_output_adapter@D@__crt_stdio_output@@@__crt_stdio_output@@IAE_NXZ 004a1050 f i libucrtd:output.obj
 0001:000a0080       ?update_field_width@?$standard_base@_WV?$stream_output_adapter@_W@__crt_stdio_output@@@__crt_stdio_output@@IAE_NXZ 004a1080 f i libucrtd:output.obj
 0001:000a00b0       ?update_field_width@?$standard_base@_WV?$string_output_adapter@_W@__crt_stdio_output@@@__crt_stdio_output@@IAE_NXZ 004a10b0 f i libucrtd:output.obj
 0001:000a00e0       ?update_precision@?$positional_parameter_base@DV?$stream_output_adapter@D@__crt_stdio_output@@@__crt_stdio_output@@IAE_NXZ 004a10e0 f i libucrtd:output.obj
 0001:000a02c0       ?update_precision@?$positional_parameter_base@DV?$string_output_adapter@D@__crt_stdio_output@@@__crt_stdio_output@@IAE_NXZ 004a12c0 f i libucrtd:output.obj
 0001:000a04a0       ?update_precision@?$positional_parameter_base@_WV?$stream_output_adapter@_W@__crt_stdio_output@@@__crt_stdio_output@@IAE_NXZ 004a14a0 f i libucrtd:output.obj
 0001:000a0680       ?update_precision@?$positional_parameter_base@_WV?$string_output_adapter@_W@__crt_stdio_output@@@__crt_stdio_output@@IAE_NXZ 004a1680 f i libucrtd:output.obj
 0001:000a0860       ?update_precision@?$standard_base@DV?$stream_output_adapter@D@__crt_stdio_output@@@__crt_stdio_output@@IAE_NXZ 004a1860 f i libucrtd:output.obj
 0001:000a0890       ?update_precision@?$standard_base@DV?$string_output_adapter@D@__crt_stdio_output@@@__crt_stdio_output@@IAE_NXZ 004a1890 f i libucrtd:output.obj
 0001:000a08c0       ?update_precision@?$standard_base@_WV?$stream_output_adapter@_W@__crt_stdio_output@@@__crt_stdio_output@@IAE_NXZ 004a18c0 f i libucrtd:output.obj
 0001:000a08f0       ?update_precision@?$standard_base@_WV?$string_output_adapter@_W@__crt_stdio_output@@@__crt_stdio_output@@IAE_NXZ 004a18f0 f i libucrtd:output.obj
 0001:000a0920       ?validate@?$stream_output_adapter@D@__crt_stdio_output@@QBE_NXZ 004a1920 f i libucrtd:output.obj
 0001:000a09f0       ?validate@?$stream_output_adapter@_W@__crt_stdio_output@@QBE_NXZ 004a19f0 f i libucrtd:output.obj
 0001:000a0ac0       ?validate@?$string_output_adapter@D@__crt_stdio_output@@QBE_NXZ 004a1ac0 f i libucrtd:output.obj
 0001:000a0b80       ?validate@?$string_output_adapter@_W@__crt_stdio_output@@QBE_NXZ 004a1b80 f i libucrtd:output.obj
 0001:000a0c40       ?validate_and_store_parameter_data@?$positional_parameter_base@DV?$stream_output_adapter@D@__crt_stdio_output@@@__crt_stdio_output@@AAE_NAAUparameter_data@12@W4parameter_type@12@DW4length_modifier@2@@Z 004a1c40 f i libucrtd:output.obj
 0001:000a0d50       ?validate_and_store_parameter_data@?$positional_parameter_base@DV?$string_output_adapter@D@__crt_stdio_output@@@__crt_stdio_output@@AAE_NAAUparameter_data@12@W4parameter_type@12@DW4length_modifier@2@@Z 004a1d50 f i libucrtd:output.obj
 0001:000a0e60       ?validate_and_store_parameter_data@?$positional_parameter_base@_WV?$stream_output_adapter@_W@__crt_stdio_output@@@__crt_stdio_output@@AAE_NAAUparameter_data@12@W4parameter_type@12@_WW4length_modifier@2@@Z 004a1e60 f i libucrtd:output.obj
 0001:000a0f70       ?validate_and_store_parameter_data@?$positional_parameter_base@_WV?$string_output_adapter@_W@__crt_stdio_output@@@__crt_stdio_output@@AAE_NAAUparameter_data@12@W4parameter_type@12@_WW4length_modifier@2@@Z 004a1f70 f i libucrtd:output.obj
 0001:000a1080       ?validate_and_update_state_at_beginning_of_format_character@?$positional_parameter_base@DV?$stream_output_adapter@D@__crt_stdio_output@@@__crt_stdio_output@@IAE_NXZ 004a2080 f i libucrtd:output.obj
 0001:000a1330       ?validate_and_update_state_at_beginning_of_format_character@?$positional_parameter_base@DV?$string_output_adapter@D@__crt_stdio_output@@@__crt_stdio_output@@IAE_NXZ 004a2330 f i libucrtd:output.obj
 0001:000a15e0       ?validate_and_update_state_at_beginning_of_format_character@?$positional_parameter_base@_WV?$stream_output_adapter@_W@__crt_stdio_output@@@__crt_stdio_output@@IAE_NXZ 004a25e0 f i libucrtd:output.obj
 0001:000a1890       ?validate_and_update_state_at_beginning_of_format_character@?$positional_parameter_base@_WV?$string_output_adapter@_W@__crt_stdio_output@@@__crt_stdio_output@@IAE_NXZ 004a2890 f i libucrtd:output.obj
 0001:000a1b40       ?validate_and_update_state_at_beginning_of_format_character@?$standard_base@DV?$stream_output_adapter@D@__crt_stdio_output@@@__crt_stdio_output@@IAE_NXZ 004a2b40 f i libucrtd:output.obj
 0001:000a1b60       ?validate_and_update_state_at_beginning_of_format_character@?$standard_base@DV?$string_output_adapter@D@__crt_stdio_output@@@__crt_stdio_output@@IAE_NXZ 004a2b60 f i libucrtd:output.obj
 0001:000a1b80       ?validate_and_update_state_at_beginning_of_format_character@?$standard_base@_WV?$stream_output_adapter@_W@__crt_stdio_output@@@__crt_stdio_output@@IAE_NXZ 004a2b80 f i libucrtd:output.obj
 0001:000a1ba0       ?validate_and_update_state_at_beginning_of_format_character@?$standard_base@_WV?$string_output_adapter@_W@__crt_stdio_output@@@__crt_stdio_output@@IAE_NXZ 004a2ba0 f i libucrtd:output.obj
 0001:000a1bc0       ?validate_and_update_state_at_end_of_format_string@?$format_validation_base@DV?$stream_output_adapter@D@__crt_stdio_output@@@__crt_stdio_output@@IBE_NXZ 004a2bc0 f i libucrtd:output.obj
 0001:000a1c80       ?validate_and_update_state_at_end_of_format_string@?$format_validation_base@DV?$string_output_adapter@D@__crt_stdio_output@@@__crt_stdio_output@@IBE_NXZ 004a2c80 f i libucrtd:output.obj
 0001:000a1d40       ?validate_and_update_state_at_end_of_format_string@?$format_validation_base@_WV?$stream_output_adapter@_W@__crt_stdio_output@@@__crt_stdio_output@@IBE_NXZ 004a2d40 f i libucrtd:output.obj
 0001:000a1e00       ?validate_and_update_state_at_end_of_format_string@?$format_validation_base@_WV?$string_output_adapter@_W@__crt_stdio_output@@@__crt_stdio_output@@IBE_NXZ 004a2e00 f i libucrtd:output.obj
 0001:000a1ec0       ?validate_and_update_state_at_end_of_format_string@?$positional_parameter_base@DV?$stream_output_adapter@D@__crt_stdio_output@@@__crt_stdio_output@@IAE_NXZ 004a2ec0 f i libucrtd:output.obj
 0001:000a20c0       ?validate_and_update_state_at_end_of_format_string@?$positional_parameter_base@DV?$string_output_adapter@D@__crt_stdio_output@@@__crt_stdio_output@@IAE_NXZ 004a30c0 f i libucrtd:output.obj
 0001:000a22c0       ?validate_and_update_state_at_end_of_format_string@?$positional_parameter_base@_WV?$stream_output_adapter@_W@__crt_stdio_output@@@__crt_stdio_output@@IAE_NXZ 004a32c0 f i libucrtd:output.obj
 0001:000a24c0       ?validate_and_update_state_at_end_of_format_string@?$positional_parameter_base@_WV?$string_output_adapter@_W@__crt_stdio_output@@@__crt_stdio_output@@IAE_NXZ 004a34c0 f i libucrtd:output.obj
 0001:000a26c0       ?validate_and_update_state_at_end_of_format_string@?$standard_base@DV?$stream_output_adapter@D@__crt_stdio_output@@@__crt_stdio_output@@IBE_NXZ 004a36c0 f i libucrtd:output.obj
 0001:000a26e0       ?validate_and_update_state_at_end_of_format_string@?$standard_base@DV?$string_output_adapter@D@__crt_stdio_output@@@__crt_stdio_output@@IBE_NXZ 004a36e0 f i libucrtd:output.obj
 0001:000a2700       ?validate_and_update_state_at_end_of_format_string@?$standard_base@_WV?$stream_output_adapter@_W@__crt_stdio_output@@@__crt_stdio_output@@IBE_NXZ 004a3700 f i libucrtd:output.obj
 0001:000a2720       ?validate_and_update_state_at_end_of_format_string@?$standard_base@_WV?$string_output_adapter@_W@__crt_stdio_output@@@__crt_stdio_output@@IBE_NXZ 004a3720 f i libucrtd:output.obj
 0001:000a2740       ?validate_state_for_type_case_a@?$positional_parameter_base@DV?$stream_output_adapter@D@__crt_stdio_output@@@__crt_stdio_output@@IAE_NXZ 004a3740 f i libucrtd:output.obj
 0001:000a2870       ?validate_state_for_type_case_a@?$positional_parameter_base@DV?$string_output_adapter@D@__crt_stdio_output@@@__crt_stdio_output@@IAE_NXZ 004a3870 f i libucrtd:output.obj
 0001:000a29a0       ?validate_state_for_type_case_a@?$positional_parameter_base@_WV?$stream_output_adapter@_W@__crt_stdio_output@@@__crt_stdio_output@@IAE_NXZ 004a39a0 f i libucrtd:output.obj
 0001:000a2ad0       ?validate_state_for_type_case_a@?$positional_parameter_base@_WV?$string_output_adapter@_W@__crt_stdio_output@@@__crt_stdio_output@@IAE_NXZ 004a3ad0 f i libucrtd:output.obj
 0001:000a2c00       ?validate_state_for_type_case_a@?$standard_base@DV?$stream_output_adapter@D@__crt_stdio_output@@@__crt_stdio_output@@IBE_NXZ 004a3c00 f i libucrtd:output.obj
 0001:000a2c20       ?validate_state_for_type_case_a@?$standard_base@DV?$string_output_adapter@D@__crt_stdio_output@@@__crt_stdio_output@@IBE_NXZ 004a3c20 f i libucrtd:output.obj
 0001:000a2c40       ?validate_state_for_type_case_a@?$standard_base@_WV?$stream_output_adapter@_W@__crt_stdio_output@@@__crt_stdio_output@@IBE_NXZ 004a3c40 f i libucrtd:output.obj
 0001:000a2c60       ?validate_state_for_type_case_a@?$standard_base@_WV?$string_output_adapter@_W@__crt_stdio_output@@@__crt_stdio_output@@IBE_NXZ 004a3c60 f i libucrtd:output.obj
 0001:000a2c80       ?wide_null_string@?$output_processor@DV?$stream_output_adapter@D@__crt_stdio_output@@V?$format_validation_base@DV?$stream_output_adapter@D@__crt_stdio_output@@@2@@__crt_stdio_output@@CAPA_WXZ 004a3c80 f i libucrtd:output.obj
 0001:000a2c90       ?wide_null_string@?$output_processor@DV?$stream_output_adapter@D@__crt_stdio_output@@V?$positional_parameter_base@DV?$stream_output_adapter@D@__crt_stdio_output@@@2@@__crt_stdio_output@@CAPA_WXZ 004a3c90 f i libucrtd:output.obj
 0001:000a2ca0       ?wide_null_string@?$output_processor@DV?$stream_output_adapter@D@__crt_stdio_output@@V?$standard_base@DV?$stream_output_adapter@D@__crt_stdio_output@@@2@@__crt_stdio_output@@CAPA_WXZ 004a3ca0 f i libucrtd:output.obj
 0001:000a2cb0       ?wide_null_string@?$output_processor@DV?$string_output_adapter@D@__crt_stdio_output@@V?$format_validation_base@DV?$string_output_adapter@D@__crt_stdio_output@@@2@@__crt_stdio_output@@CAPA_WXZ 004a3cb0 f i libucrtd:output.obj
 0001:000a2cc0       ?wide_null_string@?$output_processor@DV?$string_output_adapter@D@__crt_stdio_output@@V?$positional_parameter_base@DV?$string_output_adapter@D@__crt_stdio_output@@@2@@__crt_stdio_output@@CAPA_WXZ 004a3cc0 f i libucrtd:output.obj
 0001:000a2cd0       ?wide_null_string@?$output_processor@DV?$string_output_adapter@D@__crt_stdio_output@@V?$standard_base@DV?$string_output_adapter@D@__crt_stdio_output@@@2@@__crt_stdio_output@@CAPA_WXZ 004a3cd0 f i libucrtd:output.obj
 0001:000a2ce0       ?wide_null_string@?$output_processor@_WV?$stream_output_adapter@_W@__crt_stdio_output@@V?$format_validation_base@_WV?$stream_output_adapter@_W@__crt_stdio_output@@@2@@__crt_stdio_output@@CAPA_WXZ 004a3ce0 f i libucrtd:output.obj
 0001:000a2cf0       ?wide_null_string@?$output_processor@_WV?$stream_output_adapter@_W@__crt_stdio_output@@V?$positional_parameter_base@_WV?$stream_output_adapter@_W@__crt_stdio_output@@@2@@__crt_stdio_output@@CAPA_WXZ 004a3cf0 f i libucrtd:output.obj
 0001:000a2d00       ?wide_null_string@?$output_processor@_WV?$stream_output_adapter@_W@__crt_stdio_output@@V?$standard_base@_WV?$stream_output_adapter@_W@__crt_stdio_output@@@2@@__crt_stdio_output@@CAPA_WXZ 004a3d00 f i libucrtd:output.obj
 0001:000a2d10       ?wide_null_string@?$output_processor@_WV?$string_output_adapter@_W@__crt_stdio_output@@V?$format_validation_base@_WV?$string_output_adapter@_W@__crt_stdio_output@@@2@@__crt_stdio_output@@CAPA_WXZ 004a3d10 f i libucrtd:output.obj
 0001:000a2d20       ?wide_null_string@?$output_processor@_WV?$string_output_adapter@_W@__crt_stdio_output@@V?$positional_parameter_base@_WV?$string_output_adapter@_W@__crt_stdio_output@@@2@@__crt_stdio_output@@CAPA_WXZ 004a3d20 f i libucrtd:output.obj
 0001:000a2d30       ?wide_null_string@?$output_processor@_WV?$string_output_adapter@_W@__crt_stdio_output@@V?$standard_base@_WV?$string_output_adapter@_W@__crt_stdio_output@@@2@@__crt_stdio_output@@CAPA_WXZ 004a3d30 f i libucrtd:output.obj
 0001:000a2d40       ?write_character@?$stream_output_adapter@D@__crt_stdio_output@@QBEXDQAH@Z 004a3d40 f i libucrtd:output.obj
 0001:000a2de0       ?write_character@?$stream_output_adapter@_W@__crt_stdio_output@@QBEX_WQAH@Z 004a3de0 f i libucrtd:output.obj
 0001:000a2e80       ?write_character@?$string_output_adapter@D@__crt_stdio_output@@QBE_NDQAH@Z 004a3e80 f i libucrtd:output.obj
 0001:000a2f40       ?write_character@?$string_output_adapter@_W@__crt_stdio_output@@QBE_N_WQAH@Z 004a3f40 f i libucrtd:output.obj
 0001:000a3000       ?write_stored_string_tchar@?$output_processor@DV?$stream_output_adapter@D@__crt_stdio_output@@V?$format_validation_base@DV?$stream_output_adapter@D@__crt_stdio_output@@@2@@__crt_stdio_output@@AAE_ND@Z 004a4000 f i libucrtd:output.obj
 0001:000a3150       ?write_stored_string_tchar@?$output_processor@DV?$stream_output_adapter@D@__crt_stdio_output@@V?$positional_parameter_base@DV?$stream_output_adapter@D@__crt_stdio_output@@@2@@__crt_stdio_output@@AAE_ND@Z 004a4150 f i libucrtd:output.obj
 0001:000a32a0       ?write_stored_string_tchar@?$output_processor@DV?$stream_output_adapter@D@__crt_stdio_output@@V?$standard_base@DV?$stream_output_adapter@D@__crt_stdio_output@@@2@@__crt_stdio_output@@AAE_ND@Z 004a42a0 f i libucrtd:output.obj
 0001:000a33f0       ?write_stored_string_tchar@?$output_processor@DV?$string_output_adapter@D@__crt_stdio_output@@V?$format_validation_base@DV?$string_output_adapter@D@__crt_stdio_output@@@2@@__crt_stdio_output@@AAE_ND@Z 004a43f0 f i libucrtd:output.obj
 0001:000a3540       ?write_stored_string_tchar@?$output_processor@DV?$string_output_adapter@D@__crt_stdio_output@@V?$positional_parameter_base@DV?$string_output_adapter@D@__crt_stdio_output@@@2@@__crt_stdio_output@@AAE_ND@Z 004a4540 f i libucrtd:output.obj
 0001:000a3690       ?write_stored_string_tchar@?$output_processor@DV?$string_output_adapter@D@__crt_stdio_output@@V?$standard_base@DV?$string_output_adapter@D@__crt_stdio_output@@@2@@__crt_stdio_output@@AAE_ND@Z 004a4690 f i libucrtd:output.obj
 0001:000a37e0       ?write_stored_string_tchar@?$output_processor@_WV?$stream_output_adapter@_W@__crt_stdio_output@@V?$format_validation_base@_WV?$stream_output_adapter@_W@__crt_stdio_output@@@2@@__crt_stdio_output@@AAE_N_W@Z 004a47e0 f i libucrtd:output.obj
 0001:000a3900       ?write_stored_string_tchar@?$output_processor@_WV?$stream_output_adapter@_W@__crt_stdio_output@@V?$positional_parameter_base@_WV?$stream_output_adapter@_W@__crt_stdio_output@@@2@@__crt_stdio_output@@AAE_N_W@Z 004a4900 f i libucrtd:output.obj
 0001:000a3a20       ?write_stored_string_tchar@?$output_processor@_WV?$stream_output_adapter@_W@__crt_stdio_output@@V?$standard_base@_WV?$stream_output_adapter@_W@__crt_stdio_output@@@2@@__crt_stdio_output@@AAE_N_W@Z 004a4a20 f i libucrtd:output.obj
 0001:000a3b40       ?write_stored_string_tchar@?$output_processor@_WV?$string_output_adapter@_W@__crt_stdio_output@@V?$format_validation_base@_WV?$string_output_adapter@_W@__crt_stdio_output@@@2@@__crt_stdio_output@@AAE_N_W@Z 004a4b40 f i libucrtd:output.obj
 0001:000a3c60       ?write_stored_string_tchar@?$output_processor@_WV?$string_output_adapter@_W@__crt_stdio_output@@V?$positional_parameter_base@_WV?$string_output_adapter@_W@__crt_stdio_output@@@2@@__crt_stdio_output@@AAE_N_W@Z 004a4c60 f i libucrtd:output.obj
 0001:000a3d80       ?write_stored_string_tchar@?$output_processor@_WV?$string_output_adapter@_W@__crt_stdio_output@@V?$standard_base@_WV?$string_output_adapter@_W@__crt_stdio_output@@@2@@__crt_stdio_output@@AAE_N_W@Z 004a4d80 f i libucrtd:output.obj
 0001:000a3ea0       ?write_string@?$stream_output_adapter@D@__crt_stdio_output@@QBEXQBDHQAH1@Z 004a4ea0 f i libucrtd:output.obj
 0001:000a3f80       ?write_string@?$stream_output_adapter@_W@__crt_stdio_output@@QBEXQB_WHQAH1@Z 004a4f80 f i libucrtd:output.obj
 0001:000a4060       ?write_string@?$string_output_adapter@D@__crt_stdio_output@@QBEXQBDHQAH1@Z 004a5060 f i libucrtd:output.obj
 0001:000a41c0       ?write_string@?$string_output_adapter@_W@__crt_stdio_output@@QBEXQB_WHQAH1@Z 004a51c0 f i libucrtd:output.obj
 0001:000a4320       ___acrt_isleadbyte_l_noupdate 004a5320 f i libucrtd:output.obj
 0001:000a4350       ___acrt_locale_changed     004a5350 f i libucrtd:output.obj
 0001:000a4390       ___stdio_common_vfprintf   004a5390 f   libucrtd:output.obj
 0001:000a43c0       ___stdio_common_vfprintf_p 004a53c0 f   libucrtd:output.obj
 0001:000a43f0       ___stdio_common_vfprintf_s 004a53f0 f   libucrtd:output.obj
 0001:000a4420       ___stdio_common_vfwprintf  004a5420 f   libucrtd:output.obj
 0001:000a4450       ___stdio_common_vfwprintf_p 004a5450 f   libucrtd:output.obj
 0001:000a4480       ___stdio_common_vfwprintf_s 004a5480 f   libucrtd:output.obj
 0001:000a44b0       ___stdio_common_vsnprintf_s 004a54b0 f   libucrtd:output.obj
 0001:000a44f0       ___stdio_common_vsnwprintf_s 004a54f0 f   libucrtd:output.obj
 0001:000a4530       ___stdio_common_vsprintf   004a5530 f   libucrtd:output.obj
 0001:000a4570       ___stdio_common_vsprintf_p 004a5570 f   libucrtd:output.obj
 0001:000a45b0       ___stdio_common_vsprintf_s 004a55b0 f   libucrtd:output.obj
 0001:000a45f0       ___stdio_common_vswprintf  004a55f0 f   libucrtd:output.obj
 0001:000a4630       ___stdio_common_vswprintf_p 004a5630 f   libucrtd:output.obj
 0001:000a4670       ___stdio_common_vswprintf_s 004a5670 f   libucrtd:output.obj
 0001:000a46b0       ??$is_overflow_condition@K@__crt_strtox@@YA_NIK@Z 004a56b0 f i libucrtd:strtox.obj
 0001:000a4720       ??$is_overflow_condition@_K@__crt_strtox@@YA_NI_K@Z 004a5720 f i libucrtd:strtox.obj
 0001:000a47d0       ??$make_c_string_character_source@DPAPAD@__crt_strtox@@YA?AV?$c_string_character_source@D@0@QBDQAPAD@Z 004a57d0 f i libucrtd:strtox.obj
 0001:000a47f0       ??$make_c_string_character_source@_WPAPA_W@__crt_strtox@@YA?AV?$c_string_character_source@_W@0@QB_WQAPA_W@Z 004a57f0 f i libucrtd:strtox.obj
 0001:000a4810       ??$parse_integer@KV?$c_string_character_source@D@__crt_strtox@@@__crt_strtox@@YAKQAU__crt_locale_pointers@@V?$c_string_character_source@D@0@H_N@Z 004a5810 f i libucrtd:strtox.obj
 0001:000a4c60       ??$parse_integer@KV?$c_string_character_source@_W@__crt_strtox@@@__crt_strtox@@YAKQAU__crt_locale_pointers@@V?$c_string_character_source@_W@0@H_N@Z 004a5c60 f i libucrtd:strtox.obj
 0001:000a50b0       ??$parse_integer@_KV?$c_string_character_source@D@__crt_strtox@@@__crt_strtox@@YA_KQAU__crt_locale_pointers@@V?$c_string_character_source@D@0@H_N@Z 004a60b0 f i libucrtd:strtox.obj
 0001:000a55d0       ??$parse_integer@_KV?$c_string_character_source@_W@__crt_strtox@@@__crt_strtox@@YA_KQAU__crt_locale_pointers@@V?$c_string_character_source@_W@0@H_N@Z 004a65d0 f i libucrtd:strtox.obj
 0001:000a5b10       ??$parse_integer_from_string@JDPAPAD@__crt_strtox@@YAJQBDQAPADHQAU__crt_locale_pointers@@@Z 004a6b10 f i libucrtd:strtox.obj
 0001:000a5b60       ??$parse_integer_from_string@J_WPAPA_W@__crt_strtox@@YAJQB_WQAPA_WHQAU__crt_locale_pointers@@@Z 004a6b60 f i libucrtd:strtox.obj
 0001:000a5bb0       ??$parse_integer_from_string@KDPAPAD@__crt_strtox@@YAKQBDQAPADHQAU__crt_locale_pointers@@@Z 004a6bb0 f i libucrtd:strtox.obj
 0001:000a5c00       ??$parse_integer_from_string@K_WPAPA_W@__crt_strtox@@YAKQB_WQAPA_WHQAU__crt_locale_pointers@@@Z 004a6c00 f i libucrtd:strtox.obj
 0001:000a5c50       ??$parse_integer_from_string@_JDPAPAD@__crt_strtox@@YA_JQBDQAPADHQAU__crt_locale_pointers@@@Z 004a6c50 f i libucrtd:strtox.obj
 0001:000a5ca0       ??$parse_integer_from_string@_J_WPAPA_W@__crt_strtox@@YA_JQB_WQAPA_WHQAU__crt_locale_pointers@@@Z 004a6ca0 f i libucrtd:strtox.obj
 0001:000a5cf0       ??$parse_integer_from_string@_KDPAPAD@__crt_strtox@@YA_KQBDQAPADHQAU__crt_locale_pointers@@@Z 004a6cf0 f i libucrtd:strtox.obj
 0001:000a5d40       ??$parse_integer_from_string@_K_WPAPA_W@__crt_strtox@@YA_KQB_WQAPA_WHQAU__crt_locale_pointers@@@Z 004a6d40 f i libucrtd:strtox.obj
 0001:000a5d90       ??0?$c_string_character_source@D@__crt_strtox@@QAE@QBDQAPBD@Z 004a6d90 f i libucrtd:strtox.obj
 0001:000a5dd0       ??0?$c_string_character_source@_W@__crt_strtox@@QAE@QB_WQAPB_W@Z 004a6dd0 f i libucrtd:strtox.obj
 0001:000a5e10       ??1?$c_string_character_source@D@__crt_strtox@@QAE@XZ 004a6e10 f i libucrtd:strtox.obj
 0001:000a5e40       ??1?$c_string_character_source@_W@__crt_strtox@@QAE@XZ 004a6e40 f i libucrtd:strtox.obj
 0001:000a5e70       ?get@?$c_string_character_source@D@__crt_strtox@@QAEDXZ 004a6e70 f i libucrtd:strtox.obj
 0001:000a5eb0       ?get@?$c_string_character_source@_W@__crt_strtox@@QAE_WXZ 004a6eb0 f i libucrtd:strtox.obj
 0001:000a5ef0       ?is_space@__crt_strtox@@YA_NDQAU__crt_locale_pointers@@@Z 004a6ef0 f i libucrtd:strtox.obj
 0001:000a5f40       ?is_space@__crt_strtox@@YA_N_WPAU__crt_locale_pointers@@@Z 004a6f40 f i libucrtd:strtox.obj
 0001:000a5f80       ?maximum_signed_value@__crt_strtox@@YAJK@Z 004a6f80 f i libucrtd:strtox.obj
 0001:000a5f90       ?maximum_signed_value@__crt_strtox@@YA_J_K@Z 004a6f90 f i libucrtd:strtox.obj
 0001:000a5fb0       ?minimum_signed_value@__crt_strtox@@YAJK@Z 004a6fb0 f i libucrtd:strtox.obj
 0001:000a5fc0       ?minimum_signed_value@__crt_strtox@@YA_J_K@Z 004a6fc0 f i libucrtd:strtox.obj
 0001:000a5fe0       ?parse_digit@__crt_strtox@@YAID@Z 004a6fe0 f i libucrtd:strtox.obj
 0001:000a6060       ?parse_digit@__crt_strtox@@YAI_W@Z 004a7060 f i libucrtd:strtox.obj
 0001:000a6100       ?restore_state@?$c_string_character_source@D@__crt_strtox@@QAE_NQBD@Z 004a7100 f i libucrtd:strtox.obj
 0001:000a6120       ?restore_state@?$c_string_character_source@_W@__crt_strtox@@QAE_NQB_W@Z 004a7120 f i libucrtd:strtox.obj
 0001:000a6140       ?save_state@?$c_string_character_source@D@__crt_strtox@@QBEPBDXZ 004a7140 f i libucrtd:strtox.obj
 0001:000a6160       ?save_state@?$c_string_character_source@_W@__crt_strtox@@QBEPB_WXZ 004a7160 f i libucrtd:strtox.obj
 0001:000a6180       ?unget@?$c_string_character_source@D@__crt_strtox@@QAEXD@Z 004a7180 f i libucrtd:strtox.obj
 0001:000a6250       ?unget@?$c_string_character_source@_W@__crt_strtox@@QAEX_W@Z 004a7250 f i libucrtd:strtox.obj
 0001:000a6320       ?validate@?$c_string_character_source@D@__crt_strtox@@QBE_NXZ 004a7320 f i libucrtd:strtox.obj
 0001:000a63e0       ?validate@?$c_string_character_source@_W@__crt_strtox@@QBE_NXZ 004a73e0 f i libucrtd:strtox.obj
 0001:000a64a0       ?wide_character_to_digit@__crt_strtox@@YAH_W@Z 004a74a0 f i libucrtd:strtox.obj
 0001:000a6890       ___acrt_get_locale_data_prefix 004a7890 f i libucrtd:strtox.obj
 0001:000a68b0       __chvalidchk_l             004a78b0 f i libucrtd:strtox.obj
 0001:000a68e0       __ischartype_l             004a78e0 f i libucrtd:strtox.obj
 0001:000a6940       __strtoi64                 004a7940 f   libucrtd:strtox.obj
 0001:000a6970       __strtoi64_l               004a7970 f   libucrtd:strtox.obj
 0001:000a69a0       __strtoimax_l              004a79a0 f   libucrtd:strtox.obj
 0001:000a69d0       __strtol_l                 004a79d0 f   libucrtd:strtox.obj
 0001:000a6a00       __strtoll_l                004a7a00 f   libucrtd:strtox.obj
 0001:000a6a30       __strtoui64                004a7a30 f   libucrtd:strtox.obj
 0001:000a6a60       __strtoui64_l              004a7a60 f   libucrtd:strtox.obj
 0001:000a6a90       __strtoul_l                004a7a90 f   libucrtd:strtox.obj
 0001:000a6ac0       __strtoull_l               004a7ac0 f   libucrtd:strtox.obj
 0001:000a6af0       __strtoumax_l              004a7af0 f   libucrtd:strtox.obj
 0001:000a6b20       __wcstoi64                 004a7b20 f   libucrtd:strtox.obj
 0001:000a6b50       __wcstoi64_l               004a7b50 f   libucrtd:strtox.obj
 0001:000a6b80       __wcstoimax_l              004a7b80 f   libucrtd:strtox.obj
 0001:000a6bb0       __wcstol_l                 004a7bb0 f   libucrtd:strtox.obj
 0001:000a6be0       __wcstoll_l                004a7be0 f   libucrtd:strtox.obj
 0001:000a6c10       __wcstoui64                004a7c10 f   libucrtd:strtox.obj
 0001:000a6c40       __wcstoui64_l              004a7c40 f   libucrtd:strtox.obj
 0001:000a6c70       __wcstoul_l                004a7c70 f   libucrtd:strtox.obj
 0001:000a6ca0       __wcstoull_l               004a7ca0 f   libucrtd:strtox.obj
 0001:000a6cd0       __wcstoumax_l              004a7cd0 f   libucrtd:strtox.obj
 0001:000a6d00       _strtoimax                 004a7d00 f   libucrtd:strtox.obj
 0001:000a6d30       _strtol                    004a7d30 f   libucrtd:strtox.obj
 0001:000a6d60       _strtoll                   004a7d60 f   libucrtd:strtox.obj
 0001:000a6d90       _strtoul                   004a7d90 f   libucrtd:strtox.obj
 0001:000a6dc0       _strtoull                  004a7dc0 f   libucrtd:strtox.obj
 0001:000a6df0       _strtoumax                 004a7df0 f   libucrtd:strtox.obj
 0001:000a6e20       _wcstoimax                 004a7e20 f   libucrtd:strtox.obj
 0001:000a6e50       _wcstol                    004a7e50 f   libucrtd:strtox.obj
 0001:000a6e80       _wcstoll                   004a7e80 f   libucrtd:strtox.obj
 0001:000a6eb0       _wcstoul                   004a7eb0 f   libucrtd:strtox.obj
 0001:000a6ee0       _wcstoull                  004a7ee0 f   libucrtd:strtox.obj
 0001:000a6f10       _wcstoumax                 004a7f10 f   libucrtd:strtox.obj
 0001:000a6f40       ??$__vcrt_va_start_verify_argument_type@QB_W@@YAXXZ 004a7f40 f i libucrtd:assert.obj
 0001:000a9080       ??$ftprintf@PAU_iobuf@@PBDABQBDABQBDABI@?$__crt_char_traits@D@@SAH$$QAPAU_iobuf@@$$QAPBDABQBD2ABI@Z 004aa080 f i libucrtd:assert.obj
 0001:000a90c0       ??$ftprintf@PAU_iobuf@@PB_WABQB_WABQB_WABI@?$__crt_char_traits@_W@@SAH$$QAPAU_iobuf@@$$QAPB_WABQB_W2ABI@Z 004aa0c0 f i libucrtd:assert.obj
 0001:000a9100       ??$get_module_file_name@AAPAUHINSTANCE__@@AAY0BAF@DK@?$__crt_char_traits@D@@SAKAAPAUHINSTANCE__@@AAY0BAF@D$$QAK@Z 004aa100 f i libucrtd:assert.obj
 0001:000a9130       ??$get_module_file_name@AAPAUHINSTANCE__@@AAY0BAF@_WK@?$__crt_char_traits@_W@@SAKAAPAUHINSTANCE__@@AAY0BAF@_W$$QAK@Z 004aa130 f i libucrtd:assert.obj
 0001:000a9160       ??$itot_s@ABIQAD$$CBIH@?$__crt_char_traits@D@@SAHABI$$QBQAD$$QBI$$QAH@Z 004aa160 f i libucrtd:assert.obj
 0001:000a9190       ??$itot_s@ABIQA_W$$CBIH@?$__crt_char_traits@_W@@SAHABI$$QBQA_W$$QBI$$QAH@Z 004aa190 f i libucrtd:assert.obj
 0001:000a91c0       ??$show_message_box@AAY0CEA@DPBDJ@?$__crt_char_traits@D@@SAHAAY0CEA@D$$QAPBD$$QAJ@Z 004aa1c0 f i libucrtd:assert.obj
 0001:000a91f0       ??$show_message_box@AAY0CEA@_WPB_WJ@?$__crt_char_traits@_W@@SAHAAY0CEA@_W$$QAPB_W$$QAJ@Z 004aa1f0 f i libucrtd:assert.obj
 0001:000a9220       ??$tcscat_s@ABQADABIAAPAD@?$__crt_char_traits@D@@SAHABQADABIAAPAD@Z 004aa220 f i libucrtd:assert.obj
 0001:000a9250       ??$tcscat_s@ABQADABIABQBD@?$__crt_char_traits@D@@SAHABQADABIABQBD@Z 004aa250 f i libucrtd:assert.obj
 0001:000a9280       ??$tcscat_s@ABQADABIPBD@?$__crt_char_traits@D@@SAHABQADABI$$QAPBD@Z 004aa280 f i libucrtd:assert.obj
 0001:000a92b0       ??$tcscat_s@ABQA_WABIAAPA_W@?$__crt_char_traits@_W@@SAHABQA_WABIAAPA_W@Z 004aa2b0 f i libucrtd:assert.obj
 0001:000a92e0       ??$tcscat_s@ABQA_WABIABQB_W@?$__crt_char_traits@_W@@SAHABQA_WABIABQB_W@Z 004aa2e0 f i libucrtd:assert.obj
 0001:000a9310       ??$tcscat_s@ABQA_WABIPB_W@?$__crt_char_traits@_W@@SAHABQA_WABI$$QAPB_W@Z 004aa310 f i libucrtd:assert.obj
 0001:000a9340       ??$tcscpy_s@AAY0BAF@DIPBD@?$__crt_char_traits@D@@SAHAAY0BAF@D$$QAI$$QAPBD@Z 004aa340 f i libucrtd:assert.obj
 0001:000a9370       ??$tcscpy_s@AAY0BAF@_WIPB_W@?$__crt_char_traits@_W@@SAHAAY0BAF@_W$$QAI$$QAPB_W@Z 004aa370 f i libucrtd:assert.obj
 0001:000a93a0       ??$tcscpy_s@ABQADABIPBD@?$__crt_char_traits@D@@SAHABQADABI$$QAPBD@Z 004aa3a0 f i libucrtd:assert.obj
 0001:000a93d0       ??$tcscpy_s@ABQA_WABIPB_W@?$__crt_char_traits@_W@@SAHABQA_WABI$$QAPB_W@Z 004aa3d0 f i libucrtd:assert.obj
 0001:000a9400       ??$tcslen@AAY0BAF@D@?$__crt_char_traits@D@@SAIAAY0BAF@D@Z 004aa400 f i libucrtd:assert.obj
 0001:000a9420       ??$tcslen@AAY0BAF@_W@?$__crt_char_traits@_W@@SAIAAY0BAF@_W@Z 004aa420 f i libucrtd:assert.obj
 0001:000a9440       ??$tcslen@ABQAD@?$__crt_char_traits@D@@SAIABQAD@Z 004aa440 f i libucrtd:assert.obj
 0001:000a9460       ??$tcslen@ABQA_W@?$__crt_char_traits@_W@@SAIABQA_W@Z 004aa460 f i libucrtd:assert.obj
 0001:000a9480       ??$tcslen@ABQBD@?$__crt_char_traits@D@@SAIABQBD@Z 004aa480 f i libucrtd:assert.obj
 0001:000a94a0       ??$tcslen@ABQB_W@?$__crt_char_traits@_W@@SAIABQB_W@Z 004aa4a0 f i libucrtd:assert.obj
 0001:000a94c0       ??$tcsncat_s@ABQADABIAAPBD$$CBI@?$__crt_char_traits@D@@SAHABQADABIAAPBD$$QBI@Z 004aa4c0 f i libucrtd:assert.obj
 0001:000a94f0       ??$tcsncat_s@ABQADABIABQBDABI@?$__crt_char_traits@D@@SAHABQADABIABQBD1@Z 004aa4f0 f i libucrtd:assert.obj
 0001:000a9520       ??$tcsncat_s@ABQADABIPBD$$CBI@?$__crt_char_traits@D@@SAHABQADABI$$QAPBD$$QBI@Z 004aa520 f i libucrtd:assert.obj
 0001:000a9550       ??$tcsncat_s@ABQA_WABIAAPB_W$$CBI@?$__crt_char_traits@_W@@SAHABQA_WABIAAPB_W$$QBI@Z 004aa550 f i libucrtd:assert.obj
 0001:000a9580       ??$tcsncat_s@ABQA_WABIABQB_WABI@?$__crt_char_traits@_W@@SAHABQA_WABIABQB_W1@Z 004aa580 f i libucrtd:assert.obj
 0001:000a95b0       ??$tcsncat_s@ABQA_WABIPB_W$$CBI@?$__crt_char_traits@_W@@SAHABQA_WABI$$QAPB_W$$QBI@Z 004aa5b0 f i libucrtd:assert.obj
 0001:000a98b0       ?has_any_buffer@__crt_stdio_stream@@QBE_NXZ 004aa8b0 f i libucrtd:assert.obj
 0001:000a98d0       ?has_any_of@__crt_stdio_stream@@QBE_NJ@Z 004aa8d0 f i libucrtd:assert.obj
 0001:000a9910       __assert                   004aa910 f   libucrtd:assert.obj
 0001:000a9940       __invoke_watson_if_error   004aa940 f i libucrtd:assert.obj
 0001:000a9980       __vfwprintf_l              004aa980 f i libucrtd:assert.obj
 0001:000a99c0       __vswprintf_c_l            004aa9c0 f i libucrtd:assert.obj
 0001:000a9a30       __wassert                  004aaa30 f   libucrtd:assert.obj
 0001:000a9a60       _fprintf                   004aaa60 f i libucrtd:assert.obj
 0001:000a9ab0       _fwprintf                  004aaab0 f i libucrtd:assert.obj
 0001:000a9c50       _swprintf                  004aac50 f i libucrtd:assert.obj
 0001:000a9ca0       _strlen                    004aaca0 f   libucrtd:strlen.obj
 0001:000a9d50       _strcpy                    004aad50 f   libucrtd:strcat.obj
 0001:000a9d60       _strcat                    004aad60 f   libucrtd:strcat.obj
 0001:000a9e90       _strncpy                   004aae90 f   libucrtd:strncpy.obj
 0001:000aa000       ___ascii_stricmp           004ab000 f   libucrtd:stricmp.obj
 0001:000aa0a0       __stricmp                  004ab0a0 f   libucrtd:stricmp.obj
 0001:000aa230       __stricmp_l                004ab230 f   libucrtd:stricmp.obj
 0001:000aa4b0       ___isascii                 004ab4b0 f i libucrtd:_ctype.obj
 0001:000aa4e0       ___iscsym                  004ab4e0 f i libucrtd:_ctype.obj
 0001:000aa530       ___iscsymf                 004ab530 f i libucrtd:_ctype.obj
 0001:000aa570       ___toascii                 004ab570 f i libucrtd:_ctype.obj
 0001:000aa580       __isalnum_l                004ab580 f i libucrtd:_ctype.obj
 0001:000aa5d0       __isalpha_l                004ab5d0 f i libucrtd:_ctype.obj
 0001:000aa620       __isblank_l                004ab620 f i libucrtd:_ctype.obj
 0001:000aa690       __iscntrl_l                004ab690 f i libucrtd:_ctype.obj
 0001:000aa6e0       __iscsym_l                 004ab6e0 f i libucrtd:_ctype.obj
 0001:000aa730       __iscsymf_l                004ab730 f i libucrtd:_ctype.obj
 0001:000aa780       __isdigit_l                004ab780 f i libucrtd:_ctype.obj
 0001:000aa7d0       __isgraph_l                004ab7d0 f i libucrtd:_ctype.obj
 0001:000aa820       __islower_l                004ab820 f i libucrtd:_ctype.obj
 0001:000aa870       __isprint_l                004ab870 f i libucrtd:_ctype.obj
 0001:000aa8c0       __ispunct_l                004ab8c0 f i libucrtd:_ctype.obj
 0001:000aa910       __isspace_l                004ab910 f i libucrtd:_ctype.obj
 0001:000aa960       __isupper_l                004ab960 f i libucrtd:_ctype.obj
 0001:000aa9b0       __isxdigit_l               004ab9b0 f i libucrtd:_ctype.obj
 0001:000aaa00       _isalnum                   004aba00 f i libucrtd:_ctype.obj
 0001:000aaa50       _isalpha                   004aba50 f i libucrtd:_ctype.obj
 0001:000aaaa0       _isblank                   004abaa0 f i libucrtd:_ctype.obj
 0001:000aab10       _iscntrl                   004abb10 f i libucrtd:_ctype.obj
 0001:000aab60       _isdigit                   004abb60 f i libucrtd:_ctype.obj
 0001:000aabb0       _isgraph                   004abbb0 f i libucrtd:_ctype.obj
 0001:000aac00       _islower                   004abc00 f i libucrtd:_ctype.obj
 0001:000aac50       _isprint                   004abc50 f i libucrtd:_ctype.obj
 0001:000aaca0       _ispunct                   004abca0 f i libucrtd:_ctype.obj
 0001:000aacf0       _isspace                   004abcf0 f i libucrtd:_ctype.obj
 0001:000aad40       _isupper                   004abd40 f i libucrtd:_ctype.obj
 0001:000aad90       _isxdigit                  004abd90 f i libucrtd:_ctype.obj
 0001:000aade0       _cos                       004abde0 f   libucrtd:cos.obj
 0001:000aae20       __CIcos                    004abe20 f   libucrtd:cos.obj
 0001:000aae5b       __CIcos_default            004abe5b f   libucrtd:cos.obj
 0001:000aae6f       __cos_default              004abe6f     libucrtd:cos.obj
 0001:000aaf50       _strcmp                    004abf50 f   libucrtd:strcmp.obj
 0001:000ab000       _strncmp                   004ac000 f   libucrtd:strncmp.obj
 0001:000ab0a0       __strnicmp                 004ac0a0 f   libucrtd:strnicmp.obj
 0001:000ab2e0       __strnicmp_l               004ac2e0 f   libucrtd:strnicmp.obj
 0001:000ab610       _free                      004ac610 f   libucrtd:free.obj
 0001:000ab630       _malloc                    004ac630 f   libucrtd:malloc.obj
 0001:000ab650       _fmod                      004ac650 f   libucrtd:87fmod.obj
 0001:000ab65a       __CIfmod                   004ac65a f   libucrtd:87fmod.obj
 0001:000ab680       _rand                      004ac680 f   libucrtd:rand.obj
 0001:000ab6d0       _srand                     004ac6d0 f   libucrtd:rand.obj
 0001:000ab6f0       _calloc                    004ac6f0 f   libucrtd:calloc.obj
 0001:000ab720       _exp                       004ac720 f   libucrtd:87ctran.obj
 0001:000ab75c       __CIexp                    004ac75c f   libucrtd:87ctran.obj
 0001:000ab797       __exp_default              004ac797 f   libucrtd:87ctran.obj
 0001:000ab7a1       __CIexp_default            004ac7a1 f   libucrtd:87ctran.obj
 0001:000ab7d0       __CIsqrt                   004ac7d0 f   libucrtd:sqrt.obj
 0001:000ab7e4       _sqrt                      004ac7e4     libucrtd:sqrt.obj
 0001:000ab8c0       _floor                     004ac8c0 f   libucrtd:floor_pentium4.obj
 0001:000ab900       __floor_pentium4           004ac900 f   libucrtd:floor_pentium4.obj
 0001:000aba00       _pow                       004aca00 f   libucrtd:pow.obj
 0001:000aba40       __CIpow                    004aca40 f   libucrtd:pow.obj
 0001:000aba7b       __CIpow_default            004aca7b f   libucrtd:pow.obj
 0001:000aba94       __pow_default              004aca94     libucrtd:pow.obj
 0001:000abd30       _sin                       004acd30 f   libucrtd:sin.obj
 0001:000abd70       __CIsin                    004acd70 f   libucrtd:sin.obj
 0001:000abdab       __CIsin_default            004acdab f   libucrtd:sin.obj
 0001:000abdbf       __sin_default              004acdbf     libucrtd:sin.obj
 0001:000abea0       _fabs                      004acea0 f   libucrtd:fabs.obj
 0001:000abfc0       _log                       004acfc0 f   libucrtd:log.obj
 0001:000ac000       __CIlog                    004ad000 f   libucrtd:log.obj
 0001:000ac03b       __CIlog_default            004ad03b f   libucrtd:log.obj
 0001:000ac04f       __log_default              004ad04f     libucrtd:log.obj
 0001:000ac170       _atan                      004ad170 f   libucrtd:atan.obj
 0001:000ac1b0       __CIatan                   004ad1b0 f   libucrtd:atan.obj
 0001:000ac1eb       __CIatan_default           004ad1eb f   libucrtd:atan.obj
 0001:000ac1ff       __atan_default             004ad1ff     libucrtd:atan.obj
 0001:000ac2d0       ??$?RE@__crt_internal_free_policy@@QBEXQBE@Z 004ad2d0 f i libucrtd:input.obj
 0001:000ac300       ??$?RV<lambda_948e0c831b1eafdf53315a00da3ad7eb>@@AAV<lambda_d82aded7e80d0a2836af81596bef263e>@@V<lambda_9cb36f98846f17dfe48cc7d4c6a6fede>@@@?$__crt_seh_guarded_call@H@@QAEH$$QAV<lambda_948e0c831b1eafdf53315a00da3ad7eb>@@AAV<lambda_d82aded7e80d0a2836af81596bef263e>@@$$QAV<lambda_9cb36f98846f17dfe48cc7d4c6a6fede>@@@Z 004ad300 f i libucrtd:input.obj
 0001:000ac3b0       ??$?RV<lambda_b2dcf338b0e219a5074585f260684782>@@AAV<lambda_6fdb08bd0ff691e43d1ecc2572ab5652>@@V<lambda_fd2d199f52d43ed278b48825f4913de8>@@@?$__crt_seh_guarded_call@H@@QAEH$$QAV<lambda_b2dcf338b0e219a5074585f260684782>@@AAV<lambda_6fdb08bd0ff691e43d1ecc2572ab5652>@@$$QAV<lambda_fd2d199f52d43ed278b48825f4913de8>@@@Z 004ad3b0 f i libucrtd:input.obj
 0001:000ac460       ??$__acrt_lock_stream_and_call@V<lambda_6fdb08bd0ff691e43d1ecc2572ab5652>@@@@YAHQAU_iobuf@@$$QAV<lambda_6fdb08bd0ff691e43d1ecc2572ab5652>@@@Z 004ad460 f i libucrtd:input.obj
 0001:000ac4b0       ??$__acrt_lock_stream_and_call@V<lambda_d82aded7e80d0a2836af81596bef263e>@@@@YAHQAU_iobuf@@$$QAV<lambda_d82aded7e80d0a2836af81596bef263e>@@@Z 004ad4b0 f i libucrtd:input.obj
 0001:000ac500       ??$assemble_floating_point_ind@M@__crt_strtox@@YAXAAM@Z 004ad500 f i libucrtd:input.obj
 0001:000ac560       ??$assemble_floating_point_ind@N@__crt_strtox@@YAXAAN@Z 004ad560 f i libucrtd:input.obj
 0001:000ac5d0       ??$assemble_floating_point_infinity@M@__crt_strtox@@YAX_NAAM@Z 004ad5d0 f i libucrtd:input.obj
 0001:000ac650       ??$assemble_floating_point_infinity@N@__crt_strtox@@YAX_NAAN@Z 004ad650 f i libucrtd:input.obj
 0001:000ac700       ??$assemble_floating_point_qnan@M@__crt_strtox@@YAX_NAAM@Z 004ad700 f i libucrtd:input.obj
 0001:000ac780       ??$assemble_floating_point_qnan@N@__crt_strtox@@YAX_NAAN@Z 004ad780 f i libucrtd:input.obj
 0001:000ac830       ??$assemble_floating_point_snan@M@__crt_strtox@@YAX_NAAM@Z 004ad830 f i libucrtd:input.obj
 0001:000ac8c0       ??$assemble_floating_point_snan@N@__crt_strtox@@YAX_NAAN@Z 004ad8c0 f i libucrtd:input.obj
 0001:000ac970       ??$assemble_floating_point_value_t@M@__crt_strtox@@YA?AW4SLD_STATUS@@_NH_KAAM@Z 004ad970 f i libucrtd:input.obj
 0001:000aca00       ??$assemble_floating_point_value_t@N@__crt_strtox@@YA?AW4SLD_STATUS@@_NH_KAAN@Z 004ada00 f i libucrtd:input.obj
 0001:000acad0       ??$assemble_floating_point_zero@M@__crt_strtox@@YAX_NAAM@Z 004adad0 f i libucrtd:input.obj
 0001:000acb50       ??$assemble_floating_point_zero@N@__crt_strtox@@YAX_NAAN@Z 004adb50 f i libucrtd:input.obj
 0001:000ad310       ??$convert_decimal_string_to_floating_type@M@__crt_strtox@@YA?AW4SLD_STATUS@@ABUfloating_point_string@0@AAM@Z 004ae310 f i libucrtd:input.obj
 0001:000ad340       ??$convert_decimal_string_to_floating_type@N@__crt_strtox@@YA?AW4SLD_STATUS@@ABUfloating_point_string@0@AAN@Z 004ae340 f i libucrtd:input.obj
 0001:000ad370       ??$convert_hexadecimal_string_to_floating_type@M@__crt_strtox@@YA?AW4SLD_STATUS@@ABUfloating_point_string@0@AAM@Z 004ae370 f i libucrtd:input.obj
 0001:000ad3a0       ??$convert_hexadecimal_string_to_floating_type@N@__crt_strtox@@YA?AW4SLD_STATUS@@ABUfloating_point_string@0@AAN@Z 004ae3a0 f i libucrtd:input.obj
 0001:000ad3d0       ??$fill_buffer@D@?$input_processor@DV?$stream_input_adapter@D@__crt_stdio_input@@@__crt_stdio_input@@CAXQADII@Z 004ae3d0 f i libucrtd:input.obj
 0001:000ad470       ??$fill_buffer@D@?$input_processor@DV?$string_input_adapter@D@__crt_stdio_input@@@__crt_stdio_input@@CAXQADII@Z 004ae470 f i libucrtd:input.obj
 0001:000ad510       ??$fill_buffer@D@?$input_processor@_WV?$stream_input_adapter@_W@__crt_stdio_input@@@__crt_stdio_input@@CAXQADII@Z 004ae510 f i libucrtd:input.obj
 0001:000ad5b0       ??$fill_buffer@D@?$input_processor@_WV?$string_input_adapter@_W@__crt_stdio_input@@@__crt_stdio_input@@CAXQADII@Z 004ae5b0 f i libucrtd:input.obj
 0001:000ad650       ??$fill_buffer@_W@?$input_processor@DV?$stream_input_adapter@D@__crt_stdio_input@@@__crt_stdio_input@@CAXQA_WII@Z 004ae650 f i libucrtd:input.obj
 0001:000ad6f0       ??$fill_buffer@_W@?$input_processor@DV?$string_input_adapter@D@__crt_stdio_input@@@__crt_stdio_input@@CAXQA_WII@Z 004ae6f0 f i libucrtd:input.obj
 0001:000ad790       ??$fill_buffer@_W@?$input_processor@_WV?$stream_input_adapter@_W@__crt_stdio_input@@@__crt_stdio_input@@CAXQA_WII@Z 004ae790 f i libucrtd:input.obj
 0001:000ad830       ??$fill_buffer@_W@?$input_processor@_WV?$string_input_adapter@_W@__crt_stdio_input@@@__crt_stdio_input@@CAXQA_WII@Z 004ae830 f i libucrtd:input.obj
 0001:000ad8d0       ??$istspace@ABE@?$__crt_char_traits@D@@SAHABE@Z 004ae8d0 f i libucrtd:input.obj
 0001:000ad8f0       ??$istspace@AB_W@?$__crt_char_traits@_W@@SAHAB_W@Z 004ae8f0 f i libucrtd:input.obj
 0001:000ad910       ??$make_input_adapter_character_source@V?$stream_input_adapter@D@__crt_stdio_input@@@__crt_strtox@@YA?AV?$input_adapter_character_source@V?$stream_input_adapter@D@__crt_stdio_input@@@0@QAV?$stream_input_adapter@D@__crt_stdio_input@@_KQA_N@Z 004ae910 f i libucrtd:input.obj
 0001:000ad940       ??$make_input_adapter_character_source@V?$stream_input_adapter@_W@__crt_stdio_input@@@__crt_strtox@@YA?AV?$input_adapter_character_source@V?$stream_input_adapter@_W@__crt_stdio_input@@@0@QAV?$stream_input_adapter@_W@__crt_stdio_input@@_KQA_N@Z 004ae940 f i libucrtd:input.obj
 0001:000ad970       ??$make_input_adapter_character_source@V?$string_input_adapter@D@__crt_stdio_input@@@__crt_strtox@@YA?AV?$input_adapter_character_source@V?$string_input_adapter@D@__crt_stdio_input@@@0@QAV?$string_input_adapter@D@__crt_stdio_input@@_KQA_N@Z 004ae970 f i libucrtd:input.obj
 0001:000ad9a0       ??$make_input_adapter_character_source@V?$string_input_adapter@_W@__crt_stdio_input@@@__crt_strtox@@YA?AV?$input_adapter_character_source@V?$string_input_adapter@_W@__crt_stdio_input@@@0@QAV?$string_input_adapter@_W@__crt_stdio_input@@_KQA_N@Z 004ae9a0 f i libucrtd:input.obj
 0001:000ad9d0       ??$parse_floating_point@V?$input_adapter_character_source@V?$stream_input_adapter@D@__crt_stdio_input@@@__crt_strtox@@M@__crt_strtox@@YA?AW4SLD_STATUS@@QAU__crt_locale_pointers@@V?$input_adapter_character_source@V?$stream_input_adapter@D@__crt_stdio_input@@@0@QAM@Z 004ae9d0 f i libucrtd:input.obj
 0001:000adc00       ??$parse_floating_point@V?$input_adapter_character_source@V?$stream_input_adapter@D@__crt_stdio_input@@@__crt_strtox@@N@__crt_strtox@@YA?AW4SLD_STATUS@@QAU__crt_locale_pointers@@V?$input_adapter_character_source@V?$stream_input_adapter@D@__crt_stdio_input@@@0@QAN@Z 004aec00 f i libucrtd:input.obj
 0001:000ade30       ??$parse_floating_point@V?$input_adapter_character_source@V?$stream_input_adapter@_W@__crt_stdio_input@@@__crt_strtox@@M@__crt_strtox@@YA?AW4SLD_STATUS@@QAU__crt_locale_pointers@@V?$input_adapter_character_source@V?$stream_input_adapter@_W@__crt_stdio_input@@@0@QAM@Z 004aee30 f i libucrtd:input.obj
 0001:000ae060       ??$parse_floating_point@V?$input_adapter_character_source@V?$stream_input_adapter@_W@__crt_stdio_input@@@__crt_strtox@@N@__crt_strtox@@YA?AW4SLD_STATUS@@QAU__crt_locale_pointers@@V?$input_adapter_character_source@V?$stream_input_adapter@_W@__crt_stdio_input@@@0@QAN@Z 004af060 f i libucrtd:input.obj
 0001:000ae290       ??$parse_floating_point@V?$input_adapter_character_source@V?$string_input_adapter@D@__crt_stdio_input@@@__crt_strtox@@M@__crt_strtox@@YA?AW4SLD_STATUS@@QAU__crt_locale_pointers@@V?$input_adapter_character_source@V?$string_input_adapter@D@__crt_stdio_input@@@0@QAM@Z 004af290 f i libucrtd:input.obj
 0001:000ae4c0       ??$parse_floating_point@V?$input_adapter_character_source@V?$string_input_adapter@D@__crt_stdio_input@@@__crt_strtox@@N@__crt_strtox@@YA?AW4SLD_STATUS@@QAU__crt_locale_pointers@@V?$input_adapter_character_source@V?$string_input_adapter@D@__crt_stdio_input@@@0@QAN@Z 004af4c0 f i libucrtd:input.obj
 0001:000ae6f0       ??$parse_floating_point@V?$input_adapter_character_source@V?$string_input_adapter@_W@__crt_stdio_input@@@__crt_strtox@@M@__crt_strtox@@YA?AW4SLD_STATUS@@QAU__crt_locale_pointers@@V?$input_adapter_character_source@V?$string_input_adapter@_W@__crt_stdio_input@@@0@QAM@Z 004af6f0 f i libucrtd:input.obj
 0001:000ae920       ??$parse_floating_point@V?$input_adapter_character_source@V?$string_input_adapter@_W@__crt_stdio_input@@@__crt_strtox@@N@__crt_strtox@@YA?AW4SLD_STATUS@@QAU__crt_locale_pointers@@V?$input_adapter_character_source@V?$string_input_adapter@_W@__crt_stdio_input@@@0@QAN@Z 004af920 f i libucrtd:input.obj
 0001:000aeb50       ??$parse_floating_point_from_source@V?$input_adapter_character_source@V?$stream_input_adapter@D@__crt_stdio_input@@@__crt_strtox@@@__crt_strtox@@YA?AW4floating_point_parse_result@0@QAU__crt_locale_pointers@@AAV?$input_adapter_character_source@V?$stream_input_adapter@D@__crt_stdio_input@@@0@AAUfloating_point_string@0@@Z 004afb50 f i libucrtd:input.obj
 0001:000af290       ??$parse_floating_point_from_source@V?$input_adapter_character_source@V?$stream_input_adapter@_W@__crt_stdio_input@@@__crt_strtox@@@__crt_strtox@@YA?AW4floating_point_parse_result@0@QAU__crt_locale_pointers@@AAV?$input_adapter_character_source@V?$stream_input_adapter@_W@__crt_stdio_input@@@0@AAUfloating_point_string@0@@Z 004b0290 f i libucrtd:input.obj
 0001:000af9e0       ??$parse_floating_point_from_source@V?$input_adapter_character_source@V?$string_input_adapter@D@__crt_stdio_input@@@__crt_strtox@@@__crt_strtox@@YA?AW4floating_point_parse_result@0@QAU__crt_locale_pointers@@AAV?$input_adapter_character_source@V?$string_input_adapter@D@__crt_stdio_input@@@0@AAUfloating_point_string@0@@Z 004b09e0 f i libucrtd:input.obj
 0001:000b0120       ??$parse_floating_point_from_source@V?$input_adapter_character_source@V?$string_input_adapter@_W@__crt_stdio_input@@@__crt_strtox@@@__crt_strtox@@YA?AW4floating_point_parse_result@0@QAU__crt_locale_pointers@@AAV?$input_adapter_character_source@V?$string_input_adapter@_W@__crt_stdio_input@@@0@AAUfloating_point_string@0@@Z 004b1120 f i libucrtd:input.obj
 0001:000b0870       ??$parse_floating_point_possible_infinity@DV?$input_adapter_character_source@V?$stream_input_adapter@D@__crt_stdio_input@@@__crt_strtox@@_K@__crt_strtox@@YA?AW4floating_point_parse_result@0@AADAAV?$input_adapter_character_source@V?$stream_input_adapter@D@__crt_stdio_input@@@0@_K@Z 004b1870 f i libucrtd:input.obj
 0001:000b0980       ??$parse_floating_point_possible_infinity@DV?$input_adapter_character_source@V?$string_input_adapter@D@__crt_stdio_input@@@__crt_strtox@@_K@__crt_strtox@@YA?AW4floating_point_parse_result@0@AADAAV?$input_adapter_character_source@V?$string_input_adapter@D@__crt_stdio_input@@@0@_K@Z 004b1980 f i libucrtd:input.obj
 0001:000b0a90       ??$parse_floating_point_possible_infinity@_WV?$input_adapter_character_source@V?$stream_input_adapter@_W@__crt_stdio_input@@@__crt_strtox@@_K@__crt_strtox@@YA?AW4floating_point_parse_result@0@AA_WAAV?$input_adapter_character_source@V?$stream_input_adapter@_W@__crt_stdio_input@@@0@_K@Z 004b1a90 f i libucrtd:input.obj
 0001:000b0bb0       ??$parse_floating_point_possible_infinity@_WV?$input_adapter_character_source@V?$string_input_adapter@_W@__crt_stdio_input@@@__crt_strtox@@_K@__crt_strtox@@YA?AW4floating_point_parse_result@0@AA_WAAV?$input_adapter_character_source@V?$string_input_adapter@_W@__crt_stdio_input@@@0@_K@Z 004b1bb0 f i libucrtd:input.obj
 0001:000b0cd0       ??$parse_floating_point_possible_nan@DV?$input_adapter_character_source@V?$stream_input_adapter@D@__crt_stdio_input@@@__crt_strtox@@_K@__crt_strtox@@YA?AW4floating_point_parse_result@0@AADAAV?$input_adapter_character_source@V?$stream_input_adapter@D@__crt_stdio_input@@@0@_K@Z 004b1cd0 f i libucrtd:input.obj
 0001:000b0ef0       ??$parse_floating_point_possible_nan@DV?$input_adapter_character_source@V?$string_input_adapter@D@__crt_stdio_input@@@__crt_strtox@@_K@__crt_strtox@@YA?AW4floating_point_parse_result@0@AADAAV?$input_adapter_character_source@V?$string_input_adapter@D@__crt_stdio_input@@@0@_K@Z 004b1ef0 f i libucrtd:input.obj
 0001:000b1110       ??$parse_floating_point_possible_nan@_WV?$input_adapter_character_source@V?$stream_input_adapter@_W@__crt_stdio_input@@@__crt_strtox@@_K@__crt_strtox@@YA?AW4floating_point_parse_result@0@AA_WAAV?$input_adapter_character_source@V?$stream_input_adapter@_W@__crt_stdio_input@@@0@_K@Z 004b2110 f i libucrtd:input.obj
 0001:000b1330       ??$parse_floating_point_possible_nan@_WV?$input_adapter_character_source@V?$string_input_adapter@_W@__crt_stdio_input@@@__crt_strtox@@_K@__crt_strtox@@YA?AW4floating_point_parse_result@0@AA_WAAV?$input_adapter_character_source@V?$string_input_adapter@_W@__crt_stdio_input@@@0@_K@Z 004b2330 f i libucrtd:input.obj
 0001:000b1550       ??$parse_floating_point_possible_nan_is_ind@DV?$input_adapter_character_source@V?$stream_input_adapter@D@__crt_stdio_input@@@__crt_strtox@@@__crt_strtox@@YA_NAADAAV?$input_adapter_character_source@V?$stream_input_adapter@D@__crt_stdio_input@@@0@@Z 004b2550 f i libucrtd:input.obj
 0001:000b1580       ??$parse_floating_point_possible_nan_is_ind@DV?$input_adapter_character_source@V?$string_input_adapter@D@__crt_stdio_input@@@__crt_strtox@@@__crt_strtox@@YA_NAADAAV?$input_adapter_character_source@V?$string_input_adapter@D@__crt_stdio_input@@@0@@Z 004b2580 f i libucrtd:input.obj
 0001:000b15b0       ??$parse_floating_point_possible_nan_is_ind@_WV?$input_adapter_character_source@V?$stream_input_adapter@_W@__crt_stdio_input@@@__crt_strtox@@@__crt_strtox@@YA_NAA_WAAV?$input_adapter_character_source@V?$stream_input_adapter@_W@__crt_stdio_input@@@0@@Z 004b25b0 f i libucrtd:input.obj
 0001:000b15e0       ??$parse_floating_point_possible_nan_is_ind@_WV?$input_adapter_character_source@V?$string_input_adapter@_W@__crt_stdio_input@@@__crt_strtox@@@__crt_strtox@@YA_NAA_WAAV?$input_adapter_character_source@V?$string_input_adapter@_W@__crt_stdio_input@@@0@@Z 004b25e0 f i libucrtd:input.obj
 0001:000b1610       ??$parse_floating_point_possible_nan_is_snan@DV?$input_adapter_character_source@V?$stream_input_adapter@D@__crt_stdio_input@@@__crt_strtox@@@__crt_strtox@@YA_NAADAAV?$input_adapter_character_source@V?$stream_input_adapter@D@__crt_stdio_input@@@0@@Z 004b2610 f i libucrtd:input.obj
 0001:000b1640       ??$parse_floating_point_possible_nan_is_snan@DV?$input_adapter_character_source@V?$string_input_adapter@D@__crt_stdio_input@@@__crt_strtox@@@__crt_strtox@@YA_NAADAAV?$input_adapter_character_source@V?$string_input_adapter@D@__crt_stdio_input@@@0@@Z 004b2640 f i libucrtd:input.obj
 0001:000b1670       ??$parse_floating_point_possible_nan_is_snan@_WV?$input_adapter_character_source@V?$stream_input_adapter@_W@__crt_stdio_input@@@__crt_strtox@@@__crt_strtox@@YA_NAA_WAAV?$input_adapter_character_source@V?$stream_input_adapter@_W@__crt_stdio_input@@@0@@Z 004b2670 f i libucrtd:input.obj
 0001:000b16a0       ??$parse_floating_point_possible_nan_is_snan@_WV?$input_adapter_character_source@V?$string_input_adapter@_W@__crt_stdio_input@@@__crt_strtox@@@__crt_strtox@@YA_NAA_WAAV?$input_adapter_character_source@V?$string_input_adapter@_W@__crt_stdio_input@@@0@@Z 004b26a0 f i libucrtd:input.obj
 0001:000b16d0       ??$parse_floating_point_write_result@M@__crt_strtox@@YA?AW4SLD_STATUS@@W4floating_point_parse_result@0@ABUfloating_point_string@0@QAM@Z 004b26d0 f i libucrtd:input.obj
 0001:000b18c0       ??$parse_floating_point_write_result@N@__crt_strtox@@YA?AW4SLD_STATUS@@W4floating_point_parse_result@0@ABUfloating_point_string@0@QAN@Z 004b28c0 f i libucrtd:input.obj
 0001:000b1ab0       ??$parse_integer@_KV?$input_adapter_character_source@V?$stream_input_adapter@D@__crt_stdio_input@@@__crt_strtox@@@__crt_strtox@@YA_KQAU__crt_locale_pointers@@V?$input_adapter_character_source@V?$stream_input_adapter@D@__crt_stdio_input@@@0@H_N@Z 004b2ab0 f i libucrtd:input.obj
 0001:000b1ff0       ??$parse_integer@_KV?$input_adapter_character_source@V?$stream_input_adapter@_W@__crt_stdio_input@@@__crt_strtox@@@__crt_strtox@@YA_KQAU__crt_locale_pointers@@V?$input_adapter_character_source@V?$stream_input_adapter@_W@__crt_stdio_input@@@0@H_N@Z 004b2ff0 f i libucrtd:input.obj
 0001:000b2540       ??$parse_integer@_KV?$input_adapter_character_source@V?$string_input_adapter@D@__crt_stdio_input@@@__crt_strtox@@@__crt_strtox@@YA_KQAU__crt_locale_pointers@@V?$input_adapter_character_source@V?$string_input_adapter@D@__crt_stdio_input@@@0@H_N@Z 004b3540 f i libucrtd:input.obj
 0001:000b2a80       ??$parse_integer@_KV?$input_adapter_character_source@V?$string_input_adapter@_W@__crt_stdio_input@@@__crt_strtox@@@__crt_strtox@@YA_KQAU__crt_locale_pointers@@V?$input_adapter_character_source@V?$string_input_adapter@_W@__crt_stdio_input@@@0@H_N@Z 004b3a80 f i libucrtd:input.obj
 0001:000b2fd0       ??$parse_next_characters_from_source@DV?$input_adapter_character_source@V?$stream_input_adapter@D@__crt_stdio_input@@@__crt_strtox@@@__crt_strtox@@YA_NQBD0IAADAAV?$input_adapter_character_source@V?$stream_input_adapter@D@__crt_stdio_input@@@0@@Z 004b3fd0 f i libucrtd:input.obj
 0001:000b3050       ??$parse_next_characters_from_source@DV?$input_adapter_character_source@V?$string_input_adapter@D@__crt_stdio_input@@@__crt_strtox@@@__crt_strtox@@YA_NQBD0IAADAAV?$input_adapter_character_source@V?$string_input_adapter@D@__crt_stdio_input@@@0@@Z 004b4050 f i libucrtd:input.obj
 0001:000b30d0       ??$parse_next_characters_from_source@_WV?$input_adapter_character_source@V?$stream_input_adapter@_W@__crt_stdio_input@@@__crt_strtox@@@__crt_strtox@@YA_NQB_W0IAA_WAAV?$input_adapter_character_source@V?$stream_input_adapter@_W@__crt_stdio_input@@@0@@Z 004b40d0 f i libucrtd:input.obj
 0001:000b3150       ??$parse_next_characters_from_source@_WV?$input_adapter_character_source@V?$string_input_adapter@_W@__crt_stdio_input@@@__crt_strtox@@@__crt_strtox@@YA_NQB_W0IAA_WAAV?$input_adapter_character_source@V?$string_input_adapter@_W@__crt_stdio_input@@@0@@Z 004b4150 f i libucrtd:input.obj
 0001:000b31d0       ??$process_floating_point_specifier_t@M@?$input_processor@DV?$stream_input_adapter@D@__crt_stdio_input@@@__crt_stdio_input@@AAE_NXZ 004b41d0 f i libucrtd:input.obj
 0001:000b3280       ??$process_floating_point_specifier_t@M@?$input_processor@DV?$string_input_adapter@D@__crt_stdio_input@@@__crt_stdio_input@@AAE_NXZ 004b4280 f i libucrtd:input.obj
 0001:000b3330       ??$process_floating_point_specifier_t@M@?$input_processor@_WV?$stream_input_adapter@_W@__crt_stdio_input@@@__crt_stdio_input@@AAE_NXZ 004b4330 f i libucrtd:input.obj
 0001:000b33e0       ??$process_floating_point_specifier_t@M@?$input_processor@_WV?$string_input_adapter@_W@__crt_stdio_input@@@__crt_stdio_input@@AAE_NXZ 004b43e0 f i libucrtd:input.obj
 0001:000b3490       ??$process_floating_point_specifier_t@N@?$input_processor@DV?$stream_input_adapter@D@__crt_stdio_input@@@__crt_stdio_input@@AAE_NXZ 004b4490 f i libucrtd:input.obj
 0001:000b3540       ??$process_floating_point_specifier_t@N@?$input_processor@DV?$string_input_adapter@D@__crt_stdio_input@@@__crt_stdio_input@@AAE_NXZ 004b4540 f i libucrtd:input.obj
 0001:000b35f0       ??$process_floating_point_specifier_t@N@?$input_processor@_WV?$stream_input_adapter@_W@__crt_stdio_input@@@__crt_stdio_input@@AAE_NXZ 004b45f0 f i libucrtd:input.obj
 0001:000b36a0       ??$process_floating_point_specifier_t@N@?$input_processor@_WV?$string_input_adapter@_W@__crt_stdio_input@@@__crt_stdio_input@@AAE_NXZ 004b46a0 f i libucrtd:input.obj
 0001:000b3750       ??$process_string_specifier_tchar@D@?$input_processor@DV?$stream_input_adapter@D@__crt_stdio_input@@@__crt_stdio_input@@AAE_NW4conversion_mode@1@D@Z 004b4750 f i libucrtd:input.obj
 0001:000b3b00       ??$process_string_specifier_tchar@D@?$input_processor@DV?$string_input_adapter@D@__crt_stdio_input@@@__crt_stdio_input@@AAE_NW4conversion_mode@1@D@Z 004b4b00 f i libucrtd:input.obj
 0001:000b3eb0       ??$process_string_specifier_tchar@D@?$input_processor@_WV?$stream_input_adapter@_W@__crt_stdio_input@@@__crt_stdio_input@@AAE_NW4conversion_mode@1@D@Z 004b4eb0 f i libucrtd:input.obj
 0001:000b4260       ??$process_string_specifier_tchar@D@?$input_processor@_WV?$string_input_adapter@_W@__crt_stdio_input@@@__crt_stdio_input@@AAE_NW4conversion_mode@1@D@Z 004b5260 f i libucrtd:input.obj
 0001:000b4610       ??$process_string_specifier_tchar@_W@?$input_processor@DV?$stream_input_adapter@D@__crt_stdio_input@@@__crt_stdio_input@@AAE_NW4conversion_mode@1@_W@Z 004b5610 f i libucrtd:input.obj
 0001:000b49d0       ??$process_string_specifier_tchar@_W@?$input_processor@DV?$string_input_adapter@D@__crt_stdio_input@@@__crt_stdio_input@@AAE_NW4conversion_mode@1@_W@Z 004b59d0 f i libucrtd:input.obj
 0001:000b4d90       ??$process_string_specifier_tchar@_W@?$input_processor@_WV?$stream_input_adapter@_W@__crt_stdio_input@@@__crt_stdio_input@@AAE_NW4conversion_mode@1@_W@Z 004b5d90 f i libucrtd:input.obj
 0001:000b5150       ??$process_string_specifier_tchar@_W@?$input_processor@_WV?$string_input_adapter@_W@__crt_stdio_input@@@__crt_stdio_input@@AAE_NW4conversion_mode@1@_W@Z 004b6150 f i libucrtd:input.obj
 0001:000b5510       ??$reset_buffer@D@?$input_processor@DV?$stream_input_adapter@D@__crt_stdio_input@@@__crt_stdio_input@@CAXQADI@Z 004b6510 f i libucrtd:input.obj
 0001:000b55a0       ??$reset_buffer@D@?$input_processor@DV?$string_input_adapter@D@__crt_stdio_input@@@__crt_stdio_input@@CAXQADI@Z 004b65a0 f i libucrtd:input.obj
 0001:000b5630       ??$reset_buffer@D@?$input_processor@_WV?$stream_input_adapter@_W@__crt_stdio_input@@@__crt_stdio_input@@CAXQADI@Z 004b6630 f i libucrtd:input.obj
 0001:000b56c0       ??$reset_buffer@D@?$input_processor@_WV?$string_input_adapter@_W@__crt_stdio_input@@@__crt_stdio_input@@CAXQADI@Z 004b66c0 f i libucrtd:input.obj
 0001:000b5750       ??$reset_buffer@_W@?$input_processor@DV?$stream_input_adapter@D@__crt_stdio_input@@@__crt_stdio_input@@CAXQA_WI@Z 004b6750 f i libucrtd:input.obj
 0001:000b57e0       ??$reset_buffer@_W@?$input_processor@DV?$string_input_adapter@D@__crt_stdio_input@@@__crt_stdio_input@@CAXQA_WI@Z 004b67e0 f i libucrtd:input.obj
 0001:000b5870       ??$reset_buffer@_W@?$input_processor@_WV?$stream_input_adapter@_W@__crt_stdio_input@@@__crt_stdio_input@@CAXQA_WI@Z 004b6870 f i libucrtd:input.obj
 0001:000b5900       ??$reset_buffer@_W@?$input_processor@_WV?$string_input_adapter@_W@__crt_stdio_input@@@__crt_stdio_input@@CAXQA_WI@Z 004b6900 f i libucrtd:input.obj
 0001:000b5990       ??$skip_whitespace@Vstream_input_adapter@__crt_stdio_input@@D@__crt_stdio_input@@YAHAAV?$stream_input_adapter@D@0@QAU__crt_locale_pointers@@@Z 004b6990 f i libucrtd:input.obj
 0001:000b59e0       ??$skip_whitespace@Vstream_input_adapter@__crt_stdio_input@@_W@__crt_stdio_input@@YAGAAV?$stream_input_adapter@_W@0@QAU__crt_locale_pointers@@@Z 004b69e0 f i libucrtd:input.obj
 0001:000b5a30       ??$skip_whitespace@Vstring_input_adapter@__crt_stdio_input@@D@__crt_stdio_input@@YAHAAV?$string_input_adapter@D@0@QAU__crt_locale_pointers@@@Z 004b6a30 f i libucrtd:input.obj
 0001:000b5a80       ??$skip_whitespace@Vstring_input_adapter@__crt_stdio_input@@_W@__crt_stdio_input@@YAGAAV?$string_input_adapter@_W@0@QAU__crt_locale_pointers@@@Z 004b6a80 f i libucrtd:input.obj
 0001:000b5ad0       ??$tcstoull@AAPB_WPAPA_WH@?$__crt_char_traits@_W@@SA_KAAPB_W$$QAPAPA_W$$QAH@Z 004b6ad0 f i libucrtd:input.obj
 0001:000b5b00       ??$tcstoull@PBDPAPADH@?$__crt_char_traits@D@@SA_K$$QAPBD$$QAPAPAD$$QAH@Z 004b6b00 f i libucrtd:input.obj
 0001:000b5b30       ??$ungettc_nolock@ABGPAU_iobuf@@@?$__crt_char_traits@_W@@SAGABG$$QAPAU_iobuf@@@Z 004b6b30 f i libucrtd:input.obj
 0001:000b5b60       ??$ungettc_nolock@ABHPAU_iobuf@@@?$__crt_char_traits@D@@SAHABH$$QAPAU_iobuf@@@Z 004b6b60 f i libucrtd:input.obj
 0001:000b5b90       ??$write_floating_point@M@?$input_processor@DV?$stream_input_adapter@D@__crt_stdio_input@@@__crt_stdio_input@@AAE_NABM@Z 004b6b90 f i libucrtd:input.obj
 0001:000b5cd0       ??$write_floating_point@M@?$input_processor@DV?$string_input_adapter@D@__crt_stdio_input@@@__crt_stdio_input@@AAE_NABM@Z 004b6cd0 f i libucrtd:input.obj
 0001:000b5e10       ??$write_floating_point@M@?$input_processor@_WV?$stream_input_adapter@_W@__crt_stdio_input@@@__crt_stdio_input@@AAE_NABM@Z 004b6e10 f i libucrtd:input.obj
 0001:000b5f50       ??$write_floating_point@M@?$input_processor@_WV?$string_input_adapter@_W@__crt_stdio_input@@@__crt_stdio_input@@AAE_NABM@Z 004b6f50 f i libucrtd:input.obj
 0001:000b6090       ??$write_floating_point@N@?$input_processor@DV?$stream_input_adapter@D@__crt_stdio_input@@@__crt_stdio_input@@AAE_NABN@Z 004b7090 f i libucrtd:input.obj
 0001:000b61e0       ??$write_floating_point@N@?$input_processor@DV?$string_input_adapter@D@__crt_stdio_input@@@__crt_stdio_input@@AAE_NABN@Z 004b71e0 f i libucrtd:input.obj
 0001:000b6330       ??$write_floating_point@N@?$input_processor@_WV?$stream_input_adapter@_W@__crt_stdio_input@@@__crt_stdio_input@@AAE_NABN@Z 004b7330 f i libucrtd:input.obj
 0001:000b6480       ??$write_floating_point@N@?$input_processor@_WV?$string_input_adapter@_W@__crt_stdio_input@@@__crt_stdio_input@@AAE_NABN@Z 004b7480 f i libucrtd:input.obj
 0001:000b6a30       ??0?$__crt_unique_heap_ptr@EU__crt_internal_free_policy@@@@QAE@QAE@Z 004b7a30 f i libucrtd:input.obj
 0001:000b6a50       ??0?$format_string_parser@D@__crt_stdio_input@@QAE@_KQBE@Z 004b7a50 f i libucrtd:input.obj
 0001:000b6ab0       ??0?$format_string_parser@_W@__crt_stdio_input@@QAE@_KQB_W@Z 004b7ab0 f i libucrtd:input.obj
 0001:000b6b10       ??0?$input_adapter_character_source@V?$stream_input_adapter@D@__crt_stdio_input@@@__crt_strtox@@QAE@QAV?$stream_input_adapter@D@__crt_stdio_input@@_KQA_N@Z 004b7b10 f i libucrtd:input.obj
 0001:000b6b80       ??0?$input_adapter_character_source@V?$stream_input_adapter@_W@__crt_stdio_input@@@__crt_strtox@@QAE@QAV?$stream_input_adapter@_W@__crt_stdio_input@@_KQA_N@Z 004b7b80 f i libucrtd:input.obj
 0001:000b6bf0       ??0?$input_adapter_character_source@V?$string_input_adapter@D@__crt_stdio_input@@@__crt_strtox@@QAE@QAV?$string_input_adapter@D@__crt_stdio_input@@_KQA_N@Z 004b7bf0 f i libucrtd:input.obj
 0001:000b6c60       ??0?$input_adapter_character_source@V?$string_input_adapter@_W@__crt_stdio_input@@@__crt_strtox@@QAE@QAV?$string_input_adapter@_W@__crt_stdio_input@@_KQA_N@Z 004b7c60 f i libucrtd:input.obj
 0001:000b6cd0       ??0?$input_processor@DV?$stream_input_adapter@D@__crt_stdio_input@@@__crt_stdio_input@@QAE@ABV?$stream_input_adapter@D@1@_KQBDQAU__crt_locale_pointers@@QAD@Z 004b7cd0 f i libucrtd:input.obj
 0001:000b6d60       ??0?$input_processor@DV?$string_input_adapter@D@__crt_stdio_input@@@__crt_stdio_input@@QAE@ABV?$string_input_adapter@D@1@_KQBDQAU__crt_locale_pointers@@QAD@Z 004b7d60 f i libucrtd:input.obj
 0001:000b6e00       ??0?$input_processor@_WV?$stream_input_adapter@_W@__crt_stdio_input@@@__crt_stdio_input@@QAE@ABV?$stream_input_adapter@_W@1@_KQB_WQAU__crt_locale_pointers@@QAD@Z 004b7e00 f i libucrtd:input.obj
 0001:000b6e90       ??0?$input_processor@_WV?$string_input_adapter@_W@__crt_stdio_input@@@__crt_stdio_input@@QAE@ABV?$string_input_adapter@_W@1@_KQB_WQAU__crt_locale_pointers@@QAD@Z 004b7e90 f i libucrtd:input.obj
 0001:000b6f30       ??0?$scanset_buffer@E@__crt_stdio_input@@QAE@XZ 004b7f30 f i libucrtd:input.obj
 0001:000b6f50       ??0?$scanset_buffer@_W@__crt_stdio_input@@QAE@XZ 004b7f50 f i libucrtd:input.obj
 0001:000b6f70       ??0?$scanset_storage@$00@__crt_stdio_input@@QAE@XZ 004b7f70 f i libucrtd:input.obj
 0001:000b6fb0       ??0?$scanset_storage@$01@__crt_stdio_input@@QAE@XZ 004b7fb0 f i libucrtd:input.obj
 0001:000b6fd0       ??0?$stream_input_adapter@D@__crt_stdio_input@@QAE@QAU_iobuf@@@Z 004b7fd0 f i libucrtd:input.obj
 0001:000b7010       ??0?$stream_input_adapter@_W@__crt_stdio_input@@QAE@QAU_iobuf@@@Z 004b8010 f i libucrtd:input.obj
 0001:000b7050       ??0?$string_input_adapter@D@__crt_stdio_input@@QAE@QBDI@Z 004b8050 f i libucrtd:input.obj
 0001:000b7090       ??0?$string_input_adapter@_W@__crt_stdio_input@@QAE@QB_WI@Z 004b8090 f i libucrtd:input.obj
 0001:000b70d0       ??0big_integer@__crt_strtox@@QAE@ABU01@@Z 004b80d0 f i libucrtd:input.obj
 0001:000b7120       ??0big_integer@__crt_strtox@@QAE@XZ 004b8120 f i libucrtd:input.obj
 0001:000b7160       ??0floating_point_value@__crt_strtox@@QAE@QAM@Z 004b8160 f i libucrtd:input.obj
 0001:000b71c0       ??0floating_point_value@__crt_strtox@@QAE@QAN@Z 004b81c0 f i libucrtd:input.obj
 0001:000b7220       ??1?$__crt_unique_heap_ptr@EU__crt_internal_free_policy@@@@QAE@XZ 004b8220 f i libucrtd:input.obj
 0001:000b7240       ??1?$format_string_parser@_W@__crt_stdio_input@@QAE@XZ 004b8240 f i libucrtd:input.obj
 0001:000b7260       ??1?$input_adapter_character_source@V?$stream_input_adapter@D@__crt_stdio_input@@@__crt_strtox@@QAE@XZ 004b8260 f i libucrtd:input.obj
 0001:000b72b0       ??1?$input_adapter_character_source@V?$stream_input_adapter@_W@__crt_stdio_input@@@__crt_strtox@@QAE@XZ 004b82b0 f i libucrtd:input.obj
 0001:000b7300       ??1?$input_adapter_character_source@V?$string_input_adapter@D@__crt_stdio_input@@@__crt_strtox@@QAE@XZ 004b8300 f i libucrtd:input.obj
 0001:000b7350       ??1?$input_adapter_character_source@V?$string_input_adapter@_W@__crt_stdio_input@@@__crt_strtox@@QAE@XZ 004b8350 f i libucrtd:input.obj
 0001:000b73a0       ??1?$input_processor@_WV?$stream_input_adapter@_W@__crt_stdio_input@@@__crt_stdio_input@@QAE@XZ 004b83a0 f i libucrtd:input.obj
 0001:000b73c0       ??1?$input_processor@_WV?$string_input_adapter@_W@__crt_stdio_input@@@__crt_stdio_input@@QAE@XZ 004b83c0 f i libucrtd:input.obj
 0001:000b73e0       ??1?$scanset_buffer@_W@__crt_stdio_input@@QAE@XZ 004b83e0 f i libucrtd:input.obj
 0001:000b7400       ??1?$scanset_storage@$01@__crt_stdio_input@@QAE@XZ 004b8400 f i libucrtd:input.obj
 0001:000b7420       ??4?$__crt_unique_heap_ptr@EU__crt_internal_free_policy@@@@QAEAAV0@$$QAV0@@Z 004b8420 f i libucrtd:input.obj
 0001:000b7460       ??4big_integer@__crt_strtox@@QAEAAU01@ABU01@@Z 004b8460 f i libucrtd:input.obj
 0001:000b74b0       ??B?$__crt_unique_heap_ptr@EU__crt_internal_free_policy@@@@QBE_NXZ 004b84b0 f i libucrtd:input.obj
 0001:000b74d0       ??M__crt_strtox@@YA_NABUbig_integer@0@0@Z 004b84d0 f i libucrtd:input.obj
 0001:000b7c20       ?accumulate_decimal_digits_into_big_integer@__crt_strtox@@YAXQBE0AAUbig_integer@1@@Z 004b8c20 f i libucrtd:input.obj
 0001:000b7d00       ?add@__crt_strtox@@YA_NAAUbig_integer@1@I@Z 004b8d00 f i libucrtd:input.obj
 0001:000b7e40       ?add_carry@__crt_strtox@@YAIAAIII@Z 004b8e40 f i libucrtd:input.obj
 0001:000b7e90       ?add_multiply_carry@__crt_strtox@@YAIAAIIII@Z 004b8e90 f i libucrtd:input.obj
 0001:000b7ee0       ?advance@?$format_string_parser@D@__crt_stdio_input@@QAE_NXZ 004b8ee0 f i libucrtd:input.obj
 0001:000b80f0       ?advance@?$format_string_parser@_W@__crt_stdio_input@@QAE_NXZ 004b90f0 f i libucrtd:input.obj
 0001:000b8300       ?as_double@floating_point_value@__crt_strtox@@QBEAANXZ 004b9300 f i libucrtd:input.obj
 0001:000b8390       ?as_float@floating_point_value@__crt_strtox@@QBEAAMXZ 004b9390 f i libucrtd:input.obj
 0001:000b8420       ?assemble_floating_point_infinity@__crt_strtox@@YAX_NABVfloating_point_value@1@@Z 004b9420 f i libucrtd:input.obj
 0001:000b8480       ?assemble_floating_point_value@__crt_strtox@@YA?AW4SLD_STATUS@@_KH_N1ABVfloating_point_value@1@@Z 004b9480 f i libucrtd:input.obj
 0001:000b8780       ?assemble_floating_point_value_from_big_integer@__crt_strtox@@YA?AW4SLD_STATUS@@ABUbig_integer@1@I_N1ABVfloating_point_value@1@@Z 004b9780 f i libucrtd:input.obj
 0001:000b8b40       ?assemble_floating_point_zero@__crt_strtox@@YAX_NABVfloating_point_value@1@@Z 004b9b40 f i libucrtd:input.obj
 0001:000b8ba0       ?bit_scan_reverse@__crt_strtox@@YAIABUbig_integer@1@@Z 004b9ba0 f i libucrtd:input.obj
 0001:000b8bf0       ?bit_scan_reverse@__crt_strtox@@YAII@Z 004b9bf0 f i libucrtd:input.obj
 0001:000b8c30       ?bit_scan_reverse@__crt_strtox@@YAI_K@Z 004b9c30 f i libucrtd:input.obj
 0001:000b8c90       ?characters_read@?$stream_input_adapter@D@__crt_stdio_input@@QBEIXZ 004b9c90 f i libucrtd:input.obj
 0001:000b8cb0       ?characters_read@?$stream_input_adapter@_W@__crt_stdio_input@@QBEIXZ 004b9cb0 f i libucrtd:input.obj
 0001:000b8cd0       ?characters_read@?$string_input_adapter@D@__crt_stdio_input@@QBEIXZ 004b9cd0 f i libucrtd:input.obj
 0001:000b8cf0       ?characters_read@?$string_input_adapter@_W@__crt_stdio_input@@QBEIXZ 004b9cf0 f i libucrtd:input.obj
 0001:000b8d10       ?convert_decimal_string_to_floating_type_common@__crt_strtox@@YA?AW4SLD_STATUS@@ABUfloating_point_string@1@ABVfloating_point_value@1@@Z 004b9d10 f i libucrtd:input.obj
 0001:000b94f0       ?convert_hexadecimal_string_to_floating_type_common@__crt_strtox@@YA?AW4SLD_STATUS@@ABUfloating_point_string@1@ABVfloating_point_value@1@@Z 004ba4f0 f i libucrtd:input.obj
 0001:000b9660       ?count_sequential_high_zeroes@__crt_strtox@@YAII@Z 004ba660 f i libucrtd:input.obj
 0001:000b96b0       ?data@?$scanset_storage@$00@__crt_stdio_input@@QBEPAEXZ 004ba6b0 f i libucrtd:input.obj
 0001:000b96d0       ?data@?$scanset_storage@$01@__crt_stdio_input@@QBEPAEXZ 004ba6d0 f i libucrtd:input.obj
 0001:000b9750       ?denormal_mantissa_mask@floating_point_value@__crt_strtox@@QBE_KXZ 004ba750 f i libucrtd:input.obj
 0001:000b97a0       ?divide@__crt_strtox@@YA_KAAUbig_integer@1@ABU21@@Z 004ba7a0 f i libucrtd:input.obj
 0001:000ba4c0       ?error_code@?$format_string_parser@D@__crt_stdio_input@@QBEHXZ 004bb4c0 f i libucrtd:input.obj
 0001:000ba4e0       ?error_code@?$format_string_parser@_W@__crt_stdio_input@@QBEHXZ 004bb4e0 f i libucrtd:input.obj
 0001:000ba500       ?exponent_bias@floating_point_value@__crt_strtox@@QBEHXZ 004bb500 f i libucrtd:input.obj
 0001:000ba540       ?get@?$__crt_unique_heap_ptr@EU__crt_internal_free_policy@@@@QBEPAEXZ 004bb540 f i libucrtd:input.obj
 0001:000ba560       ?get@?$input_adapter_character_source@V?$stream_input_adapter@D@__crt_stdio_input@@@__crt_strtox@@QAEDXZ 004bb560 f i libucrtd:input.obj
 0001:000ba610       ?get@?$input_adapter_character_source@V?$stream_input_adapter@_W@__crt_stdio_input@@@__crt_strtox@@QAE_WXZ 004bb610 f i libucrtd:input.obj
 0001:000ba6c0       ?get@?$input_adapter_character_source@V?$string_input_adapter@D@__crt_stdio_input@@@__crt_strtox@@QAEDXZ 004bb6c0 f i libucrtd:input.obj
 0001:000ba770       ?get@?$input_adapter_character_source@V?$string_input_adapter@_W@__crt_stdio_input@@@__crt_strtox@@QAE_WXZ 004bb770 f i libucrtd:input.obj
 0001:000ba820       ?get@?$stream_input_adapter@D@__crt_stdio_input@@QAEHXZ 004bb820 f i libucrtd:input.obj
 0001:000ba880       ?get@?$stream_input_adapter@_W@__crt_stdio_input@@QAEGXZ 004bb880 f i libucrtd:input.obj
 0001:000ba8e0       ?get@?$string_input_adapter@D@__crt_stdio_input@@QAEHXZ 004bb8e0 f i libucrtd:input.obj
 0001:000ba930       ?get@?$string_input_adapter@_W@__crt_stdio_input@@QAEGXZ 004bb930 f i libucrtd:input.obj
 0001:000ba990       ?invert@?$scanset_buffer@E@__crt_stdio_input@@QAEXXZ 004bb990 f i libucrtd:input.obj
 0001:000baa00       ?invert@?$scanset_buffer@_W@__crt_stdio_input@@QAEXXZ 004bba00 f i libucrtd:input.obj
 0001:000baa70       ?is_character_allowed_in_string@?$input_processor@DV?$stream_input_adapter@D@__crt_stdio_input@@@__crt_stdio_input@@ABE_NW4conversion_mode@2@H@Z 004bba70 f i libucrtd:input.obj
 0001:000bab10       ?is_character_allowed_in_string@?$input_processor@DV?$string_input_adapter@D@__crt_stdio_input@@@__crt_stdio_input@@ABE_NW4conversion_mode@2@H@Z 004bbb10 f i libucrtd:input.obj
 0001:000babb0       ?is_character_allowed_in_string@?$input_processor@_WV?$stream_input_adapter@_W@__crt_stdio_input@@@__crt_stdio_input@@ABE_NW4conversion_mode@2@G@Z 004bbbb0 f i libucrtd:input.obj
 0001:000bac60       ?is_character_allowed_in_string@?$input_processor@_WV?$string_input_adapter@_W@__crt_stdio_input@@@__crt_stdio_input@@ABE_NW4conversion_mode@2@G@Z 004bbc60 f i libucrtd:input.obj
 0001:000bad10       ?is_digit_or_nondigit@__crt_strtox@@YA_NH@Z 004bbd10 f i libucrtd:input.obj
 0001:000bad70       ?is_double@floating_point_value@__crt_strtox@@QBE_NXZ 004bbd70 f i libucrtd:input.obj
 0001:000bad90       ?is_length_valid@__crt_stdio_input@@YA_NW4conversion_mode@1@W4length_modifier@1@@Z 004bbd90 f i libucrtd:input.obj
 0001:000badd0       ?is_usable@?$scanset_buffer@E@__crt_stdio_input@@QAE_NXZ 004bbdd0 f i libucrtd:input.obj
 0001:000bae10       ?is_usable@?$scanset_buffer@_W@__crt_stdio_input@@QAE_NXZ 004bbe10 f i libucrtd:input.obj
 0001:000bae50       ?is_valid@?$__crt_unique_heap_ptr@EU__crt_internal_free_policy@@@@QBE_NXZ 004bbe50 f i libucrtd:input.obj
 0001:000bae90       ?kind@?$format_string_parser@D@__crt_stdio_input@@QBE?AW4format_directive_kind@2@XZ 004bbe90 f i libucrtd:input.obj
 0001:000baeb0       ?kind@?$format_string_parser@_W@__crt_stdio_input@@QBE?AW4format_directive_kind@2@XZ 004bbeb0 f i libucrtd:input.obj
 0001:000baed0       ?length@?$format_string_parser@D@__crt_stdio_input@@QBEIXZ 004bbed0 f i libucrtd:input.obj
 0001:000bafc0       ?length@?$format_string_parser@_W@__crt_stdio_input@@QBEIXZ 004bbfc0 f i libucrtd:input.obj
 0001:000bb0b0       ?literal_character_lead@?$format_string_parser@D@__crt_stdio_input@@QBEEXZ 004bc0b0 f i libucrtd:input.obj
 0001:000bb110       ?literal_character_lead@?$format_string_parser@_W@__crt_stdio_input@@QBE_WXZ 004bc110 f i libucrtd:input.obj
 0001:000bb170       ?literal_character_trail@?$format_string_parser@D@__crt_stdio_input@@QBEEXZ 004bc170 f i libucrtd:input.obj
 0001:000bb1d0       ?make_big_integer@__crt_strtox@@YA?AUbig_integer@1@_K@Z 004bc1d0 f i libucrtd:input.obj
 0001:000bb2b0       ?mantissa_bits@floating_point_value@__crt_strtox@@QBEHXZ 004bc2b0 f i libucrtd:input.obj
 0001:000bb2f0       ?maximum_binary_exponent@floating_point_value@__crt_strtox@@QBEHXZ 004bc2f0 f i libucrtd:input.obj
 0001:000bb330       ?minimum_binary_exponent@floating_point_value@__crt_strtox@@QBEHXZ 004bc330 f i libucrtd:input.obj
 0001:000bb370       ?mode@?$format_string_parser@D@__crt_stdio_input@@QBE?AW4conversion_mode@2@XZ 004bc370 f i libucrtd:input.obj
 0001:000bb3d0       ?mode@?$format_string_parser@_W@__crt_stdio_input@@QBE?AW4conversion_mode@2@XZ 004bc3d0 f i libucrtd:input.obj
 0001:000bb430       ?multiply@__crt_strtox@@YA_NAAUbig_integer@1@ABU21@@Z 004bc430 f i libucrtd:input.obj
 0001:000bb890       ?multiply@__crt_strtox@@YA_NAAUbig_integer@1@I@Z 004bc890 f i libucrtd:input.obj
 0001:000bb990       ?multiply_64_32@__crt_strtox@@YA_K_KI@Z 004bc990 f i libucrtd:input.obj
 0001:000bb9b0       ?multiply_by_power_of_ten@__crt_strtox@@YA_NAAUbig_integer@1@I@Z 004bc9b0 f i libucrtd:input.obj
 0001:000bbbb0       ?multiply_core@__crt_strtox@@YAIQAIII@Z 004bcbb0 f i libucrtd:input.obj
 0001:000bbc30       ?normal_mantissa_mask@floating_point_value@__crt_strtox@@QBE_KXZ 004bcc30 f i libucrtd:input.obj
 0001:000bbc80       ?process@?$input_processor@DV?$stream_input_adapter@D@__crt_stdio_input@@@__crt_stdio_input@@QAEHXZ 004bcc80 f i libucrtd:input.obj
 0001:000bbe20       ?process@?$input_processor@DV?$string_input_adapter@D@__crt_stdio_input@@@__crt_stdio_input@@QAEHXZ 004bce20 f i libucrtd:input.obj
 0001:000bbfc0       ?process@?$input_processor@_WV?$stream_input_adapter@_W@__crt_stdio_input@@@__crt_stdio_input@@QAEHXZ 004bcfc0 f i libucrtd:input.obj
 0001:000bc170       ?process@?$input_processor@_WV?$string_input_adapter@_W@__crt_stdio_input@@@__crt_stdio_input@@QAEHXZ 004bd170 f i libucrtd:input.obj
 0001:000bc320       ?process_character_count_specifier@?$input_processor@DV?$stream_input_adapter@D@__crt_stdio_input@@@__crt_stdio_input@@AAE_NXZ 004bd320 f i libucrtd:input.obj
 0001:000bc370       ?process_character_count_specifier@?$input_processor@DV?$string_input_adapter@D@__crt_stdio_input@@@__crt_stdio_input@@AAE_NXZ 004bd370 f i libucrtd:input.obj
 0001:000bc3c0       ?process_character_count_specifier@?$input_processor@_WV?$stream_input_adapter@_W@__crt_stdio_input@@@__crt_stdio_input@@AAE_NXZ 004bd3c0 f i libucrtd:input.obj
 0001:000bc410       ?process_character_count_specifier@?$input_processor@_WV?$string_input_adapter@_W@__crt_stdio_input@@@__crt_stdio_input@@AAE_NXZ 004bd410 f i libucrtd:input.obj
 0001:000bc460       ?process_conversion_specifier@?$input_processor@DV?$stream_input_adapter@D@__crt_stdio_input@@@__crt_stdio_input@@AAE_NXZ 004bd460 f i libucrtd:input.obj
 0001:000bc580       ?process_conversion_specifier@?$input_processor@DV?$string_input_adapter@D@__crt_stdio_input@@@__crt_stdio_input@@AAE_NXZ 004bd580 f i libucrtd:input.obj
 0001:000bc6a0       ?process_conversion_specifier@?$input_processor@_WV?$stream_input_adapter@_W@__crt_stdio_input@@@__crt_stdio_input@@AAE_NXZ 004bd6a0 f i libucrtd:input.obj
 0001:000bc7c0       ?process_conversion_specifier@?$input_processor@_WV?$string_input_adapter@_W@__crt_stdio_input@@@__crt_stdio_input@@AAE_NXZ 004bd7c0 f i libucrtd:input.obj
 0001:000bc8e0       ?process_floating_point_specifier@?$input_processor@DV?$stream_input_adapter@D@__crt_stdio_input@@@__crt_stdio_input@@AAE_NXZ 004bd8e0 f i libucrtd:input.obj
 0001:000bc940       ?process_floating_point_specifier@?$input_processor@DV?$string_input_adapter@D@__crt_stdio_input@@@__crt_stdio_input@@AAE_NXZ 004bd940 f i libucrtd:input.obj
 0001:000bc9a0       ?process_floating_point_specifier@?$input_processor@_WV?$stream_input_adapter@_W@__crt_stdio_input@@@__crt_stdio_input@@AAE_NXZ 004bd9a0 f i libucrtd:input.obj
 0001:000bca00       ?process_floating_point_specifier@?$input_processor@_WV?$string_input_adapter@_W@__crt_stdio_input@@@__crt_stdio_input@@AAE_NXZ 004bda00 f i libucrtd:input.obj
 0001:000bca60       ?process_integer_specifier@?$input_processor@DV?$stream_input_adapter@D@__crt_stdio_input@@@__crt_stdio_input@@AAE_NI_N@Z 004bda60 f i libucrtd:input.obj
 0001:000bcb20       ?process_integer_specifier@?$input_processor@DV?$string_input_adapter@D@__crt_stdio_input@@@__crt_stdio_input@@AAE_NI_N@Z 004bdb20 f i libucrtd:input.obj
 0001:000bcbe0       ?process_integer_specifier@?$input_processor@_WV?$stream_input_adapter@_W@__crt_stdio_input@@@__crt_stdio_input@@AAE_NI_N@Z 004bdbe0 f i libucrtd:input.obj
 0001:000bcca0       ?process_integer_specifier@?$input_processor@_WV?$string_input_adapter@_W@__crt_stdio_input@@@__crt_stdio_input@@AAE_NI_N@Z 004bdca0 f i libucrtd:input.obj
 0001:000bcd60       ?process_literal_character@?$input_processor@DV?$stream_input_adapter@D@__crt_stdio_input@@@__crt_stdio_input@@AAE_NXZ 004bdd60 f i libucrtd:input.obj
 0001:000bcdd0       ?process_literal_character@?$input_processor@DV?$string_input_adapter@D@__crt_stdio_input@@@__crt_stdio_input@@AAE_NXZ 004bddd0 f i libucrtd:input.obj
 0001:000bce40       ?process_literal_character@?$input_processor@_WV?$stream_input_adapter@_W@__crt_stdio_input@@@__crt_stdio_input@@AAE_NXZ 004bde40 f i libucrtd:input.obj
 0001:000bcec0       ?process_literal_character@?$input_processor@_WV?$string_input_adapter@_W@__crt_stdio_input@@@__crt_stdio_input@@AAE_NXZ 004bdec0 f i libucrtd:input.obj
 0001:000bcf40       ?process_literal_character_tchar@?$input_processor@DV?$stream_input_adapter@D@__crt_stdio_input@@@__crt_stdio_input@@AAE_ND@Z 004bdf40 f i libucrtd:input.obj
 0001:000bcfd0       ?process_literal_character_tchar@?$input_processor@DV?$string_input_adapter@D@__crt_stdio_input@@@__crt_stdio_input@@AAE_ND@Z 004bdfd0 f i libucrtd:input.obj
 0001:000bd060       ?process_literal_character_tchar@?$input_processor@_WV?$stream_input_adapter@_W@__crt_stdio_input@@@__crt_stdio_input@@AAE_N_W@Z 004be060 f i libucrtd:input.obj
 0001:000bd080       ?process_literal_character_tchar@?$input_processor@_WV?$string_input_adapter@_W@__crt_stdio_input@@@__crt_stdio_input@@AAE_N_W@Z 004be080 f i libucrtd:input.obj
 0001:000bd0a0       ?process_state@?$input_processor@DV?$stream_input_adapter@D@__crt_stdio_input@@@__crt_stdio_input@@AAE_NXZ 004be0a0 f i libucrtd:input.obj
 0001:000bd130       ?process_state@?$input_processor@DV?$string_input_adapter@D@__crt_stdio_input@@@__crt_stdio_input@@AAE_NXZ 004be130 f i libucrtd:input.obj
 0001:000bd1c0       ?process_state@?$input_processor@_WV?$stream_input_adapter@_W@__crt_stdio_input@@@__crt_stdio_input@@AAE_NXZ 004be1c0 f i libucrtd:input.obj
 0001:000bd250       ?process_state@?$input_processor@_WV?$string_input_adapter@_W@__crt_stdio_input@@@__crt_stdio_input@@AAE_NXZ 004be250 f i libucrtd:input.obj
 0001:000bd2e0       ?process_string_specifier@?$input_processor@DV?$stream_input_adapter@D@__crt_stdio_input@@@__crt_stdio_input@@AAE_NW4conversion_mode@2@@Z 004be2e0 f i libucrtd:input.obj
 0001:000bd360       ?process_string_specifier@?$input_processor@DV?$string_input_adapter@D@__crt_stdio_input@@@__crt_stdio_input@@AAE_NW4conversion_mode@2@@Z 004be360 f i libucrtd:input.obj
 0001:000bd3e0       ?process_string_specifier@?$input_processor@_WV?$stream_input_adapter@_W@__crt_stdio_input@@@__crt_stdio_input@@AAE_NW4conversion_mode@2@@Z 004be3e0 f i libucrtd:input.obj
 0001:000bd460       ?process_string_specifier@?$input_processor@_WV?$string_input_adapter@_W@__crt_stdio_input@@@__crt_stdio_input@@AAE_NW4conversion_mode@2@@Z 004be460 f i libucrtd:input.obj
 0001:000bd4e0       ?process_whitespace@?$input_processor@DV?$stream_input_adapter@D@__crt_stdio_input@@@__crt_stdio_input@@AAE_NXZ 004be4e0 f i libucrtd:input.obj
 0001:000bd520       ?process_whitespace@?$input_processor@DV?$string_input_adapter@D@__crt_stdio_input@@@__crt_stdio_input@@AAE_NXZ 004be520 f i libucrtd:input.obj
 0001:000bd560       ?process_whitespace@?$input_processor@_WV?$stream_input_adapter@_W@__crt_stdio_input@@@__crt_stdio_input@@AAE_NXZ 004be560 f i libucrtd:input.obj
 0001:000bd5b0       ?process_whitespace@?$input_processor@_WV?$string_input_adapter@_W@__crt_stdio_input@@@__crt_stdio_input@@AAE_NXZ 004be5b0 f i libucrtd:input.obj
 0001:000bd600       ?release@?$__crt_unique_heap_ptr@EU__crt_internal_free_policy@@@@QAEXXZ 004be600 f i libucrtd:input.obj
 0001:000bd640       ?reset@?$scanset_buffer@E@__crt_stdio_input@@QAEXXZ 004be640 f i libucrtd:input.obj
 0001:000bd690       ?reset@?$scanset_buffer@_W@__crt_stdio_input@@QAEXXZ 004be690 f i libucrtd:input.obj
 0001:000bd6e0       ?reset_token_state@?$format_string_parser@D@__crt_stdio_input@@AAEXXZ 004be6e0 f i libucrtd:input.obj
 0001:000bd750       ?reset_token_state@?$format_string_parser@_W@__crt_stdio_input@@AAEXXZ 004be750 f i libucrtd:input.obj
 0001:000bd7d0       ?reset_token_state_for_error@?$format_string_parser@D@__crt_stdio_input@@AAEXH@Z 004be7d0 f i libucrtd:input.obj
 0001:000bd800       ?reset_token_state_for_error@?$format_string_parser@_W@__crt_stdio_input@@AAEXH@Z 004be800 f i libucrtd:input.obj
 0001:000bd830       ?restore_state@?$input_adapter_character_source@V?$stream_input_adapter@D@__crt_stdio_input@@@__crt_strtox@@QAE_N_K@Z 004be830 f i libucrtd:input.obj
 0001:000bd880       ?restore_state@?$input_adapter_character_source@V?$stream_input_adapter@_W@__crt_stdio_input@@@__crt_strtox@@QAE_N_K@Z 004be880 f i libucrtd:input.obj
 0001:000bd8d0       ?restore_state@?$input_adapter_character_source@V?$string_input_adapter@D@__crt_stdio_input@@@__crt_strtox@@QAE_N_K@Z 004be8d0 f i libucrtd:input.obj
 0001:000bd920       ?restore_state@?$input_adapter_character_source@V?$string_input_adapter@_W@__crt_stdio_input@@@__crt_strtox@@QAE_N_K@Z 004be920 f i libucrtd:input.obj
 0001:000bd970       ?right_shift_with_rounding@__crt_strtox@@YA_K_N_KI0@Z 004be970 f i libucrtd:input.obj
 0001:000bdaf0       ?save_state@?$input_adapter_character_source@V?$stream_input_adapter@D@__crt_stdio_input@@@__crt_strtox@@QBE_KXZ 004beaf0 f i libucrtd:input.obj
 0001:000bdb10       ?save_state@?$input_adapter_character_source@V?$stream_input_adapter@_W@__crt_stdio_input@@@__crt_strtox@@QBE_KXZ 004beb10 f i libucrtd:input.obj
 0001:000bdb30       ?save_state@?$input_adapter_character_source@V?$string_input_adapter@D@__crt_stdio_input@@@__crt_strtox@@QBE_KXZ 004beb30 f i libucrtd:input.obj
 0001:000bdb50       ?save_state@?$input_adapter_character_source@V?$string_input_adapter@_W@__crt_stdio_input@@@__crt_strtox@@QBE_KXZ 004beb50 f i libucrtd:input.obj
 0001:000bdb70       ?scan_conversion_specifier@?$format_string_parser@D@__crt_stdio_input@@AAE_NXZ 004beb70 f i libucrtd:input.obj
 0001:000bde60       ?scan_conversion_specifier@?$format_string_parser@_W@__crt_stdio_input@@AAE_NXZ 004bee60 f i libucrtd:input.obj
 0001:000be150       ?scan_optional_assignment_suppressor@?$format_string_parser@D@__crt_stdio_input@@AAEXXZ 004bf150 f i libucrtd:input.obj
 0001:000be190       ?scan_optional_assignment_suppressor@?$format_string_parser@_W@__crt_stdio_input@@AAEXXZ 004bf190 f i libucrtd:input.obj
 0001:000be1d0       ?scan_optional_field_width@?$format_string_parser@D@__crt_stdio_input@@AAE_NXZ 004bf1d0 f i libucrtd:input.obj
 0001:000be2a0       ?scan_optional_field_width@?$format_string_parser@_W@__crt_stdio_input@@AAE_NXZ 004bf2a0 f i libucrtd:input.obj
 0001:000be360       ?scan_optional_length_modifier@?$format_string_parser@D@__crt_stdio_input@@AAEXXZ 004bf360 f i libucrtd:input.obj
 0001:000be720       ?scan_optional_length_modifier@?$format_string_parser@_W@__crt_stdio_input@@AAEXXZ 004bf720 f i libucrtd:input.obj
 0001:000beae0       ?scan_optional_literal_character_trail_bytes_tchar@?$format_string_parser@D@__crt_stdio_input@@AAE_ND@Z 004bfae0 f i libucrtd:input.obj
 0001:000beb60       ?scan_optional_literal_character_trail_bytes_tchar@?$format_string_parser@_W@__crt_stdio_input@@AAE_N_W@Z 004bfb60 f i libucrtd:input.obj
 0001:000beb80       ?scan_optional_wide_modifier@?$format_string_parser@D@__crt_stdio_input@@AAEXXZ 004bfb80 f i libucrtd:input.obj
 0001:000bebf0       ?scan_optional_wide_modifier@?$format_string_parser@_W@__crt_stdio_input@@AAEXXZ 004bfbf0 f i libucrtd:input.obj
 0001:000bec60       ?scan_scanset_range@?$format_string_parser@D@__crt_stdio_input@@AAE_NXZ 004bfc60 f i libucrtd:input.obj
 0001:000beec0       ?scan_scanset_range@?$format_string_parser@_W@__crt_stdio_input@@AAE_NXZ 004bfec0 f i libucrtd:input.obj
 0001:000bf140       ?scanset@?$format_string_parser@D@__crt_stdio_input@@QBEABV?$scanset_buffer@E@2@XZ 004c0140 f i libucrtd:input.obj
 0001:000bf1a0       ?scanset@?$format_string_parser@_W@__crt_stdio_input@@QBEABV?$scanset_buffer@_W@2@XZ 004c01a0 f i libucrtd:input.obj
 0001:000bf200       ?secure_buffers@?$input_processor@DV?$stream_input_adapter@D@__crt_stdio_input@@@__crt_stdio_input@@ABE_NXZ 004c0200 f i libucrtd:input.obj
 0001:000bf250       ?secure_buffers@?$input_processor@DV?$string_input_adapter@D@__crt_stdio_input@@@__crt_stdio_input@@ABE_NXZ 004c0250 f i libucrtd:input.obj
 0001:000bf2a0       ?secure_buffers@?$input_processor@_WV?$stream_input_adapter@_W@__crt_stdio_input@@@__crt_stdio_input@@ABE_NXZ 004c02a0 f i libucrtd:input.obj
 0001:000bf2f0       ?secure_buffers@?$input_processor@_WV?$string_input_adapter@_W@__crt_stdio_input@@@__crt_stdio_input@@ABE_NXZ 004c02f0 f i libucrtd:input.obj
 0001:000bf340       ?set@?$scanset_buffer@E@__crt_stdio_input@@QAEXE@Z 004c0340 f i libucrtd:input.obj
 0001:000bf3b0       ?set@?$scanset_buffer@_W@__crt_stdio_input@@QAEX_W@Z 004c03b0 f i libucrtd:input.obj
 0001:000bf420       ?set_wide_for_c_s_or_scanset@?$format_string_parser@D@__crt_stdio_input@@AAEXXZ 004c0420 f i libucrtd:input.obj
 0001:000bf470       ?set_wide_for_c_s_or_scanset@?$format_string_parser@_W@__crt_stdio_input@@AAEXXZ 004c0470 f i libucrtd:input.obj
 0001:000bf4c0       ?shift_left@__crt_strtox@@YA_NAAUbig_integer@1@I@Z 004c04c0 f i libucrtd:input.obj
 0001:000bf8e0       ?should_default_to_wide@?$format_string_parser@D@__crt_stdio_input@@AAE_NE@Z 004c08e0 f i libucrtd:input.obj
 0001:000bf930       ?should_default_to_wide@?$format_string_parser@_W@__crt_stdio_input@@AAE_N_W@Z 004c0930 f i libucrtd:input.obj
 0001:000bf9b0       ?should_round_up@__crt_strtox@@YA_N_N000@Z 004c09b0 f i libucrtd:input.obj
 0001:000bfae0       ?size@?$scanset_storage@$00@__crt_stdio_input@@QBEIXZ 004c0ae0 f i libucrtd:input.obj
 0001:000bfb00       ?size@?$scanset_storage@$01@__crt_stdio_input@@QBEIXZ 004c0b00 f i libucrtd:input.obj
 0001:000bfb20       ?suppress_assignment@?$format_string_parser@D@__crt_stdio_input@@QBE_NXZ 004c0b20 f i libucrtd:input.obj
 0001:000bfb80       ?suppress_assignment@?$format_string_parser@_W@__crt_stdio_input@@QBE_NXZ 004c0b80 f i libucrtd:input.obj
 0001:000bfbe0       ?test@?$scanset_buffer@E@__crt_stdio_input@@QBE_NE@Z 004c0be0 f i libucrtd:input.obj
 0001:000bfc60       ?test@?$scanset_buffer@_W@__crt_stdio_input@@QBE_N_W@Z 004c0c60 f i libucrtd:input.obj
 0001:000bfce0       ?to_floating_point_length@__crt_stdio_input@@YAIW4length_modifier@1@@Z 004c0ce0 f i libucrtd:input.obj
 0001:000bfd60       ?to_integer_length@__crt_stdio_input@@YAIW4length_modifier@1@@Z 004c0d60 f i libucrtd:input.obj
 0001:000bfe50       ?unget@?$input_adapter_character_source@V?$stream_input_adapter@D@__crt_stdio_input@@@__crt_strtox@@QAEXD@Z 004c0e50 f i libucrtd:input.obj
 0001:000bff00       ?unget@?$input_adapter_character_source@V?$stream_input_adapter@_W@__crt_stdio_input@@@__crt_strtox@@QAEX_W@Z 004c0f00 f i libucrtd:input.obj
 0001:000bffc0       ?unget@?$input_adapter_character_source@V?$string_input_adapter@D@__crt_stdio_input@@@__crt_strtox@@QAEXD@Z 004c0fc0 f i libucrtd:input.obj
 0001:000c0070       ?unget@?$input_adapter_character_source@V?$string_input_adapter@_W@__crt_stdio_input@@@__crt_strtox@@QAEX_W@Z 004c1070 f i libucrtd:input.obj
 0001:000c0130       ?unget@?$stream_input_adapter@D@__crt_stdio_input@@QAEXH@Z 004c1130 f i libucrtd:input.obj
 0001:000c0190       ?unget@?$stream_input_adapter@_W@__crt_stdio_input@@QAEXG@Z 004c1190 f i libucrtd:input.obj
 0001:000c01f0       ?unget@?$string_input_adapter@D@__crt_stdio_input@@QAEXH@Z 004c11f0 f i libucrtd:input.obj
 0001:000c0250       ?unget@?$string_input_adapter@_W@__crt_stdio_input@@QAEXG@Z 004c1250 f i libucrtd:input.obj
 0001:000c02b0       ?validate@?$format_string_parser@D@__crt_stdio_input@@QBE_NXZ 004c12b0 f i libucrtd:input.obj
 0001:000c0370       ?validate@?$format_string_parser@_W@__crt_stdio_input@@QBE_NXZ 004c1370 f i libucrtd:input.obj
 0001:000c0430       ?validate@?$input_adapter_character_source@V?$stream_input_adapter@D@__crt_stdio_input@@@__crt_strtox@@QBE_NXZ 004c1430 f i libucrtd:input.obj
 0001:000c0590       ?validate@?$input_adapter_character_source@V?$stream_input_adapter@_W@__crt_stdio_input@@@__crt_strtox@@QBE_NXZ 004c1590 f i libucrtd:input.obj
 0001:000c06f0       ?validate@?$input_adapter_character_source@V?$string_input_adapter@D@__crt_stdio_input@@@__crt_strtox@@QBE_NXZ 004c16f0 f i libucrtd:input.obj
 0001:000c0850       ?validate@?$input_adapter_character_source@V?$string_input_adapter@_W@__crt_stdio_input@@@__crt_strtox@@QBE_NXZ 004c1850 f i libucrtd:input.obj
 0001:000c09b0       ?validate@?$stream_input_adapter@D@__crt_stdio_input@@QBE_NXZ 004c19b0 f i libucrtd:input.obj
 0001:000c0a80       ?validate@?$stream_input_adapter@_W@__crt_stdio_input@@QBE_NXZ 004c1a80 f i libucrtd:input.obj
 0001:000c0b50       ?validate@?$string_input_adapter@D@__crt_stdio_input@@QAE_NXZ 004c1b50 f i libucrtd:input.obj
 0001:000c0cb0       ?validate@?$string_input_adapter@_W@__crt_stdio_input@@QAE_NXZ 004c1cb0 f i libucrtd:input.obj
 0001:000c0e10       ?width@?$format_string_parser@D@__crt_stdio_input@@QBE_KXZ 004c1e10 f i libucrtd:input.obj
 0001:000c0e70       ?width@?$format_string_parser@_W@__crt_stdio_input@@QBE_KXZ 004c1e70 f i libucrtd:input.obj
 0001:000c0ed0       ?write_character@?$input_processor@DV?$stream_input_adapter@D@__crt_stdio_input@@@__crt_stdio_input@@AAE_NQADIAAPADAAID@Z 004c1ed0 f i libucrtd:input.obj
 0001:000c0f20       ?write_character@?$input_processor@DV?$stream_input_adapter@D@__crt_stdio_input@@@__crt_stdio_input@@AAE_NQA_WIAAPA_WAAID@Z 004c1f20 f i libucrtd:input.obj
 0001:000c0ff0       ?write_character@?$input_processor@DV?$string_input_adapter@D@__crt_stdio_input@@@__crt_stdio_input@@AAE_NQADIAAPADAAID@Z 004c1ff0 f i libucrtd:input.obj
 0001:000c1040       ?write_character@?$input_processor@DV?$string_input_adapter@D@__crt_stdio_input@@@__crt_stdio_input@@AAE_NQA_WIAAPA_WAAID@Z 004c2040 f i libucrtd:input.obj
 0001:000c1110       ?write_character@?$input_processor@_WV?$stream_input_adapter@_W@__crt_stdio_input@@@__crt_stdio_input@@AAE_NQADIAAPADAAI_W@Z 004c2110 f i libucrtd:input.obj
 0001:000c1220       ?write_character@?$input_processor@_WV?$stream_input_adapter@_W@__crt_stdio_input@@@__crt_stdio_input@@AAE_NQA_WIAAPA_WAAI_W@Z 004c2220 f i libucrtd:input.obj
 0001:000c1270       ?write_character@?$input_processor@_WV?$string_input_adapter@_W@__crt_stdio_input@@@__crt_stdio_input@@AAE_NQADIAAPADAAI_W@Z 004c2270 f i libucrtd:input.obj
 0001:000c1380       ?write_character@?$input_processor@_WV?$string_input_adapter@_W@__crt_stdio_input@@@__crt_stdio_input@@AAE_NQA_WIAAPA_WAAI_W@Z 004c2380 f i libucrtd:input.obj
 0001:000c13d0       ?write_integer@?$input_processor@DV?$stream_input_adapter@D@__crt_stdio_input@@@__crt_stdio_input@@AAE_N_K_N@Z 004c23d0 f i libucrtd:input.obj
 0001:000c1570       ?write_integer@?$input_processor@DV?$string_input_adapter@D@__crt_stdio_input@@@__crt_stdio_input@@AAE_N_K_N@Z 004c2570 f i libucrtd:input.obj
 0001:000c1710       ?write_integer@?$input_processor@_WV?$stream_input_adapter@_W@__crt_stdio_input@@@__crt_stdio_input@@AAE_N_K_N@Z 004c2710 f i libucrtd:input.obj
 0001:000c18b0       ?write_integer@?$input_processor@_WV?$string_input_adapter@_W@__crt_stdio_input@@@__crt_stdio_input@@AAE_N_K_N@Z 004c28b0 f i libucrtd:input.obj
 0001:000c1a50       ___stdio_common_vfscanf    004c2a50 f   libucrtd:input.obj
 0001:000c1a80       ___stdio_common_vfwscanf   004c2a80 f   libucrtd:input.obj
 0001:000c1ab0       ___stdio_common_vsscanf    004c2ab0 f   libucrtd:input.obj
 0001:000c1af0       ___stdio_common_vswscanf   004c2af0 f   libucrtd:input.obj
 0001:000c1b30       __invoke_watson_if_oneof   004c2b30 f i libucrtd:input.obj
 0001:000c1d90       ___acrt_initialize_clock   004c2d90 f   libucrtd:clock.obj
 0001:000c1e30       _clock                     004c2e30 f   libucrtd:clock.obj
 0001:000c1ef0       ??$?B$$A6GXPAXK0@Z@__crt_fast_encoded_nullptr_t@@QBEP6GXPAXK0@ZXZ 004c2ef0 f i libucrtd:exit.obj
 0001:000c1f10       ??$__crt_fast_decode_pointer@P6GXPAXK0@Z@@YAP6GXPAXK0@ZQ6GX0K0@Z@Z 004c2f10 f i libucrtd:exit.obj
 0001:000c1f50       ??$__crt_fast_encode_pointer@P6GXPAXK0@Z@@YAP6GXPAXK0@ZQ6GX0K0@Z@Z 004c2f50 f i libucrtd:exit.obj
 0001:000c1f90       ??$__crt_get_proc_address@P6GXI@Z@@YAP6GXI@ZQAUHINSTANCE__@@QBD@Z 004c2f90 f i libucrtd:exit.obj
 0001:000c1fb0       ??0?$__crt_unique_handle_t@U__crt_hmodule_traits@@@@QAE@QAUHINSTANCE__@@@Z 004c2fb0 f i libucrtd:exit.obj
 0001:000c1fd0       ??1?$__crt_unique_handle_t@U__crt_hmodule_traits@@@@QAE@XZ 004c2fd0 f i libucrtd:exit.obj
 0001:000c2010       ?close@?$__crt_unique_handle_t@U__crt_hmodule_traits@@@@QAEXXZ 004c3010 f i libucrtd:exit.obj
 0001:000c2050       ?close@__crt_hmodule_traits@@SA_NPAUHINSTANCE__@@@Z 004c3050 f i libucrtd:exit.obj
 0001:000c2310       ?get@?$__crt_unique_handle_t@U__crt_hmodule_traits@@@@QBEPAUHINSTANCE__@@XZ 004c3310 f i libucrtd:exit.obj
 0001:000c2330       ?get_address_of@?$__crt_unique_handle_t@U__crt_hmodule_traits@@@@QAEPAPAUHINSTANCE__@@XZ 004c3330 f i libucrtd:exit.obj
 0001:000c2350       ?get_invalid_value@__crt_hmodule_traits@@SAPAUHINSTANCE__@@XZ 004c3350 f i libucrtd:exit.obj
 0001:000c2530       __Exit                     004c3530 f   libucrtd:exit.obj
 0001:000c2550       ___acrt_initialize_thread_local_exit_callback 004c3550 f   libucrtd:exit.obj
 0001:000c2570       __c_exit                   004c3570 f   libucrtd:exit.obj
 0001:000c2590       __cexit                    004c3590 f   libucrtd:exit.obj
 0001:000c25b0       __exit                     004c35b0 f   libucrtd:exit.obj
 0001:000c25d0       __is_c_termination_complete 004c35d0 f   libucrtd:exit.obj
 0001:000c25f0       __register_thread_local_exe_atexit_callback 004c35f0 f   libucrtd:exit.obj
 0001:000c2640       _exit                      004c3640 f   libucrtd:exit.obj
 0001:000c2660       _quick_exit                004c3660 f   libucrtd:exit.obj
 0001:000c26e0       __seh_filter_dll           004c36e0 f   libucrtd:exception_filter.obj
 0001:000c2710       __seh_filter_exe           004c3710 f   libucrtd:exception_filter.obj
 0001:000c2bd0       ___acrt_report_runtime_error 004c3bd0 f   libucrtd:report_runtime_error.obj
 0001:000c2e40       __query_app_type           004c3e40 f   libucrtd:report_runtime_error.obj
 0001:000c2e50       __set_app_type             004c3e50 f   libucrtd:report_runtime_error.obj
 0001:000c2e70       ??$__crt_fast_decode_pointer@P6AHPAU_exception@@@Z@@YAP6AHPAU_exception@@@ZQ6AH0@Z@Z 004c3e70 f i libucrtd:matherr.obj
 0001:000c2eb0       ??$__crt_fast_encode_pointer@P6AHPAU_exception@@@Z@@YAP6AHPAU_exception@@@ZQ6AH0@Z@Z 004c3eb0 f i libucrtd:matherr.obj
 0001:000c2ef0       ?get_current_state_index@__crt_state_management@@YAIXZ 004c3ef0 f i libucrtd:matherr.obj
 0001:000c2f00       ?initialize@?$dual_state_global@P6AHPAU_exception@@@Z@__crt_state_management@@QAEXQ6AHPAU_exception@@@Z@Z 004c3f00 f i libucrtd:matherr.obj
 0001:000c2f50       ?value@?$dual_state_global@P6AHPAU_exception@@@Z@__crt_state_management@@QAEAAP6AHPAU_exception@@@ZXZ 004c3f50 f i libucrtd:matherr.obj
 0001:000c2f70       ___acrt_has_user_matherr   004c3f70 f   libucrtd:matherr.obj
 0001:000c2fc0       ___acrt_initialize_user_matherr 004c3fc0 f   libucrtd:matherr.obj
 0001:000c2fe0       ___acrt_invoke_user_matherr 004c3fe0 f   libucrtd:matherr.obj
 0001:000c3060       ___setusermatherr          004c4060 f   libucrtd:matherr.obj
 0001:000c3090       ??$?RPAD@__crt_internal_free_policy@@QBEXQBQAD@Z 004c4090 f i libucrtd:argv_parsing.obj
 0001:000c30c0       ??$?RPA_W@__crt_internal_free_policy@@QBEXQBQA_W@Z 004c40c0 f i libucrtd:argv_parsing.obj
 0001:000c3770       ??$get_module_file_name@$$TAAY0BAF@DH@?$__crt_char_traits@D@@SAK$$QA$$TAAY0BAF@D$$QAH@Z 004c4770 f i libucrtd:argv_parsing.obj
 0001:000c37a0       ??$get_module_file_name@$$TAAY0BAF@_WH@?$__crt_char_traits@_W@@SAK$$QA$$TAAY0BAF@_W$$QAH@Z 004c47a0 f i libucrtd:argv_parsing.obj
 0001:000c4090       ??$set_program_name@PAD@?$__crt_char_traits@D@@SAX$$QAPAD@Z 004c5090 f i libucrtd:argv_parsing.obj
 0001:000c40b0       ??$set_program_name@PA_W@?$__crt_char_traits@_W@@SAX$$QAPA_W@Z 004c50b0 f i libucrtd:argv_parsing.obj
 0001:000c4110       ??0?$__crt_unique_heap_ptr@PADU__crt_internal_free_policy@@@@QAE@QAPAD@Z 004c5110 f i libucrtd:argv_parsing.obj
 0001:000c4130       ??0?$__crt_unique_heap_ptr@PA_WU__crt_internal_free_policy@@@@QAE@QAPA_W@Z 004c5130 f i libucrtd:argv_parsing.obj
 0001:000c4150       ??1?$__crt_unique_heap_ptr@PADU__crt_internal_free_policy@@@@QAE@XZ 004c5150 f i libucrtd:argv_parsing.obj
 0001:000c4170       ??1?$__crt_unique_heap_ptr@PA_WU__crt_internal_free_policy@@@@QAE@XZ 004c5170 f i libucrtd:argv_parsing.obj
 0001:000c4250       ?detach@?$__crt_unique_heap_ptr@EU__crt_internal_free_policy@@@@QAEPAEXZ 004c5250 f i libucrtd:argv_parsing.obj
 0001:000c4280       ?detach@?$__crt_unique_heap_ptr@PADU__crt_internal_free_policy@@@@QAEPAPADXZ 004c5280 f i libucrtd:argv_parsing.obj
 0001:000c42b0       ?detach@?$__crt_unique_heap_ptr@PA_WU__crt_internal_free_policy@@@@QAEPAPA_WXZ 004c52b0 f i libucrtd:argv_parsing.obj
 0001:000c4340       ?get@?$__crt_unique_heap_ptr@PADU__crt_internal_free_policy@@@@QBEPAPADXZ 004c5340 f i libucrtd:argv_parsing.obj
 0001:000c4360       ?get@?$__crt_unique_heap_ptr@PA_WU__crt_internal_free_policy@@@@QBEPAPA_WXZ 004c5360 f i libucrtd:argv_parsing.obj
 0001:000c4380       ?get_address_of@?$__crt_unique_heap_ptr@PADU__crt_internal_free_policy@@@@QAEPAPAPADXZ 004c5380 f i libucrtd:argv_parsing.obj
 0001:000c43a0       ?get_address_of@?$__crt_unique_heap_ptr@PA_WU__crt_internal_free_policy@@@@QAEPAPAPA_WXZ 004c53a0 f i libucrtd:argv_parsing.obj
 0001:000c4400       ?release@?$__crt_unique_heap_ptr@PADU__crt_internal_free_policy@@@@QAEXXZ 004c5400 f i libucrtd:argv_parsing.obj
 0001:000c4440       ?release@?$__crt_unique_heap_ptr@PA_WU__crt_internal_free_policy@@@@QAEXXZ 004c5440 f i libucrtd:argv_parsing.obj
 0001:000c44d0       ___acrt_allocate_buffer_for_argv 004c54d0 f   libucrtd:argv_parsing.obj
 0001:000c45c0       __configure_narrow_argv    004c55c0 f   libucrtd:argv_parsing.obj
 0001:000c45e0       __configure_wide_argv      004c55e0 f   libucrtd:argv_parsing.obj
 0001:000c4600       __set_pgmptr               004c5600 f i libucrtd:argv_parsing.obj
 0001:000c4620       __set_wpgmptr              004c5620 f i libucrtd:argv_parsing.obj
 0001:000c4632       ??$?R_W@__crt_internal_free_policy@@QBEXQB_W@Z 004c5632 f i libucrtd:environment_initialization.obj
 0001:000c4bad       ??$get_environment_from_os@$$$V@?$__crt_char_traits@D@@SAPADXZ 004c5bad f i libucrtd:environment_initialization.obj
 0001:000c4bb2       ??$get_environment_from_os@$$$V@?$__crt_char_traits@_W@@SAPA_WXZ 004c5bb2 f i libucrtd:environment_initialization.obj
 0001:000c4d19       ??$set_variable_in_environment_nolock@PADH@?$__crt_char_traits@D@@SAH$$QAPAD$$QAH@Z 004c5d19 f i libucrtd:environment_initialization.obj
 0001:000c4d37       ??$set_variable_in_environment_nolock@PA_WH@?$__crt_char_traits@_W@@SAH$$QAPA_W$$QAH@Z 004c5d37 f i libucrtd:environment_initialization.obj
 0001:000c4d55       ??$tcscpy_s@PADABIAAPAD@?$__crt_char_traits@D@@SAH$$QAPADABIAAPAD@Z 004c5d55 f i libucrtd:environment_initialization.obj
 0001:000c4d7a       ??$tcscpy_s@PA_WABIAAPA_W@?$__crt_char_traits@_W@@SAH$$QAPA_WABIAAPA_W@Z 004c5d7a f i libucrtd:environment_initialization.obj
 0001:000c4d9f       ??$tcslen@AAPAD@?$__crt_char_traits@D@@SAIAAPAD@Z 004c5d9f f i libucrtd:environment_initialization.obj
 0001:000c4dbd       ??$tcslen@AAPA_W@?$__crt_char_traits@_W@@SAIAAPA_W@Z 004c5dbd f i libucrtd:environment_initialization.obj
 0001:000c4de2       ??$uninitialize@A6AXAAPAPAD@Z@?$dual_state_global@PAPAD@__crt_state_management@@QAEXA6AXAAPAPAD@Z@Z 004c5de2 f i libucrtd:environment_initialization.obj
 0001:000c4e32       ??$uninitialize@A6AXAAPAPA_W@Z@?$dual_state_global@PAPA_W@__crt_state_management@@QAEXA6AXAAPAPA_W@Z@Z 004c5e32 f i libucrtd:environment_initialization.obj
 0001:000c4ec4       ??0?$__crt_unique_heap_ptr@_WU__crt_internal_free_policy@@@@QAE@QA_W@Z 004c5ec4 f i libucrtd:environment_initialization.obj
 0001:000c4ed8       ??1?$__crt_unique_heap_ptr@_WU__crt_internal_free_policy@@@@QAE@XZ 004c5ed8 f i libucrtd:environment_initialization.obj
 0001:000c4ef2       ??B?$__crt_unique_heap_ptr@PADU__crt_internal_free_policy@@@@QBE_NXZ 004c5ef2 f i libucrtd:environment_initialization.obj
 0001:000c4efc       ??B?$__crt_unique_heap_ptr@PA_WU__crt_internal_free_policy@@@@QBE_NXZ 004c5efc f i libucrtd:environment_initialization.obj
 0001:000c4f06       ??B?$__crt_unique_heap_ptr@_WU__crt_internal_free_policy@@@@QBE_NXZ 004c5f06 f i libucrtd:environment_initialization.obj
 0001:000c4f10       ?__crt_compute_required_transform_buffer_count@@YAIIQBD@Z 004c5f10 f i libucrtd:environment_initialization.obj
 0001:000c4f30       ?__crt_compute_required_transform_buffer_count@@YAIIQB_W@Z 004c5f30 f i libucrtd:environment_initialization.obj
 0001:000c4f53       ?__crt_transform_string@@YAIIQBDQA_WI@Z 004c5f53 f i libucrtd:environment_initialization.obj
 0001:000c4f77       ?__crt_transform_string@@YAIIQB_WQADI@Z 004c5f77 f i libucrtd:environment_initialization.obj
 0001:000c4f9f       ?detach@?$__crt_unique_heap_ptr@DU__crt_internal_free_policy@@@@QAEPADXZ 004c5f9f f i libucrtd:environment_initialization.obj
 0001:000c4fa5       ?detach@?$__crt_unique_heap_ptr@_WU__crt_internal_free_policy@@@@QAEPA_WXZ 004c5fa5 f i libucrtd:environment_initialization.obj
 0001:000c4fab       ?get@?$__crt_unique_heap_ptr@_WU__crt_internal_free_policy@@@@QBEPA_WXZ 004c5fab f i libucrtd:environment_initialization.obj
 0001:000c4fd2       ?initialize@?$dual_state_global@PAPAD@__crt_state_management@@QAEXQAPAD@Z 004c5fd2 f i libucrtd:environment_initialization.obj
 0001:000c500f       ?initialize@?$dual_state_global@PAPA_W@__crt_state_management@@QAEXQAPA_W@Z 004c600f f i libucrtd:environment_initialization.obj
 0001:000c504c       ?is_valid@?$__crt_unique_heap_ptr@PADU__crt_internal_free_policy@@@@QBE_NXZ 004c604c f i libucrtd:environment_initialization.obj
 0001:000c5056       ?is_valid@?$__crt_unique_heap_ptr@PA_WU__crt_internal_free_policy@@@@QBE_NXZ 004c6056 f i libucrtd:environment_initialization.obj
 0001:000c5060       ?is_valid@?$__crt_unique_heap_ptr@_WU__crt_internal_free_policy@@@@QBE_NXZ 004c6060 f i libucrtd:environment_initialization.obj
 0001:000c5070       ?release@?$__crt_unique_heap_ptr@_WU__crt_internal_free_policy@@@@QAEXXZ 004c6070 f i libucrtd:environment_initialization.obj
 0001:000c508a       ?value@?$dual_state_global@PAPAD@__crt_state_management@@QAEAAPAPADXZ 004c608a f i libucrtd:environment_initialization.obj
 0001:000c508d       ?value@?$dual_state_global@PAPA_W@__crt_state_management@@QAEAAPAPA_WXZ 004c608d f i libucrtd:environment_initialization.obj
 0001:000c5090       ___dcrt_get_or_create_narrow_environment_nolock 004c6090 f   libucrtd:environment_initialization.obj
 0001:000c5095       ___dcrt_get_or_create_wide_environment_nolock 004c6095 f   libucrtd:environment_initialization.obj
 0001:000c509a       ___dcrt_uninitialize_environments_nolock 004c609a f   libucrtd:environment_initialization.obj
 0001:000c50de       ___p__environ              004c60de f   libucrtd:environment_initialization.obj
 0001:000c50e4       ___p__wenviron             004c60e4 f   libucrtd:environment_initialization.obj
 0001:000c50ea       __get_initial_narrow_environment 004c60ea f   libucrtd:environment_initialization.obj
 0001:000c5103       __get_initial_wide_environment 004c6103 f   libucrtd:environment_initialization.obj
 0001:000c511c       __initialize_narrow_environment 004c611c f   libucrtd:environment_initialization.obj
 0001:000c5121       __initialize_wide_environment 004c6121 f   libucrtd:environment_initialization.obj
 0001:000c5130       __initterm                 004c6130 f   libucrtd:initterm.obj
 0001:000c51a0       __initterm_e               004c61a0 f   libucrtd:initterm.obj
 0001:000c5230       ??$__crt_interlocked_read@H@@YAHPDH@Z 004c6230 f i libucrtd:setmode.obj
 0001:000c5250       __get_fmode                004c6250 f   libucrtd:setmode.obj
 0001:000c5310       __set_fmode                004c6310 f   libucrtd:setmode.obj
 0001:000c53e0       __setmode                  004c63e0 f   libucrtd:setmode.obj
 0001:000c5740       __setmode_nolock           004c6740 f   libucrtd:setmode.obj
 0001:000c59e0       ___acrt_initialize_command_line 004c69e0 f   libucrtd:argv_data.obj
 0001:000c5a10       ___acrt_uninitialize_command_line 004c6a10 f   libucrtd:argv_data.obj
 0001:000c5a20       ___p___argc                004c6a20 f   libucrtd:argv_data.obj
 0001:000c5a30       ___p___argv                004c6a30 f   libucrtd:argv_data.obj
 0001:000c5a40       ___p___wargv               004c6a40 f   libucrtd:argv_data.obj
 0001:000c5a50       ___p__acmdln               004c6a50 f   libucrtd:argv_data.obj
 0001:000c5a60       ___p__pgmptr               004c6a60 f   libucrtd:argv_data.obj
 0001:000c5a70       ___p__wcmdln               004c6a70 f   libucrtd:argv_data.obj
 0001:000c5a80       ___p__wpgmptr              004c6a80 f   libucrtd:argv_data.obj
 0001:000c5a90       __get_pgmptr               004c6a90 f   libucrtd:argv_data.obj
 0001:000c5bf0       __get_wpgmptr              004c6bf0 f   libucrtd:argv_data.obj
 0001:000c5d60       ??$?RU__crt_locale_data@@@__crt_internal_free_policy@@QBEXQBU__crt_locale_data@@@Z 004c6d60 f i libucrtd:wsetlocale.obj
 0001:000c5d90       ??$?RU__crt_locale_pointers@@@__crt_internal_free_policy@@QBEXQBU__crt_locale_pointers@@@Z 004c6d90 f i libucrtd:wsetlocale.obj
 0001:000c5dc0       ??$?RU__crt_multibyte_data@@@__crt_internal_free_policy@@QBEXQBU__crt_multibyte_data@@@Z 004c6dc0 f i libucrtd:wsetlocale.obj
 0001:000c5df0       ??$?RV<lambda_0f92d0c5a8007722f95b3b6c71cd8e3e>@@AAV<lambda_321f9d61c14d59ff00145e45db1313e0>@@V<lambda_3298c911d7b53f44106027a7fde9a80a>@@@?$__crt_seh_guarded_call@X@@QAEX$$QAV<lambda_0f92d0c5a8007722f95b3b6c71cd8e3e>@@AAV<lambda_321f9d61c14d59ff00145e45db1313e0>@@$$QAV<lambda_3298c911d7b53f44106027a7fde9a80a>@@@Z 004c6df0 f i libucrtd:wsetlocale.obj
 0001:000c5e90       ??$?RV<lambda_507d9fd6b66e39451a8852ba73f804a7>@@AAV<lambda_565169b3e3b494427ce1bebdd17b54ac>@@AAV<lambda_f51fe5fd7c79a33db34fc9310f277369>@@@?$__crt_seh_guarded_call@X@@QAEX$$QAV<lambda_507d9fd6b66e39451a8852ba73f804a7>@@AAV<lambda_565169b3e3b494427ce1bebdd17b54ac>@@AAV<lambda_f51fe5fd7c79a33db34fc9310f277369>@@@Z 004c6e90 f i libucrtd:wsetlocale.obj
 0001:000c5f30       ??$?RV<lambda_76aaead6e312921abc834cb00a638bdd>@@AAV<lambda_176e34f99554166dd2fac165c457248c>@@V<lambda_998ee1c9f4290b119b936bcd6215875a>@@@?$__crt_seh_guarded_call@X@@QAEX$$QAV<lambda_76aaead6e312921abc834cb00a638bdd>@@AAV<lambda_176e34f99554166dd2fac165c457248c>@@$$QAV<lambda_998ee1c9f4290b119b936bcd6215875a>@@@Z 004c6f30 f i libucrtd:wsetlocale.obj
 0001:000c5fd0       ??$?RV<lambda_c9469061b39d205f0f236529d4a41659>@@AAV<lambda_b7fb1a997d3ebc0cc0186c5835178808>@@V<lambda_14b92c79d699846b5cc916cd4cf280e4>@@@?$__crt_seh_guarded_call@X@@QAEX$$QAV<lambda_c9469061b39d205f0f236529d4a41659>@@AAV<lambda_b7fb1a997d3ebc0cc0186c5835178808>@@$$QAV<lambda_14b92c79d699846b5cc916cd4cf280e4>@@@Z 004c6fd0 f i libucrtd:wsetlocale.obj
 0001:000c6070       ??$__acrt_lock_and_call@V<lambda_176e34f99554166dd2fac165c457248c>@@@@YAXW4__acrt_lock_id@@$$QAV<lambda_176e34f99554166dd2fac165c457248c>@@@Z 004c7070 f i libucrtd:wsetlocale.obj
 0001:000c60c0       ??$__acrt_lock_and_call@V<lambda_321f9d61c14d59ff00145e45db1313e0>@@@@YAXW4__acrt_lock_id@@$$QAV<lambda_321f9d61c14d59ff00145e45db1313e0>@@@Z 004c70c0 f i libucrtd:wsetlocale.obj
 0001:000c6110       ??$__acrt_lock_and_call@V<lambda_b7fb1a997d3ebc0cc0186c5835178808>@@@@YAXW4__acrt_lock_id@@$$QAV<lambda_b7fb1a997d3ebc0cc0186c5835178808>@@@Z 004c7110 f i libucrtd:wsetlocale.obj
 0001:000c6160       ??$__crt_call_and_cleanup@V<lambda_565169b3e3b494427ce1bebdd17b54ac>@@V<lambda_f51fe5fd7c79a33db34fc9310f277369>@@@@YAX$$QAV<lambda_565169b3e3b494427ce1bebdd17b54ac>@@$$QAV<lambda_f51fe5fd7c79a33db34fc9310f277369>@@@Z 004c7160 f i libucrtd:wsetlocale.obj
 0001:000c6190       ??$__vcrt_va_start_verify_argument_type@H@@YAXXZ 004c7190 f i libucrtd:wsetlocale.obj
 0001:000c63c0       ??0?$__crt_unique_heap_ptr@U__crt_locale_data@@U__crt_internal_free_policy@@@@QAE@QAU__crt_locale_data@@@Z 004c73c0 f i libucrtd:wsetlocale.obj
 0001:000c63e0       ??0?$__crt_unique_heap_ptr@U__crt_locale_pointers@@U__crt_internal_free_policy@@@@QAE@QAU__crt_locale_pointers@@@Z 004c73e0 f i libucrtd:wsetlocale.obj
 0001:000c6400       ??0?$__crt_unique_heap_ptr@U__crt_multibyte_data@@U__crt_internal_free_policy@@@@QAE@QAU__crt_multibyte_data@@@Z 004c7400 f i libucrtd:wsetlocale.obj
 0001:000c6420       ??1?$__crt_unique_heap_ptr@U__crt_locale_data@@U__crt_internal_free_policy@@@@QAE@XZ 004c7420 f i libucrtd:wsetlocale.obj
 0001:000c6440       ??1?$__crt_unique_heap_ptr@U__crt_locale_pointers@@U__crt_internal_free_policy@@@@QAE@XZ 004c7440 f i libucrtd:wsetlocale.obj
 0001:000c6460       ??1?$__crt_unique_heap_ptr@U__crt_multibyte_data@@U__crt_internal_free_policy@@@@QAE@XZ 004c7460 f i libucrtd:wsetlocale.obj
 0001:000c6480       ??B?$__crt_unique_heap_ptr@U__crt_locale_data@@U__crt_internal_free_policy@@@@QBE_NXZ 004c7480 f i libucrtd:wsetlocale.obj
 0001:000c64a0       ??B?$__crt_unique_heap_ptr@U__crt_locale_pointers@@U__crt_internal_free_policy@@@@QBE_NXZ 004c74a0 f i libucrtd:wsetlocale.obj
 0001:000c64c0       ??B?$__crt_unique_heap_ptr@U__crt_multibyte_data@@U__crt_internal_free_policy@@@@QBE_NXZ 004c74c0 f i libucrtd:wsetlocale.obj
 0001:000c6900       ?detach@?$__crt_unique_heap_ptr@U__crt_locale_data@@U__crt_internal_free_policy@@@@QAEPAU__crt_locale_data@@XZ 004c7900 f i libucrtd:wsetlocale.obj
 0001:000c6930       ?detach@?$__crt_unique_heap_ptr@U__crt_locale_pointers@@U__crt_internal_free_policy@@@@QAEPAU__crt_locale_pointers@@XZ 004c7930 f i libucrtd:wsetlocale.obj
 0001:000c6960       ?detach@?$__crt_unique_heap_ptr@U__crt_multibyte_data@@U__crt_internal_free_policy@@@@QAEPAU__crt_multibyte_data@@XZ 004c7960 f i libucrtd:wsetlocale.obj
 0001:000c6990       ?get@?$__crt_unique_heap_ptr@U__crt_locale_data@@U__crt_internal_free_policy@@@@QBEPAU__crt_locale_data@@XZ 004c7990 f i libucrtd:wsetlocale.obj
 0001:000c69b0       ?get@?$__crt_unique_heap_ptr@U__crt_locale_pointers@@U__crt_internal_free_policy@@@@QBEPAU__crt_locale_pointers@@XZ 004c79b0 f i libucrtd:wsetlocale.obj
 0001:000c69d0       ?get@?$__crt_unique_heap_ptr@U__crt_multibyte_data@@U__crt_internal_free_policy@@@@QBEPAU__crt_multibyte_data@@XZ 004c79d0 f i libucrtd:wsetlocale.obj
 0001:000c69f0       ?is_valid@?$__crt_unique_heap_ptr@U__crt_locale_data@@U__crt_internal_free_policy@@@@QBE_NXZ 004c79f0 f i libucrtd:wsetlocale.obj
 0001:000c6a30       ?is_valid@?$__crt_unique_heap_ptr@U__crt_locale_pointers@@U__crt_internal_free_policy@@@@QBE_NXZ 004c7a30 f i libucrtd:wsetlocale.obj
 0001:000c6a70       ?is_valid@?$__crt_unique_heap_ptr@U__crt_multibyte_data@@U__crt_internal_free_policy@@@@QBE_NXZ 004c7a70 f i libucrtd:wsetlocale.obj
 0001:000c6ab0       ?release@?$__crt_unique_heap_ptr@U__crt_locale_data@@U__crt_internal_free_policy@@@@QAEXXZ 004c7ab0 f i libucrtd:wsetlocale.obj
 0001:000c6af0       ?release@?$__crt_unique_heap_ptr@U__crt_locale_pointers@@U__crt_internal_free_policy@@@@QAEXXZ 004c7af0 f i libucrtd:wsetlocale.obj
 0001:000c6b30       ?release@?$__crt_unique_heap_ptr@U__crt_multibyte_data@@U__crt_internal_free_policy@@@@QAEXXZ 004c7b30 f i libucrtd:wsetlocale.obj
 0001:000c6b70       ?value@?$dual_state_global@PAU__crt_locale_data@@@__crt_state_management@@QAEAAPAU__crt_locale_data@@XZ 004c7b70 f i libucrtd:wsetlocale.obj
 0001:000c6b90       ___acrt_copy_locale_name   004c7b90 f   libucrtd:wsetlocale.obj
 0001:000c6c60       ___acrt_set_locale_changed 004c7c60 f   libucrtd:wsetlocale.obj
 0001:000c6c80       ___acrt_uninitialize_locale 004c7c80 f   libucrtd:wsetlocale.obj
 0001:000c6d50       ___lc_lctowcs              004c7d50 f   libucrtd:wsetlocale.obj
 0001:000c6e30       ___lc_wcstolc              004c7e30 f   libucrtd:wsetlocale.obj
 0001:000c70e0       __configthreadlocale       004c80e0 f   libucrtd:wsetlocale.obj
 0001:000c72c0       __create_locale            004c82c0 f   libucrtd:wsetlocale.obj
 0001:000c7350       __expandlocale             004c8350 f   libucrtd:wsetlocale.obj
 0001:000c7950       __free_locale              004c8950 f   libucrtd:wsetlocale.obj
 0001:000c7ad0       __get_current_locale       004c8ad0 f   libucrtd:wsetlocale.obj
 0001:000c7bd0       __wcreate_locale           004c8bd0 f   libucrtd:wsetlocale.obj
 0001:000c7e90       __wcscats                  004c8e90 f   libucrtd:wsetlocale.obj
 0001:000c7f30       __wsetlocale               004c8f30 f   libucrtd:wsetlocale.obj
 0001:000c9240       ?value@?$dual_state_global@J@__crt_state_management@@QAEAAJXZ 004ca240 f i libucrtd:new_mode.obj
 0001:000c9260       __query_new_mode           004ca260 f   libucrtd:new_mode.obj
 0001:000c9280       __set_new_mode             004ca280 f   libucrtd:new_mode.obj
 0001:000c9350       ___p__commode              004ca350 f   libucrtd:ncommode.obj
 0001:000c9360       __errcode                  004ca360 f   libucrtd:fpexcept.obj
 0001:000c93f0       __except1                  004ca3f0 f   libucrtd:fpexcept.obj
 0001:000c9530       __except2                  004ca530 f   libucrtd:fpexcept.obj
 0001:000c96e0       __handle_exc               004ca6e0 f   libucrtd:fpexcept.obj
 0001:000c9ac0       __handle_qnan2             004caac0 f   libucrtd:fpexcept.obj
 0001:000c9ae0       __raise_exc                004caae0 f   libucrtd:fpexcept.obj
 0001:000c9b20       __raise_exc_ex             004cab20 f   libucrtd:fpexcept.obj
 0001:000ca200       __raise_excf               004cb200 f   libucrtd:fpexcept.obj
 0001:000ca240       __set_errno_from_matherr   004cb240 f   libucrtd:fpexcept.obj
 0001:000ca290       __umatherr                 004cb290 f   libucrtd:fpexcept.obj
 0001:000ca360       ??$?BP6AXXZ@__crt_fast_encoded_nullptr_t@@QBEPAP6AXXZXZ 004cb360 f i libucrtd:onexit.obj
 0001:000ca380       ??$?RP6AXXZ@__crt_internal_free_policy@@QBEXQBQ6AXXZ@Z 004cb380 f i libucrtd:onexit.obj
 0001:000ca3b0       ??$?RV<lambda_821a00fc0e15a7fd532972332124005d>@@AAV<lambda_942beefa13ab35ff55f86422493ffd6a>@@V<lambda_3ab53bf64df1f1ff33dbc5b1929ce7a7>@@@?$__crt_seh_guarded_call@H@@QAEH$$QAV<lambda_821a00fc0e15a7fd532972332124005d>@@AAV<lambda_942beefa13ab35ff55f86422493ffd6a>@@$$QAV<lambda_3ab53bf64df1f1ff33dbc5b1929ce7a7>@@@Z 004cb3b0 f i libucrtd:onexit.obj
 0001:000ca460       ??$?RV<lambda_a12890e7f9ac9927a62bd0bbd5044c78>@@AAV<lambda_e971338317bfa523bb8920b43d823727>@@V<lambda_e618b16d59e79e236350cab8485990d2>@@@?$__crt_seh_guarded_call@H@@QAEH$$QAV<lambda_a12890e7f9ac9927a62bd0bbd5044c78>@@AAV<lambda_e971338317bfa523bb8920b43d823727>@@$$QAV<lambda_e618b16d59e79e236350cab8485990d2>@@@Z 004cb460 f i libucrtd:onexit.obj
 0001:000ca510       ??$__acrt_lock_and_call@V<lambda_942beefa13ab35ff55f86422493ffd6a>@@@@YAHW4__acrt_lock_id@@$$QAV<lambda_942beefa13ab35ff55f86422493ffd6a>@@@Z 004cb510 f i libucrtd:onexit.obj
 0001:000ca560       ??$__acrt_lock_and_call@V<lambda_e971338317bfa523bb8920b43d823727>@@@@YAHW4__acrt_lock_id@@$$QAV<lambda_e971338317bfa523bb8920b43d823727>@@@Z 004cb560 f i libucrtd:onexit.obj
 0001:000ca5b0       ??$__crt_fast_encode_pointer@P6AHXZ@@YAP6AHXZQ6AHXZ@Z 004cb5b0 f i libucrtd:onexit.obj
 0001:000ca700       ??0?$__crt_unique_heap_ptr@P6AXXZU__crt_internal_free_policy@@@@QAE@QAP6AXXZ@Z 004cb700 f i libucrtd:onexit.obj
 0001:000ca720       ??1?$__crt_unique_heap_ptr@P6AXXZU__crt_internal_free_policy@@@@QAE@XZ 004cb720 f i libucrtd:onexit.obj
 0001:000cac90       ?detach@?$__crt_unique_heap_ptr@P6AXXZU__crt_internal_free_policy@@@@QAEPAP6AXXZXZ 004cbc90 f i libucrtd:onexit.obj
 0001:000cacc0       ?release@?$__crt_unique_heap_ptr@P6AXXZU__crt_internal_free_policy@@@@QAEXXZ 004cbcc0 f i libucrtd:onexit.obj
 0001:000cad00       __crt_at_quick_exit        004cbd00 f   libucrtd:onexit.obj
 0001:000cad20       __crt_atexit               004cbd20 f   libucrtd:onexit.obj
 0001:000cad40       __execute_onexit_table     004cbd40 f   libucrtd:onexit.obj
 0001:000cad70       __initialize_onexit_table  004cbd70 f   libucrtd:onexit.obj
 0001:000cadf0       __register_onexit_function 004cbdf0 f   libucrtd:onexit.obj
 0001:000cb080       ?initialize@?$dual_state_global@PAU__crt_locale_data@@@__crt_state_management@@QAEXQAU__crt_locale_data@@@Z 004cc080 f i libucrtd:initialization.obj
 0001:000cb0d0       ___acrt_initialize         004cc0d0 f   libucrtd:initialization.obj
 0001:000cb0f0       ___acrt_thread_attach      004cc0f0 f   libucrtd:initialization.obj
 0001:000cb110       ___acrt_thread_detach      004cc110 f   libucrtd:initialization.obj
 0001:000cb130       ___acrt_uninitialize       004cc130 f   libucrtd:initialization.obj
 0001:000cb150       ___acrt_uninitialize_critical 004cc150 f   libucrtd:initialization.obj
 0001:000cb170       __controlfp_s              004cc170 f   libucrtd:contrlfp.obj
 0001:000cb2d0       __get_terminate            004cc2d0 f   libucrtd:terminate.obj
 0001:000cb2f0       _set_terminate             004cc2f0 f   libucrtd:terminate.obj
 0001:000cb330       _terminate                 004cc330 f   libucrtd:terminate.obj
 0001:000cd2a0       __CrtCheckMemory           004ce2a0 f   libucrtd:debug_heap.obj
 0001:000cd490       __CrtDoForAllClientObjects 004ce490 f   libucrtd:debug_heap.obj
 0001:000cd640       __CrtDumpMemoryLeaks       004ce640 f   libucrtd:debug_heap.obj
 0001:000cd700       __CrtGetAllocHook          004ce700 f   libucrtd:debug_heap.obj
 0001:000cd710       __CrtGetDumpClient         004ce710 f   libucrtd:debug_heap.obj
 0001:000cd720       __CrtIsMemoryBlock         004ce720 f   libucrtd:debug_heap.obj
 0001:000cd8c0       __CrtIsValidHeapPointer    004ce8c0 f   libucrtd:debug_heap.obj
 0001:000cd900       __CrtIsValidPointer        004ce900 f   libucrtd:debug_heap.obj
 0001:000cd930       __CrtMemCheckpoint         004ce930 f   libucrtd:debug_heap.obj
 0001:000cdbf0       __CrtMemDifference         004cebf0 f   libucrtd:debug_heap.obj
 0001:000cdf00       __CrtMemDumpAllObjectsSince 004cef00 f   libucrtd:debug_heap.obj
 0001:000cdfc0       __CrtMemDumpStatistics     004cefc0 f   libucrtd:debug_heap.obj
 0001:000ce130       __CrtReportBlockType       004cf130 f   libucrtd:debug_heap.obj
 0001:000ce170       __CrtSetAllocHook          004cf170 f   libucrtd:debug_heap.obj
 0001:000ce1a0       __CrtSetBreakAlloc         004cf1a0 f   libucrtd:debug_heap.obj
 0001:000ce1d0       __CrtSetDbgBlockType       004cf1d0 f   libucrtd:debug_heap.obj
 0001:000ce2e0       __CrtSetDbgFlag            004cf2e0 f   libucrtd:debug_heap.obj
 0001:000ce4b0       __CrtSetDumpClient         004cf4b0 f   libucrtd:debug_heap.obj
 0001:000ce4e0       ___p__crtBreakAlloc        004cf4e0 f   libucrtd:debug_heap.obj
 0001:000ce4f0       ___p__crtDbgFlag           004cf4f0 f   libucrtd:debug_heap.obj
 0001:000ce500       __aligned_free_dbg         004cf500 f   libucrtd:debug_heap.obj
 0001:000ce5e0       __aligned_malloc_dbg       004cf5e0 f   libucrtd:debug_heap.obj
 0001:000ce610       __aligned_msize_dbg        004cf610 f   libucrtd:debug_heap.obj
 0001:000ce780       __aligned_offset_malloc_dbg 004cf780 f   libucrtd:debug_heap.obj
 0001:000ce9d0       __aligned_offset_realloc_dbg 004cf9d0 f   libucrtd:debug_heap.obj
 0001:000ceda0       __aligned_offset_recalloc_dbg 004cfda0 f   libucrtd:debug_heap.obj
 0001:000cee90       __aligned_realloc_dbg      004cfe90 f   libucrtd:debug_heap.obj
 0001:000ceec0       __aligned_recalloc_dbg     004cfec0 f   libucrtd:debug_heap.obj
 0001:000cef00       __calloc_dbg               004cff00 f   libucrtd:debug_heap.obj
 0001:000cef90       __expand_dbg               004cff90 f   libucrtd:debug_heap.obj
 0001:000cf110       __free_dbg                 004d0110 f   libucrtd:debug_heap.obj
 0001:000cf1f0       __malloc_dbg               004d01f0 f   libucrtd:debug_heap.obj
 0001:000cf220       __msize_dbg                004d0220 f   libucrtd:debug_heap.obj
 0001:000cf410       __realloc_dbg              004d0410 f   libucrtd:debug_heap.obj
 0001:000cf4e0       __recalloc_dbg             004d04e0 f   libucrtd:debug_heap.obj
 0001:000cf990       _strcpy_s                  004d0990 f   libucrtd:strcpy_s.obj
 0001:000cf9c0       __set_abort_behavior       004d09c0 f   libucrtd:abort.obj
 0001:000cfa00       _abort                     004d0a00 f   libucrtd:abort.obj
 0001:000cfa90       ??$?RU?$__crt_report_hook_node@D@@@__crt_internal_free_policy@@QBEXQBU?$__crt_report_hook_node@D@@@Z 004d0a90 f i libucrtd:dbgrpt.obj
 0001:000cfac0       ??$?RU?$__crt_report_hook_node@_W@@@__crt_internal_free_policy@@QBEXQBU?$__crt_report_hook_node@_W@@@Z 004d0ac0 f i libucrtd:dbgrpt.obj
 0001:000cfaf0       ??$?RV<lambda_4385efabcfedf7d3ecea3114bb4d80a3>@@AAV<lambda_0e04737ef8baea6dabca2b8414b05b67>@@V<lambda_d865d276f220a9fa71140df531e906d8>@@@?$__crt_seh_guarded_call@H@@QAEH$$QAV<lambda_4385efabcfedf7d3ecea3114bb4d80a3>@@AAV<lambda_0e04737ef8baea6dabca2b8414b05b67>@@$$QAV<lambda_d865d276f220a9fa71140df531e906d8>@@@Z 004d0af0 f i libucrtd:dbgrpt.obj
 0001:000cfba0       ??$?RV<lambda_cc3a1c0f52e01ba2b29fe175588291fc>@@AAV<lambda_fe667bea668416e0f0232b481cd5c955>@@V<lambda_bb8fdd70844b93de4445abd0f0332611>@@@?$__crt_seh_guarded_call@H@@QAEH$$QAV<lambda_cc3a1c0f52e01ba2b29fe175588291fc>@@AAV<lambda_fe667bea668416e0f0232b481cd5c955>@@$$QAV<lambda_bb8fdd70844b93de4445abd0f0332611>@@@Z 004d0ba0 f i libucrtd:dbgrpt.obj
 0001:000cfc50       ??$__acrt_lock_and_call@V<lambda_0e04737ef8baea6dabca2b8414b05b67>@@@@YAHW4__acrt_lock_id@@$$QAV<lambda_0e04737ef8baea6dabca2b8414b05b67>@@@Z 004d0c50 f i libucrtd:dbgrpt.obj
 0001:000cfca0       ??$__acrt_lock_and_call@V<lambda_fe667bea668416e0f0232b481cd5c955>@@@@YAHW4__acrt_lock_id@@$$QAV<lambda_fe667bea668416e0f0232b481cd5c955>@@@Z 004d0ca0 f i libucrtd:dbgrpt.obj
 0001:000d0d00       ??0?$__crt_unique_heap_ptr@U?$__crt_report_hook_node@D@@U__crt_internal_free_policy@@@@QAE@QAU?$__crt_report_hook_node@D@@@Z 004d1d00 f i libucrtd:dbgrpt.obj
 0001:000d0d20       ??0?$__crt_unique_heap_ptr@U?$__crt_report_hook_node@_W@@U__crt_internal_free_policy@@@@QAE@QAU?$__crt_report_hook_node@_W@@@Z 004d1d20 f i libucrtd:dbgrpt.obj
 0001:000d0d40       ??1?$__crt_unique_heap_ptr@U?$__crt_report_hook_node@D@@U__crt_internal_free_policy@@@@QAE@XZ 004d1d40 f i libucrtd:dbgrpt.obj
 0001:000d0d60       ??1?$__crt_unique_heap_ptr@U?$__crt_report_hook_node@_W@@U__crt_internal_free_policy@@@@QAE@XZ 004d1d60 f i libucrtd:dbgrpt.obj
 0001:000d0d80       ??B?$__crt_unique_heap_ptr@U?$__crt_report_hook_node@D@@U__crt_internal_free_policy@@@@QBE_NXZ 004d1d80 f i libucrtd:dbgrpt.obj
 0001:000d0da0       ??B?$__crt_unique_heap_ptr@U?$__crt_report_hook_node@_W@@U__crt_internal_free_policy@@@@QBE_NXZ 004d1da0 f i libucrtd:dbgrpt.obj
 0001:000d1440       ?detach@?$__crt_unique_heap_ptr@U?$__crt_report_hook_node@D@@U__crt_internal_free_policy@@@@QAEPAU?$__crt_report_hook_node@D@@XZ 004d2440 f i libucrtd:dbgrpt.obj
 0001:000d1470       ?detach@?$__crt_unique_heap_ptr@U?$__crt_report_hook_node@_W@@U__crt_internal_free_policy@@@@QAEPAU?$__crt_report_hook_node@_W@@XZ 004d2470 f i libucrtd:dbgrpt.obj
 0001:000d14a0       ?get@?$__crt_unique_heap_ptr@U?$__crt_report_hook_node@D@@U__crt_internal_free_policy@@@@QBEPAU?$__crt_report_hook_node@D@@XZ 004d24a0 f i libucrtd:dbgrpt.obj
 0001:000d14c0       ?get@?$__crt_unique_heap_ptr@U?$__crt_report_hook_node@_W@@U__crt_internal_free_policy@@@@QBEPAU?$__crt_report_hook_node@_W@@XZ 004d24c0 f i libucrtd:dbgrpt.obj
 0001:000d1540       ?is_valid@?$__crt_unique_heap_ptr@U?$__crt_report_hook_node@D@@U__crt_internal_free_policy@@@@QBE_NXZ 004d2540 f i libucrtd:dbgrpt.obj
 0001:000d1580       ?is_valid@?$__crt_unique_heap_ptr@U?$__crt_report_hook_node@_W@@U__crt_internal_free_policy@@@@QBE_NXZ 004d2580 f i libucrtd:dbgrpt.obj
 0001:000d15c0       ?release@?$__crt_unique_heap_ptr@U?$__crt_report_hook_node@D@@U__crt_internal_free_policy@@@@QAEXXZ 004d25c0 f i libucrtd:dbgrpt.obj
 0001:000d1600       ?release@?$__crt_unique_heap_ptr@U?$__crt_report_hook_node@_W@@U__crt_internal_free_policy@@@@QAEXXZ 004d2600 f i libucrtd:dbgrpt.obj
 0001:000d1640       __CrtDbgReport             004d2640 f   libucrtd:dbgrpt.obj
 0001:000d16a0       __CrtDbgReportW            004d26a0 f   libucrtd:dbgrpt.obj
 0001:000d1700       __CrtSetReportHook2        004d2700 f   libucrtd:dbgrpt.obj
 0001:000d1720       __CrtSetReportHookW2       004d2720 f   libucrtd:dbgrpt.obj
 0001:000d1740       ___acrt_MessageWindowA     004d2740 f   libucrtd:dbgrpt.obj
 0001:000d1770       ___acrt_MessageWindowW     004d2770 f   libucrtd:dbgrpt.obj
 0001:000d17a0       __snwprintf_s              004d27a0 f i libucrtd:dbgrpt.obj
 0001:000d1800       __vsnwprintf_s_l           004d2800 f i libucrtd:dbgrpt.obj
 0001:000d1870       ??$make_c_string_character_source@D$$T@__crt_strtox@@YA?AV?$c_string_character_source@D@0@QBD$$T@Z 004d2870 f i libucrtd:atox.obj
 0001:000d1890       ??$make_c_string_character_source@_W$$T@__crt_strtox@@YA?AV?$c_string_character_source@_W@0@QB_W$$T@Z 004d2890 f i libucrtd:atox.obj
 0001:000d18b0       ??$parse_integer_from_string@JD$$T@__crt_strtox@@YAJQBD$$THQAU__crt_locale_pointers@@@Z 004d28b0 f i libucrtd:atox.obj
 0001:000d1900       ??$parse_integer_from_string@J_W$$T@__crt_strtox@@YAJQB_W$$THQAU__crt_locale_pointers@@@Z 004d2900 f i libucrtd:atox.obj
 0001:000d1950       ??$parse_integer_from_string@_JD$$T@__crt_strtox@@YA_JQBD$$THQAU__crt_locale_pointers@@@Z 004d2950 f i libucrtd:atox.obj
 0001:000d19a0       ??$parse_integer_from_string@_J_W$$T@__crt_strtox@@YA_JQB_W$$THQAU__crt_locale_pointers@@@Z 004d29a0 f i libucrtd:atox.obj
 0001:000d19f0       __atoi64                   004d29f0 f   libucrtd:atox.obj
 0001:000d1a10       __atoi64_l                 004d2a10 f   libucrtd:atox.obj
 0001:000d1a40       __atoi_l                   004d2a40 f   libucrtd:atox.obj
 0001:000d1a70       __atol_l                   004d2a70 f   libucrtd:atox.obj
 0001:000d1aa0       __atoll_l                  004d2aa0 f   libucrtd:atox.obj
 0001:000d1ad0       __wtoi                     004d2ad0 f   libucrtd:atox.obj
 0001:000d1af0       __wtoi64                   004d2af0 f   libucrtd:atox.obj
 0001:000d1b10       __wtoi64_l                 004d2b10 f   libucrtd:atox.obj
 0001:000d1b40       __wtoi_l                   004d2b40 f   libucrtd:atox.obj
 0001:000d1b70       __wtol                     004d2b70 f   libucrtd:atox.obj
 0001:000d1b90       __wtol_l                   004d2b90 f   libucrtd:atox.obj
 0001:000d1bc0       __wtoll                    004d2bc0 f   libucrtd:atox.obj
 0001:000d1be0       __wtoll_l                  004d2be0 f   libucrtd:atox.obj
 0001:000d1c10       _atoi                      004d2c10 f   libucrtd:atox.obj
 0001:000d1c30       _atol                      004d2c30 f   libucrtd:atox.obj
 0001:000d1c50       _atoll                     004d2c50 f   libucrtd:atox.obj
 0001:000d1c70       ??$__crt_fast_decode_pointer@P6AXPB_W00II@Z@@YAP6AXPB_W00II@ZQ6AX000II@Z@Z 004d2c70 f i libucrtd:invalid_parameter.obj
 0001:000d1cb0       ??$__crt_fast_encode_pointer@P6AXPB_W00II@Z@@YAP6AXPB_W00II@ZQ6AX000II@Z@Z 004d2cb0 f i libucrtd:invalid_parameter.obj
 0001:000d1cf0       ?initialize@?$dual_state_global@P6AXPB_W00II@Z@__crt_state_management@@QAEXQ6AXPB_W00II@Z@Z 004d2cf0 f i libucrtd:invalid_parameter.obj
 0001:000d1d40       ?value@?$dual_state_global@P6AXPB_W00II@Z@__crt_state_management@@QAEAAP6AXPB_W00II@ZXZ 004d2d40 f i libucrtd:invalid_parameter.obj
 0001:000d1d60       ___acrt_call_reportfault   004d2d60 f   libucrtd:invalid_parameter.obj
 0001:000d1f10       ___acrt_initialize_invalid_parameter_handler 004d2f10 f   libucrtd:invalid_parameter.obj
 0001:000d1f30       __get_invalid_parameter_handler 004d2f30 f   libucrtd:invalid_parameter.obj
 0001:000d1f60       __get_thread_local_invalid_parameter_handler 004d2f60 f   libucrtd:invalid_parameter.obj
 0001:000d1f90       __invalid_parameter        004d2f90 f   libucrtd:invalid_parameter.obj
 0001:000d2090       __invalid_parameter_noinfo 004d3090 f   libucrtd:invalid_parameter.obj
 0001:000d20b0       __invalid_parameter_noinfo_noreturn 004d30b0 f   libucrtd:invalid_parameter.obj
 0001:000d20f0       __invoke_watson            004d30f0 f   libucrtd:invalid_parameter.obj
 0001:000d2140       __set_invalid_parameter_handler 004d3140 f   libucrtd:invalid_parameter.obj
 0001:000d21a0       __set_thread_local_invalid_parameter_handler 004d31a0 f   libucrtd:invalid_parameter.obj
 0001:000d21e0       ___acrt_errno_from_os_error 004d31e0 f   libucrtd:errno.obj
 0001:000d2280       ___acrt_errno_map_os_error 004d3280 f   libucrtd:errno.obj
 0001:000d22c0       ___doserrno                004d32c0 f   libucrtd:errno.obj
 0001:000d22f0       __errno                    004d32f0 f   libucrtd:errno.obj
 0001:000d2320       __get_doserrno             004d3320 f   libucrtd:errno.obj
 0001:000d23d0       __get_errno                004d33d0 f   libucrtd:errno.obj
 0001:000d2480       __set_doserrno             004d3480 f   libucrtd:errno.obj
 0001:000d24c0       __set_errno                004d34c0 f   libucrtd:errno.obj
 0001:000d2560       ??$?B$$A6GHPA_WKJ@Z@__crt_fast_encoded_nullptr_t@@QBEP6GHPA_WKJ@ZXZ 004d3560 f i libucrtd:winapi_thunks.obj
 0001:000d2580       ??$?RV<lambda_9227be29367c048ad7fd93a717dcb1a1>@@AAV<lambda_a463b7b0560cfcaf9b17f27c6ef46564>@@V<lambda_ccea11b5727ccf69be64f5f5d9a08d9f>@@@?$__crt_seh_guarded_call@H@@QAEH$$QAV<lambda_9227be29367c048ad7fd93a717dcb1a1>@@AAV<lambda_a463b7b0560cfcaf9b17f27c6ef46564>@@$$QAV<lambda_ccea11b5727ccf69be64f5f5d9a08d9f>@@@Z 004d3580 f i libucrtd:winapi_thunks.obj
 0001:000d2630       ??$__acrt_lock_and_call@V<lambda_a463b7b0560cfcaf9b17f27c6ef46564>@@@@YAHW4__acrt_lock_id@@$$QAV<lambda_a463b7b0560cfcaf9b17f27c6ef46564>@@@Z 004d3630 f i libucrtd:winapi_thunks.obj
 0001:000d2680       ??$__crt_fast_decode_pointer@P6GHPA_WKJ@Z@@YAP6GHPA_WKJ@ZQ6GH0KJ@Z@Z 004d3680 f i libucrtd:winapi_thunks.obj
 0001:000d26c0       ??$__crt_fast_encode_pointer@P6GHPA_WKJ@Z@@YAP6GHPA_WKJ@ZQ6GH0KJ@Z@Z 004d36c0 f i libucrtd:winapi_thunks.obj
 0001:000d3290       ___acrt_AreFileApisANSI@0  004d4290 f   libucrtd:winapi_thunks.obj
 0001:000d32f0       ___acrt_CompareStringEx@36 004d42f0 f   libucrtd:winapi_thunks.obj
 0001:000d33b0       ___acrt_EnumSystemLocalesEx@16 004d43b0 f   libucrtd:winapi_thunks.obj
 0001:000d3440       ___acrt_FlsAlloc@4         004d4440 f   libucrtd:winapi_thunks.obj
 0001:000d34b0       ___acrt_FlsFree@4          004d44b0 f   libucrtd:winapi_thunks.obj
 0001:000d3520       ___acrt_FlsGetValue@4      004d4520 f   libucrtd:winapi_thunks.obj
 0001:000d3590       ___acrt_FlsSetValue@8      004d4590 f   libucrtd:winapi_thunks.obj
 0001:000d3600       ___acrt_GetDateFormatEx@28 004d4600 f   libucrtd:winapi_thunks.obj
 0001:000d36b0       ___acrt_GetEnabledXStateFeatures@0 004d46b0 f   libucrtd:winapi_thunks.obj
 0001:000d3710       ___acrt_GetFileInformationByHandleEx@16 004d4710 f   libucrtd:winapi_thunks.obj
 0001:000d3790       ___acrt_GetLocaleInfoEx@16 004d4790 f   libucrtd:winapi_thunks.obj
 0001:000d3820       ___acrt_GetSystemTimePreciseAsFileTime@4 004d4820 f   libucrtd:winapi_thunks.obj
 0001:000d3890       ___acrt_GetTimeFormatEx@24 004d4890 f   libucrtd:winapi_thunks.obj
 0001:000d3940       ___acrt_GetUserDefaultLocaleName@8 004d4940 f   libucrtd:winapi_thunks.obj
 0001:000d39c0       ___acrt_GetXStateFeaturesMask@8 004d49c0 f   libucrtd:winapi_thunks.obj
 0001:000d3a30       ___acrt_InitializeCriticalSectionEx@12 004d4a30 f   libucrtd:winapi_thunks.obj
 0001:000d3ab0       ___acrt_IsValidLocaleName@4 004d4ab0 f   libucrtd:winapi_thunks.obj
 0001:000d3b30       ___acrt_LCIDToLocaleName@16 004d4b30 f   libucrtd:winapi_thunks.obj
 0001:000d3bc0       ___acrt_LCMapStringEx@36   004d4bc0 f   libucrtd:winapi_thunks.obj
 0001:000d3c80       ___acrt_LocaleNameToLCID@8 004d4c80 f   libucrtd:winapi_thunks.obj
 0001:000d3cf0       ___acrt_LocateXStateFeature@12 004d4cf0 f   libucrtd:winapi_thunks.obj
 0001:000d3d60       ___acrt_MessageBoxA@16     004d4d60 f   libucrtd:winapi_thunks.obj
 0001:000d3dd0       ___acrt_MessageBoxW@16     004d4dd0 f   libucrtd:winapi_thunks.obj
 0001:000d3e40       ___acrt_RoInitialize@4     004d4e40 f   libucrtd:winapi_thunks.obj
 0001:000d3ea0       ___acrt_RoUninitialize@0   004d4ea0 f   libucrtd:winapi_thunks.obj
 0001:000d3ef0       ___acrt_RtlGenRandom@8     004d4ef0 f   libucrtd:winapi_thunks.obj
 0001:000d3f60       ___acrt_SetThreadStackGuarantee@4 004d4f60 f   libucrtd:winapi_thunks.obj
 0001:000d3fc0       ___acrt_can_show_message_box 004d4fc0 f   libucrtd:winapi_thunks.obj
 0001:000d4000       ___acrt_can_use_vista_locale_apis 004d5000 f   libucrtd:winapi_thunks.obj
 0001:000d4030       ___acrt_can_use_xstate_apis 004d5030 f   libucrtd:winapi_thunks.obj
 0001:000d4060       ___acrt_get_parent_window  004d5060 f   libucrtd:winapi_thunks.obj
 0001:000d4100       ___acrt_initialize_winapi_thunks 004d5100 f   libucrtd:winapi_thunks.obj
 0001:000d4180       ___acrt_is_interactive     004d5180 f   libucrtd:winapi_thunks.obj
 0001:000d4250       ___acrt_is_packaged_app    004d5250 f   libucrtd:winapi_thunks.obj
 0001:000d43b0       ___acrt_uninitialize_winapi_thunks 004d53b0 f   libucrtd:winapi_thunks.obj
 0001:000d4440       ??0__crt_stdio_stream@@QAE@QAU__crt_stdio_stream_data@@@Z 004d5440 f i libucrtd:closeall.obj
 0001:000d4460       ?is_in_use@__crt_stdio_stream@@QBE_NXZ 004d5460 f i libucrtd:closeall.obj
 0001:000d44a0       __fcloseall                004d54a0 f   libucrtd:closeall.obj
 0001:000d4620       ?__acrt_stdio_reset_buffer@@YAXV__crt_stdio_stream@@@Z 004d5620 f i libucrtd:fflush.obj
 0001:000d4660       ?has_all_of@__crt_stdio_stream@@QBE_NJ@Z 004d5660 f i libucrtd:fflush.obj
 0001:000d46b0       ?has_big_buffer@__crt_stdio_stream@@QBE_NXZ 004d56b0 f i libucrtd:fflush.obj
 0001:000d46d0       ?set_flags@__crt_stdio_stream@@QBE_NJ@Z 004d56d0 f i libucrtd:fflush.obj
 0001:000d4730       ?unset_flags@__crt_stdio_stream@@QBE_NJ@Z 004d5730 f i libucrtd:fflush.obj
 0001:000d4790       ___acrt_stdio_flush_nolock 004d5790 f   libucrtd:fflush.obj
 0001:000d48a0       __fflush_nolock            004d58a0 f   libucrtd:fflush.obj
 0001:000d4940       __flushall                 004d5940 f   libucrtd:fflush.obj
 0001:000d4b60       _fflush                    004d5b60 f   libucrtd:fflush.obj
 0001:000d4c30       ?has_crt_buffer@__crt_stdio_stream@@QBE_NXZ 004d5c30 f i libucrtd:_freebuf.obj
 0001:000d4c50       ___acrt_stdio_free_buffer_nolock 004d5c50 f   libucrtd:_freebuf.obj
 0001:000d50a0       ___acrt_initialize_lowio   004d60a0 f   libucrtd:ioinit.obj
 0001:000d5160       ___acrt_uninitialize_lowio 004d6160 f   libucrtd:ioinit.obj
 0001:000d51d0       __fgetwc_nolock            004d61d0 f   libucrtd:fgetwc.obj
 0001:000d5570       __fgetwchar                004d6570 f   libucrtd:fgetwc.obj
 0001:000d5590       __getwc_nolock             004d6590 f   libucrtd:fgetwc.obj
 0001:000d55b0       _fgetwc                    004d65b0 f   libucrtd:fgetwc.obj
 0001:000d5700       _getwc                     004d6700 f   libucrtd:fgetwc.obj
 0001:000d5720       _getwchar                  004d6720 f   libucrtd:fgetwc.obj
 0001:000d5730       ?lowio_handle@__crt_stdio_stream@@QBEHXZ 004d6730 f i libucrtd:fileno.obj
 0001:000d5760       __fileno                   004d6760 f   libucrtd:fileno.obj
 0001:000d5830       __fgetc_nolock             004d6830 f   libucrtd:fgetc.obj
 0001:000d5980       __fgetchar                 004d6980 f   libucrtd:fgetc.obj
 0001:000d59a0       __getc_nolock              004d69a0 f   libucrtd:fgetc.obj
 0001:000d59c0       _fgetc                     004d69c0 f   libucrtd:fgetc.obj
 0001:000d5cb0       _getc                      004d6cb0 f   libucrtd:fgetc.obj
 0001:000d5cd0       _getchar                   004d6cd0 f   libucrtd:fgetc.obj
 0001:000d5ce0       __fputc_nolock             004d6ce0 f   libucrtd:fputc.obj
 0001:000d5d90       __fputchar                 004d6d90 f   libucrtd:fputc.obj
 0001:000d5dc0       __putc_nolock              004d6dc0 f   libucrtd:fputc.obj
 0001:000d5de0       _fputc                     004d6de0 f   libucrtd:fputc.obj
 0001:000d60b0       _putc                      004d70b0 f   libucrtd:fputc.obj
 0001:000d60d0       _putchar                   004d70d0 f   libucrtd:fputc.obj
 0001:000d60f0       ??$?RV<lambda_11b4f7b0d3157825a5656a18eba1ae27>@@AAV<lambda_b51c0495177f500e782686251704ae76>@@V<lambda_cf89b47920b5017557bfe891e78aca36>@@@?$__crt_seh_guarded_call@I@@QAEI$$QAV<lambda_11b4f7b0d3157825a5656a18eba1ae27>@@AAV<lambda_b51c0495177f500e782686251704ae76>@@$$QAV<lambda_cf89b47920b5017557bfe891e78aca36>@@@Z 004d70f0 f i libucrtd:fwrite.obj
 0001:000d61a0       ??$__acrt_lock_stream_and_call@V<lambda_b51c0495177f500e782686251704ae76>@@@@YAIQAU_iobuf@@$$QAV<lambda_b51c0495177f500e782686251704ae76>@@@Z 004d71a0 f i libucrtd:fwrite.obj
 0001:000d6370       __fwrite_nolock            004d7370 f   libucrtd:fwrite.obj
 0001:000d6910       _fwrite                    004d7910 f   libucrtd:fwrite.obj
 0001:000d6a00       ?has_temporary_buffer@__crt_stdio_stream@@QBE_NXZ 004d7a00 f i libucrtd:_sftbuf.obj
 0001:000d6a20       ___acrt_stdio_begin_temporary_buffering_nolock 004d7a20 f   libucrtd:_sftbuf.obj
 0001:000d6c50       ___acrt_stdio_end_temporary_buffering_nolock 004d7c50 f   libucrtd:_sftbuf.obj
 0001:000d72d0       __tolower                  004d82d0 f   libucrtd:tolower_toupper.obj
 0001:000d72e0       __tolower_l                004d82e0 f   libucrtd:tolower_toupper.obj
 0001:000d7310       __toupper                  004d8310 f   libucrtd:tolower_toupper.obj
 0001:000d7320       __toupper_l                004d8320 f   libucrtd:tolower_toupper.obj
 0001:000d7350       _tolower                   004d8350 f   libucrtd:tolower_toupper.obj
 0001:000d73c0       _toupper                   004d83c0 f   libucrtd:tolower_toupper.obj
 0001:000d7430       __CrtGetDebugFillThreshold 004d8430 f   libucrtd:debug_fill_threshold.obj
 0001:000d7440       __CrtSetDebugFillThreshold 004d8440 f   libucrtd:debug_fill_threshold.obj
 0001:000d7470       __mbtowc_l                 004d8470 f   libucrtd:mbtowc.obj
 0001:000d7740       _mbtowc                    004d8740 f   libucrtd:mbtowc.obj
 0001:000d7770       __wctomb_l                 004d8770 f   libucrtd:wctomb.obj
 0001:000d7810       __wctomb_s_l               004d8810 f   libucrtd:wctomb.obj
 0001:000d7c20       _wctomb                    004d8c20 f   libucrtd:wctomb.obj
 0001:000d7c80       _wctomb_s                  004d8c80 f   libucrtd:wctomb.obj
 0001:000d8680       ??1?$__crt_simd_cleanup_guard@$00@@QAE@XZ 004d9680 f i libucrtd:strnlen.obj
 0001:000d86a0       ??1?$__crt_simd_cleanup_guard@$0A@@@QAE@XZ 004d96a0 f i libucrtd:strnlen.obj
 0001:000d86b0       ?compare_equals@?$__crt_simd_traits@$00E@@SA?AT__m256i@@T2@0@Z 004d96b0 f i libucrtd:strnlen.obj
 0001:000d8700       ?compare_equals@?$__crt_simd_traits@$00G@@SA?AT__m256i@@T2@0@Z 004d9700 f i libucrtd:strnlen.obj
 0001:000d8750       ?compare_equals@?$__crt_simd_traits@$0A@E@@SA?AT__m128i@@T2@0@Z 004d9750 f i libucrtd:strnlen.obj
 0001:000d87a0       ?compare_equals@?$__crt_simd_traits@$0A@G@@SA?AT__m128i@@T2@0@Z 004d97a0 f i libucrtd:strnlen.obj
 0001:000d87f0       ?compute_byte_mask@?$__crt_simd_pack_traits@$00@@SAHT__m256i@@@Z 004d97f0 f i libucrtd:strnlen.obj
 0001:000d8830       ?compute_byte_mask@?$__crt_simd_pack_traits@$0A@@@SAHT__m128i@@@Z 004d9830 f i libucrtd:strnlen.obj
 0001:000d8870       ?get_zero_pack@?$__crt_simd_pack_traits@$00@@SA?AT__m256i@@XZ 004d9870 f i libucrtd:strnlen.obj
 0001:000d88b0       ?get_zero_pack@?$__crt_simd_pack_traits@$0A@@@SA?AT__m128i@@XZ 004d98b0 f i libucrtd:strnlen.obj
 0001:000d88f0       _strnlen                   004d98f0 f   libucrtd:strnlen.obj
 0001:000d8910       _wcsnlen                   004d9910 f   libucrtd:strnlen.obj
 0001:000d8930       ??$?RU__acrt_ptd@@@__crt_internal_free_policy@@QBEXQBU__acrt_ptd@@@Z 004d9930 f i libucrtd:per_thread_data.obj
 0001:000d8960       ??$?RV<lambda_3518db117f0e7cdb002338c5d3c47b6c>@@AAV<lambda_b2ea41f6bbb362cd97d94c6828d90b61>@@V<lambda_abdedf541bb04549bc734292b4a045d4>@@@?$__crt_seh_guarded_call@X@@QAEX$$QAV<lambda_3518db117f0e7cdb002338c5d3c47b6c>@@AAV<lambda_b2ea41f6bbb362cd97d94c6828d90b61>@@$$QAV<lambda_abdedf541bb04549bc734292b4a045d4>@@@Z 004d9960 f i libucrtd:per_thread_data.obj
 0001:000d8a00       ??$?RV<lambda_5b71d36f03204c0beab531769a5b5694>@@AAV<lambda_be2b3da3f62db62e9dad5dc70221a656>@@V<lambda_8f9ce462984622f9bf76b59e2aaaf805>@@@?$__crt_seh_guarded_call@X@@QAEX$$QAV<lambda_5b71d36f03204c0beab531769a5b5694>@@AAV<lambda_be2b3da3f62db62e9dad5dc70221a656>@@$$QAV<lambda_8f9ce462984622f9bf76b59e2aaaf805>@@@Z 004d9a00 f i libucrtd:per_thread_data.obj
 0001:000d8aa0       ??$?RV<lambda_952b238c83a62ef8e81c72265e1e9aa0>@@AAV<lambda_801f60a70ab65355beb13c41cbe335bb>@@V<lambda_84d84f98815add542a0d6e6ca338feb2>@@@?$__crt_seh_guarded_call@X@@QAEX$$QAV<lambda_952b238c83a62ef8e81c72265e1e9aa0>@@AAV<lambda_801f60a70ab65355beb13c41cbe335bb>@@$$QAV<lambda_84d84f98815add542a0d6e6ca338feb2>@@@Z 004d9aa0 f i libucrtd:per_thread_data.obj
 0001:000d8b40       ??$?RV<lambda_9df27f884b057bc3edfc946cb5b7cf47>@@AAV<lambda_e69574bed617af4e071282c136b37893>@@V<lambda_cc0d902bcbbeb830f749456577db4721>@@@?$__crt_seh_guarded_call@X@@QAEX$$QAV<lambda_9df27f884b057bc3edfc946cb5b7cf47>@@AAV<lambda_e69574bed617af4e071282c136b37893>@@$$QAV<lambda_cc0d902bcbbeb830f749456577db4721>@@@Z 004d9b40 f i libucrtd:per_thread_data.obj
 0001:000d8be0       ??$__acrt_lock_and_call@V<lambda_801f60a70ab65355beb13c41cbe335bb>@@@@YAXW4__acrt_lock_id@@$$QAV<lambda_801f60a70ab65355beb13c41cbe335bb>@@@Z 004d9be0 f i libucrtd:per_thread_data.obj
 0001:000d8c30       ??$__acrt_lock_and_call@V<lambda_b2ea41f6bbb362cd97d94c6828d90b61>@@@@YAXW4__acrt_lock_id@@$$QAV<lambda_b2ea41f6bbb362cd97d94c6828d90b61>@@@Z 004d9c30 f i libucrtd:per_thread_data.obj
 0001:000d8c80       ??$__acrt_lock_and_call@V<lambda_be2b3da3f62db62e9dad5dc70221a656>@@@@YAXW4__acrt_lock_id@@$$QAV<lambda_be2b3da3f62db62e9dad5dc70221a656>@@@Z 004d9c80 f i libucrtd:per_thread_data.obj
 0001:000d8cd0       ??$__acrt_lock_and_call@V<lambda_e69574bed617af4e071282c136b37893>@@@@YAXW4__acrt_lock_id@@$$QAV<lambda_e69574bed617af4e071282c136b37893>@@@Z 004d9cd0 f i libucrtd:per_thread_data.obj
 0001:000d8f30       ??0?$__crt_unique_heap_ptr@U__acrt_ptd@@U__crt_internal_free_policy@@@@QAE@QAU__acrt_ptd@@@Z 004d9f30 f i libucrtd:per_thread_data.obj
 0001:000d8f50       ??0__crt_scoped_get_last_error_reset@@QAE@XZ 004d9f50 f i libucrtd:per_thread_data.obj
 0001:000d8f80       ??1?$__crt_unique_heap_ptr@U__acrt_ptd@@U__crt_internal_free_policy@@@@QAE@XZ 004d9f80 f i libucrtd:per_thread_data.obj
 0001:000d8fa0       ??1__crt_scoped_get_last_error_reset@@QAE@XZ 004d9fa0 f i libucrtd:per_thread_data.obj
 0001:000d8fc0       ??B?$__crt_unique_heap_ptr@U__acrt_ptd@@U__crt_internal_free_policy@@@@QBE_NXZ 004d9fc0 f i libucrtd:per_thread_data.obj
 0001:000d9380       ?dangerous_get_state_array@?$dual_state_global@PAU__crt_locale_data@@@__crt_state_management@@QAEPAPAU__crt_locale_data@@XZ 004da380 f i libucrtd:per_thread_data.obj
 0001:000d9560       ?detach@?$__crt_unique_heap_ptr@U__acrt_ptd@@U__crt_internal_free_policy@@@@QAEPAU__acrt_ptd@@XZ 004da560 f i libucrtd:per_thread_data.obj
 0001:000d9590       ?get@?$__crt_unique_heap_ptr@U__acrt_ptd@@U__crt_internal_free_policy@@@@QBEPAU__acrt_ptd@@XZ 004da590 f i libucrtd:per_thread_data.obj
 0001:000d9710       ?is_valid@?$__crt_unique_heap_ptr@U__acrt_ptd@@U__crt_internal_free_policy@@@@QBE_NXZ 004da710 f i libucrtd:per_thread_data.obj
 0001:000d9750       ?release@?$__crt_unique_heap_ptr@U__acrt_ptd@@U__crt_internal_free_policy@@@@QAEXXZ 004da750 f i libucrtd:per_thread_data.obj
 0001:000d9870       ___acrt_freeptd            004da870 f   libucrtd:per_thread_data.obj
 0001:000d98b0       ___acrt_getptd             004da8b0 f   libucrtd:per_thread_data.obj
 0001:000d98e0       ___acrt_getptd_noexit      004da8e0 f   libucrtd:per_thread_data.obj
 0001:000d98f0       ___acrt_initialize_ptd     004da8f0 f   libucrtd:per_thread_data.obj
 0001:000d9940       ___acrt_uninitialize_ptd   004da940 f   libucrtd:per_thread_data.obj
 0001:000d9970       ___threadhandle            004da970 f   libucrtd:per_thread_data.obj
 0001:000d9980       ___threadid                004da980 f   libucrtd:per_thread_data.obj
 0001:000d9990       ___acrt_update_locale_info 004da990 f   libucrtd:locale_update.obj
 0001:000d99e0       ___acrt_update_multibyte_info 004da9e0 f   libucrtd:locale_update.obj
 0001:000d9a20       ?__acrt_fp_classify@@YA?AW4__acrt_fp_class@@ABN@Z 004daa20 f i libucrtd:cvt.obj
 0001:000d9b80       ?__acrt_fp_is_negative@@YA_NABN@Z 004dab80 f i libucrtd:cvt.obj
 0001:000db030       ?strrchr@@YAPADQADH@Z      004dc030 f i libucrtd:cvt.obj
 0001:000db050       ___acrt_fp_format          004dc050 f   libucrtd:cvt.obj
 0001:000db600       __fputwc_nolock            004dc600 f   libucrtd:fputwc.obj
 0001:000db860       __fputwchar                004dc860 f   libucrtd:fputwc.obj
 0001:000db890       __putwc_nolock             004dc890 f   libucrtd:fputwc.obj
 0001:000db8b0       _fputwc                    004dc8b0 f   libucrtd:fputwc.obj
 0001:000dba00       _putwc                     004dca00 f   libucrtd:fputwc.obj
 0001:000dba20       _putwchar                  004dca20 f   libucrtd:fputwc.obj
 0001:000dba40       __get_printf_count_output  004dca40 f   libucrtd:printf_count_output.obj
 0001:000dba80       __set_printf_count_output  004dca80 f   libucrtd:printf_count_output.obj
 0001:000dbaf0       ___p___mb_cur_max          004dcaf0 f   libucrtd:nlsdata.obj
 0001:000dbb30       __iswctype_l               004dcb30 f   libucrtd:iswctype.obj
 0001:000dbb50       _iswctype                  004dcb50 f   libucrtd:iswctype.obj
 0001:000dbbe0       __chvalidator              004dcbe0 f   libucrtd:isctype.obj
 0001:000dbc40       __chvalidator_l            004dcc40 f   libucrtd:isctype.obj
 0001:000dbd00       __isctype                  004dcd00 f   libucrtd:isctype.obj
 0001:000dbd50       __isctype_l                004dcd50 f   libucrtd:isctype.obj
 0001:000dd460       __i64toa                   004de460 f   libucrtd:xtoa.obj
 0001:000dd4d0       __i64toa_s                 004de4d0 f   libucrtd:xtoa.obj
 0001:000dd540       __i64tow                   004de540 f   libucrtd:xtoa.obj
 0001:000dd5b0       __i64tow_s                 004de5b0 f   libucrtd:xtoa.obj
 0001:000dd620       __itoa                     004de620 f   libucrtd:xtoa.obj
 0001:000dd680       __itoa_s                   004de680 f   libucrtd:xtoa.obj
 0001:000dd6e0       __itow                     004de6e0 f   libucrtd:xtoa.obj
 0001:000dd740       __itow_s                   004de740 f   libucrtd:xtoa.obj
 0001:000dd7a0       __ltoa                     004de7a0 f   libucrtd:xtoa.obj
 0001:000dd800       __ltoa_s                   004de800 f   libucrtd:xtoa.obj
 0001:000dd860       __ltow                     004de860 f   libucrtd:xtoa.obj
 0001:000dd8c0       __ltow_s                   004de8c0 f   libucrtd:xtoa.obj
 0001:000dd920       __ui64toa                  004de920 f   libucrtd:xtoa.obj
 0001:000dd950       __ui64toa_s                004de950 f   libucrtd:xtoa.obj
 0001:000dd980       __ui64tow                  004de980 f   libucrtd:xtoa.obj
 0001:000dd9b0       __ui64tow_s                004de9b0 f   libucrtd:xtoa.obj
 0001:000dd9e0       __ultoa                    004de9e0 f   libucrtd:xtoa.obj
 0001:000dda10       __ultoa_s                  004dea10 f   libucrtd:xtoa.obj
 0001:000dda40       __ultow                    004dea40 f   libucrtd:xtoa.obj
 0001:000dda70       __ultow_s                  004dea70 f   libucrtd:xtoa.obj
 0001:000ddaa0       __set_error_mode           004deaa0 f   libucrtd:set_error_mode.obj
 0001:000de0c0       _wcscat_s                  004df0c0 f   libucrtd:wcscat_s.obj
 0001:000de4d0       _wcscpy_s                  004df4d0 f   libucrtd:wcscpy_s.obj
 0001:000deb00       _wcsncat_s                 004dfb00 f   libucrtd:wcsncat_s.obj
 0001:000deb30       _wcslen                    004dfb30 f   libucrtd:wcslen.obj
 0001:000df090       _strcat_s                  004e0090 f   libucrtd:strcat_s.obj
 0001:000df6a0       _strncat_s                 004e06a0 f   libucrtd:strncat_s.obj
 0001:000dfa70       ??$message_box@$$TAAPBDAAPBDAAI@?$__crt_char_traits@D@@SAH$$QA$$TAAPBD1AAI@Z 004e0a70 f i libucrtd:crtmbox.obj
 0001:000dfaa0       ??$message_box@$$TAAPB_WAAPB_WAAI@?$__crt_char_traits@_W@@SAH$$QA$$TAAPB_W1AAI@Z 004e0aa0 f i libucrtd:crtmbox.obj
 0001:000dfad0       ??$message_box@$$TABQBDABQBDK@?$__crt_char_traits@D@@SAH$$QA$$TABQBD1$$QAK@Z 004e0ad0 f i libucrtd:crtmbox.obj
 0001:000dfb00       ??$message_box@$$TABQB_WABQB_WK@?$__crt_char_traits@_W@@SAH$$QA$$TABQB_W1$$QAK@Z 004e0b00 f i libucrtd:crtmbox.obj
 0001:000dfb30       ??$message_box@PAUHWND__@@ABQBDABQBDABI@?$__crt_char_traits@D@@SAH$$QAPAUHWND__@@ABQBD1ABI@Z 004e0b30 f i libucrtd:crtmbox.obj
 0001:000dfb60       ??$message_box@PAUHWND__@@ABQB_WABQB_WABI@?$__crt_char_traits@_W@@SAH$$QAPAUHWND__@@ABQB_W1ABI@Z 004e0b60 f i libucrtd:crtmbox.obj
 0001:000dfc50       ??$output_debug_string@ABQBD@?$__crt_char_traits@D@@SAXABQBD@Z 004e0c50 f i libucrtd:crtmbox.obj
 0001:000dfc70       ??$output_debug_string@ABQB_W@?$__crt_char_traits@_W@@SAXABQB_W@Z 004e0c70 f i libucrtd:crtmbox.obj
 0001:000dfc90       ??0?$__crt_unique_handle_t@U__crt_handle_traits@@@@QAE@QAX@Z 004e0c90 f i libucrtd:crtmbox.obj
 0001:000dfcb0       ??1?$__crt_unique_handle_t@U__crt_handle_traits@@@@QAE@XZ 004e0cb0 f i libucrtd:crtmbox.obj
 0001:000dfcd0       ??B?$__crt_unique_handle_t@U__crt_handle_traits@@@@QBE_NXZ 004e0cd0 f i libucrtd:crtmbox.obj
 0001:000dfcf0       ?close@?$__crt_unique_handle_t@U__crt_handle_traits@@@@QAEXXZ 004e0cf0 f i libucrtd:crtmbox.obj
 0001:000dfd30       ?close@__crt_handle_traits@@SA_NPAX@Z 004e0d30 f i libucrtd:crtmbox.obj
 0001:000dfd70       ?get@?$__crt_unique_handle_t@U__crt_handle_traits@@@@QBEPAXXZ 004e0d70 f i libucrtd:crtmbox.obj
 0001:000dfd90       ?get_invalid_value@__crt_handle_traits@@SAPAXXZ 004e0d90 f i libucrtd:crtmbox.obj
 0001:000dfda0       ?is_valid@?$__crt_unique_handle_t@U__crt_handle_traits@@@@QBE_NXZ 004e0da0 f i libucrtd:crtmbox.obj
 0001:000dfde0       ___acrt_show_narrow_message_box 004e0de0 f   libucrtd:crtmbox.obj
 0001:000dfe10       ___acrt_show_wide_message_box 004e0e10 f   libucrtd:crtmbox.obj
 0001:000dfe40       ??$?RV<lambda_c58464cc0393550ab06f01720b646001>@@AAV<lambda_108d78a972a15edee025c8b3efe121dc>@@V<lambda_1a39be00af773e7199199dafcba04cc5>@@@?$__crt_seh_guarded_call@H@@QAEH$$QAV<lambda_c58464cc0393550ab06f01720b646001>@@AAV<lambda_108d78a972a15edee025c8b3efe121dc>@@$$QAV<lambda_1a39be00af773e7199199dafcba04cc5>@@@Z 004e0e40 f i libucrtd:setvbuf.obj
 0001:000dfef0       ??$__acrt_lock_stream_and_call@V<lambda_108d78a972a15edee025c8b3efe121dc>@@@@YAHQAU_iobuf@@$$QAV<lambda_108d78a972a15edee025c8b3efe121dc>@@@Z 004e0ef0 f i libucrtd:setvbuf.obj
 0001:000e0230       _setvbuf                   004e1230 f   libucrtd:setvbuf.obj
 0001:000e0480       ??$?B$$A6AXH@Z@__crt_fast_encoded_nullptr_t@@QBEP6AXH@ZXZ 004e1480 f i libucrtd:signal.obj
 0001:000e04a0       ??$?RV<lambda_a048d3beccc847880fc8490e18b82769>@@AAV<lambda_ec61778202f4f5fc7e7711acc23c3bca>@@V<lambda_f7496a158712204296dd6628a163878e>@@@?$__crt_seh_guarded_call@P6AXH@Z@@QAEP6AXH@Z$$QAV<lambda_a048d3beccc847880fc8490e18b82769>@@AAV<lambda_ec61778202f4f5fc7e7711acc23c3bca>@@$$QAV<lambda_f7496a158712204296dd6628a163878e>@@@Z 004e14a0 f i libucrtd:signal.obj
 0001:000e0550       ??$__acrt_lock_and_call@V<lambda_ec61778202f4f5fc7e7711acc23c3bca>@@@@YAP6AXH@ZW4__acrt_lock_id@@$$QAV<lambda_ec61778202f4f5fc7e7711acc23c3bca>@@@Z 004e1550 f i libucrtd:signal.obj
 0001:000e05a0       ??$__crt_fast_decode_pointer@P6AXH@Z@@YAP6AXH@ZQ6AXH@Z@Z 004e15a0 f i libucrtd:signal.obj
 0001:000e05e0       ??$__crt_fast_encode_pointer@P6AXH@Z@@YAP6AXH@ZQ6AXH@Z@Z 004e15e0 f i libucrtd:signal.obj
 0001:000e0960       ?initialize@?$dual_state_global@P6AXH@Z@__crt_state_management@@QAEXQ6AXH@Z@Z 004e1960 f i libucrtd:signal.obj
 0001:000e0a80       ?value@?$dual_state_global@P6AXH@Z@__crt_state_management@@QAEAAP6AXH@ZXZ 004e1a80 f i libucrtd:signal.obj
 0001:000e0aa0       ___acrt_get_sigabrt_handler 004e1aa0 f   libucrtd:signal.obj
 0001:000e0ac0       ___acrt_initialize_signal_handlers 004e1ac0 f   libucrtd:signal.obj
 0001:000e0b10       ___fpecode                 004e1b10 f   libucrtd:signal.obj
 0001:000e0b30       ___pxcptinfoptrs           004e1b30 f   libucrtd:signal.obj
 0001:000e0b50       _raise                     004e1b50 f   libucrtd:signal.obj
 0001:000e1020       _signal                    004e2020 f   libucrtd:signal.obj
 0001:000e1350       ___acrt_initialize_sse2    004e2350 f   libucrtd:mathfcns.obj
 0001:000e1370       __set_SSE2_enable          004e2370 f   libucrtd:mathfcns.obj
 0001:000e13d0       __CIcos_pentium4           004e23d0 f   libucrtd:cos_pentium4.obj
 0001:000e13e8       __cos_pentium4             004e23e8     libucrtd:cos_pentium4.obj
 0001:000e15f0       __trandisp1                004e25f0 f   libucrtd:87disp.obj
 0001:000e1657       __trandisp2                004e2657 f   libucrtd:87disp.obj
 0001:000e16e3       __rttospopde               004e26e3     libucrtd:87disp.obj
 0001:000e16e8       __rttospop                 004e26e8     libucrtd:87disp.obj
 0001:000e16ea       __rtnospop                 004e26ea     libucrtd:87disp.obj
 0001:000e16ec       __rttosnpop                004e26ec     libucrtd:87disp.obj
 0001:000e16ed       __rtnospopde               004e26ed     libucrtd:87disp.obj
 0001:000e16f4       __rtzeropop                004e26f4     libucrtd:87disp.obj
 0001:000e16f6       __rtzeronpop               004e26f6     libucrtd:87disp.obj
 0001:000e16fb       __rtzerospop               004e26fb     libucrtd:87disp.obj
 0001:000e1708       __rtonepop                 004e2708     libucrtd:87disp.obj
 0001:000e170a       __rtonenpop                004e270a     libucrtd:87disp.obj
 0001:000e170f       __tosnan1                  004e270f     libucrtd:87disp.obj
 0001:000e173a       __nosnan2                  004e273a     libucrtd:87disp.obj
 0001:000e173c       __tosnan2                  004e273c     libucrtd:87disp.obj
 0001:000e1764       __nan2                     004e2764     libucrtd:87disp.obj
 0001:000e17a3       __rtindfpop                004e27a3     libucrtd:87disp.obj
 0001:000e17a5       __rtindfnpop               004e27a5     libucrtd:87disp.obj
 0001:000e17b6       __rttosnpopde              004e27b6     libucrtd:87disp.obj
 0001:000e17c0       __rtatan2inf               004e27c0     libucrtd:87disp.obj
 0001:000e17dd       __rtchsifneg               004e27dd     libucrtd:87disp.obj
 0001:000e1870       ___setfflag                004e2870 f   libucrtd:fp_flags.obj
 0001:000e18a0       __twoToTOS                 004e28a0 f   libucrtd:common.obj
 0001:000e18b5       __load_CW                  004e28b5 f   libucrtd:common.obj
 0001:000e18cc       __convertTOStoQNaN         004e28cc f   libucrtd:common.obj
 0001:000e18e5       __fload_withFB             004e28e5 f   libucrtd:common.obj
 0001:000e1928       __checkTOS_withFB          004e2928 f   libucrtd:common.obj
 0001:000e193e       __fast_exit                004e293e f   libucrtd:common.obj
 0001:000e194b       __math_exit                004e294b f   libucrtd:common.obj
 0001:000e1975       __check_overflow_exit      004e2975 f   libucrtd:common.obj
 0001:000e1989       __check_range_exit         004e2989 f   libucrtd:common.obj
 0001:000e1a90       __startTwoArgErrorHandling 004e2a90 f   libucrtd:genexcep.obj
 0001:000e1aa7       __startOneArgErrorHandling 004e2aa7 f   libucrtd:genexcep.obj
 0001:000e1b00       ___ascii_strnicmp          004e2b00 f   libucrtd:_strnicm.obj
 0001:000e1b80       __cintrindisp2             004e2b80 f   libucrtd:87cdisp.obj
 0001:000e1bc4       __cintrindisp1             004e2bc4 f   libucrtd:87cdisp.obj
 0001:000e1c07       __ctrandisp2               004e2c07 f   libucrtd:87cdisp.obj
 0001:000e1d96       __ctrandisp1               004e2d96 f   libucrtd:87cdisp.obj
 0001:000e1dc9       __fload                    004e2dc9 f   libucrtd:87cdisp.obj
 0001:000e1eb0       __CIexp_pentium4           004e2eb0 f   libucrtd:exp_pentium4.obj
 0001:000e1ec8       __exp_pentium4             004e2ec8     libucrtd:exp_pentium4.obj
 0001:000e2231       __fFEXP                    004e3231     libucrtd:87tran.obj
 0001:000e2288       __rtinfpopse               004e3288     libucrtd:87tran.obj
 0001:000e228a       __rtinfnpopse              004e328a     libucrtd:87tran.obj
 0001:000e229a       __fFLN                     004e329a     libucrtd:87tran.obj
 0001:000e234f       __rtinfpop                 004e334f     libucrtd:87tran.obj
 0001:000e2351       __rtinfnpop                004e3351     libucrtd:87tran.obj
 0001:000e236e       __ffexpm1                  004e336e     libucrtd:87tran.obj
 0001:000e24a0       ___libm_error_support      004e34a0 f   libucrtd:libm_error.obj
 0001:000e2be0       ___libm_setusermatherr     004e3be0 f   libucrtd:libm_error.obj
 0001:000e2c20       __floor_default            004e3c20 f   libucrtd:floor.obj
 0001:000e2d80       __CIpow_pentium4           004e3d80 f   libucrtd:pow_pentium4.obj
 0001:000e2d99       __pow_pentium4             004e3d99     libucrtd:pow_pentium4.obj
 0001:000e3b70       __d_inttype                004e4b70 f   libucrtd:powhlp.obj
 0001:000e3c20       __powhlp                   004e4c20 f   libucrtd:powhlp.obj
 0001:000e3e30       __CIsin_pentium4           004e4e30 f   libucrtd:sin_pentium4.obj
 0001:000e3e48       __sin_pentium4             004e4e48     libucrtd:sin_pentium4.obj
 0001:000e4070       __add_exp                  004e5070 f   libucrtd:util.obj
 0001:000e40b0       __decomp                   004e50b0 f   libucrtd:util.obj
 0001:000e4220       __get_exp                  004e5220 f   libucrtd:util.obj
 0001:000e4260       __set_bexp                 004e5260 f   libucrtd:util.obj
 0001:000e42a0       __set_exp                  004e52a0 f   libucrtd:util.obj
 0001:000e42f0       __sptype                   004e52f0 f   libucrtd:util.obj
 0001:000e4390       ___clrfp_sse2              004e5390 f   libucrtd:fpctrl.obj
 0001:000e43e0       ___ctrlfp_sse2             004e53e0 f   libucrtd:fpctrl.obj
 0001:000e4450       ___fclrf_sse2              004e5450 f   libucrtd:fpctrl.obj
 0001:000e4480       ___get_fpsr_sse2           004e5480 f   libucrtd:fpctrl.obj
 0001:000e44b0       ___set_fpsr_sse2           004e54b0 f   libucrtd:fpctrl.obj
 0001:000e45c0       ___set_statfp_sse2         004e55c0 f   libucrtd:fpctrl.obj
 0001:000e4600       ___statfp_sse2             004e5600 f   libucrtd:fpctrl.obj
 0001:000e4640       __clrfp                    004e5640 f   libucrtd:fpctrl.obj
 0001:000e4660       __ctrlfp                   004e5660 f   libucrtd:fpctrl.obj
 0001:000e46a0       __set_statfp               004e56a0 f   libucrtd:fpctrl.obj
 0001:000e4720       __statfp                   004e5720 f   libucrtd:fpctrl.obj
 0001:000e4740       __CIlog_pentium4           004e5740 f   libucrtd:log_pentium4.obj
 0001:000e4758       __log_pentium4             004e5758     libucrtd:log_pentium4.obj
 0001:000e4a50       __CIatan_pentium4          004e5a50 f   libucrtd:atan_pentium4.obj
 0001:000e4a68       __atan_pentium4            004e5a68     libucrtd:atan_pentium4.obj
 0001:000e4dd0       ___pctype_func             004e5dd0 f   libucrtd:ctype.obj
 0001:000e4e10       ___pwctype_func            004e5e10 f   libucrtd:ctype.obj
 0001:000e5200       __ungetwc_nolock           004e6200 f   libucrtd:ungetwc.obj
 0001:000e53a0       _ungetwc                   004e63a0 f   libucrtd:ungetwc.obj
 0001:000e54f0       __ungetc_nolock            004e64f0 f   libucrtd:ungetc.obj
 0001:000e5830       _ungetc                    004e6830 f   libucrtd:ungetc.obj
 0001:000e5980       ___fpe_flt_rounds          004e6980 f   libucrtd:fegetround.obj
 0001:000e5a00       _fegetround                004e6a00 f   libucrtd:fegetround.obj
 0001:000e5a30       ___acrt_initialize_locks   004e6a30 f   libucrtd:locks.obj
 0001:000e5ab0       ___acrt_lock               004e6ab0 f   libucrtd:locks.obj
 0001:000e5ad0       ___acrt_uninitialize_locks 004e6ad0 f   libucrtd:locks.obj
 0001:000e5b30       ___acrt_unlock             004e6b30 f   libucrtd:locks.obj
 0001:000e5b50       __lock_locales             004e6b50 f   libucrtd:locks.obj
 0001:000e5b70       __unlock_locales           004e6b70 f   libucrtd:locks.obj
 0001:000e60c0       _wcsncpy_s                 004e70c0 f   libucrtd:wcsncpy_s.obj
 0001:000e73d0       ??$find_first_file_ex@ABQADW4_FINDEX_INFO_LEVELS@@PAU_WIN32_FIND_DATAA@@W4_FINDEX_SEARCH_OPS@@$$TH@?$__crt_char_traits@D@@SAPAXABQAD$$QAW4_FINDEX_INFO_LEVELS@@$$QAPAU_WIN32_FIND_DATAA@@$$QAW4_FINDEX_SEARCH_OPS@@$$QA$$T$$QAH@Z 004e83d0 f i libucrtd:argv_wildcards.obj
 0001:000e7410       ??$find_first_file_ex@ABQA_WW4_FINDEX_INFO_LEVELS@@PAU_WIN32_FIND_DATAW@@W4_FINDEX_SEARCH_OPS@@$$TH@?$__crt_char_traits@_W@@SAPAXABQA_W$$QAW4_FINDEX_INFO_LEVELS@@$$QAPAU_WIN32_FIND_DATAW@@$$QAW4_FINDEX_SEARCH_OPS@@$$QA$$T$$QAH@Z 004e8410 f i libucrtd:argv_wildcards.obj
 0001:000e7450       ??$find_next_file@PAXPAU_WIN32_FIND_DATAA@@@?$__crt_char_traits@D@@SAH$$QAPAX$$QAPAU_WIN32_FIND_DATAA@@@Z 004e8450 f i libucrtd:argv_wildcards.obj
 0001:000e7470       ??$find_next_file@PAXPAU_WIN32_FIND_DATAW@@@?$__crt_char_traits@_W@@SAH$$QAPAX$$QAPAU_WIN32_FIND_DATAW@@@Z 004e8470 f i libucrtd:argv_wildcards.obj
 0001:000e7490       ??$tcsncpy_s@AAPADIAAPADABI@?$__crt_char_traits@D@@SAHAAPAD$$QAI0ABI@Z 004e8490 f i libucrtd:argv_wildcards.obj
 0001:000e74c0       ??$tcsncpy_s@AAPA_WIAAPA_WABI@?$__crt_char_traits@_W@@SAHAAPA_W$$QAI0ABI@Z 004e84c0 f i libucrtd:argv_wildcards.obj
 0001:000e74f0       ??$tcsncpy_s@PAD$$CBIABQBDABI@?$__crt_char_traits@D@@SAH$$QAPAD$$QBIABQBDABI@Z 004e84f0 f i libucrtd:argv_wildcards.obj
 0001:000e7520       ??$tcsncpy_s@PADABIABQBDABI@?$__crt_char_traits@D@@SAH$$QAPADABIABQBD1@Z 004e8520 f i libucrtd:argv_wildcards.obj
 0001:000e7550       ??$tcsncpy_s@PA_W$$CBIABQB_WABI@?$__crt_char_traits@_W@@SAH$$QAPA_W$$QBIABQB_WABI@Z 004e8550 f i libucrtd:argv_wildcards.obj
 0001:000e7580       ??$tcsncpy_s@PA_WABIABQB_WABI@?$__crt_char_traits@_W@@SAH$$QAPA_WABIABQB_W1@Z 004e8580 f i libucrtd:argv_wildcards.obj
 0001:000e75b0       ??$tcspbrk@AAPADAAY02$$CBD@?$__crt_char_traits@D@@SAPADAAPADAAY02$$CBD@Z 004e85b0 f i libucrtd:argv_wildcards.obj
 0001:000e75d0       ??$tcspbrk@AAPA_WAAY02$$CB_W@?$__crt_char_traits@_W@@SAPA_WAAPA_WAAY02$$CB_W@Z 004e85d0 f i libucrtd:argv_wildcards.obj
 0001:000e75f0       ??0?$__crt_unique_handle_t@U__crt_findfile_traits@@@@QAE@QAX@Z 004e85f0 f i libucrtd:argv_wildcards.obj
 0001:000e7610       ??0?$argument_list@D@?A0x536e2c96@@QAE@XZ 004e8610 f i libucrtd:argv_wildcards.obj
 0001:000e7650       ??0?$argument_list@_W@?A0x536e2c96@@QAE@XZ 004e8650 f i libucrtd:argv_wildcards.obj
 0001:000e7690       ??1?$__crt_unique_handle_t@U__crt_findfile_traits@@@@QAE@XZ 004e8690 f i libucrtd:argv_wildcards.obj
 0001:000e76b0       ??1?$argument_list@D@?A0x536e2c96@@QAE@XZ 004e86b0 f i libucrtd:argv_wildcards.obj
 0001:000e7720       ??1?$argument_list@_W@?A0x536e2c96@@QAE@XZ 004e8720 f i libucrtd:argv_wildcards.obj
 0001:000e7870       ?append@?$argument_list@D@?A0x536e2c96@@QAEHQAD@Z 004e8870 f i libucrtd:argv_wildcards.obj
 0001:000e78e0       ?append@?$argument_list@_W@?A0x536e2c96@@QAEHQA_W@Z 004e88e0 f i libucrtd:argv_wildcards.obj
 0001:000e7950       ?begin@?$argument_list@D@?A0x536e2c96@@QBEPAPADXZ 004e8950 f i libucrtd:argv_wildcards.obj
 0001:000e7970       ?begin@?$argument_list@_W@?A0x536e2c96@@QBEPAPA_WXZ 004e8970 f i libucrtd:argv_wildcards.obj
 0001:000e7990       ?close@?$__crt_unique_handle_t@U__crt_findfile_traits@@@@QAEXXZ 004e8990 f i libucrtd:argv_wildcards.obj
 0001:000e79d0       ?close@__crt_findfile_traits@@SA_NPAX@Z 004e89d0 f i libucrtd:argv_wildcards.obj
 0001:000e7a10       ?end@?$argument_list@D@?A0x536e2c96@@QBEPAPADXZ 004e8a10 f i libucrtd:argv_wildcards.obj
 0001:000e7a30       ?end@?$argument_list@_W@?A0x536e2c96@@QBEPAPA_WXZ 004e8a30 f i libucrtd:argv_wildcards.obj
 0001:000e7a50       ?expand_if_necessary@?$argument_list@D@?A0x536e2c96@@AAEHXZ 004e8a50 f i libucrtd:argv_wildcards.obj
 0001:000e7c00       ?expand_if_necessary@?$argument_list@_W@?A0x536e2c96@@AAEHXZ 004e8c00 f i libucrtd:argv_wildcards.obj
 0001:000e7db0       ?get@?$__crt_unique_handle_t@U__crt_findfile_traits@@@@QBEPAXXZ 004e8db0 f i libucrtd:argv_wildcards.obj
 0001:000e7dd0       ?get_invalid_value@__crt_findfile_traits@@SAPAXXZ 004e8dd0 f i libucrtd:argv_wildcards.obj
 0001:000e7e10       ?size@?$argument_list@D@?A0x536e2c96@@QBEIXZ 004e8e10 f i libucrtd:argv_wildcards.obj
 0001:000e7e40       ?size@?$argument_list@_W@?A0x536e2c96@@QBEIXZ 004e8e40 f i libucrtd:argv_wildcards.obj
 0001:000e7e70       ?strpbrk@@YAPADQADQBD@Z    004e8e70 f i libucrtd:argv_wildcards.obj
 0001:000e7e90       ?wcspbrk@@YAPA_WPA_WPB_W@Z 004e8e90 f i libucrtd:argv_wildcards.obj
 0001:000e7eb0       ___acrt_expand_narrow_argv_wildcards 004e8eb0 f   libucrtd:argv_wildcards.obj
 0001:000e7ed0       ___acrt_expand_wide_argv_wildcards 004e8ed0 f   libucrtd:argv_wildcards.obj
 0001:000e7ef0       ??$?RV<lambda_694f386f8d9a4d7d5afe1ac229f209db>@@AAV<lambda_2f900415df1f7f624cdaaefe86d0b1c0>@@V<lambda_17c2d007e408fdf31ce10a4c853c6ffa>@@@?$__crt_seh_guarded_call@X@@QAEX$$QAV<lambda_694f386f8d9a4d7d5afe1ac229f209db>@@AAV<lambda_2f900415df1f7f624cdaaefe86d0b1c0>@@$$QAV<lambda_17c2d007e408fdf31ce10a4c853c6ffa>@@@Z 004e8ef0 f i libucrtd:mbctype.obj
 0001:000e7f90       ??$__acrt_lock_and_call@V<lambda_2f900415df1f7f624cdaaefe86d0b1c0>@@@@YAXW4__acrt_lock_id@@$$QAV<lambda_2f900415df1f7f624cdaaefe86d0b1c0>@@@Z 004e8f90 f i libucrtd:mbctype.obj
 0001:000e8b20       ___acrt_initialize_multibyte 004e9b20 f   libucrtd:mbctype.obj
 0001:000e8b50       ___acrt_update_thread_multibyte_data 004e9b50 f   libucrtd:mbctype.obj
 0001:000e8ca0       ___p__mbcasemap            004e9ca0 f   libucrtd:mbctype.obj
 0001:000e8cc0       ___p__mbctype              004e9cc0 f   libucrtd:mbctype.obj
 0001:000e8ce0       __getmbcp                  004e9ce0 f   libucrtd:mbctype.obj
 0001:000e8d70       __setmbcp                  004e9d70 f   libucrtd:mbctype.obj
 0001:000e8d90       __setmbcp_nolock           004e9d90 f   libucrtd:mbctype.obj
 0001:000e93ab       __ismbbalnum               004ea3ab f   libucrtd:ismbbyte.obj
 0001:000e93cc       __ismbbalnum_l             004ea3cc f   libucrtd:ismbbyte.obj
 0001:000e93ef       __ismbbalpha               004ea3ef f   libucrtd:ismbbyte.obj
 0001:000e9410       __ismbbalpha_l             004ea410 f   libucrtd:ismbbyte.obj
 0001:000e9433       __ismbbblank               004ea433 f   libucrtd:ismbbyte.obj
 0001:000e945e       __ismbbblank_l             004ea45e f   libucrtd:ismbbyte.obj
 0001:000e948b       __ismbbgraph               004ea48b f   libucrtd:ismbbyte.obj
 0001:000e94ac       __ismbbgraph_l             004ea4ac f   libucrtd:ismbbyte.obj
 0001:000e94cf       __ismbbkalnum              004ea4cf f   libucrtd:ismbbyte.obj
 0001:000e94ed       __ismbbkalnum_l            004ea4ed f   libucrtd:ismbbyte.obj
 0001:000e950c       __ismbbkana                004ea50c f   libucrtd:ismbbyte.obj
 0001:000e9523       __ismbbkana_l              004ea523 f   libucrtd:ismbbyte.obj
 0001:000e9588       __ismbbkprint              004ea588 f   libucrtd:ismbbyte.obj
 0001:000e95a6       __ismbbkprint_l            004ea5a6 f   libucrtd:ismbbyte.obj
 0001:000e95c5       __ismbbkpunct              004ea5c5 f   libucrtd:ismbbyte.obj
 0001:000e95e3       __ismbbkpunct_l            004ea5e3 f   libucrtd:ismbbyte.obj
 0001:000e9602       __ismbblead                004ea602 f   libucrtd:ismbbyte.obj
 0001:000e9620       __ismbblead_l              004ea620 f   libucrtd:ismbbyte.obj
 0001:000e963f       __ismbbprint               004ea63f f   libucrtd:ismbbyte.obj
 0001:000e9660       __ismbbprint_l             004ea660 f   libucrtd:ismbbyte.obj
 0001:000e9683       __ismbbpunct               004ea683 f   libucrtd:ismbbyte.obj
 0001:000e96a1       __ismbbpunct_l             004ea6a1 f   libucrtd:ismbbyte.obj
 0001:000e96c0       __ismbbtrail               004ea6c0 f   libucrtd:ismbbyte.obj
 0001:000e96de       __ismbbtrail_l             004ea6de f   libucrtd:ismbbyte.obj
 0001:000e96fd       ??0?$__crt_unique_handle_t@Uenvironment_strings_traits@?A0xda6148bb@@@@QAE@QA_W@Z 004ea6fd f i libucrtd:get_environment_from_os.obj
 0001:000e9711       ??1?$__crt_unique_handle_t@Uenvironment_strings_traits@?A0xda6148bb@@@@QAE@XZ 004ea711 f i libucrtd:get_environment_from_os.obj
 0001:000e972d       ??B?$__crt_unique_handle_t@Uenvironment_strings_traits@?A0xda6148bb@@@@QBE_NXZ 004ea72d f i libucrtd:get_environment_from_os.obj
 0001:000e9737       ?close@?$__crt_unique_handle_t@Uenvironment_strings_traits@?A0xda6148bb@@@@QAEXXZ 004ea737 f i libucrtd:get_environment_from_os.obj
 0001:000e9753       ?close@environment_strings_traits@?A0xda6148bb@@SA_NPA_W@Z 004ea753 f i libucrtd:get_environment_from_os.obj
 0001:000e97ad       ?get@?$__crt_unique_handle_t@Uenvironment_strings_traits@?A0xda6148bb@@@@QBEPA_WXZ 004ea7ad f i libucrtd:get_environment_from_os.obj
 0001:000e97b0       ?get_invalid_value@environment_strings_traits@?A0xda6148bb@@SAPA_WXZ 004ea7b0 f i libucrtd:get_environment_from_os.obj
 0001:000e97b3       ?is_valid@?$__crt_unique_handle_t@Uenvironment_strings_traits@?A0xda6148bb@@@@QBE_NXZ 004ea7b3 f i libucrtd:get_environment_from_os.obj
 0001:000e97bd       ___dcrt_get_narrow_environment_from_os 004ea7bd f   libucrtd:get_environment_from_os.obj
 0001:000e9872       ___dcrt_get_wide_environment_from_os 004ea872 f   libucrtd:get_environment_from_os.obj
 0001:000ea412       ??$get_or_create_environment_nolock@$$$V@?$__crt_char_traits@D@@SAPAPADXZ 004eb412 f i libucrtd:setenv.obj
 0001:000ea417       ??$get_or_create_environment_nolock@$$$V@?$__crt_char_traits@_W@@SAPAPA_WXZ 004eb417 f i libucrtd:setenv.obj
 0001:000ea41c       ??$set_environment_variable@ABQADQAD@?$__crt_char_traits@D@@SAHABQAD$$QBQAD@Z 004eb41c f i libucrtd:setenv.obj
 0001:000ea438       ??$set_environment_variable@ABQA_WQA_W@?$__crt_char_traits@_W@@SAHABQA_W$$QBQA_W@Z 004eb438 f i libucrtd:setenv.obj
 0001:000ea454       ??$tcschr@ABQADD@?$__crt_char_traits@D@@SAPADABQAD$$QAD@Z 004eb454 f i libucrtd:setenv.obj
 0001:000ea474       ??$tcschr@ABQA_WD@?$__crt_char_traits@_W@@SAPA_WABQA_W$$QAD@Z 004eb474 f i libucrtd:setenv.obj
 0001:000ea499       ??$tcscpy_s@AAPADABIAAPAD@?$__crt_char_traits@D@@SAHAAPADABI0@Z 004eb499 f i libucrtd:setenv.obj
 0001:000ea4be       ??$tcscpy_s@AAPA_WABIAAPA_W@?$__crt_char_traits@_W@@SAHAAPA_WABI0@Z 004eb4be f i libucrtd:setenv.obj
 0001:000ea4e3       ??$tcscpy_s@ABQADABIABQAD@?$__crt_char_traits@D@@SAHABQADABI0@Z 004eb4e3 f i libucrtd:setenv.obj
 0001:000ea508       ??$tcscpy_s@ABQA_WABIABQA_W@?$__crt_char_traits@_W@@SAHABQA_WABI0@Z 004eb508 f i libucrtd:setenv.obj
 0001:000ea52d       ??$tcsnicoll@ABQBDAAPADABI@?$__crt_char_traits@D@@SAHABQBDAAPADABI@Z 004eb52d f i libucrtd:setenv.obj
 0001:000ea552       ??$tcsnicoll@ABQB_WAAPA_WABI@?$__crt_char_traits@_W@@SAHABQB_WAAPA_WABI@Z 004eb552 f i libucrtd:setenv.obj
 0001:000ea577       ??$tcsnlen@QADH@?$__crt_char_traits@D@@SAI$$QBQAD$$QAH@Z 004eb577 f i libucrtd:setenv.obj
 0001:000ea595       ??$tcsnlen@QA_WH@?$__crt_char_traits@_W@@SAI$$QBQA_W$$QAH@Z 004eb595 f i libucrtd:setenv.obj
 0001:000ea5d7       ?strchr@@YAPADQADH@Z       004eb5d7 f i libucrtd:setenv.obj
 0001:000ea5e4       ?wcschr@@YAPA_WPA_W_W@Z    004eb5e4 f i libucrtd:setenv.obj
 0001:000ea5f1       ___dcrt_set_variable_in_narrow_environment_nolock 004eb5f1 f   libucrtd:setenv.obj
 0001:000ea5fe       ___dcrt_set_variable_in_wide_environment_nolock 004eb5fe f   libucrtd:setenv.obj
 0001:000ea610       ??$?RU__crt_lowio_handle_data@@@__crt_internal_free_policy@@QBEXQBU__crt_lowio_handle_data@@@Z 004eb610 f i libucrtd:osfinfo.obj
 0001:000ea640       ??0?$__crt_unique_heap_ptr@U__crt_lowio_handle_data@@U__crt_internal_free_policy@@@@QAE@QAU__crt_lowio_handle_data@@@Z 004eb640 f i libucrtd:osfinfo.obj
 0001:000ea660       ??1?$__crt_unique_heap_ptr@U__crt_lowio_handle_data@@U__crt_internal_free_policy@@@@QAE@XZ 004eb660 f i libucrtd:osfinfo.obj
 0001:000ea680       ??B?$__crt_unique_heap_ptr@U__crt_lowio_handle_data@@U__crt_internal_free_policy@@@@QBE_NXZ 004eb680 f i libucrtd:osfinfo.obj
 0001:000ea6a0       ?detach@?$__crt_unique_heap_ptr@U__crt_lowio_handle_data@@U__crt_internal_free_policy@@@@QAEPAU__crt_lowio_handle_data@@XZ 004eb6a0 f i libucrtd:osfinfo.obj
 0001:000ea6d0       ?get@?$__crt_unique_heap_ptr@U__crt_lowio_handle_data@@U__crt_internal_free_policy@@@@QBEPAU__crt_lowio_handle_data@@XZ 004eb6d0 f i libucrtd:osfinfo.obj
 0001:000ea6f0       ?is_valid@?$__crt_unique_heap_ptr@U__crt_lowio_handle_data@@U__crt_internal_free_policy@@@@QBE_NXZ 004eb6f0 f i libucrtd:osfinfo.obj
 0001:000ea730       ?release@?$__crt_unique_heap_ptr@U__crt_lowio_handle_data@@U__crt_internal_free_policy@@@@QAEXXZ 004eb730 f i libucrtd:osfinfo.obj
 0001:000ea770       ___acrt_lowio_create_handle_array 004eb770 f   libucrtd:osfinfo.obj
 0001:000ea900       ___acrt_lowio_destroy_handle_array 004eb900 f   libucrtd:osfinfo.obj
 0001:000ea970       ___acrt_lowio_ensure_fh_exists 004eb970 f   libucrtd:osfinfo.obj
 0001:000eab20       ___acrt_lowio_lock_fh      004ebb20 f   libucrtd:osfinfo.obj
 0001:000eab50       ___acrt_lowio_set_os_handle 004ebb50 f   libucrtd:osfinfo.obj
 0001:000eac60       ___acrt_lowio_unlock_fh    004ebc60 f   libucrtd:osfinfo.obj
 0001:000eac90       __alloc_osfhnd             004ebc90 f   libucrtd:osfinfo.obj
 0001:000eaee0       __free_osfhnd              004ebee0 f   libucrtd:osfinfo.obj
 0001:000eb000       __get_osfhandle            004ec000 f   libucrtd:osfinfo.obj
 0001:000eb1e0       __open_osfhandle           004ec1e0 f   libucrtd:osfinfo.obj
 0001:000eb460       ___p__fmode                004ec460 f   libucrtd:txtmode.obj
 0001:000eb470       ??$?RG@__crt_internal_free_policy@@QBEXQBG@Z 004ec470 f i libucrtd:initctype.obj
 0001:000eb4a0       ??$?RJ@__crt_internal_free_policy@@QBEXQBJ@Z 004ec4a0 f i libucrtd:initctype.obj
 0001:000eb4d0       ??0?$__crt_unique_heap_ptr@GU__crt_internal_free_policy@@@@QAE@QAG@Z 004ec4d0 f i libucrtd:initctype.obj
 0001:000eb4f0       ??0?$__crt_unique_heap_ptr@JU__crt_internal_free_policy@@@@QAE@QAJ@Z 004ec4f0 f i libucrtd:initctype.obj
 0001:000eb510       ??1?$__crt_unique_heap_ptr@GU__crt_internal_free_policy@@@@QAE@XZ 004ec510 f i libucrtd:initctype.obj
 0001:000eb530       ??1?$__crt_unique_heap_ptr@JU__crt_internal_free_policy@@@@QAE@XZ 004ec530 f i libucrtd:initctype.obj
 0001:000eb550       ?detach@?$__crt_unique_heap_ptr@GU__crt_internal_free_policy@@@@QAEPAGXZ 004ec550 f i libucrtd:initctype.obj
 0001:000eb580       ?detach@?$__crt_unique_heap_ptr@JU__crt_internal_free_policy@@@@QAEPAJXZ 004ec580 f i libucrtd:initctype.obj
 0001:000eb5b0       ?release@?$__crt_unique_heap_ptr@GU__crt_internal_free_policy@@@@QAEXXZ 004ec5b0 f i libucrtd:initctype.obj
 0001:000eb5f0       ?release@?$__crt_unique_heap_ptr@JU__crt_internal_free_policy@@@@QAEXXZ 004ec5f0 f i libucrtd:initctype.obj
 0001:000eb630       ____lc_codepage_func       004ec630 f   libucrtd:initctype.obj
 0001:000eb670       ____lc_collate_cp_func     004ec670 f   libucrtd:initctype.obj
 0001:000eb6b0       ____lc_locale_name_func    004ec6b0 f   libucrtd:initctype.obj
 0001:000eb700       ____mb_cur_max_func        004ec700 f   libucrtd:initctype.obj
 0001:000eb740       ____mb_cur_max_l_func      004ec740 f   libucrtd:initctype.obj
 0001:000eb780       ___acrt_locale_initialize_ctype 004ec780 f   libucrtd:initctype.obj
 0001:000ebfd0       ??$?RUlconv@@@__crt_internal_free_policy@@QBEXQBUlconv@@@Z 004ecfd0 f i libucrtd:initmon.obj
 0001:000ec000       ??0?$__crt_unique_heap_ptr@Ulconv@@U__crt_internal_free_policy@@@@QAE@QAUlconv@@@Z 004ed000 f i libucrtd:initmon.obj
 0001:000ec020       ??1?$__crt_unique_heap_ptr@Ulconv@@U__crt_internal_free_policy@@@@QAE@XZ 004ed020 f i libucrtd:initmon.obj
 0001:000ec040       ?detach@?$__crt_unique_heap_ptr@Ulconv@@U__crt_internal_free_policy@@@@QAEPAUlconv@@XZ 004ed040 f i libucrtd:initmon.obj
 0001:000ec070       ?release@?$__crt_unique_heap_ptr@Ulconv@@U__crt_internal_free_policy@@@@QAEXXZ 004ed070 f i libucrtd:initmon.obj
 0001:000ec0b0       ___acrt_locale_free_monetary 004ed0b0 f   libucrtd:initmon.obj
 0001:000ec2c0       ___acrt_locale_initialize_monetary 004ed2c0 f   libucrtd:initmon.obj
 0001:000ecb10       ___acrt_locale_free_numeric 004edb10 f   libucrtd:initnum.obj
 0001:000ecbf0       ___acrt_locale_initialize_numeric 004edbf0 f   libucrtd:initnum.obj
 0001:000ed140       ??$?RU__crt_lc_time_data@@@__crt_internal_free_policy@@QBEXQBU__crt_lc_time_data@@@Z 004ee140 f i libucrtd:inittime.obj
 0001:000ed230       ??0?$__crt_unique_heap_ptr@U__crt_lc_time_data@@U__crt_internal_free_policy@@@@QAE@QAU__crt_lc_time_data@@@Z 004ee230 f i libucrtd:inittime.obj
 0001:000ed250       ??1?$__crt_unique_heap_ptr@U__crt_lc_time_data@@U__crt_internal_free_policy@@@@QAE@XZ 004ee250 f i libucrtd:inittime.obj
 0001:000ed270       ??B?$__crt_unique_heap_ptr@U__crt_lc_time_data@@U__crt_internal_free_policy@@@@QBE_NXZ 004ee270 f i libucrtd:inittime.obj
 0001:000ed290       ?detach@?$__crt_unique_heap_ptr@U__crt_lc_time_data@@U__crt_internal_free_policy@@@@QAEPAU__crt_lc_time_data@@XZ 004ee290 f i libucrtd:inittime.obj
 0001:000ed310       ?get@?$__crt_unique_heap_ptr@U__crt_lc_time_data@@U__crt_internal_free_policy@@@@QBEPAU__crt_lc_time_data@@XZ 004ee310 f i libucrtd:inittime.obj
 0001:000ed900       ?is_valid@?$__crt_unique_heap_ptr@U__crt_lc_time_data@@U__crt_internal_free_policy@@@@QBE_NXZ 004ee900 f i libucrtd:inittime.obj
 0001:000ed940       ?release@?$__crt_unique_heap_ptr@U__crt_lc_time_data@@U__crt_internal_free_policy@@@@QAEXXZ 004ee940 f i libucrtd:inittime.obj
 0001:000ed980       ___acrt_locale_free_time   004ee980 f   libucrtd:inittime.obj
 0001:000edb20       ___acrt_locale_initialize_time 004eeb20 f   libucrtd:inittime.obj
 0001:000edbb0       _wcscmp                    004eebb0 f   libucrtd:wcscmp.obj
 0001:000edc30       _wcscspn                   004eec30 f   libucrtd:wcscspn.obj
 0001:000edcc0       _wcsncmp                   004eecc0 f   libucrtd:wcsncmp.obj
 0001:000edd30       _wcspbrk                   004eed30 f   libucrtd:wcspbrk.obj
 0001:000eddb0       ??0?$__crt_scoped_stack_ptr@_W@@QAE@U?$__crt_scoped_stack_ptr_tag@_W@@@Z 004eedb0 f i libucrtd:getstringtypea.obj
 0001:000eddd0       ??0?$__crt_scoped_stack_ptr_tag@_W@@QAE@QA_W@Z 004eedd0 f i libucrtd:getstringtypea.obj
 0001:000eddf0       ??1?$__crt_scoped_stack_ptr@_W@@QAE@XZ 004eedf0 f i libucrtd:getstringtypea.obj
 0001:000ede20       ?get@?$__crt_scoped_stack_ptr@_W@@QBEPA_WXZ 004eee20 f i libucrtd:getstringtypea.obj
 0001:000ede40       __MallocaComputeSize       004eee40 f i libucrtd:getstringtypea.obj
 0001:000ede80       __MarkAllocaS              004eee80 f i libucrtd:getstringtypea.obj
 0001:000edeb0       ___acrt_GetStringTypeA     004eeeb0 f   libucrtd:getstringtypea.obj
 0001:000ee0d0       __freea_crt                004ef0d0 f i libucrtd:getstringtypea.obj
 0001:000ee160       ___acrt_add_locale_ref     004ef160 f   libucrtd:locale_refcounting.obj
 0001:000ee2a0       ___acrt_free_locale        004ef2a0 f   libucrtd:locale_refcounting.obj
 0001:000ee610       ___acrt_locale_add_lc_time_reference 004ef610 f   libucrtd:locale_refcounting.obj
 0001:000ee650       ___acrt_locale_free_lc_time_if_unreferenced 004ef650 f   libucrtd:locale_refcounting.obj
 0001:000ee6b0       ___acrt_locale_release_lc_time_reference 004ef6b0 f   libucrtd:locale_refcounting.obj
 0001:000ee6f0       ___acrt_release_locale_ref 004ef6f0 f   libucrtd:locale_refcounting.obj
 0001:000ee840       ___acrt_update_thread_locale_data 004ef840 f   libucrtd:locale_refcounting.obj
 0001:000ee950       __updatetlocinfoEx_nolock  004ef950 f   libucrtd:locale_refcounting.obj
 0001:000ef7b0       ___acrt_get_qualified_locale 004f07b0 f   libucrtd:get_qualified_locale.obj
 0001:000f0b20       ___acrt_get_qualified_locale_downlevel 004f1b20 f   libucrtd:getqloc_downlevel.obj
 0001:000f0e80       _localeconv                004f1e80 f   libucrtd:localeconv.obj
 0001:000f0ed0       ___acrt_getheap            004f1ed0 f   libucrtd:heap_handle.obj
 0001:000f0f20       ___acrt_initialize_heap    004f1f20 f   libucrtd:heap_handle.obj
 0001:000f0f50       ___acrt_uninitialize_heap  004f1f50 f   libucrtd:heap_handle.obj
 0001:000f0f70       __get_heap_handle          004f1f70 f   libucrtd:heap_handle.obj
 0001:000f0fc0       ___acrt_execute_initializers 004f1fc0 f   libucrtd:shared_initialization.obj
 0001:000f10c0       ___acrt_execute_uninitializers 004f20c0 f   libucrtd:shared_initialization.obj
 0001:000f1150       ??$?B$$A6AHI@Z@__crt_fast_encoded_nullptr_t@@QBEP6AHI@ZXZ 004f2150 f i libucrtd:new_handler.obj
 0001:000f1170       ??$__crt_fast_decode_pointer@P6AHI@Z@@YAP6AHI@ZQ6AHI@Z@Z 004f2170 f i libucrtd:new_handler.obj
 0001:000f11b0       ??$__crt_fast_encode_pointer@P6AHI@Z@@YAP6AHI@ZQ6AHI@Z@Z 004f21b0 f i libucrtd:new_handler.obj
 0001:000f11f0       ?_set_new_handler@@YAP6AHI@ZH@Z 004f21f0 f   libucrtd:new_handler.obj
 0001:000f1260       ?initialize@?$dual_state_global@P6AHI@Z@__crt_state_management@@QAEXQ6AHI@Z@Z 004f2260 f i libucrtd:new_handler.obj
 0001:000f12b0       ?value@?$dual_state_global@P6AHI@Z@__crt_state_management@@QAEAAP6AHI@ZXZ 004f22b0 f i libucrtd:new_handler.obj
 0001:000f12d0       ___acrt_initialize_new_handler 004f22d0 f   libucrtd:new_handler.obj
 0001:000f12f0       __callnewh                 004f22f0 f   libucrtd:new_handler.obj
 0001:000f1360       __query_new_handler        004f2360 f   libucrtd:new_handler.obj
 0001:000f1420       __set_new_handler          004f2420 f   libucrtd:new_handler.obj
 0001:000f1790       ___control87_2             004f2790 f   libucrtd:ieee87.obj
 0001:000f1900       ___fpreset_sse2            004f2900 f   libucrtd:ieee87.obj
 0001:000f1d50       __clearfp                  004f2d50 f   libucrtd:ieee87.obj
 0001:000f1db0       __control87                004f2db0 f   libucrtd:ieee87.obj
 0001:000f1e90       __controlfp                004f2e90 f   libucrtd:ieee87.obj
 0001:000f1ec0       __fpreset                  004f2ec0 f   libucrtd:ieee87.obj
 0001:000f20f0       __set_controlfp            004f30f0 f   libucrtd:ieee87.obj
 0001:000f21a0       __statusfp                 004f31a0 f   libucrtd:ieee87.obj
 0001:000f2200       __statusfp2                004f3200 f   libucrtd:ieee87.obj
 0001:000f2250       ??$__crt_interlocked_exchange_pointer@X$$T@@YAPAXPDSAX$$T@Z 004f3250 f i libucrtd:free_base.obj
 0001:000f2280       ___acrt_get_msvcrt_heap_handle 004f3280 f   libucrtd:free_base.obj
 0001:000f2370       __free_base                004f3370 f   libucrtd:free_base.obj
 0001:000f23d0       __msize                    004f33d0 f   libucrtd:msize.obj
 0001:000f23f0       __realloc_base             004f33f0 f   libucrtd:realloc_base.obj
 0001:000f24b0       __aligned_free             004f34b0 f   libucrtd:align.obj
 0001:000f24d0       __aligned_free_base        004f34d0 f   libucrtd:align.obj
 0001:000f2520       __aligned_malloc           004f3520 f   libucrtd:align.obj
 0001:000f2550       __aligned_malloc_base      004f3550 f   libucrtd:align.obj
 0001:000f2570       __aligned_msize            004f3570 f   libucrtd:align.obj
 0001:000f25a0       __aligned_msize_base       004f35a0 f   libucrtd:align.obj
 0001:000f2720       __aligned_offset_malloc    004f3720 f   libucrtd:align.obj
 0001:000f2750       __aligned_offset_malloc_base 004f3750 f   libucrtd:align.obj
 0001:000f2970       __aligned_offset_realloc   004f3970 f   libucrtd:align.obj
 0001:000f29a0       __aligned_offset_realloc_base 004f39a0 f   libucrtd:align.obj
 0001:000f2d80       __aligned_offset_recalloc  004f3d80 f   libucrtd:align.obj
 0001:000f2db0       __aligned_offset_recalloc_base 004f3db0 f   libucrtd:align.obj
 0001:000f2e90       __aligned_realloc          004f3e90 f   libucrtd:align.obj
 0001:000f2ec0       __aligned_realloc_base     004f3ec0 f   libucrtd:align.obj
 0001:000f2ef0       __aligned_recalloc         004f3ef0 f   libucrtd:align.obj
 0001:000f2f20       __aligned_recalloc_base    004f3f20 f   libucrtd:align.obj
 0001:000f2fb0       __expand                   004f3fb0 f   libucrtd:expand.obj
 0001:000f2fe0       __expand_base              004f3fe0 f   libucrtd:expand.obj
 0001:000f3160       __CrtDefaultAllocHook      004f4160 f   libucrtd:debug_heap_hook.obj
 0001:000f3170       __CrtGetReportHook         004f4170 f   libucrtd:dbgrptt.obj
 0001:000f3180       __CrtSetReportFile         004f4180 f   libucrtd:dbgrptt.obj
 0001:000f32b0       __CrtSetReportHook         004f42b0 f   libucrtd:dbgrptt.obj
 0001:000f32e0       __CrtSetReportMode         004f42e0 f   libucrtd:dbgrptt.obj
 0001:000f3470       __VCrtDbgReportA           004f4470 f   libucrtd:dbgrptt.obj
 0001:000f3f30       __VCrtDbgReportW           004f4f30 f   libucrtd:dbgrptt.obj
 0001:000f4b50       __snprintf_s               004f5b50 f i libucrtd:dbgrptt.obj
 0001:000f4bb0       __vsnprintf_s              004f5bb0 f i libucrtd:dbgrptt.obj
 0001:000f4be0       __vsnprintf_s_l            004f5be0 f i libucrtd:dbgrptt.obj
 0001:000f4c50       __vsnwprintf_s             004f5c50 f i libucrtd:dbgrptt.obj
 0001:000f4eb0       ___acrt_DownlevelLCIDToLocaleName 004f5eb0 f   libucrtd:lcidtoname_downlevel.obj
 0001:000f4fb0       ___acrt_DownlevelLocaleNameToLCID 004f5fb0 f   libucrtd:lcidtoname_downlevel.obj
 0001:000f5000       __fclose_nolock            004f6000 f   libucrtd:fclose.obj
 0001:000f5190       _fclose                    004f6190 f   libucrtd:fclose.obj
 0001:000f5330       ??$?RV<lambda_a7d5e04a8e766f2a135287cf7b01dfe7>@@AAV<lambda_e9ab68cc08dfd839979545c079379e6e>@@V<lambda_14e08a59e78d15c51edeee53d25fb3be>@@@?$__crt_seh_guarded_call@H@@QAEH$$QAV<lambda_a7d5e04a8e766f2a135287cf7b01dfe7>@@AAV<lambda_e9ab68cc08dfd839979545c079379e6e>@@$$QAV<lambda_14e08a59e78d15c51edeee53d25fb3be>@@@Z 004f6330 f i libucrtd:commit.obj
 0001:000f53e0       ??$__acrt_lowio_lock_fh_and_call@V<lambda_e9ab68cc08dfd839979545c079379e6e>@@@@YAHH$$QAV<lambda_e9ab68cc08dfd839979545c079379e6e>@@@Z 004f63e0 f i libucrtd:commit.obj
 0001:000f55d0       __commit                   004f65d0 f   libucrtd:commit.obj
 0001:000f67f0       __write                    004f77f0 f   libucrtd:write.obj
 0001:000f6ad0       __write_nolock             004f7ad0 f   libucrtd:write.obj
 0001:000f7980       ___acrt_stdio_refill_and_read_narrow_nolock 004f8980 f   libucrtd:_filbuf.obj
 0001:000f79b0       ___acrt_stdio_refill_and_read_wide_nolock 004f89b0 f   libucrtd:_filbuf.obj
 0001:000f82f0       ___acrt_stdio_flush_and_write_narrow_nolock 004f92f0 f   libucrtd:_flsbuf.obj
 0001:000f8320       ___acrt_stdio_flush_and_write_wide_nolock 004f9320 f   libucrtd:_flsbuf.obj
 0001:000f8350       __isatty                   004f9350 f   libucrtd:isatty.obj
 0001:000f8450       ___iswcsym                 004f9450 f i libucrtd:_wctype.obj
 0001:000f84a0       ___iswcsymf                004f94a0 f i libucrtd:_wctype.obj
 0001:000f84f0       __isleadbyte_l             004f94f0 f i libucrtd:_wctype.obj
 0001:000f8540       __iswalnum_l               004f9540 f i libucrtd:_wctype.obj
 0001:000f8560       __iswalpha_l               004f9560 f i libucrtd:_wctype.obj
 0001:000f8580       __iswblank_l               004f9580 f i libucrtd:_wctype.obj
 0001:000f85c0       __iswcntrl_l               004f95c0 f i libucrtd:_wctype.obj
 0001:000f85e0       __iswcsym_l                004f95e0 f i libucrtd:_wctype.obj
 0001:000f8630       __iswcsymf_l               004f9630 f i libucrtd:_wctype.obj
 0001:000f8680       __iswdigit_l               004f9680 f i libucrtd:_wctype.obj
 0001:000f86a0       __iswgraph_l               004f96a0 f i libucrtd:_wctype.obj
 0001:000f86c0       __iswlower_l               004f96c0 f i libucrtd:_wctype.obj
 0001:000f86e0       __iswprint_l               004f96e0 f i libucrtd:_wctype.obj
 0001:000f8700       __iswpunct_l               004f9700 f i libucrtd:_wctype.obj
 0001:000f8720       __iswspace_l               004f9720 f i libucrtd:_wctype.obj
 0001:000f8740       __iswupper_l               004f9740 f i libucrtd:_wctype.obj
 0001:000f8760       __iswxdigit_l              004f9760 f i libucrtd:_wctype.obj
 0001:000f8780       _isleadbyte                004f9780 f i libucrtd:_wctype.obj
 0001:000f87a0       _iswalnum                  004f97a0 f i libucrtd:_wctype.obj
 0001:000f87c0       _iswalpha                  004f97c0 f i libucrtd:_wctype.obj
 0001:000f87e0       _iswascii                  004f97e0 f i libucrtd:_wctype.obj
 0001:000f8820       _iswblank                  004f9820 f i libucrtd:_wctype.obj
 0001:000f8860       _iswcntrl                  004f9860 f i libucrtd:_wctype.obj
 0001:000f8880       _iswdigit                  004f9880 f i libucrtd:_wctype.obj
 0001:000f88a0       _iswgraph                  004f98a0 f i libucrtd:_wctype.obj
 0001:000f88c0       _iswlower                  004f98c0 f i libucrtd:_wctype.obj
 0001:000f88e0       _iswprint                  004f98e0 f i libucrtd:_wctype.obj
 0001:000f8900       _iswpunct                  004f9900 f i libucrtd:_wctype.obj
 0001:000f8920       _iswspace                  004f9920 f i libucrtd:_wctype.obj
 0001:000f8940       _iswupper                  004f9940 f i libucrtd:_wctype.obj
 0001:000f8960       _iswxdigit                 004f9960 f i libucrtd:_wctype.obj
 0001:000f8980       ??B?$__crt_scoped_stack_ptr@_W@@QBE_NXZ 004f9980 f i libucrtd:lcmapstringa.obj
 0001:000f8e70       ___acrt_LCMapStringA       004f9e70 f   libucrtd:lcmapstringa.obj
 0001:000f8ee0       ___acrt_fp_strflt_to_string 004f9ee0 f   libucrtd:_fptostr.obj
 0001:000f9a80       ??0scoped_fp_state_reset@?A0x48fbfdd4@@QAE@XZ 004faa80 f i libucrtd:cfout.obj
 0001:000f9ae0       ??1scoped_fp_state_reset@?A0x48fbfdd4@@QAE@XZ 004faae0 f i libucrtd:cfout.obj
 0001:000f9b10       ??8__crt_strtox@@YA_NABUbig_integer@0@0@Z 004fab10 f i libucrtd:cfout.obj
 0001:000f9b80       ??9__crt_strtox@@YA_NABUbig_integer@0@0@Z 004fab80 f i libucrtd:cfout.obj
 0001:000f9bd0       ?is_zero@__crt_strtox@@YA_NABUbig_integer@1@@Z 004fabd0 f i libucrtd:cfout.obj
 0001:000f9c00       ?make_big_integer_power_of_two@__crt_strtox@@YA?AUbig_integer@1@I@Z 004fac00 f i libucrtd:cfout.obj
 0001:000f9ce0       ___acrt_fltout             004face0 f   libucrtd:cfout.obj
 0001:000fa170       __87except                 004fb170 f   libucrtd:87except.obj
 0001:000fa3e0       __frnd                     004fb3e0 f   libucrtd:frnd.obj
 0001:000fa400       __chgsign                  004fb400 f   libucrtd:ieeemisc.obj
 0001:000fa440       __chgsignf                 004fb440 f   libucrtd:ieeemisc.obj
 0001:000fa490       __copysign                 004fb490 f   libucrtd:ieeemisc.obj
 0001:000fa4d0       __copysignf                004fb4d0 f   libucrtd:ieeemisc.obj
 0001:000fa530       __finite                   004fb530 f   libucrtd:ieeemisc.obj
 0001:000fa560       __fpclass                  004fb560 f   libucrtd:ieeemisc.obj
 0001:000fa690       __isnan                    004fb690 f   libucrtd:ieeemisc.obj
 0001:000fa6f0       __logb                     004fb6f0 f   libucrtd:ieeemisc.obj
 0001:000fa850       __nextafter                004fb850 f   libucrtd:ieeemisc.obj
 0001:000fa880       __scalb                    004fb880 f   libucrtd:ieeemisc.obj
 0001:000fa8b0       ___acrt_stdio_allocate_buffer_nolock 004fb8b0 f   libucrtd:_getbuf.obj
 0001:000faa10       ___acrt_fenv_get_fp_status_word_from_exception_mask 004fba10 f   libucrtd:_fenvutils.obj
 0001:000fb190       __getfpcontrolword         004fc190 f   libucrtd:_fenvutils.obj
 0001:000fb200       __getfpstatusword          004fc200 f   libucrtd:_fenvutils.obj
 0001:000fb270       __setfpcontrolword         004fc270 f   libucrtd:_fenvutils.obj
 0001:000fb360       __setfpstatusword          004fc360 f   libucrtd:_fenvutils.obj
 0001:000fb450       ??1scoped_global_state_reset@__crt_state_management@@QAE@XZ 004fc450 f i libucrtd:qsort.obj
 0001:000fb5d0       _qsort                     004fc5d0 f   libucrtd:qsort.obj
 0001:000fc300       _strncpy_s                 004fd300 f   libucrtd:strncpy_s.obj
 0001:000fc330       _strpbrk                   004fd330 f   libucrtd:strpbrk.obj
 0001:000fc380       __mbsdec                   004fd380 f   libucrtd:mbsdec.obj
 0001:000fc39c       __mbsdec_l                 004fd39c f   libucrtd:mbsdec.obj
 0001:000fc500       __wcsnicoll                004fd500 f   libucrtd:wcsnicol.obj
 0001:000fc7f0       __wcsnicoll_l              004fd7f0 f   libucrtd:wcsnicol.obj
 0001:000fcb90       __strnicoll                004fdb90 f   libucrtd:strnicol.obj
 0001:000fcbf0       __strnicoll_l              004fdbf0 f   libucrtd:strnicol.obj
 0001:000fd110       ___acrt_GetLocaleInfoA     004fe110 f   libucrtd:getlocaleinfoa.obj
 0001:000fd5b0       __wcsicmp                  004fe5b0 f   libucrtd:wcsicmp.obj
 0001:000fd7f0       __wcsicmp_l                004fe7f0 f   libucrtd:wcsicmp.obj
 0001:000fdaf0       __wcsnicmp                 004feaf0 f   libucrtd:wcsnicmp.obj
 0001:000fdd60       __wcsnicmp_l               004fed60 f   libucrtd:wcsnicmp.obj
 0001:000fe060       __malloc_base              004ff060 f   libucrtd:malloc_base.obj
 0001:000fe580       __mbstowcs_l               004ff580 f   libucrtd:mbstowcs.obj
 0001:000fe5b0       __mbstowcs_s_l             004ff5b0 f   libucrtd:mbstowcs.obj
 0001:000fea60       _mbstowcs                  004ffa60 f   libucrtd:mbstowcs.obj
 0001:000feac0       _mbstowcs_s                004ffac0 f   libucrtd:mbstowcs.obj
 0001:000ff2e0       __wcstombs_l               005002e0 f   libucrtd:wcstombs.obj
 0001:000ff310       __wcstombs_s_l             00500310 f   libucrtd:wcstombs.obj
 0001:000ff750       _wcstombs                  00500750 f   libucrtd:wcstombs.obj
 0001:000ff780       _wcstombs_s                00500780 f   libucrtd:wcstombs.obj
 0001:000ff7b0       ??$?RV<lambda_4d8dda1ac129e11742d77ae5e3bbda74>@@AAV<lambda_a8f98972ebaa5f7148d35bffe53bd70d>@@V<lambda_5193b64c98d743723bd5dcf162a72339>@@@?$__crt_seh_guarded_call@H@@QAEH$$QAV<lambda_4d8dda1ac129e11742d77ae5e3bbda74>@@AAV<lambda_a8f98972ebaa5f7148d35bffe53bd70d>@@$$QAV<lambda_5193b64c98d743723bd5dcf162a72339>@@@Z 005007b0 f i libucrtd:close.obj
 0001:000ff860       ??$__acrt_lowio_lock_fh_and_call@V<lambda_a8f98972ebaa5f7148d35bffe53bd70d>@@@@YAHH$$QAV<lambda_a8f98972ebaa5f7148d35bffe53bd70d>@@@Z 00500860 f i libucrtd:close.obj
 0001:000ffb20       __close                    00500b20 f   libucrtd:close.obj
 0001:000ffcf0       __close_nolock             00500cf0 f   libucrtd:close.obj
 0001:000ffd60       ??$?RU__crt_stdio_stream_data@@@__crt_internal_free_policy@@QBEXQBU__crt_stdio_stream_data@@@Z 00500d60 f i libucrtd:stream.obj
 0001:000ffd90       ??0?$__crt_unique_heap_ptr@U__crt_stdio_stream_data@@U__crt_internal_free_policy@@@@QAE@QAU__crt_stdio_stream_data@@@Z 00500d90 f i libucrtd:stream.obj
 0001:000ffdb0       ??0__crt_stdio_stream@@QAE@XZ 00500db0 f i libucrtd:stream.obj
 0001:000ffdd0       ??1?$__crt_unique_heap_ptr@U__crt_stdio_stream_data@@U__crt_internal_free_policy@@@@QAE@XZ 00500dd0 f i libucrtd:stream.obj
 0001:000ffdf0       ?__acrt_stdio_allocate_stream@@YA?AV__crt_stdio_stream@@XZ 00500df0 f   libucrtd:stream.obj
 0001:000fff20       ?__acrt_stdio_free_stream@@YAXV__crt_stdio_stream@@@Z 00500f20 f   libucrtd:stream.obj
 0001:000fffc0       ?deallocate@__crt_stdio_stream@@QAEXXZ 00500fc0 f i libucrtd:stream.obj
 0001:000fffe0       ?detach@?$__crt_unique_heap_ptr@U__crt_stdio_stream_data@@U__crt_internal_free_policy@@@@QAEPAU__crt_stdio_stream_data@@XZ 00500fe0 f i libucrtd:stream.obj
 0001:001001a0       ?lock@__crt_stdio_stream@@QBEXXZ 005011a0 f i libucrtd:stream.obj
 0001:001001d0       ?release@?$__crt_unique_heap_ptr@U__crt_stdio_stream_data@@U__crt_internal_free_policy@@@@QAEXXZ 005011d0 f i libucrtd:stream.obj
 0001:00100210       ?try_allocate@__crt_stdio_stream@@QAE_NXZ 00501210 f i libucrtd:stream.obj
 0001:00100270       ?unlock@__crt_stdio_stream@@QBEXXZ 00501270 f i libucrtd:stream.obj
 0001:00100be0       __lseek                    00501be0 f   libucrtd:lseek.obj
 0001:00100c10       __lseek_nolock             00501c10 f   libucrtd:lseek.obj
 0001:00100c40       __lseeki64                 00501c40 f   libucrtd:lseek.obj
 0001:00100c70       __lseeki64_nolock          00501c70 f   libucrtd:lseek.obj
 0001:00100c96       ??$?RV<lambda_4980db0136e49a56f91ef52c46ca659a>@@AAV<lambda_6e3e78bb6855d1e4040e022c1b427e22>@@V<lambda_9c074eaf62197b4fd0274ed9e7824161>@@@?$__crt_seh_guarded_call@G@@QAEG$$QAV<lambda_4980db0136e49a56f91ef52c46ca659a>@@AAV<lambda_6e3e78bb6855d1e4040e022c1b427e22>@@$$QAV<lambda_9c074eaf62197b4fd0274ed9e7824161>@@@Z 00501c96 f i libucrtd:putwch.obj
 0001:00100d0b       ??$__acrt_lock_and_call@V<lambda_6e3e78bb6855d1e4040e022c1b427e22>@@@@YAGW4__acrt_lock_id@@$$QAV<lambda_6e3e78bb6855d1e4040e022c1b427e22>@@@Z 00501d0b f i libucrtd:putwch.obj
 0001:00100da3       __putwch                   00501da3 f   libucrtd:putwch.obj
 0001:00100dc7       __putwch_nolock            00501dc7 f   libucrtd:putwch.obj
 0001:00101a80       __read                     00502a80 f   libucrtd:read.obj
 0001:00101e20       __read_nolock              00502e20 f   libucrtd:read.obj
 0001:00102a30       ___strncnt                 00503a30 f   libucrtd:strncnt.obj
 0001:00102a90       _log10                     00503a90 f   libucrtd:log10.obj
 0001:00102ad0       __CIlog10                  00503ad0 f   libucrtd:log10.obj
 0001:00102b0b       __CIlog10_default          00503b0b f   libucrtd:log10.obj
 0001:00102b1f       __log10_default            00503b1f     libucrtd:log10.obj
 0001:00102c40       _ceil                      00503c40 f   libucrtd:ceil_pentium4.obj
 0001:00102c80       __ceil_pentium4            00503c80 f   libucrtd:ceil_pentium4.obj
 0001:00102db0       _fegetenv                  00503db0 f   libucrtd:fegetenv.obj
 0001:00102de0       _fesetenv                  00503de0 f   libucrtd:fesetenv.obj
 0001:00102e60       _feholdexcept              00503e60 f   libucrtd:feholdexcept.obj
 0001:00102ee0       _ldexp                     00503ee0 f   libucrtd:ldexp.obj
 0001:00103270       _nextafter                 00504270 f   libucrtd:nextafter.obj
 0001:001032a0       ___acrt_CompareStringW     005042a0 f   libucrtd:comparestringw.obj
 0001:00103920       ___acrt_CompareStringA     00504920 f   libucrtd:comparestringa.obj
 0001:00103990       __towlower_l               00504990 f   libucrtd:towlower.obj
 0001:00103b30       _towlower                  00504b30 f   libucrtd:towlower.obj
 0001:00103b4b       ___dcrt_lowio_initialize_console_output 00504b4b f   libucrtd:initcon.obj
 0001:00103b71       ___dcrt_terminate_console_output 00504b71 f   libucrtd:initcon.obj
 0001:00103b90       __CIlog10_pentium4         00504b90 f   libucrtd:log10_pentium4.obj
 0001:00103ba8       __log10_pentium4           00504ba8     libucrtd:log10_pentium4.obj
 0001:00103ed0       __ceil_default             00504ed0 f   libucrtd:ceil.obj
 0001:00104030       _nexttoward                00505030 f   libucrtd:nexttoward.obj
 0001:00104450       ___acrt_LCMapStringW       00505450 f   libucrtd:lcmapstringw.obj
 0001:001044d0       __d_int                    005054d0 f   libucrtd:_test.obj
 0001:00104820       __dtest                    00505820 f   libucrtd:_test.obj
 0001:00104980       __fd_int                   00505980 f   libucrtd:_test.obj
 0001:00104bd0       __fdtest                   00505bd0 f   libucrtd:_test.obj
 0001:00104cd0       __fperrraise               00505cd0 f   libucrtd:_test.obj
 0001:00104d10       __ld_int                   00505d10 f   libucrtd:_test.obj
 0001:00104d30       __ldtest                   00505d30 f   libucrtd:_test.obj
 0001:00104e70       _fegetexceptflag           00505e70 f   libucrtd:fegetexceptflag.obj
 0001:00104ed0       _fesetexceptflag           00505ed0 f   libucrtd:fesetexceptflag.obj
 0001:00104f70       _fetestexcept              00505f70 f   libucrtd:fetestexcept.obj
 0001:00104fa0       __FindPESection            00505fa0 f   LIBCMTD:pesect.obj
 0001:00105030       __IsNonwritableInCurrentImage 00506030 f   LIBCMTD:pesect.obj
 0001:001051b0       __ValidateImageBase        005061b0 f   LIBCMTD:pesect.obj
 0001:00105230       __aullrem                  00506230 f   LIBCMTD:ullrem.obj
 0001:001052d0       ??1type_info@@UAE@XZ       005062d0 f   LIBCMTD:std_type_info_static.obj
 0001:001052f0       ??_Etype_info@@UAEPAXI@Z   005062f0 f i LIBCMTD:std_type_info_static.obj
 0001:001052f0       ??_Gtype_info@@UAEPAXI@Z   005062f0 f i LIBCMTD:std_type_info_static.obj
 0001:00105330       __allrem                   00506330 f   LIBCMTD:llrem.obj
 0001:00105410       __SEH_prolog4              00506410 f   LIBCMTD:_sehprolg4_.obj
 0001:00105456       __SEH_epilog4              00506456 f   LIBCMTD:_sehprolg4_.obj
 0001:00105490       ??3@YAXPAXI@Z              00506490 f   LIBCMTD:delete_scalar_size.obj
 0001:001054b0       ??3@YAXPAX@Z               005064b0 f   LIBCMTD:delete_scalar.obj
 0001:001054c8       _InterlockedPushEntrySList@8 005064c8 f   kernel32:KERNEL32.dll
 0001:001054ce       _InterlockedFlushSList@4   005064ce f   kernel32:KERNEL32.dll
 0001:001054d4       _RtlUnwind@16              005064d4 f   kernel32:KERNEL32.dll
 0001:001054da       _InitializeCriticalSectionAndSpinCount@8 005064da f   kernel32:KERNEL32.dll
 0001:001054e0       _LoadLibraryExW@12         005064e0 f   kernel32:KERNEL32.dll
 0001:001054e6       _GetFileType@4             005064e6 f   kernel32:KERNEL32.dll
 0001:001054ec       _GetModuleFileNameA@12     005064ec f   kernel32:KERNEL32.dll
 0001:001054f2       _GetModuleFileNameW@12     005064f2 f   kernel32:KERNEL32.dll
 0001:001054f8       _GetModuleHandleExW@12     005064f8 f   kernel32:KERNEL32.dll
 0001:001054fe       _WriteConsoleW@20          005064fe f   kernel32:KERNEL32.dll
 0001:00105504       _ExitProcess@4             00506504 f   kernel32:KERNEL32.dll
 0001:0010550a       _MultiByteToWideChar@24    0050650a f   kernel32:KERNEL32.dll
 0001:00105510       _WideCharToMultiByte@32    00506510 f   kernel32:KERNEL32.dll
 0001:00105516       _GetCommandLineA@0         00506516 f   kernel32:KERNEL32.dll
 0001:0010551c       _GetCommandLineW@0         0050651c f   kernel32:KERNEL32.dll
 0001:00105522       _GetACP@0                  00506522 f   kernel32:KERNEL32.dll
 0001:00105528       _RaiseException@16         00506528 f   kernel32:KERNEL32.dll
 0001:0010552e       _HeapAlloc@12              0050652e f   kernel32:KERNEL32.dll
 0001:00105534       _HeapValidate@12           00506534 f   kernel32:KERNEL32.dll
 0001:0010553a       _GetSystemInfo@4           0050653a f   kernel32:KERNEL32.dll
 0001:00105540       _GetDateFormatW@24         00506540 f   kernel32:KERNEL32.dll
 0001:00105546       _GetTimeFormatW@24         00506546 f   kernel32:KERNEL32.dll
 0001:0010554c       _CompareStringW@24         0050654c f   kernel32:KERNEL32.dll
 0001:00105552       _LCMapStringW@24           00506552 f   kernel32:KERNEL32.dll
 0001:00105558       _GetLocaleInfoW@16         00506558 f   kernel32:KERNEL32.dll
 0001:0010555e       _IsValidLocale@8           0050655e f   kernel32:KERNEL32.dll
 0001:00105564       _GetUserDefaultLCID@0      00506564 f   kernel32:KERNEL32.dll
 0001:0010556a       _EnumSystemLocalesW@8      0050656a f   kernel32:KERNEL32.dll
 0001:00105570       _GetStringTypeW@16         00506570 f   kernel32:KERNEL32.dll
 0001:00105576       _OutputDebugStringA@4      00506576 f   kernel32:KERNEL32.dll
 0001:0010557c       _OutputDebugStringW@4      0050657c f   kernel32:KERNEL32.dll
 0001:00105582       _WaitForSingleObjectEx@12  00506582 f   kernel32:KERNEL32.dll
 0001:00105588       _SetConsoleCtrlHandler@8   00506588 f   kernel32:KERNEL32.dll
 0001:0010558e       _EncodePointer@4           0050658e f   kernel32:KERNEL32.dll
 0001:00105594       _DecodePointer@4           00506594 f   kernel32:KERNEL32.dll
 0001:0010559a       _FindClose@4               0050659a f   kernel32:KERNEL32.dll
 0001:001055a0       _FindFirstFileExA@24       005065a0 f   kernel32:KERNEL32.dll
 0001:001055a6       _FindFirstFileExW@24       005065a6 f   kernel32:KERNEL32.dll
 0001:001055ac       _FindNextFileA@8           005065ac f   kernel32:KERNEL32.dll
 0001:001055b2       _FindNextFileW@8           005065b2 f   kernel32:KERNEL32.dll
 0001:001055b8       _IsValidCodePage@4         005065b8 f   kernel32:KERNEL32.dll
 0001:001055be       _GetOEMCP@0                005065be f   kernel32:KERNEL32.dll
 0001:001055c4       _GetCPInfo@8               005065c4 f   kernel32:KERNEL32.dll
 0001:001055ca       _GetEnvironmentStringsW@0  005065ca f   kernel32:KERNEL32.dll
 0001:001055d0       _FreeEnvironmentStringsW@4 005065d0 f   kernel32:KERNEL32.dll
 0001:001055d6       _SetEnvironmentVariableA@8 005065d6 f   kernel32:KERNEL32.dll
 0001:001055dc       _SetEnvironmentVariableW@8 005065dc f   kernel32:KERNEL32.dll
 0001:001055e2       _SetStdHandle@8            005065e2 f   kernel32:KERNEL32.dll
 0001:001055e8       _GetProcessHeap@0          005065e8 f   kernel32:KERNEL32.dll
 0001:001055ee       _HeapFree@12               005065ee f   kernel32:KERNEL32.dll
 0001:001055f4       _HeapReAlloc@16            005065f4 f   kernel32:KERNEL32.dll
 0001:001055fa       _HeapSize@12               005065fa f   kernel32:KERNEL32.dll
 0001:00105600       _HeapQueryInformation@20   00506600 f   kernel32:KERNEL32.dll
 0001:00105606       _GetConsoleCP@0            00506606 f   kernel32:KERNEL32.dll
 0001:0010560c       _GetConsoleMode@8          0050660c f   kernel32:KERNEL32.dll
 0001:00105612       _SetFilePointerEx@20       00506612 f   kernel32:KERNEL32.dll
 0001:00105618       _ReadConsoleW@20           00506618 f   kernel32:KERNEL32.dll
 0001:0010561e       _CreateFileW@28            0050661e f   kernel32:KERNEL32.dll
 0001:00105630       _strrchr                   00506630 f   libvcruntimed:strrchr.obj
 0001:001057c0       ?_CallCatchBlock2@@YAPAXPAUEHRegistrationNode@@PBU_s_FuncInfo@@PAXHK@Z 005067c0 f   libvcruntimed:trnsctrl.obj
 0001:00105850       ?_CallSETranslator@@YAHPAUEHExceptionRecord@@PAUEHRegistrationNode@@PAX2PBU_s_FuncInfo@@H1@Z 00506850 f   libvcruntimed:trnsctrl.obj
 0001:00105980       ?_GetRangeOfTrysToCheck@@YAPBU_s_TryBlockMapEntry@@PBU_s_FuncInfo@@HHPAI1@Z 00506980 f   libvcruntimed:trnsctrl.obj
 0001:00105a80       ?_JumpToContinuation@@YGXPAXPAUEHRegistrationNode@@@Z 00506a80 f   libvcruntimed:trnsctrl.obj
 0001:00105ac0       ?_UnwindNestedFrames@@YGXPAUEHRegistrationNode@@PAUEHExceptionRecord@@@Z 00506ac0 f   libvcruntimed:trnsctrl.obj
 0001:00105b30       __CatchGuardHandler        00506b30 f   libvcruntimed:trnsctrl.obj
 0001:00105b90       __CreateFrameInfo          00506b90 f   libvcruntimed:trnsctrl.obj
 0001:00105bd0       __FindAndUnlinkFrame       00506bd0 f   libvcruntimed:trnsctrl.obj
 0001:00105c60       __IsExceptionObjectToBeDestroyed 00506c60 f   libvcruntimed:trnsctrl.obj
 0001:00105cb0       __TranslatorGuardHandler   00506cb0 f   libvcruntimed:trnsctrl.obj
 0001:00105d90       ___CxxFrameHandler         00506d90 f   libvcruntimed:trnsctrl.obj
 0001:00105de0       ___CxxFrameHandler2        00506de0 f   libvcruntimed:trnsctrl.obj
 0001:00105e30       ___CxxFrameHandler3        00506e30 f   libvcruntimed:trnsctrl.obj
 0001:00105e80       ___CxxLongjmpUnwind@4      00506e80 f   libvcruntimed:trnsctrl.obj
 0001:00105ed0       _wcschr                    00506ed0 f   libvcruntimed:wcschr.obj
 0001:00106090       __CallSettingFrame@12      00507090 f   libvcruntimed:lowhelpr.obj
 0001:001060b7       __NLG_Return               005070b7     libvcruntimed:lowhelpr.obj
 0001:001060f0       ___DestructExceptionObject 005070f0 f   libvcruntimed:frame.obj
 0001:00106270       ??0bad_exception@std@@QAE@ABV01@@Z 00507270 f i libvcruntimed:frame.obj
 0001:001062a0       ??0bad_exception@std@@QAE@XZ 005072a0 f i libvcruntimed:frame.obj
 0001:001062d0       ??0exception@std@@QAE@ABV01@@Z 005072d0 f i libvcruntimed:frame.obj
 0001:00106320       ??0exception@std@@QAE@QBDH@Z 00507320 f i libvcruntimed:frame.obj
 0001:00106360       ??1bad_exception@std@@UAE@XZ 00507360 f i libvcruntimed:frame.obj
 0001:00106380       ??1exception@std@@UAE@XZ   00507380 f i libvcruntimed:frame.obj
 0001:001063b0       ??8type_info@@QBE_NABV0@@Z 005073b0 f i libvcruntimed:frame.obj
 0001:00106400       ??_Gbad_exception@std@@UAEPAXI@Z 00507400 f i libvcruntimed:frame.obj
 0001:00106400       ??_Ebad_exception@std@@UAEPAXI@Z 00507400 f i libvcruntimed:frame.obj
 0001:00106440       ??_Gexception@std@@UAEPAXI@Z 00507440 f i libvcruntimed:frame.obj
 0001:00106440       ??_Eexception@std@@UAEPAXI@Z 00507440 f i libvcruntimed:frame.obj
 0001:00107310       ?_CallMemberFunction0@@YGXQAX0@Z 00508310 f i libvcruntimed:frame.obj
 0001:00107320       ?_CallMemberFunction1@@YGXQAX00@Z 00508320 f i libvcruntimed:frame.obj
 0001:00107330       ?_CallMemberFunction2@@YGXQAX00H@Z 00508330 f i libvcruntimed:frame.obj
 0001:00107340       ?_ValidateExecute@@YA_NP6GHXZ@Z 00508340 f i libvcruntimed:frame.obj
 0001:00107360       ?_ValidateRead@@YA_NPBXI@Z 00508360 f i libvcruntimed:frame.obj
 0001:00107380       ?_ValidateWrite@@YA_NPAXI@Z 00508380 f i libvcruntimed:frame.obj
 0001:001073a0       ?raw_name@type_info@@QBEPBDXZ 005083a0 f i libvcruntimed:frame.obj
 0001:001073c0       ?what@exception@std@@UBEPBDXZ 005083c0 f i libvcruntimed:frame.obj
 0001:00107400       __SetWinRTOutOfMemoryExceptionCallback 00508400 f   libvcruntimed:frame.obj
 0001:00107410       ___AdjustPointer           00508410 f   libvcruntimed:frame.obj
 0001:00107470       ___BuildCatchObject        00508470 f   libvcruntimed:frame.obj
 0001:001075c0       ___BuildCatchObjectHelper  005085c0 f   libvcruntimed:frame.obj
 0001:001079b0       ___CxxDetectRethrow        005089b0 f   libvcruntimed:frame.obj
 0001:00107a50       ___CxxExceptionFilter      00508a50 f   libvcruntimed:frame.obj
 0001:00107cc0       ___CxxQueryExceptionSize   00508cc0 f   libvcruntimed:frame.obj
 0001:00107cd0       ___CxxRegisterExceptionObject 00508cd0 f   libvcruntimed:frame.obj
 0001:00107e40       ___CxxUnregisterExceptionObject 00508e40 f   libvcruntimed:frame.obj
 0001:00107ff0       ___FrameUnwindFilter       00508ff0 f   libvcruntimed:frame.obj
 0001:00108080       ___FrameUnwindToState      00509080 f   libvcruntimed:frame.obj
 0001:00108260       ___GetPlatformExceptionInfo 00509260 f   libvcruntimed:frame.obj
 0001:00108300       ___InternalCxxFrameHandler 00509300 f   libvcruntimed:frame.obj
 0001:00108510       ___TypeMatch               00509510 f   libvcruntimed:frame.obj
 0001:00108620       ___current_exception       00509620 f   libvcruntimed:frame.obj
 0001:00108630       ___current_exception_context 00509630 f   libvcruntimed:frame.obj
 0001:00108640       ___processing_throw        00509640 f   libvcruntimed:frame.obj
 0001:00108650       ___std_terminate           00509650 f   libvcruntimed:frame.obj
 0001:00108660       ___uncaught_exception      00509660 f   libvcruntimed:frame.obj
 0001:00108690       ___uncaught_exceptions     00509690 f   libvcruntimed:frame.obj
 0001:001086a0       __is_exception_typeof      005096a0 f   libvcruntimed:frame.obj
 0001:001087e0       __get_unexpected           005097e0 f   libvcruntimed:unexpected.obj
 0001:00108800       _set_unexpected            00509800 f   libvcruntimed:unexpected.obj
 0001:00108840       _unexpected                00509840 f   libvcruntimed:unexpected.obj
 0001:00108880       ??$?RD@__crt_public_free_policy@@QBEXQBD@Z 00509880 f i libvcruntimed:std_exception.obj
 0001:001088a0       ??0?$__crt_unique_heap_ptr@DU__crt_public_free_policy@@@@QAE@QAD@Z 005098a0 f i libvcruntimed:std_exception.obj
 0001:001088c0       ??1?$__crt_unique_heap_ptr@DU__crt_public_free_policy@@@@QAE@XZ 005098c0 f i libvcruntimed:std_exception.obj
 0001:001088e0       ??B?$__crt_unique_heap_ptr@DU__crt_public_free_policy@@@@QBE_NXZ 005098e0 f i libvcruntimed:std_exception.obj
 0001:00108900       ?detach@?$__crt_unique_heap_ptr@DU__crt_public_free_policy@@@@QAEPADXZ 00509900 f i libvcruntimed:std_exception.obj
 0001:00108930       ?get@?$__crt_unique_heap_ptr@DU__crt_public_free_policy@@@@QBEPADXZ 00509930 f i libvcruntimed:std_exception.obj
 0001:00108950       ?is_valid@?$__crt_unique_heap_ptr@DU__crt_public_free_policy@@@@QBE_NXZ 00509950 f i libvcruntimed:std_exception.obj
 0001:00108990       ?release@?$__crt_unique_heap_ptr@DU__crt_public_free_policy@@@@QAEXXZ 00509990 f i libvcruntimed:std_exception.obj
 0001:001089c0       ___std_exception_copy      005099c0 f   libvcruntimed:std_exception.obj
 0001:00108ae0       ___std_exception_destroy   00509ae0 f   libvcruntimed:std_exception.obj
 0001:00108b20       __CxxThrowException@8      00509b20 f   libvcruntimed:throw.obj
 0002:00000000       ___xc_a                    0050b000     LIBCMTD:initializers.obj
 0002:00000208       ___xc_z                    0050b208     LIBCMTD:initializers.obj
 0002:0000030c       ___xi_a                    0050b30c     LIBCMTD:initializers.obj
 0002:00000618       ___acrt_stdio_initializer  0050b618     libucrtd:stdio_initializer.obj
 0002:0000061c       ___acrt_clock_initializer  0050b61c     libucrtd:clock_initializer.obj
 0002:00000620       ___acrt_tran_sse2_initializer 0050b620     libucrtd:sse2_initializer.obj
 0002:00000624       ___acrt_multibyte_initializer 0050b624     libucrtd:multibyte_initializer.obj
 0002:0000072c       ___xi_z                    0050b72c     LIBCMTD:initializers.obj
 0002:00000830       ___xp_a                    0050b830     LIBCMTD:initializers.obj
 0002:00000934       ___acrt_locale_terminator  0050b934     libucrtd:locale_initializer.obj
 0002:00000938       ___dcrt_console_output_terminator 0050b938     libucrtd:console_output_initializer.obj
 0002:00000a40       ___acrt_stdio_terminator   0050ba40     libucrtd:stdio_initializer.obj
 0002:00000b44       ___xp_z                    0050bb44     LIBCMTD:initializers.obj
 0002:00000c48       ___xt_a                    0050bc48     LIBCMTD:initializers.obj
 0002:00000d4c       ___xt_z                    0050bd4c     LIBCMTD:initializers.obj
 0002:000012fc       __real@497423f0            0050c2fc     pjmedia-i386-win32-vc14-debug:echo_common.obj
 0002:00001300       _pjmedia_linear2ulaw_tab   0050c300     pjmedia-i386-win32-vc14-debug:alaw_ulaw_table.obj
 0002:00005300       _pjmedia_linear2alaw_tab   00510300     pjmedia-i386-win32-vc14-debug:alaw_ulaw_table.obj
 0002:00009300       _pjmedia_ulaw2linear_tab   00514300     pjmedia-i386-win32-vc14-debug:alaw_ulaw_table.obj
 0002:00009500       _pjmedia_alaw2linear_tab   00514500     pjmedia-i386-win32-vc14-debug:alaw_ulaw_table.obj
 0002:0000b184       __real@3f800000            00516184     pjmedia-i386-win32-vc14-debug:echo_suppress.obj
 0002:0000b188       __real@40000000            00516188     pjmedia-i386-win32-vc14-debug:echo_suppress.obj
 0002:0000b190       __real@4004000000000000    00516190     pjmedia-i386-win32-vc14-debug:echo_suppress.obj
 0002:0000b19c       __real@40400000            0051619c     pjmedia-i386-win32-vc14-debug:echo_suppress.obj
 0002:0000b1a0       __real@41980000            005161a0     pjmedia-i386-win32-vc14-debug:echo_suppress.obj
 0002:0000b1a4       __real@41a00000            005161a4     pjmedia-i386-win32-vc14-debug:echo_suppress.obj
 0002:0000b1a8       __real@447a0000            005161a8     pjmedia-i386-win32-vc14-debug:echo_suppress.obj
 0002:0000b1ac       __real@7efffff8            005161ac     pjmedia-i386-win32-vc14-debug:echo_suppress.obj
 0002:0000b1b0       __xmm@41f00000000000000000000000000000 005161b0     pjmedia-i386-win32-vc14-debug:echo_suppress.obj
 0002:0000b1d0       __xmm@80000000800000008000000080000000 005161d0     pjmedia-i386-win32-vc14-debug:echo_suppress.obj
 0002:0000b1e4       __real@00000000            005161e4     pjmedia-i386-win32-vc14-debug:wsola.obj
 0002:0000b1e8       __real@3fe0000000000000    005161e8     pjmedia-i386-win32-vc14-debug:wsola.obj
 0002:0000b1f8       __real@3ff0000000000000    005161f8     pjmedia-i386-win32-vc14-debug:wsola.obj
 0002:0000b208       __real@3ff8000000000000    00516208     pjmedia-i386-win32-vc14-debug:wsola.obj
 0002:0000b218       __real@401921fb54442d18    00516218     pjmedia-i386-win32-vc14-debug:wsola.obj
 0002:0000b360       __real@41200000            00516360     pjlib-i386-win32-vc14-debug:string.obj
 0002:0000b548       _PJ_AF_UNSPEC              00516548     pjlib-i386-win32-vc14-debug:sock_bsd.obj
 0002:0000b54c       _PJ_AF_UNIX                0051654c     pjlib-i386-win32-vc14-debug:sock_bsd.obj
 0002:0000b550       _PJ_AF_INET                00516550     pjlib-i386-win32-vc14-debug:sock_bsd.obj
 0002:0000b554       _PJ_AF_INET6               00516554     pjlib-i386-win32-vc14-debug:sock_bsd.obj
 0002:0000b558       _PJ_AF_PACKET              00516558     pjlib-i386-win32-vc14-debug:sock_bsd.obj
 0002:0000b55c       _PJ_AF_IRDA                0051655c     pjlib-i386-win32-vc14-debug:sock_bsd.obj
 0002:0000b560       _PJ_SOCK_STREAM            00516560     pjlib-i386-win32-vc14-debug:sock_bsd.obj
 0002:0000b564       _PJ_SOCK_DGRAM             00516564     pjlib-i386-win32-vc14-debug:sock_bsd.obj
 0002:0000b568       _PJ_SOCK_RAW               00516568     pjlib-i386-win32-vc14-debug:sock_bsd.obj
 0002:0000b56c       _PJ_SOCK_RDM               0051656c     pjlib-i386-win32-vc14-debug:sock_bsd.obj
 0002:0000b570       _PJ_SOL_SOCKET             00516570     pjlib-i386-win32-vc14-debug:sock_bsd.obj
 0002:0000b574       _PJ_SOL_IP                 00516574     pjlib-i386-win32-vc14-debug:sock_bsd.obj
 0002:0000b578       _PJ_SOL_TCP                00516578     pjlib-i386-win32-vc14-debug:sock_bsd.obj
 0002:0000b57c       _PJ_SOL_UDP                0051657c     pjlib-i386-win32-vc14-debug:sock_bsd.obj
 0002:0000b580       _PJ_SOL_IPV6               00516580     pjlib-i386-win32-vc14-debug:sock_bsd.obj
 0002:0000b584       _PJ_IP_TOS                 00516584     pjlib-i386-win32-vc14-debug:sock_bsd.obj
 0002:0000b588       _PJ_IPTOS_LOWDELAY         00516588     pjlib-i386-win32-vc14-debug:sock_bsd.obj
 0002:0000b58c       _PJ_IPTOS_THROUGHPUT       0051658c     pjlib-i386-win32-vc14-debug:sock_bsd.obj
 0002:0000b590       _PJ_IPTOS_RELIABILITY      00516590     pjlib-i386-win32-vc14-debug:sock_bsd.obj
 0002:0000b594       _PJ_IPTOS_MINCOST          00516594     pjlib-i386-win32-vc14-debug:sock_bsd.obj
 0002:0000b598       _PJ_IPV6_TCLASS            00516598     pjlib-i386-win32-vc14-debug:sock_bsd.obj
 0002:0000b59c       _PJ_SO_TYPE                0051659c     pjlib-i386-win32-vc14-debug:sock_bsd.obj
 0002:0000b5a0       _PJ_SO_RCVBUF              005165a0     pjlib-i386-win32-vc14-debug:sock_bsd.obj
 0002:0000b5a4       _PJ_SO_SNDBUF              005165a4     pjlib-i386-win32-vc14-debug:sock_bsd.obj
 0002:0000b5a8       _PJ_TCP_NODELAY            005165a8     pjlib-i386-win32-vc14-debug:sock_bsd.obj
 0002:0000b5ac       _PJ_SO_REUSEADDR           005165ac     pjlib-i386-win32-vc14-debug:sock_bsd.obj
 0002:0000b5b0       _PJ_SO_NOSIGPIPE           005165b0     pjlib-i386-win32-vc14-debug:sock_bsd.obj
 0002:0000b5b4       _PJ_SO_PRIORITY            005165b4     pjlib-i386-win32-vc14-debug:sock_bsd.obj
 0002:0000b5b8       _PJ_IP_MULTICAST_IF        005165b8     pjlib-i386-win32-vc14-debug:sock_bsd.obj
 0002:0000b5bc       _PJ_IP_MULTICAST_TTL       005165bc     pjlib-i386-win32-vc14-debug:sock_bsd.obj
 0002:0000b5c0       _PJ_IP_MULTICAST_LOOP      005165c0     pjlib-i386-win32-vc14-debug:sock_bsd.obj
 0002:0000b5c4       _PJ_IP_ADD_MEMBERSHIP      005165c4     pjlib-i386-win32-vc14-debug:sock_bsd.obj
 0002:0000b5c8       _PJ_IP_DROP_MEMBERSHIP     005165c8     pjlib-i386-win32-vc14-debug:sock_bsd.obj
 0002:0000b5cc       _PJ_MSG_OOB                005165cc     pjlib-i386-win32-vc14-debug:sock_bsd.obj
 0002:0000b5d0       _PJ_MSG_PEEK               005165d0     pjlib-i386-win32-vc14-debug:sock_bsd.obj
 0002:0000b5d4       _PJ_MSG_DONTROUTE          005165d4     pjlib-i386-win32-vc14-debug:sock_bsd.obj
 0002:0000b5f8       __real@0000000000000000    005165f8     pjlib-i386-win32-vc14-debug:os_timestamp_common.obj
 0002:0000b608       __real@408f400000000000    00516608     pjlib-i386-win32-vc14-debug:os_timestamp_common.obj
 0002:0000b618       __real@412e848000000000    00516618     pjlib-i386-win32-vc14-debug:os_timestamp_common.obj
 0002:0000b628       __real@41cdcd6500000000    00516628     pjlib-i386-win32-vc14-debug:os_timestamp_common.obj
 0002:0000b634       _PJ_GUID_STRING_LENGTH     00516634     pjlib-i386-win32-vc14-debug:guid_win32.obj
 0002:0000b654       __real@3cf5c28f            00516654     libspeex-i386-win32-vc14-debug:mdf.obj
 0002:0000b658       __real@3dcccccd            00516658     libspeex-i386-win32-vc14-debug:mdf.obj
 0002:0000b65c       __real@3e19999a            0051665c     libspeex-i386-win32-vc14-debug:mdf.obj
 0002:0000b660       __real@3e800000            00516660     libspeex-i386-win32-vc14-debug:mdf.obj
 0002:0000b664       __real@3ecccccd            00516664     libspeex-i386-win32-vc14-debug:mdf.obj
 0002:0000b668       __real@3f000000            00516668     libspeex-i386-win32-vc14-debug:mdf.obj
 0002:0000b66c       __real@3f19999a            0051666c     libspeex-i386-win32-vc14-debug:mdf.obj
 0002:0000b670       __real@3f1a36e2eb1c432d    00516670     libspeex-i386-win32-vc14-debug:mdf.obj
 0002:0000b67c       __real@3f333333            0051667c     libspeex-i386-win32-vc14-debug:mdf.obj
 0002:0000b680       __real@3f4ccccd            00516680     libspeex-i386-win32-vc14-debug:mdf.obj
 0002:0000b684       __real@3f59999a            00516684     libspeex-i386-win32-vc14-debug:mdf.obj
 0002:0000b688       __real@3f666666            00516688     libspeex-i386-win32-vc14-debug:mdf.obj
 0002:0000b68c       __real@3f7b645a            0051668c     libspeex-i386-win32-vc14-debug:mdf.obj
 0002:0000b690       __real@3f7d70a4            00516690     libspeex-i386-win32-vc14-debug:mdf.obj
 0002:0000b694       __real@3f7df3b6            00516694     libspeex-i386-win32-vc14-debug:mdf.obj
 0002:0000b698       __real@3fd0000000000000    00516698     libspeex-i386-win32-vc14-debug:mdf.obj
 0002:0000b6a8       __real@3fd3333333333333    005166a8     libspeex-i386-win32-vc14-debug:mdf.obj
 0002:0000b6b8       __real@3fd6666666666666    005166b8     libspeex-i386-win32-vc14-debug:mdf.obj
 0002:0000b6c8       __real@3fe6666666666666    005166c8     libspeex-i386-win32-vc14-debug:mdf.obj
 0002:0000b6d8       __real@4008000000000000    005166d8     libspeex-i386-win32-vc14-debug:mdf.obj
 0002:0000b6e4       __real@4019999a            005166e4     libspeex-i386-win32-vc14-debug:mdf.obj
 0002:0000b6e8       __real@42c80000            005166e8     libspeex-i386-win32-vc14-debug:mdf.obj
 0002:0000b6ec       __real@461c4000            005166ec     libspeex-i386-win32-vc14-debug:mdf.obj
 0002:0000b6f0       __real@467ffc00            005166f0     libspeex-i386-win32-vc14-debug:mdf.obj
 0002:0000b6f4       __real@46fffd00            005166f4     libspeex-i386-win32-vc14-debug:mdf.obj
 0002:0000b6f8       __real@46fffe00            005166f8     libspeex-i386-win32-vc14-debug:mdf.obj
 0002:0000b6fc       __real@c6ffff00            005166fc     libspeex-i386-win32-vc14-debug:mdf.obj
 0002:0000b700       __real@3f847ae147ae147b    00516700     libspeex-i386-win32-vc14-debug:scal.obj
 0002:0000b710       __real@3fa47ae147ae147b    00516710     libspeex-i386-win32-vc14-debug:scal.obj
 0002:0000b720       __real@3fd999999999999a    00516720     libspeex-i386-win32-vc14-debug:scal.obj
 0002:0000b730       __real@3fe43d1cc100e6b0    00516730     libspeex-i386-win32-vc14-debug:scal.obj
 0002:0000b740       __real@3feeb851eb851eb8    00516740     libspeex-i386-win32-vc14-debug:scal.obj
 0002:0000b750       __real@3fef5c28f5c28f5c    00516750     libspeex-i386-win32-vc14-debug:scal.obj
 0002:0000b760       __real@3ff921fb54442d18    00516760     libspeex-i386-win32-vc14-debug:scal.obj
 0002:0000b770       __real@400921fb54442d18    00516770     libspeex-i386-win32-vc14-debug:scal.obj
 0002:0000b77c       __real@c6fffe00            0051677c     libspeex-i386-win32-vc14-debug:scal.obj
 0002:0000b7e4       __real@26901d7d            005167e4     libspeex-i386-win32-vc14-debug:preprocess.obj
 0002:0000b7e8       __real@38d1b717            005167e8     libspeex-i386-win32-vc14-debug:preprocess.obj
 0002:0000b7ec       __real@3a83126f            005167ec     libspeex-i386-win32-vc14-debug:preprocess.obj
 0002:0000b7f0       __real@3c23d70a            005167f0     libspeex-i386-win32-vc14-debug:preprocess.obj
 0002:0000b7f4       __real@3d4ccccd            005167f4     libspeex-i386-win32-vc14-debug:preprocess.obj
 0002:0000b7f8       __real@3d99999a            005167f8     libspeex-i386-win32-vc14-debug:preprocess.obj
 0002:0000b7fc       __real@3debc947            005167fc     libspeex-i386-win32-vc14-debug:preprocess.obj
 0002:0000b800       __real@3e4bc6a8            00516800     libspeex-i386-win32-vc14-debug:preprocess.obj
 0002:0000b804       __real@3e4ccccd            00516804     libspeex-i386-win32-vc14-debug:preprocess.obj
 0002:0000b808       __real@3e6bc8e2            00516808     libspeex-i386-win32-vc14-debug:preprocess.obj
 0002:0000b80c       __real@3e99999a            0051680c     libspeex-i386-win32-vc14-debug:preprocess.obj
 0002:0000b810       __real@3eaa7efa            00516810     libspeex-i386-win32-vc14-debug:preprocess.obj
 0002:0000b814       __real@3eb33333            00516814     libspeex-i386-win32-vc14-debug:preprocess.obj
 0002:0000b818       __real@3f63d70a            00516818     libspeex-i386-win32-vc14-debug:preprocess.obj
 0002:0000b81c       __real@3f6624dd            0051681c     libspeex-i386-win32-vc14-debug:preprocess.obj
 0002:0000b820       __real@3f733333            00516820     libspeex-i386-win32-vc14-debug:preprocess.obj
 0002:0000b828       __real@3f9eb851eb851eb8    00516828     libspeex-i386-win32-vc14-debug:preprocess.obj
 0002:0000b834       __real@3fa2cdb8            00516834     libspeex-i386-win32-vc14-debug:preprocess.obj
 0002:0000b838       __real@3fc096bb98c7e282    00516838     libspeex-i386-win32-vc14-debug:preprocess.obj
 0002:0000b848       __real@3fc999999999999a    00516848     libspeex-i386-win32-vc14-debug:preprocess.obj
 0002:0000b858       __real@3fe75c2900000000    00516858     libspeex-i386-win32-vc14-debug:preprocess.obj
 0002:0000b868       __real@3ff61adea8000000    00516868     libspeex-i386-win32-vc14-debug:preprocess.obj
 0002:0000b878       __real@4014000000000000    00516878     libspeex-i386-win32-vc14-debug:preprocess.obj
 0002:0000b888       __real@40215f212d773190    00516888     libspeex-i386-win32-vc14-debug:preprocess.obj
 0002:0000b894       __real@40800000            00516894     libspeex-i386-win32-vc14-debug:preprocess.obj
 0002:0000b898       __real@41f00000            00516898     libspeex-i386-win32-vc14-debug:preprocess.obj
 0002:0000b89c       __real@456d8000            0051689c     libspeex-i386-win32-vc14-debug:preprocess.obj
 0002:0000b8a0       __real@45fa0000            005168a0     libspeex-i386-win32-vc14-debug:preprocess.obj
 0002:0000b8a4       __real@467a0000            005168a4     libspeex-i386-win32-vc14-debug:preprocess.obj
 0002:0000b8a8       __real@46dac000            005168a8     libspeex-i386-win32-vc14-debug:preprocess.obj
 0002:0000b8ac       __real@47000000            005168ac     libspeex-i386-win32-vc14-debug:preprocess.obj
 0002:0000b8b0       __real@495bba00            005168b0     libspeex-i386-win32-vc14-debug:preprocess.obj
 0002:0000b8b4       __real@4e6e6b28            005168b4     libspeex-i386-win32-vc14-debug:preprocess.obj
 0002:0000b8b8       __real@bf000000            005168b8     libspeex-i386-win32-vc14-debug:preprocess.obj
 0002:0000b8c0       __real@bfc99999a0000000    005168c0     libspeex-i386-win32-vc14-debug:preprocess.obj
 0002:0000b8d0       __real@c0126bb98c000000    005168d0     libspeex-i386-win32-vc14-debug:preprocess.obj
 0002:0000b8dc       __real@329ee9ee            005168dc     libspeex-i386-win32-vc14-debug:filterbank.obj
 0002:0000b8e0       __real@3a41fc8f            005168e0     libspeex-i386-win32-vc14-debug:filterbank.obj
 0002:0000b8e4       __real@3eaed289            005168e4     libspeex-i386-win32-vc14-debug:filterbank.obj
 0002:0000b8e8       __real@3f004dfd            005168e8     libspeex-i386-win32-vc14-debug:filterbank.obj
 0002:0000b8f0       __real@4001eb8520000000    005168f0     libspeex-i386-win32-vc14-debug:filterbank.obj
 0002:0000b900       __real@402a333340000000    00516900     libspeex-i386-win32-vc14-debug:filterbank.obj
 0002:0000b910       __real@3f6a36e2eb1c432d    00516910     libsrtp-i386-win32-vc14-debug:stat.obj
 0002:0000b920       __real@400147ae147ae148    00516920     libsrtp-i386-win32-vc14-debug:stat.obj
 0002:0000b930       __real@404715c28f5c28f6    00516930     libsrtp-i386-win32-vc14-debug:stat.obj
 0002:0000b940       __real@40b3880000000000    00516940     libsrtp-i386-win32-vc14-debug:stat.obj
 0002:0000b984       _srtp_null_cipher          00516984     libsrtp-i386-win32-vc14-debug:null_cipher.obj
 0002:0000b9c4       _srtp_aes_icm_128          005169c4     libsrtp-i386-win32-vc14-debug:aes_icm.obj
 0002:0000b9f0       _srtp_aes_icm_256          005169f0     libsrtp-i386-win32-vc14-debug:aes_icm.obj
 0002:0000bc1c       _srtp_null_auth            00516c1c     libsrtp-i386-win32-vc14-debug:null_auth.obj
 0002:0000bcc4       _srtp_hmac                 00516cc4     libsrtp-i386-win32-vc14-debug:hmac.obj
 0002:0000e67c       ??_C@_0DF@NOINFFIM@f?3?2dd?2vctools?2crt?2vcruntime?2src?2@ 0051967c     libvcruntimed:std_type_info.obj
 0002:0000e6bc       ??_C@_0DN@JAECLCAP@f?3?2dd?2vctools?2crt?2vcruntime?2src?2@ 005196bc     libvcruntimed:per_thread_data.obj
 0002:0000e71c       ??_C@_1BC@DNHGCMLG@?$AAa?$AAd?$AAv?$AAa?$AAp?$AAi?$AA3?$AA2?$AA?$AA@ 0051971c     libvcruntimed:winapi_downlevel.obj
 0002:0000e734       ??_C@_1DM@KHCHBNEB@?$AAa?$AAp?$AAi?$AA?9?$AAm?$AAs?$AA?9?$AAw?$AAi?$AAn?$AA?9?$AAc?$AAo?$AAr?$AAe?$AA?9?$AAf?$AAi?$AAb?$AAe?$AAr?$AAs?$AA?9?$AAl?$AA1?$AA?9?$AA1?$AA?9?$AA1?$AA?$AA@ 00519734     libvcruntimed:winapi_downlevel.obj
 0002:0000e77c       ??_C@_1DK@LPPGFMPP@?$AAa?$AAp?$AAi?$AA?9?$AAm?$AAs?$AA?9?$AAw?$AAi?$AAn?$AA?9?$AAc?$AAo?$AAr?$AAe?$AA?9?$AAs?$AAy?$AAn?$AAc?$AAh?$AA?9?$AAl?$AA1?$AA?9?$AA2?$AA?9?$AA0?$AA?$AA@ 0051977c     libvcruntimed:winapi_downlevel.obj
 0002:0000e7c4       ??_C@_1BC@GDMECMAK@?$AAk?$AAe?$AAr?$AAn?$AAe?$AAl?$AA3?$AA2?$AA?$AA@ 005197c4     libvcruntimed:winapi_downlevel.obj
 0002:0000e7dc       ??_C@_17CNPHIMPH@?$AA?$CF?$AAl?$AAs?$AA?$AA@ 005197dc     libvcruntimed:winapi_downlevel.obj
 0002:0000e7e8       ??_C@_1EM@LBIFGLGH@?$AAc?$AAa?$AAc?$AAh?$AAe?$AAd?$AA_?$AAh?$AAa?$AAn?$AAd?$AAl?$AAe?$AA?5?$AA?$DN?$AA?$DN?$AA?5?$AAI?$AAN?$AAV?$AAA?$AAL?$AAI?$AAD?$AA_?$AAH?$AAA?$AAN?$AAD?$AAL?$AAE?$AA_@ 005197e8     libvcruntimed:winapi_downlevel.obj
 0002:0000e848       ??_C@_1HM@FGPKDEPG@?$AAf?$AA?3?$AA?2?$AAd?$AAd?$AA?2?$AAv?$AAc?$AAt?$AAo?$AAo?$AAl?$AAs?$AA?2?$AAc?$AAr?$AAt?$AA?2?$AAv?$AAc?$AAr?$AAu?$AAn?$AAt?$AAi?$AAm?$AAe?$AA?2?$AAs?$AAr?$AAc?$AA?2@ 00519848     libvcruntimed:winapi_downlevel.obj
 0002:0000e8dc       ??_C@_1DI@MAHEDLDB@?$AAc?$AAa?$AAc?$AAh?$AAe?$AAd?$AA_?$AAh?$AAa?$AAn?$AAd?$AAl?$AAe?$AA?5?$AA?$DN?$AA?$DN?$AA?5?$AAn?$AAe?$AAw?$AA_?$AAh?$AAa?$AAn?$AAd?$AAl?$AAe?$AA?$AA@ 005198dc     libvcruntimed:winapi_downlevel.obj
 0002:0000e920       ??_C@_1FC@IBNCGNKL@?$AAc?$AAa?$AAc?$AAh?$AAe?$AAd?$AA_?$AAf?$AAp?$AA?5?$AA?$DN?$AA?$DN?$AA?5?$AAi?$AAn?$AAv?$AAa?$AAl?$AAi?$AAd?$AA_?$AAf?$AAu?$AAn?$AAc?$AAt?$AAi?$AAo?$AAn?$AA_?$AAs?$AAe@ 00519920     libvcruntimed:winapi_downlevel.obj
 0002:0000e984       ??_C@_1CI@GDJBAGLP@?$AAc?$AAa?$AAc?$AAh?$AAe?$AAd?$AA_?$AAf?$AAp?$AA?5?$AA?$DN?$AA?$DN?$AA?5?$AAn?$AAe?$AAw?$AA_?$AAf?$AAp?$AA?$AA@ 00519984     libvcruntimed:winapi_downlevel.obj
 0002:0000e9b8       ??_C@_0O@BAMBGLIE@EventRegister?$AA@ 005199b8     libvcruntimed:winapi_downlevel.obj
 0002:0000e9cc       ??_C@_0BE@BJEEGHGK@EventSetInformation?$AA@ 005199cc     libvcruntimed:winapi_downlevel.obj
 0002:0000e9e8       ??_C@_0BA@FAKLIPIC@EventUnregister?$AA@ 005199e8     libvcruntimed:winapi_downlevel.obj
 0002:0000ea00       ??_C@_0BD@PKLHJPHD@EventWriteTransfer?$AA@ 00519a00     libvcruntimed:winapi_downlevel.obj
 0002:0000ea24       ??_C@_08KNHFBNJ@FlsAlloc?$AA@ 00519a24     libvcruntimed:winapi_downlevel.obj
 0002:0000ea3c       ??_C@_07PEJMOBNF@FlsFree?$AA@ 00519a3c     libvcruntimed:winapi_downlevel.obj
 0002:0000ea54       ??_C@_0M@GDNOONDI@FlsGetValue?$AA@ 00519a54     libvcruntimed:winapi_downlevel.obj
 0002:0000ea70       ??_C@_0M@JCPCPOEF@FlsSetValue?$AA@ 00519a70     libvcruntimed:winapi_downlevel.obj
 0002:0000ea8c       ??_C@_0BM@HCFOFFN@InitializeCriticalSectionEx?$AA@ 00519a8c     libvcruntimed:winapi_downlevel.obj
 0002:0000ec90       ??_C@_08EHJDFFNH@__based?$CI?$AA@ 00519c90     libvcruntimed:undname.obj
 0002:0000ec9c       ??_C@_07KOLFKCDI@__cdecl?$AA@ 00519c9c     libvcruntimed:undname.obj
 0002:0000eca8       ??_C@_08GHMPAG@__pascal?$AA@ 00519ca8     libvcruntimed:undname.obj
 0002:0000ecb4       ??_C@_09IFJBGAPI@__stdcall?$AA@ 00519cb4     libvcruntimed:undname.obj
 0002:0000ecc0       ??_C@_0L@NPHFGOKO@__thiscall?$AA@ 00519cc0     libvcruntimed:undname.obj
 0002:0000ecd0       ??_C@_0L@JMKHOMEK@__fastcall?$AA@ 00519cd0     libvcruntimed:undname.obj
 0002:0000ece0       ??_C@_0N@BCKKPABJ@__vectorcall?$AA@ 00519ce0     libvcruntimed:undname.obj
 0002:0000ecf0       ??_C@_09HIJEGCPM@__clrcall?$AA@ 00519cf0     libvcruntimed:undname.obj
 0002:0000ecfc       ??_C@_06GHPCKEAG@__eabi?$AA@ 00519cfc     libvcruntimed:undname.obj
 0002:0000ed04       ??_C@_07JOMMBBKO@__ptr64?$AA@ 00519d04     libvcruntimed:undname.obj
 0002:0000ed10       ??_C@_0L@PILCLIHE@__restrict?$AA@ 00519d10     libvcruntimed:undname.obj
 0002:0000ed20       ??_C@_0M@GFIIJFMG@__unaligned?$AA@ 00519d20     libvcruntimed:undname.obj
 0002:0000ed30       ??_C@_09DHDLOLLB@restrict?$CI?$AA@ 00519d30     libvcruntimed:undname.obj
 0002:0000ed3c       ??_C@_00CNPNBAHC@?$AA@     00519d3c     libvcruntimed:undname.obj
 0002:0000ed40       ??_C@_04NIHEBCM@?5new?$AA@ 00519d40     libvcruntimed:undname.obj
 0002:0000ed48       ??_C@_07FPCDHGMM@?5delete?$AA@ 00519d48     libvcruntimed:undname.obj
 0002:0000ed54       ??_C@_01NEMOKFLO@?$DN?$AA@ 00519d54     libvcruntimed:undname.obj
 0002:0000ed58       ??_C@_02GPIOPFAK@?$DO?$DO?$AA@ 00519d58     libvcruntimed:undname.obj
 0002:0000ed5c       ??_C@_02FODMEDOG@?$DM?$DM?$AA@ 00519d5c     libvcruntimed:undname.obj
 0002:0000ed60       ??_C@_01DCLJPIOD@?$CB?$AA@ 00519d60     libvcruntimed:undname.obj
 0002:0000ed64       ??_C@_02EGOFBIJA@?$DN?$DN?$AA@ 00519d64     libvcruntimed:undname.obj
 0002:0000ed68       ??_C@_02FDNJECIE@?$CB?$DN?$AA@ 00519d68     libvcruntimed:undname.obj
 0002:0000ed6c       ??_C@_02GPECMEKF@?$FL?$FN?$AA@ 00519d6c     libvcruntimed:undname.obj
 0002:0000ed70       ??_C@_08LHJFAFGD@operator?$AA@ 00519d70     libvcruntimed:undname.obj
 0002:0000ed7c       ??_C@_02HBOOOICD@?9?$DO?$AA@ 00519d7c     libvcruntimed:undname.obj
 0002:0000ed80       ??_C@_01NBENCBCI@?$CK?$AA@ 00519d80     libvcruntimed:undname.obj
 0002:0000ed84       ??_C@_02ECNGHCIF@?$CL?$CL?$AA@ 00519d84     libvcruntimed:undname.obj
 0002:0000ed88       ??_C@_02BAABKJLB@?9?9?$AA@ 00519d88     libvcruntimed:undname.obj
 0002:0000ed8c       ??_C@_01JOAMLHOP@?9?$AA@   00519d8c     libvcruntimed:undname.obj
 0002:0000ed90       ??_C@_01MIFGBAGJ@?$CL?$AA@ 00519d90     libvcruntimed:undname.obj
 0002:0000ed94       ??_C@_01HNPIGOCE@?$CG?$AA@ 00519d94     libvcruntimed:undname.obj
 0002:0000ed98       ??_C@_03MNHNFDLC@?9?$DO?$CK?$AA@ 00519d98     libvcruntimed:undname.obj
 0002:0000ed9c       ??_C@_01KMDKNFGN@?1?$AA@   00519d9c     libvcruntimed:undname.obj
 0002:0000eda0       ??_C@_01FGNFDNOH@?$CF?$AA@ 00519da0     libvcruntimed:undname.obj
 0002:0000eda4       ??_C@_01MNNFJEPP@?$DM?$AA@ 00519da4     libvcruntimed:undname.obj
 0002:0000eda8       ??_C@_02EHCHHCKH@?$DM?$DN?$AA@ 00519da8     libvcruntimed:undname.obj
 0002:0000edac       ??_C@_01PPODPGHN@?$DO?$AA@ 00519dac     libvcruntimed:undname.obj
 0002:0000edb0       ??_C@_02EEKDKGMJ@?$DO?$DN?$AA@ 00519db0     libvcruntimed:undname.obj
 0002:0000edb4       ??_C@_01IHBHIGKO@?0?$AA@   00519db4     libvcruntimed:undname.obj
 0002:0000edb8       ??_C@_02HCKGKOFO@?$CI?$CJ?$AA@ 00519db8     libvcruntimed:undname.obj
 0002:0000edbc       ??_C@_01PJKLJHI@?$HO?$AA@  00519dbc     libvcruntimed:undname.obj
 0002:0000edc0       ??_C@_01JKBOJNNK@?$FO?$AA@ 00519dc0     libvcruntimed:undname.obj
 0002:0000edc4       ??_C@_01DNKMNLPK@?$HM?$AA@ 00519dc4     libvcruntimed:undname.obj
 0002:0000edc8       ??_C@_02PPKAJPJL@?$CG?$CG?$AA@ 00519dc8     libvcruntimed:undname.obj
 0002:0000edcc       ??_C@_02NONPIBCD@?$HM?$HM?$AA@ 00519dcc     libvcruntimed:undname.obj
 0002:0000edd0       ??_C@_02FPIMKNGF@?$CK?$DN?$AA@ 00519dd0     libvcruntimed:undname.obj
 0002:0000edd4       ??_C@_02FOEOMHFC@?$CL?$DN?$AA@ 00519dd4     libvcruntimed:undname.obj
 0002:0000edd8       ??_C@_02FKMDLLOA@?9?$DN?$AA@ 00519dd8     libvcruntimed:undname.obj
 0002:0000eddc       ??_C@_02FJEHGPIO@?1?$DN?$AA@ 00519ddc     libvcruntimed:undname.obj
 0002:0000ede0       ??_C@_02FENAOKFI@?$CF?$DN?$AA@ 00519de0     libvcruntimed:undname.obj
 0002:0000ede4       ??_C@_03IKFCCPFF@?$DO?$DO?$DN?$AA@ 00519de4     libvcruntimed:undname.obj
 0002:0000ede8       ??_C@_03CDNPDDLA@?$DM?$DM?$DN?$AA@ 00519de8     libvcruntimed:undname.obj
 0002:0000edec       ??_C@_02FGJGFEAB@?$CG?$DN?$AA@ 00519dec     libvcruntimed:undname.obj
 0002:0000edf0       ??_C@_02DHLNPPGH@?$HM?$DN?$AA@ 00519df0     libvcruntimed:undname.obj
 0002:0000edf4       ??_C@_02MHEGNOJ@?$FO?$DN?$AA@ 00519df4     libvcruntimed:undname.obj
 0002:0000edf8       ??_C@_09IFPLHPGF@?$GAvftable?8?$AA@ 00519df8     libvcruntimed:undname.obj
 0002:0000ee04       ??_C@_09BLBHBJP@?$GAvbtable?8?$AA@ 00519e04     libvcruntimed:undname.obj
 0002:0000ee10       ??_C@_07FEEIOKP@?$GAvcall?8?$AA@ 00519e10     libvcruntimed:undname.obj
 0002:0000ee1c       ??_C@_08LLFFHHDJ@?$GAtypeof?8?$AA@ 00519e1c     libvcruntimed:undname.obj
 0002:0000ee28       ??_C@_0BF@KDPPACIK@?$GAlocal?5static?5guard?8?$AA@ 00519e28     libvcruntimed:undname.obj
 0002:0000ee44       ??_C@_08OBABFOLI@?$GAstring?8?$AA@ 00519e44     libvcruntimed:undname.obj
 0002:0000ee50       ??_C@_0BD@JDLKDPAB@?$GAvbase?5destructor?8?$AA@ 00519e50     libvcruntimed:undname.obj
 0002:0000ee68       ??_C@_0BN@DEGPLNFK@?$GAvector?5deleting?5destructor?8?$AA@ 00519e68     libvcruntimed:undname.obj
 0002:0000ee8c       ??_C@_0BO@OBMKPJIG@?$GAdefault?5constructor?5closure?8?$AA@ 00519e8c     libvcruntimed:undname.obj
 0002:0000eeb0       ??_C@_0BN@IMDCHIKM@?$GAscalar?5deleting?5destructor?8?$AA@ 00519eb0     libvcruntimed:undname.obj
 0002:0000eed4       ??_C@_0BO@PFGOCPJJ@?$GAvector?5constructor?5iterator?8?$AA@ 00519ed4     libvcruntimed:undname.obj
 0002:0000eef8       ??_C@_0BN@LFPFMEDL@?$GAvector?5destructor?5iterator?8?$AA@ 00519ef8     libvcruntimed:undname.obj
 0002:0000ef1c       ??_C@_0CE@IKBNEHA@?$GAvector?5vbase?5constructor?5iterat@ 00519f1c     libvcruntimed:undname.obj
 0002:0000ef48       ??_C@_0BL@NILFHHPC@?$GAvirtual?5displacement?5map?8?$AA@ 00519f48     libvcruntimed:undname.obj
 0002:0000ef68       ??_C@_0CB@JONCMFFK@?$GAeh?5vector?5constructor?5iterator?8@ 00519f68     libvcruntimed:undname.obj
 0002:0000ef90       ??_C@_0CA@GCEOPDGL@?$GAeh?5vector?5destructor?5iterator?8?$AA@ 00519f90     libvcruntimed:undname.obj
 0002:0000efb8       ??_C@_0CH@OOJPLCPH@?$GAeh?5vector?5vbase?5constructor?5ite@ 00519fb8     libvcruntimed:undname.obj
 0002:0000efe8       ??_C@_0BL@LLKPOHJI@?$GAcopy?5constructor?5closure?8?$AA@ 00519fe8     libvcruntimed:undname.obj
 0002:0000f008       ??_C@_0BA@KBCDOMBN@?$GAudt?5returning?8?$AA@ 0051a008     libvcruntimed:undname.obj
 0002:0000f01c       ??_C@_03KLGMFNMG@?$GAEH?$AA@ 0051a01c     libvcruntimed:undname.obj
 0002:0000f020       ??_C@_05KHLCHHI@?$GARTTI?$AA@ 0051a020     libvcruntimed:undname.obj
 0002:0000f028       ??_C@_0BA@KKLDJDLB@?$GAlocal?5vftable?8?$AA@ 0051a028     libvcruntimed:undname.obj
 0002:0000f03c       ??_C@_0CE@IIHCMGGL@?$GAlocal?5vftable?5constructor?5closu@ 0051a03c     libvcruntimed:undname.obj
 0002:0000f068       ??_C@_06FHBGPFGH@?5new?$FL?$FN?$AA@ 0051a068     libvcruntimed:undname.obj
 0002:0000f070       ??_C@_09LBNFPBCA@?5delete?$FL?$FN?$AA@ 0051a070     libvcruntimed:undname.obj
 0002:0000f07c       ??_C@_0P@HJKNJFNN@?$GAomni?5callsig?8?$AA@ 0051a07c     libvcruntimed:undname.obj
 0002:0000f090       ??_C@_0BL@CNOONJFP@?$GAplacement?5delete?5closure?8?$AA@ 0051a090     libvcruntimed:undname.obj
 0002:0000f0b0       ??_C@_0BN@CKNJLHMB@?$GAplacement?5delete?$FL?$FN?5closure?8?$AA@ 0051a0b0     libvcruntimed:undname.obj
 0002:0000f0d4       ??_C@_0CG@CFDHKGGD@?$GAmanaged?5vector?5constructor?5iter@ 0051a0d4     libvcruntimed:undname.obj
 0002:0000f104       ??_C@_0CF@IMGKMJNO@?$GAmanaged?5vector?5destructor?5itera@ 0051a104     libvcruntimed:undname.obj
 0002:0000f130       ??_C@_0CG@HLDDJMAG@?$GAeh?5vector?5copy?5constructor?5iter@ 0051a130     libvcruntimed:undname.obj
 0002:0000f160       ??_C@_0CM@FCBBDIGB@?$GAeh?5vector?5vbase?5copy?5constructo@ 0051a160     libvcruntimed:undname.obj
 0002:0000f194       ??_C@_0BL@CLIPGLGB@?$GAdynamic?5initializer?5for?5?8?$AA@ 0051a194     libvcruntimed:undname.obj
 0002:0000f1b4       ??_C@_0CB@PDBIFEP@?$GAdynamic?5atexit?5destructor?5for?5?8@ 0051a1b4     libvcruntimed:undname.obj
 0002:0000f1dc       ??_C@_0CD@CGAJBKEJ@?$GAvector?5copy?5constructor?5iterato@ 0051a1dc     libvcruntimed:undname.obj
 0002:0000f208       ??_C@_0CJ@GJELGAMM@?$GAvector?5vbase?5copy?5constructor?5i@ 0051a208     libvcruntimed:undname.obj
 0002:0000f23c       ??_C@_0CL@FGIJHLCE@?$GAmanaged?5vector?5copy?5constructor@ 0051a23c     libvcruntimed:undname.obj
 0002:0000f270       ??_C@_0BM@PMGGMLDN@?$GAlocal?5static?5thread?5guard?8?$AA@ 0051a270     libvcruntimed:undname.obj
 0002:0000f294       ??_C@_0N@BDNMDMOL@operator?5?$CC?$CC?5?$AA@ 0051a294     libvcruntimed:undname.obj
 0002:0000f2a4       ??_C@_0BC@DAFEJGAK@?5Type?5Descriptor?8?$AA@ 0051a2a4     libvcruntimed:undname.obj
 0002:0000f2bc       ??_C@_0BM@LDKODKLH@?5Base?5Class?5Descriptor?5at?5?$CI?$AA@ 0051a2bc     libvcruntimed:undname.obj
 0002:0000f2e0       ??_C@_0BD@LGICGFMM@?5Base?5Class?5Array?8?$AA@ 0051a2e0     libvcruntimed:undname.obj
 0002:0000f2f8       ??_C@_0BN@MECKDCOJ@?5Class?5Hierarchy?5Descriptor?8?$AA@ 0051a2f8     libvcruntimed:undname.obj
 0002:0000f31c       ??_C@_0BK@CFCOFLF@?5Complete?5Object?5Locator?8?$AA@ 0051a31c     libvcruntimed:undname.obj
 0002:0000f33c       ??_C@_04HEJADOOB@CV?3?5?$AA@ 0051a33c     libvcruntimed:undname.obj
 0002:0000f344       ??_C@_02MOLJINC@?3?3?$AA@  0051a344     libvcruntimed:undname.obj
 0002:0000f348       ??_C@_0BE@JAEOCHPE@template?9parameter?9?$AA@ 0051a348     libvcruntimed:undname.obj
 0002:0000f360       ??_C@_0O@KHGCOMHP@generic?9type?9?$AA@ 0051a360     libvcruntimed:undname.obj
 0002:0000f370       ??_C@_01NLNLIGKH@?$GA?$AA@ 0051a370     libvcruntimed:undname.obj
 0002:0000f374       ??_C@_01GEODFPGF@?8?$AA@   0051a374     libvcruntimed:undname.obj
 0002:0000f378       ??_C@_0BG@JNJLAMPM@?$GAanonymous?5namespace?8?$AA@ 0051a378     libvcruntimed:undname.obj
 0002:0000f394       ??_C@_02OHHJMEON@?8?8?$AA@ 0051a394     libvcruntimed:undname.obj
 0002:0000f398       ??_C@_0BN@IBLMMFAP@?$GAnon?9type?9template?9parameter?$AA@ 0051a398     libvcruntimed:undname.obj
 0002:0000f3bc       ??_C@_04GKJNKENE@void?$AA@ 0051a3bc     libvcruntimed:undname.obj
 0002:0000f3c4       ??_C@_0BE@EODMJLIF@?$GAtemplate?9parameter?$AA@ 0051a3c4     libvcruntimed:undname.obj
 0002:0000f3dc       ??_C@_03KHICJKCI@?4?4?4?$AA@ 0051a3dc     libvcruntimed:undname.obj
 0002:0000f3e0       ??_C@_04HIBGFPH@NULL?$AA@  0051a3e0     libvcruntimed:undname.obj
 0002:0000f3e8       ??_C@_02DPKJAMEF@?$CFd?$AA@ 0051a3e8     libvcruntimed:undname.obj
 0002:0000f3ec       ??_C@_0BK@IHCCFNEL@?$GAtemplate?9type?9parameter?9?$AA@ 0051a3ec     libvcruntimed:undname.obj
 0002:0000f40c       ??_C@_0BK@OFCNNNKO@?$GAgeneric?9class?9parameter?9?$AA@ 0051a40c     libvcruntimed:undname.obj
 0002:0000f42c       ??_C@_0BL@NGJBLFIL@?$GAgeneric?9method?9parameter?9?$AA@ 0051a42c     libvcruntimed:undname.obj
 0002:0000f44c       ??_C@_03OPGICMGF@?$HN?8?5?$AA@ 0051a44c     libvcruntimed:undname.obj
 0002:0000f450       ??_C@_02IGFCGPIL@?$HN?8?$AA@ 0051a450     libvcruntimed:undname.obj
 0002:0000f454       ??_C@_01CLKCMJKC@?5?$AA@   0051a454     libvcruntimed:undname.obj
 0002:0000f458       ??_C@_0N@CBHHHENL@?$GAvtordispex?$HL?$AA@ 0051a458     libvcruntimed:undname.obj
 0002:0000f468       ??_C@_0L@GHPFDFH@?$GAvtordisp?$HL?$AA@ 0051a468     libvcruntimed:undname.obj
 0002:0000f478       ??_C@_0L@HNGCOGAE@?$GAadjustor?$HL?$AA@ 0051a478     libvcruntimed:undname.obj
 0002:0000f488       ??_C@_0CB@KJDOOODE@?$GAlocal?5static?5destructor?5helper?8@ 0051a488     libvcruntimed:undname.obj
 0002:0000f4b0       ??_C@_0DB@ILEFOCIJ@?$GAtemplate?5static?5data?5member?5con@ 0051a4b0     libvcruntimed:undname.obj
 0002:0000f4ec       ??_C@_0DA@HGFJFBBE@?$GAtemplate?5static?5data?5member?5des@ 0051a4ec     libvcruntimed:undname.obj
 0002:0000f528       ??_C@_07PGOEDBHP@static?5?$AA@ 0051a528     libvcruntimed:undname.obj
 0002:0000f534       ??_C@_08NIEOINHE@virtual?5?$AA@ 0051a534     libvcruntimed:undname.obj
 0002:0000f540       ??_C@_09LAPHOOG@private?3?5?$AA@ 0051a540     libvcruntimed:undname.obj
 0002:0000f54c       ??_C@_0M@GAIFPFIP@protected?3?5?$AA@ 0051a54c     libvcruntimed:undname.obj
 0002:0000f55c       ??_C@_08GPDDCMKI@public?3?5?$AA@ 0051a55c     libvcruntimed:undname.obj
 0002:0000f568       ??_C@_08KJLFOPNE@?$FLthunk?$FN?3?$AA@ 0051a568     libvcruntimed:undname.obj
 0002:0000f574       ??_C@_0M@DHNBOJMP@extern?5?$CCC?$CC?5?$AA@ 0051a574     libvcruntimed:undname.obj
 0002:0000f584       ??_C@_02KCKGHPCA@?$CJ?5?$AA@ 0051a584     libvcruntimed:undname.obj
 0002:0000f588       ??_C@_05CIHEBHNO@char?5?$AA@ 0051a588     libvcruntimed:undname.obj
 0002:0000f590       ??_C@_06EHJMALKF@short?5?$AA@ 0051a590     libvcruntimed:undname.obj
 0002:0000f598       ??_C@_04LAHKHJMA@int?5?$AA@ 0051a598     libvcruntimed:undname.obj
 0002:0000f5a0       ??_C@_05CJIMAING@long?5?$AA@ 0051a5a0     libvcruntimed:undname.obj
 0002:0000f5a8       ??_C@_09EBBEKKIH@unsigned?5?$AA@ 0051a5a8     libvcruntimed:undname.obj
 0002:0000f5b4       ??_C@_05BEFAKPML@void?5?$AA@ 0051a5b4     libvcruntimed:undname.obj
 0002:0000f5bc       ??_C@_08PABEKFH@volatile?$AA@ 0051a5bc     libvcruntimed:undname.obj
 0002:0000f5c8       ??_C@_0BA@LKIJLKPP@std?3?3nullptr_t?5?$AA@ 0051a5c8     libvcruntimed:undname.obj
 0002:0000f5dc       ??_C@_0P@GCOCNKDM@std?3?3nullptr_t?$AA@ 0051a5dc     libvcruntimed:undname.obj
 0002:0000f5f0       ??_C@_0L@EGPHHEKN@?$DMellipsis?$DO?$AA@ 0051a5f0     libvcruntimed:undname.obj
 0002:0000f600       ??_C@_04EENFHACM@?0?4?4?4?$AA@ 0051a600     libvcruntimed:undname.obj
 0002:0000f608       ??_C@_0M@ELJOJFFH@?0?$DMellipsis?$DO?$AA@ 0051a608     libvcruntimed:undname.obj
 0002:0000f618       ??_C@_07HDJPLPEK@?5throw?$CI?$AA@ 0051a618     libvcruntimed:undname.obj
 0002:0000f624       ??_C@_03PBJBJNON@cpu?$AA@  0051a624     libvcruntimed:undname.obj
 0002:0000f628       ??_C@_03DCBBJBAA@amp?$AA@  0051a628     libvcruntimed:undname.obj
 0002:0000f62c       ??_C@_02KEGNLNML@?0?5?$AA@ 0051a62c     libvcruntimed:undname.obj
 0002:0000f630       ??_C@_04ENMBGAPA@char?$AA@ 0051a630     libvcruntimed:undname.obj
 0002:0000f638       ??_C@_05BFKKPKCG@short?$AA@ 0051a638     libvcruntimed:undname.obj
 0002:0000f640       ??_C@_03JBIPMCLC@int?$AA@  0051a640     libvcruntimed:undname.obj
 0002:0000f644       ??_C@_04GOKPGOLB@long?$AA@ 0051a644     libvcruntimed:undname.obj
 0002:0000f64c       ??_C@_05KNFBNCOH@float?$AA@ 0051a64c     libvcruntimed:undname.obj
 0002:0000f654       ??_C@_06BNJCAIGJ@double?$AA@ 0051a654     libvcruntimed:undname.obj
 0002:0000f65c       ??_C@_04DDKJGDCM@bool?$AA@ 0051a65c     libvcruntimed:undname.obj
 0002:0000f664       ??_C@_06EBGKOKIG@__int8?$AA@ 0051a664     libvcruntimed:undname.obj
 0002:0000f66c       ??_C@_07ICFHOGAF@__int16?$AA@ 0051a66c     libvcruntimed:undname.obj
 0002:0000f678       ??_C@_07OFLPPHGP@__int32?$AA@ 0051a678     libvcruntimed:undname.obj
 0002:0000f684       ??_C@_07LFCOJCAC@__int64?$AA@ 0051a684     libvcruntimed:undname.obj
 0002:0000f690       ??_C@_08GAHOLHEO@__int128?$AA@ 0051a690     libvcruntimed:undname.obj
 0002:0000f69c       ??_C@_09EEKGDCPH@?$DMunknown?$DO?$AA@ 0051a69c     libvcruntimed:undname.obj
 0002:0000f6a8       ??_C@_08HBIPOFJB@char16_t?$AA@ 0051a6a8     libvcruntimed:undname.obj
 0002:0000f6b4       ??_C@_08IECNCBKG@char32_t?$AA@ 0051a6b4     libvcruntimed:undname.obj
 0002:0000f6c0       ??_C@_07CLGGIAMF@wchar_t?$AA@ 0051a6c0     libvcruntimed:undname.obj
 0002:0000f6cc       ??_C@_06GCICPBLB@__w64?5?$AA@ 0051a6cc     libvcruntimed:undname.obj
 0002:0000f6d4       ??_C@_07NFANNNEC@UNKNOWN?$AA@ 0051a6d4     libvcruntimed:undname.obj
 0002:0000f6e0       ??_C@_07EDHNAJHC@signed?5?$AA@ 0051a6e0     libvcruntimed:undname.obj
 0002:0000f6ec       ??_C@_05BNCCCJPP@const?$AA@ 0051a6ec     libvcruntimed:undname.obj
 0002:0000f6f4       ??_C@_09EFNPDFFP@?5volatile?$AA@ 0051a6f4     libvcruntimed:undname.obj
 0002:0000f700       ??_C@_0P@GCIFDJCJ@?$GAunknown?5ecsu?8?$AA@ 0051a700     libvcruntimed:undname.obj
 0002:0000f714       ??_C@_06MOJHIBMG@union?5?$AA@ 0051a714     libvcruntimed:undname.obj
 0002:0000f71c       ??_C@_07DIBCDNGL@struct?5?$AA@ 0051a71c     libvcruntimed:undname.obj
 0002:0000f728       ??_C@_06LJBABKPM@class?5?$AA@ 0051a728     libvcruntimed:undname.obj
 0002:0000f730       ??_C@_08KOFANOFK@coclass?5?$AA@ 0051a730     libvcruntimed:undname.obj
 0002:0000f73c       ??_C@_0N@DLIEFKNA@cointerface?5?$AA@ 0051a73c     libvcruntimed:undname.obj
 0002:0000f74c       ??_C@_05LJGMCFOG@enum?5?$AA@ 0051a74c     libvcruntimed:undname.obj
 0002:0000f754       ??_C@_09GAIEOBLP@volatile?5?$AA@ 0051a754     libvcruntimed:undname.obj
 0002:0000f760       ??_C@_06LIJLOJAG@const?5?$AA@ 0051a760     libvcruntimed:undname.obj
 0002:0000f768       ??_C@_02KJPKDIBN@?$CG?5?$AA@ 0051a768     libvcruntimed:undname.obj
 0002:0000f76c       ??_C@_03PCKGMOPB@?$CG?$CG?5?$AA@ 0051a76c     libvcruntimed:undname.obj
 0002:0000f770       ??_C@_0M@EALIELKG@cli?3?3array?$DM?$AA@ 0051a770     libvcruntimed:undname.obj
 0002:0000f780       ??_C@_0O@GKABPPIF@cli?3?3pin_ptr?$DM?$AA@ 0051a780     libvcruntimed:undname.obj
 0002:0000f790       ??_C@_02GOGNNPBN@?$CJ?$FL?$AA@ 0051a790     libvcruntimed:undname.obj
 0002:0000f794       ??_C@_06EEGAIFAK@?$HLflat?$HN?$AA@ 0051a794     libvcruntimed:undname.obj
 0002:0000f79c       ??_C@_05JIBOFOHK@?$HLfor?5?$AA@ 0051a79c     libvcruntimed:undname.obj
 0002:0000f7a4       ??_C@_02MDINNEEG@s?5?$AA@  0051a7a4     libvcruntimed:undname.obj
 0002:0000f7ac       ??_7DNameNode@@6B@         0051a7ac     libvcruntimed:undname.obj
 0002:0000f7c0       ??_7charNode@@6B@          0051a7c0     libvcruntimed:undname.obj
 0002:0000f7d4       ??_7pcharNode@@6B@         0051a7d4     libvcruntimed:undname.obj
 0002:0000f7e8       ??_7pDNameNode@@6B@        0051a7e8     libvcruntimed:undname.obj
 0002:0000f7fc       ??_7DNameStatusNode@@6B@   0051a7fc     libvcruntimed:undname.obj
 0002:0000f810       ??_7pairNode@@6B@          0051a810     libvcruntimed:undname.obj
 0002:0000f820       ??_C@_04OKOHEJBO@?5?$DP?$DP?5?$AA@ 0051a820     libvcruntimed:undname.obj
 0002:0000f828       ??_C@_0CP@GDJHIDC@minkernel?2crts?2ucrt?2src?2appcrt?2s@ 0051a828     libucrtd:_file.obj
 0002:0000f860       ??_C@_1DC@OGOLMDEL@?$AAp?$AAu?$AAb?$AAl?$AAi?$AAc?$AA_?$AAs?$AAt?$AAr?$AAe?$AAa?$AAm?$AA?5?$AA?$CB?$AA?$DN?$AA?5?$AAn?$AAu?$AAl?$AAl?$AAp?$AAt?$AAr?$AA?$AA@ 0051a860     libucrtd:_file.obj
 0002:0000f8a0       ??_C@_1FO@IEGKHABE@?$AAm?$AAi?$AAn?$AAk?$AAe?$AAr?$AAn?$AAe?$AAl?$AA?2?$AAc?$AAr?$AAt?$AAs?$AA?2?$AAu?$AAc?$AAr?$AAt?$AA?2?$AAs?$AAr?$AAc?$AA?2?$AAa?$AAp?$AAp?$AAc?$AAr?$AAt?$AA?2?$AAs@ 0051a8a0     libucrtd:_file.obj
 0002:0000f910       ??_C@_1DI@PJGMCDLC@?$AA_?$AAg?$AAe?$AAt?$AA_?$AAs?$AAt?$AAr?$AAe?$AAa?$AAm?$AA_?$AAb?$AAu?$AAf?$AAf?$AAe?$AAr?$AA_?$AAp?$AAo?$AAi?$AAn?$AAt?$AAe?$AAr?$AAs?$AA?$AA@ 0051a910     libucrtd:_file.obj
 0002:0000f958       ??_C@_1BDG@MKBKGHOH@?$AA?$CI?$AA?5?$AA?$CI?$AA_?$AAS?$AAt?$AAr?$AAe?$AAa?$AAm?$AA?4?$AAi?$AAs?$AA_?$AAs?$AAt?$AAr?$AAi?$AAn?$AAg?$AA_?$AAb?$AAa?$AAc?$AAk?$AAe?$AAd?$AA?$CI?$AA?$CJ?$AA?$CJ?$AA?5?$AA?$HM@ 0051a958     libucrtd:fgets.obj
 0002:0000fad0       ??_C@_1GC@LCDLABEA@?$AAm?$AAi?$AAn?$AAk?$AAe?$AAr?$AAn?$AAe?$AAl?$AA?2?$AAc?$AAr?$AAt?$AAs?$AA?2?$AAu?$AAc?$AAr?$AAt?$AA?2?$AAi?$AAn?$AAc?$AA?2?$AAc?$AAo?$AAr?$AAe?$AAc?$AAr?$AAt?$AA_@ 0051aad0     libucrtd:fgets.obj
 0002:0000fb48       ??_C@_1II@DIIMCJOK@?$AA_?$AA_?$AAa?$AAc?$AAr?$AAt?$AA_?$AAs?$AAt?$AAd?$AAi?$AAo?$AA_?$AAc?$AAh?$AAa?$AAr?$AA_?$AAt?$AAr?$AAa?$AAi?$AAt?$AAs?$AA?$DM?$AAc?$AAh?$AAa?$AAr?$AA?$DO?$AA?3?$AA?3@ 0051ab48     libucrtd:fgets.obj
 0002:0000fbf0       ??_C@_1EA@MFKLBHOB@?$AAs?$AAt?$AAr?$AAi?$AAn?$AAg?$AA?5?$AA?$CB?$AA?$DN?$AA?5?$AAn?$AAu?$AAl?$AAl?$AAp?$AAt?$AAr?$AA?5?$AA?$HM?$AA?$HM?$AA?5?$AAc?$AAo?$AAu?$AAn?$AAt?$AA?5?$AA?$DN?$AA?$DN?$AA?5?$AA0?$AA?$AA@ 0051abf0     libucrtd:fgets.obj
 0002:0000fc40       ??_C@_1FO@HIFCGJKB@?$AAm?$AAi?$AAn?$AAk?$AAe?$AAr?$AAn?$AAe?$AAl?$AA?2?$AAc?$AAr?$AAt?$AAs?$AA?2?$AAu?$AAc?$AAr?$AAt?$AA?2?$AAs?$AAr?$AAc?$AA?2?$AAa?$AAp?$AAp?$AAc?$AAr?$AAt?$AA?2?$AAs@ 0051ac40     libucrtd:fgets.obj
 0002:0000fcb0       ??_C@_1BK@HJELCDB@?$AAc?$AAo?$AAm?$AAm?$AAo?$AAn?$AA_?$AAf?$AAg?$AAe?$AAt?$AAs?$AA?$AA@ 0051acb0     libucrtd:fgets.obj
 0002:0000fcd0       ??_C@_1BG@DPDCLCPC@?$AAc?$AAo?$AAu?$AAn?$AAt?$AA?5?$AA?$DO?$AA?$DN?$AA?5?$AA0?$AA?$AA@ 0051acd0     libucrtd:fgets.obj
 0002:0000fcec       ??_C@_1BO@MHPFFFJJ@?$AAs?$AAt?$AAr?$AAe?$AAa?$AAm?$AA?4?$AAv?$AAa?$AAl?$AAi?$AAd?$AA?$CI?$AA?$CJ?$AA?$AA@ 0051acec     libucrtd:fgets.obj
 0002:0000fd10       ??_C@_1CE@BLLJFLOH@?$AAs?$AAt?$AAr?$AAi?$AAn?$AAg?$AA?5?$AA?$CB?$AA?$DN?$AA?5?$AAn?$AAu?$AAl?$AAl?$AAp?$AAt?$AAr?$AA?$AA@ 0051ad10     libucrtd:puts.obj
 0002:0000fd40       ??_C@_1FM@DPFHHLEF@?$AAm?$AAi?$AAn?$AAk?$AAe?$AAr?$AAn?$AAe?$AAl?$AA?2?$AAc?$AAr?$AAt?$AAs?$AA?2?$AAu?$AAc?$AAr?$AAt?$AA?2?$AAs?$AAr?$AAc?$AA?2?$AAa?$AAp?$AAp?$AAc?$AAr?$AAt?$AA?2?$AAs@ 0051ad40     libucrtd:puts.obj
 0002:0000fdb0       ??_C@_19OHLFMNEA@?$AAp?$AAu?$AAt?$AAs?$AA?$AA@ 0051adb0     libucrtd:puts.obj
 0002:0000fdc0       _standard_lookup_table     0051adc0     libucrtd:output.obj
 0002:0000fe30       _format_validation_lookup_table 0051ae30     libucrtd:output.obj
 0002:0000fea0       ??_C@_1CE@JLIJLEKO@?$AAs?$AAt?$AAr?$AAe?$AAa?$AAm?$AA?5?$AA?$CB?$AA?$DN?$AA?5?$AAn?$AAu?$AAl?$AAl?$AAp?$AAt?$AAr?$AA?$AA@ 0051aea0     libucrtd:output.obj
 0002:0000fed0       ??_C@_1GA@MOBAPGIO@?$AAm?$AAi?$AAn?$AAk?$AAe?$AAr?$AAn?$AAe?$AAl?$AA?2?$AAc?$AAr?$AAt?$AAs?$AA?2?$AAu?$AAc?$AAr?$AAt?$AA?2?$AAs?$AAr?$AAc?$AA?2?$AAa?$AAp?$AAp?$AAc?$AAr?$AAt?$AA?2?$AAs@ 0051aed0     libucrtd:output.obj
 0002:0000ff44       ??_C@_1CA@GELIJBMC@?$AAc?$AAo?$AAm?$AAm?$AAo?$AAn?$AA_?$AAv?$AAf?$AAp?$AAr?$AAi?$AAn?$AAt?$AAf?$AA?$AA@ 0051af44     libucrtd:output.obj
 0002:0000ff6c       ??_C@_1CE@EAKLPBKK@?$AAf?$AAo?$AAr?$AAm?$AAa?$AAt?$AA?5?$AA?$CB?$AA?$DN?$AA?5?$AAn?$AAu?$AAl?$AAl?$AAp?$AAt?$AAr?$AA?$AA@ 0051af6c     libucrtd:output.obj
 0002:0000ff98       ??_C@_1CA@PIMGHCEK@?$AAc?$AAo?$AAm?$AAm?$AAo?$AAn?$AA_?$AAv?$AAs?$AAp?$AAr?$AAi?$AAn?$AAt?$AAf?$AA?$AA@ 0051af98     libucrtd:output.obj
 0002:0000ffc0       ??_C@_1EO@EGEEFEFM@?$AAb?$AAu?$AAf?$AAf?$AAe?$AAr?$AA_?$AAc?$AAo?$AAu?$AAn?$AAt?$AA?5?$AA?$DN?$AA?$DN?$AA?5?$AA0?$AA?5?$AA?$HM?$AA?$HM?$AA?5?$AAb?$AAu?$AAf?$AAf?$AAe?$AAr?$AA?5?$AA?$CB?$AA?$DN?$AA?5?$AAn@ 0051afc0     libucrtd:output.obj
 0002:00010020       ??_C@_1CE@JEILLNB@?$AAc?$AAo?$AAm?$AAm?$AAo?$AAn?$AA_?$AAv?$AAs?$AAp?$AAr?$AAi?$AAn?$AAt?$AAf?$AA_?$AAs?$AA?$AA@ 0051b020     libucrtd:output.obj
 0002:00010050       ??_C@_1EM@OAFHAOLH@?$AAb?$AAu?$AAf?$AAf?$AAe?$AAr?$AA?5?$AA?$CB?$AA?$DN?$AA?5?$AAn?$AAu?$AAl?$AAl?$AAp?$AAt?$AAr?$AA?5?$AA?$CG?$AA?$CG?$AA?5?$AAb?$AAu?$AAf?$AAf?$AAe?$AAr?$AA_?$AAc?$AAo?$AAu?$AAn@ 0051b050     libucrtd:output.obj
 0002:000100ac       ??_C@_1DA@HPBFKMEB@?$AA?$CI?$AA?$CC?$AAB?$AAu?$AAf?$AAf?$AAe?$AAr?$AA?5?$AAt?$AAo?$AAo?$AA?5?$AAs?$AAm?$AAa?$AAl?$AAl?$AA?$CC?$AA?0?$AA?5?$AA0?$AA?$CJ?$AA?$AA@ 0051b0ac     libucrtd:output.obj
 0002:000100e8       ??_C@_1CG@LHFJHFBB@?$AAc?$AAo?$AAm?$AAm?$AAo?$AAn?$AA_?$AAv?$AAs?$AAn?$AAp?$AAr?$AAi?$AAn?$AAt?$AAf?$AA_?$AAs?$AA?$AA@ 0051b0e8     libucrtd:output.obj
 0002:00010118       ??_C@_1CM@JOIJBMEM@?$AA_?$AAf?$AAo?$AAr?$AAm?$AAa?$AAt?$AA_?$AAi?$AAt?$AA?5?$AA?$CB?$AA?$DN?$AA?5?$AAn?$AAu?$AAl?$AAl?$AAp?$AAt?$AAr?$AA?$AA@ 0051b118     libucrtd:output.obj
 0002:00010150       ??_C@_1HA@DMAAKIJP@?$AAm?$AAi?$AAn?$AAk?$AAe?$AAr?$AAn?$AAe?$AAl?$AA?2?$AAc?$AAr?$AAt?$AAs?$AA?2?$AAu?$AAc?$AAr?$AAt?$AA?2?$AAi?$AAn?$AAc?$AA?2?$AAc?$AAo?$AAr?$AAe?$AAc?$AAr?$AAt?$AA_@ 0051b150     libucrtd:output.obj
 0002:000101d8       ??_C@_1BKA@IIAAOGBO@?$AA_?$AA_?$AAc?$AAr?$AAt?$AA_?$AAs?$AAt?$AAd?$AAi?$AAo?$AA_?$AAo?$AAu?$AAt?$AAp?$AAu?$AAt?$AA?3?$AA?3?$AAo?$AAu?$AAt?$AAp?$AAu?$AAt?$AA_?$AAp?$AAr?$AAo?$AAc?$AAe@ 0051b1d8     libucrtd:output.obj
 0002:000103d0       ??_C@_1EE@DMAIGNBG@?$AA?$CI?$AA?$CC?$AAI?$AAn?$AAc?$AAo?$AAr?$AAr?$AAe?$AAc?$AAt?$AA?5?$AAf?$AAo?$AAr?$AAm?$AAa?$AAt?$AA?5?$AAs?$AAp?$AAe?$AAc?$AAi?$AAf?$AAi?$AAe?$AAr?$AA?$CC?$AA?0?$AA?5?$AA0@ 0051b3d0     libucrtd:output.obj
 0002:00010428       ??_C@_1BLI@EEAAPJD@?$AA_?$AA_?$AAc?$AAr?$AAt?$AA_?$AAs?$AAt?$AAd?$AAi?$AAo?$AA_?$AAo?$AAu?$AAt?$AAp?$AAu?$AAt?$AA?3?$AA?3?$AAo?$AAu?$AAt?$AAp?$AAu?$AAt?$AA_?$AAp?$AAr?$AAo?$AAc?$AAe@ 0051b428     libucrtd:output.obj
 0002:00010638       ??_C@_1BLC@PMCLHHAE@?$AA_?$AA_?$AAc?$AAr?$AAt?$AA_?$AAs?$AAt?$AAd?$AAi?$AAo?$AA_?$AAo?$AAu?$AAt?$AAp?$AAu?$AAt?$AA?3?$AA?3?$AAo?$AAu?$AAt?$AAp?$AAu?$AAt?$AA_?$AAp?$AAr?$AAo?$AAc?$AAe@ 0051b638     libucrtd:output.obj
 0002:00010840       ??_C@_1BMK@CPBKHDIH@?$AA_?$AA_?$AAc?$AAr?$AAt?$AA_?$AAs?$AAt?$AAd?$AAi?$AAo?$AA_?$AAo?$AAu?$AAt?$AAp?$AAu?$AAt?$AA?3?$AA?3?$AAo?$AAu?$AAt?$AAp?$AAu?$AAt?$AA_?$AAp?$AAr?$AAo?$AAc?$AAe@ 0051b840     libucrtd:output.obj
 0002:00010a68       ??_C@_1BLI@FOCNEPKJ@?$AA_?$AA_?$AAc?$AAr?$AAt?$AA_?$AAs?$AAt?$AAd?$AAi?$AAo?$AA_?$AAo?$AAu?$AAt?$AAp?$AAu?$AAt?$AA?3?$AA?3?$AAo?$AAu?$AAt?$AAp?$AAu?$AAt?$AA_?$AAp?$AAr?$AAo?$AAc?$AAe@ 0051ba68     libucrtd:output.obj
 0002:00010c78       ??_C@_1BNA@HGLCOOBP@?$AA_?$AA_?$AAc?$AAr?$AAt?$AA_?$AAs?$AAt?$AAd?$AAi?$AAo?$AA_?$AAo?$AAu?$AAt?$AAp?$AAu?$AAt?$AA?3?$AA?3?$AAo?$AAu?$AAt?$AAp?$AAu?$AAt?$AA_?$AAp?$AAr?$AAo?$AAc?$AAe@ 0051bc78     libucrtd:output.obj
 0002:00010ea8       ??_C@_1BKA@DNADAJMC@?$AA_?$AA_?$AAc?$AAr?$AAt?$AA_?$AAs?$AAt?$AAd?$AAi?$AAo?$AA_?$AAo?$AAu?$AAt?$AAp?$AAu?$AAt?$AA?3?$AA?3?$AAo?$AAu?$AAt?$AAp?$AAu?$AAt?$AA_?$AAp?$AAr?$AAo?$AAc?$AAe@ 0051bea8     libucrtd:output.obj
 0002:000110a0       ??_C@_1BLI@IKDKMDHI@?$AA_?$AA_?$AAc?$AAr?$AAt?$AA_?$AAs?$AAt?$AAd?$AAi?$AAo?$AA_?$AAo?$AAu?$AAt?$AAp?$AAu?$AAt?$AA?3?$AA?3?$AAo?$AAu?$AAt?$AAp?$AAu?$AAt?$AA_?$AAp?$AAr?$AAo?$AAc?$AAe@ 0051c0a0     libucrtd:output.obj
 0002:000112b0       ??_C@_1BLI@EGFICANE@?$AA_?$AA_?$AAc?$AAr?$AAt?$AA_?$AAs?$AAt?$AAd?$AAi?$AAo?$AA_?$AAo?$AAu?$AAt?$AAp?$AAu?$AAt?$AA?3?$AA?3?$AAo?$AAu?$AAt?$AAp?$AAu?$AAt?$AA_?$AAp?$AAr?$AAo?$AAc?$AAe@ 0051c2b0     libucrtd:output.obj
 0002:000114c0       ??_C@_1BNA@OIIAGHJI@?$AA_?$AA_?$AAc?$AAr?$AAt?$AA_?$AAs?$AAt?$AAd?$AAi?$AAo?$AA_?$AAo?$AAu?$AAt?$AAp?$AAu?$AAt?$AA?3?$AA?3?$AAo?$AAu?$AAt?$AAp?$AAu?$AAt?$AA_?$AAp?$AAr?$AAo?$AAc?$AAe@ 0051c4c0     libucrtd:output.obj
 0002:000116ec       ??_C@_1CA@ONEGMNAN@?$AA_?$AAs?$AAt?$AAr?$AAe?$AAa?$AAm?$AA?4?$AAv?$AAa?$AAl?$AAi?$AAd?$AA?$CI?$AA?$CJ?$AA?$AA@ 0051c6ec     libucrtd:output.obj
 0002:00011718       ??_C@_1HE@FGKHNBNL@?$AA_?$AA_?$AAc?$AAr?$AAt?$AA_?$AAs?$AAt?$AAd?$AAi?$AAo?$AA_?$AAo?$AAu?$AAt?$AAp?$AAu?$AAt?$AA?3?$AA?3?$AAs?$AAt?$AAr?$AAe?$AAa?$AAm?$AA_?$AAo?$AAu?$AAt?$AAp?$AAu@ 0051c718     libucrtd:output.obj
 0002:000117a4       ??_C@_1DG@CEJKFDMO@?$AAs?$AAt?$AAa?$AAt?$AAe?$AA_?$AAc?$AAa?$AAs?$AAe?$AA_?$AAn?$AAo?$AAr?$AAm?$AAa?$AAl?$AA_?$AAc?$AAo?$AAm?$AAm?$AAo?$AAn?$AA?$CI?$AA?$CJ?$AA?$AA@ 0051c7a4     libucrtd:output.obj
 0002:000117e8       ??_C@_1BLE@PAACOKDK@?$AA_?$AA_?$AAc?$AAr?$AAt?$AA_?$AAs?$AAt?$AAd?$AAi?$AAo?$AA_?$AAo?$AAu?$AAt?$AAp?$AAu?$AAt?$AA?3?$AA?3?$AAo?$AAu?$AAt?$AAp?$AAu?$AAt?$AA_?$AAp?$AAr?$AAo?$AAc?$AAe@ 0051c7e8     libucrtd:output.obj
 0002:000119f8       ??_C@_1FG@OBJBDPAC@?$AA?$CI?$AA?$CC?$AAN?$AA?5?$AAl?$AAe?$AAn?$AAg?$AAt?$AAh?$AA?5?$AAm?$AAo?$AAd?$AAi?$AAf?$AAi?$AAe?$AAr?$AA?5?$AAn?$AAo?$AAt?$AA?5?$AAs?$AAp?$AAe?$AAc?$AAi?$AAf?$AAi?$AAe@ 0051c9f8     libucrtd:output.obj
 0002:00011a60       ??_C@_1BLA@GJNGKGIK@?$AA_?$AA_?$AAc?$AAr?$AAt?$AA_?$AAs?$AAt?$AAd?$AAi?$AAo?$AA_?$AAo?$AAu?$AAt?$AAp?$AAu?$AAt?$AA?3?$AA?3?$AAo?$AAu?$AAt?$AAp?$AAu?$AAt?$AA_?$AAp?$AAr?$AAo?$AAc?$AAe@ 0051ca60     libucrtd:output.obj
 0002:00011c68       ??_C@_1EC@GJPNJDCN@?$AA_?$AAl?$AAe?$AAn?$AAg?$AAt?$AAh?$AA?5?$AA?$DN?$AA?$DN?$AA?5?$AAl?$AAe?$AAn?$AAg?$AAt?$AAh?$AA_?$AAm?$AAo?$AAd?$AAi?$AAf?$AAi?$AAe?$AAr?$AA?3?$AA?3?$AAn?$AAo?$AAn?$AAe@ 0051cc68     libucrtd:output.obj
 0002:00011cb8       ??_C@_1HK@MPBCDOK@?$AA_?$AA_?$AAc?$AAr?$AAt?$AA_?$AAs?$AAt?$AAd?$AAi?$AAo?$AA_?$AAo?$AAu?$AAt?$AAp?$AAu?$AAt?$AA?3?$AA?3?$AAs?$AAt?$AAr?$AAe?$AAa?$AAm?$AA_?$AAo?$AAu?$AAt?$AAp?$AAu@ 0051ccb8     libucrtd:output.obj
 0002:00011d50       ??_C@_1BMM@JHGFKAND@?$AA_?$AA_?$AAc?$AAr?$AAt?$AA_?$AAs?$AAt?$AAd?$AAi?$AAo?$AA_?$AAo?$AAu?$AAt?$AAp?$AAu?$AAt?$AA?3?$AA?3?$AAo?$AAu?$AAt?$AAp?$AAu?$AAt?$AA_?$AAp?$AAr?$AAo?$AAc?$AAe@ 0051cd50     libucrtd:output.obj
 0002:00011f78       ??_C@_1BMI@DNMDMAAN@?$AA_?$AA_?$AAc?$AAr?$AAt?$AA_?$AAs?$AAt?$AAd?$AAi?$AAo?$AA_?$AAo?$AAu?$AAt?$AAp?$AAu?$AAt?$AA?3?$AA?3?$AAo?$AAu?$AAt?$AAp?$AAu?$AAt?$AA_?$AAp?$AAr?$AAo?$AAc?$AAe@ 0051cf78     libucrtd:output.obj
 0002:000121a0       ??_C@_1BMG@KOENKAMB@?$AA_?$AA_?$AAc?$AAr?$AAt?$AA_?$AAs?$AAt?$AAd?$AAi?$AAo?$AA_?$AAo?$AAu?$AAt?$AAp?$AAu?$AAt?$AA?3?$AA?3?$AAo?$AAu?$AAt?$AAp?$AAu?$AAt?$AA_?$AAp?$AAr?$AAo?$AAc?$AAe@ 0051d1a0     libucrtd:output.obj
 0002:000123c0       ??_C@_1BMC@DAENMDAD@?$AA_?$AA_?$AAc?$AAr?$AAt?$AA_?$AAs?$AAt?$AAd?$AAi?$AAo?$AA_?$AAo?$AAu?$AAt?$AAp?$AAu?$AAt?$AA?3?$AA?3?$AAo?$AAu?$AAt?$AAp?$AAu?$AAt?$AA_?$AAp?$AAr?$AAo?$AAc?$AAe@ 0051d3c0     libucrtd:output.obj
 0002:000125e0       ??_C@_1GC@BNMHNGKM@?$AA_?$AAs?$AAt?$AAa?$AAt?$AAe?$AA?5?$AA?$DN?$AA?$DN?$AA?5?$AAs?$AAt?$AAa?$AAt?$AAe?$AA?3?$AA?3?$AAn?$AAo?$AAr?$AAm?$AAa?$AAl?$AA?5?$AA?$HM?$AA?$HM?$AA?5?$AA_?$AAs?$AAt?$AAa?$AAt@ 0051d5e0     libucrtd:output.obj
 0002:00012658       ??_C@_1BDG@PLANJEFE@?$AA_?$AA_?$AAc?$AAr?$AAt?$AA_?$AAs?$AAt?$AAd?$AAi?$AAo?$AA_?$AAo?$AAu?$AAt?$AAp?$AAu?$AAt?$AA?3?$AA?3?$AAf?$AAo?$AAr?$AAm?$AAa?$AAt?$AA_?$AAv?$AAa?$AAl?$AAi?$AAd@ 0051d658     libucrtd:output.obj
 0002:000127d0       ??_C@_1BNO@LMMLJOOJ@?$AA_?$AA_?$AAc?$AAr?$AAt?$AA_?$AAs?$AAt?$AAd?$AAi?$AAo?$AA_?$AAo?$AAu?$AAt?$AAp?$AAu?$AAt?$AA?3?$AA?3?$AAo?$AAu?$AAt?$AAp?$AAu?$AAt?$AA_?$AAp?$AAr?$AAo?$AAc?$AAe@ 0051d7d0     libucrtd:output.obj
 0002:00012a10       ??_C@_1BNK@ONPHCEAM@?$AA_?$AA_?$AAc?$AAr?$AAt?$AA_?$AAs?$AAt?$AAd?$AAi?$AAo?$AA_?$AAo?$AAu?$AAt?$AAp?$AAu?$AAt?$AA?3?$AA?3?$AAo?$AAu?$AAt?$AAp?$AAu?$AAt?$AA_?$AAp?$AAr?$AAo?$AAc?$AAe@ 0051da10     libucrtd:output.obj
 0002:00012c48       ??_C@_1BEC@FNIGNBHI@?$AA_?$AA_?$AAc?$AAr?$AAt?$AA_?$AAs?$AAt?$AAd?$AAi?$AAo?$AA_?$AAo?$AAu?$AAt?$AAp?$AAu?$AAt?$AA?3?$AA?3?$AAf?$AAo?$AAr?$AAm?$AAa?$AAt?$AA_?$AAv?$AAa?$AAl?$AAi?$AAd@ 0051dc48     libucrtd:output.obj
 0002:00012dd0       ??_C@_1BMM@BLBJDDIA@?$AA_?$AA_?$AAc?$AAr?$AAt?$AA_?$AAs?$AAt?$AAd?$AAi?$AAo?$AA_?$AAo?$AAu?$AAt?$AAp?$AAu?$AAt?$AA?3?$AA?3?$AAo?$AAu?$AAt?$AAp?$AAu?$AAt?$AA_?$AAp?$AAr?$AAo?$AAc?$AAe@ 0051ddd0     libucrtd:output.obj
 0002:00012ff8       ??_C@_1BMI@PKGBOKJK@?$AA_?$AA_?$AAc?$AAr?$AAt?$AA_?$AAs?$AAt?$AAd?$AAi?$AAo?$AA_?$AAo?$AAu?$AAt?$AAp?$AAu?$AAt?$AA?3?$AA?3?$AAo?$AAu?$AAt?$AAp?$AAu?$AAt?$AA_?$AAp?$AAr?$AAo?$AAc?$AAe@ 0051dff8     libucrtd:output.obj
 0002:00013220       ??_C@_1FK@BCPANIEK@?$AA?$CI?$AA?$CC?$AAM?$AAi?$AAs?$AAs?$AAi?$AAn?$AAg?$AA?5?$AAp?$AAo?$AAs?$AAi?$AAt?$AAi?$AAo?$AAn?$AA?5?$AAi?$AAn?$AA?5?$AAt?$AAh?$AAe?$AA?5?$AAf?$AAo?$AAr?$AAm?$AAa?$AAt@ 0051e220     libucrtd:output.obj
 0002:00013290       ??_C@_1BDM@FDOLKCHK@?$AA_?$AA_?$AAc?$AAr?$AAt?$AA_?$AAs?$AAt?$AAd?$AAi?$AAo?$AA_?$AAo?$AAu?$AAt?$AAp?$AAu?$AAt?$AA?3?$AA?3?$AAp?$AAo?$AAs?$AAi?$AAt?$AAi?$AAo?$AAn?$AAa?$AAl?$AA_?$AAp@ 0051e290     libucrtd:output.obj
 0002:00013410       ??_C@_1IC@NLEOMCDL@?$AA_?$AAt?$AAy?$AAp?$AAe?$AA_?$AAi?$AAn?$AAd?$AAe?$AAx?$AA?5?$AA?$DO?$AA?$DN?$AA?5?$AA0?$AA?5?$AA?$CG?$AA?$CG?$AA?5?$AA?$CK?$AAe?$AAn?$AAd?$AA_?$AAp?$AAo?$AAi?$AAn?$AAt?$AAe?$AAr@ 0051e410     libucrtd:output.obj
 0002:000134b0       ??_C@_1BEO@JEHLMMKB@?$AA_?$AA_?$AAc?$AAr?$AAt?$AA_?$AAs?$AAt?$AAd?$AAi?$AAo?$AA_?$AAo?$AAu?$AAt?$AAp?$AAu?$AAt?$AA?3?$AA?3?$AAp?$AAo?$AAs?$AAi?$AAt?$AAi?$AAo?$AAn?$AAa?$AAl?$AA_?$AAp@ 0051e4b0     libucrtd:output.obj
 0002:00013640       ??_C@_1BOE@NLICFINO@?$AA_?$AA_?$AAc?$AAr?$AAt?$AA_?$AAs?$AAt?$AAd?$AAi?$AAo?$AA_?$AAo?$AAu?$AAt?$AAp?$AAu?$AAt?$AA?3?$AA?3?$AAo?$AAu?$AAt?$AAp?$AAu?$AAt?$AA_?$AAp?$AAr?$AAo?$AAc?$AAe@ 0051e640     libucrtd:output.obj
 0002:00013888       ??_C@_1BOA@CBIEMBEE@?$AA_?$AA_?$AAc?$AAr?$AAt?$AA_?$AAs?$AAt?$AAd?$AAi?$AAo?$AA_?$AAo?$AAu?$AAt?$AAp?$AAu?$AAt?$AA?3?$AA?3?$AAo?$AAu?$AAt?$AAp?$AAu?$AAt?$AA_?$AAp?$AAr?$AAo?$AAc?$AAe@ 0051e888     libucrtd:output.obj
 0002:00013ac8       ??_C@_1BEI@JNJAFAD@?$AA_?$AA_?$AAc?$AAr?$AAt?$AA_?$AAs?$AAt?$AAd?$AAi?$AAo?$AA_?$AAo?$AAu?$AAt?$AAp?$AAu?$AAt?$AA?3?$AA?3?$AAp?$AAo?$AAs?$AAi?$AAt?$AAi?$AAo?$AAn?$AAa?$AAl?$AA_?$AAp@ 0051eac8     libucrtd:output.obj
 0002:00013c58       ??_C@_1BFK@IOIDDMPJ@?$AA_?$AA_?$AAc?$AAr?$AAt?$AA_?$AAs?$AAt?$AAd?$AAi?$AAo?$AA_?$AAo?$AAu?$AAt?$AAp?$AAu?$AAt?$AA?3?$AA?3?$AAp?$AAo?$AAs?$AAi?$AAt?$AAi?$AAo?$AAn?$AAa?$AAl?$AA_?$AAp@ 0051ec58     libucrtd:output.obj
 0002:00013df8       ??_C@_1CI@DDKMNCPP@?$AA_?$AAc?$AAo?$AAn?$AAt?$AAe?$AAx?$AAt?$AA?5?$AA?$CB?$AA?$DN?$AA?5?$AAn?$AAu?$AAl?$AAl?$AAp?$AAt?$AAr?$AA?$AA@ 0051edf8     libucrtd:output.obj
 0002:00013e28       ??_C@_1HE@IACOMEJF@?$AA_?$AA_?$AAc?$AAr?$AAt?$AA_?$AAs?$AAt?$AAd?$AAi?$AAo?$AA_?$AAo?$AAu?$AAt?$AAp?$AAu?$AAt?$AA?3?$AA?3?$AAs?$AAt?$AAr?$AAi?$AAn?$AAg?$AA_?$AAo?$AAu?$AAt?$AAp?$AAu@ 0051ee28     libucrtd:output.obj
 0002:00013eb8       ??_C@_1BLE@LCKPBJON@?$AA_?$AA_?$AAc?$AAr?$AAt?$AA_?$AAs?$AAt?$AAd?$AAi?$AAo?$AA_?$AAo?$AAu?$AAt?$AAp?$AAu?$AAt?$AA?3?$AA?3?$AAo?$AAu?$AAt?$AAp?$AAu?$AAt?$AA_?$AAp?$AAr?$AAo?$AAc?$AAe@ 0051eeb8     libucrtd:output.obj
 0002:000140c8       ??_C@_1BLA@MEDMHIOH@?$AA_?$AA_?$AAc?$AAr?$AAt?$AA_?$AAs?$AAt?$AAd?$AAi?$AAo?$AA_?$AAo?$AAu?$AAt?$AAp?$AAu?$AAt?$AA?3?$AA?3?$AAo?$AAu?$AAt?$AAp?$AAu?$AAt?$AA_?$AAp?$AAr?$AAo?$AAc?$AAe@ 0051f0c8     libucrtd:output.obj
 0002:000142d0       ??_C@_1HK@IIPGOADH@?$AA_?$AA_?$AAc?$AAr?$AAt?$AA_?$AAs?$AAt?$AAd?$AAi?$AAo?$AA_?$AAo?$AAu?$AAt?$AAp?$AAu?$AAt?$AA?3?$AA?3?$AAs?$AAt?$AAr?$AAi?$AAn?$AAg?$AA_?$AAo?$AAu?$AAt?$AAp?$AAu@ 0051f2d0     libucrtd:output.obj
 0002:00014368       ??_C@_1BMM@PGHHMNDM@?$AA_?$AA_?$AAc?$AAr?$AAt?$AA_?$AAs?$AAt?$AAd?$AAi?$AAo?$AA_?$AAo?$AAu?$AAt?$AAp?$AAu?$AAt?$AA?3?$AA?3?$AAo?$AAu?$AAt?$AAp?$AAu?$AAt?$AA_?$AAp?$AAr?$AAo?$AAc?$AAe@ 0051f368     libucrtd:output.obj
 0002:00014590       ??_C@_1BMI@KBPJOJJI@?$AA_?$AA_?$AAc?$AAr?$AAt?$AA_?$AAs?$AAt?$AAd?$AAi?$AAo?$AA_?$AAo?$AAu?$AAt?$AAp?$AAu?$AAt?$AA?3?$AA?3?$AAo?$AAu?$AAt?$AAp?$AAu?$AAt?$AA_?$AAp?$AAr?$AAo?$AAc?$AAe@ 0051f590     libucrtd:output.obj
 0002:000147b8       ??_C@_1BMM@JGEKEBKL@?$AA_?$AA_?$AAc?$AAr?$AAt?$AA_?$AAs?$AAt?$AAd?$AAi?$AAo?$AA_?$AAo?$AAu?$AAt?$AAp?$AAu?$AAt?$AA?3?$AA?3?$AAo?$AAu?$AAt?$AAp?$AAu?$AAt?$AA_?$AAp?$AAr?$AAo?$AAc?$AAe@ 0051f7b8     libucrtd:output.obj
 0002:000149e0       ??_C@_1BMI@LKDDDFDL@?$AA_?$AA_?$AAc?$AAr?$AAt?$AA_?$AAs?$AAt?$AAd?$AAi?$AAo?$AA_?$AAo?$AAu?$AAt?$AAp?$AAu?$AAt?$AA?3?$AA?3?$AAo?$AAu?$AAt?$AAp?$AAu?$AAt?$AA_?$AAp?$AAr?$AAo?$AAc?$AAe@ 0051f9e0     libucrtd:output.obj
 0002:00014c08       ??_C@_1BDM@GFCGMNL@?$AA_?$AA_?$AAc?$AAr?$AAt?$AA_?$AAs?$AAt?$AAd?$AAi?$AAo?$AA_?$AAo?$AAu?$AAt?$AAp?$AAu?$AAt?$AA?3?$AA?3?$AAp?$AAo?$AAs?$AAi?$AAt?$AAi?$AAo?$AAn?$AAa?$AAl?$AA_?$AAp@ 0051fc08     libucrtd:output.obj
 0002:00014d88       ??_C@_1BEO@ODGKIOAL@?$AA_?$AA_?$AAc?$AAr?$AAt?$AA_?$AAs?$AAt?$AAd?$AAi?$AAo?$AA_?$AAo?$AAu?$AAt?$AAp?$AAu?$AAt?$AA?3?$AA?3?$AAp?$AAo?$AAs?$AAi?$AAt?$AAi?$AAo?$AAn?$AAa?$AAl?$AA_?$AAp@ 0051fd88     libucrtd:output.obj
 0002:00014f18       ??_C@_1BOE@IPKNNOEE@?$AA_?$AA_?$AAc?$AAr?$AAt?$AA_?$AAs?$AAt?$AAd?$AAi?$AAo?$AA_?$AAo?$AAu?$AAt?$AAp?$AAu?$AAt?$AA?3?$AA?3?$AAo?$AAu?$AAt?$AAp?$AAu?$AAt?$AA_?$AAp?$AAr?$AAo?$AAc?$AAe@ 0051ff18     libucrtd:output.obj
 0002:00015160       ??_C@_1BOA@BMEGDMHF@?$AA_?$AA_?$AAc?$AAr?$AAt?$AA_?$AAs?$AAt?$AAd?$AAi?$AAo?$AA_?$AAo?$AAu?$AAt?$AAp?$AAu?$AAt?$AA?3?$AA?3?$AAo?$AAu?$AAt?$AAp?$AAu?$AAt?$AA_?$AAp?$AAr?$AAo?$AAc?$AAe@ 00520160     libucrtd:output.obj
 0002:000153a0       ??_C@_1BEI@IHLBHMLJ@?$AA_?$AA_?$AAc?$AAr?$AAt?$AA_?$AAs?$AAt?$AAd?$AAi?$AAo?$AA_?$AAo?$AAu?$AAt?$AAp?$AAu?$AAt?$AA?3?$AA?3?$AAp?$AAo?$AAs?$AAi?$AAt?$AAi?$AAo?$AAn?$AAa?$AAl?$AA_?$AAp@ 005203a0     libucrtd:output.obj
 0002:00015530       ??_C@_1BFK@KNCMELHH@?$AA_?$AA_?$AAc?$AAr?$AAt?$AA_?$AAs?$AAt?$AAd?$AAi?$AAo?$AA_?$AAo?$AAu?$AAt?$AAp?$AAu?$AAt?$AA?3?$AA?3?$AAp?$AAo?$AAs?$AAi?$AAt?$AAi?$AAo?$AAn?$AAa?$AAl?$AA_?$AAp@ 00520530     libucrtd:output.obj
 0002:000156d0       ??_C@_1EK@PNGFDECN@?$AA?$CI?$AA?$CC?$AA?8?$AAn?$AA?8?$AA?5?$AAf?$AAo?$AAr?$AAm?$AAa?$AAt?$AA?5?$AAs?$AAp?$AAe?$AAc?$AAi?$AAf?$AAi?$AAe?$AAr?$AA?5?$AAd?$AAi?$AAs?$AAa?$AAb?$AAl?$AAe?$AAd?$AA?$CC@ 005206d0     libucrtd:output.obj
 0002:00015728       ??_C@_1BKI@NDKBCDGP@?$AA_?$AA_?$AAc?$AAr?$AAt?$AA_?$AAs?$AAt?$AAd?$AAi?$AAo?$AA_?$AAo?$AAu?$AAt?$AAp?$AAu?$AAt?$AA?3?$AA?3?$AAo?$AAu?$AAt?$AAp?$AAu?$AAt?$AA_?$AAp?$AAr?$AAo?$AAc?$AAe@ 00520728     libucrtd:output.obj
 0002:00015928       ??_C@_1EO@GHKFGFKL@?$AA?$CI?$AA?$CC?$AAI?$AAn?$AAv?$AAa?$AAl?$AAi?$AAd?$AA?5?$AAi?$AAn?$AAt?$AAe?$AAg?$AAe?$AAr?$AA?5?$AAl?$AAe?$AAn?$AAg?$AAt?$AAh?$AA?5?$AAm?$AAo?$AAd?$AAi?$AAf?$AAi?$AAe@ 00520928     libucrtd:output.obj
 0002:00015988       ??_C@_1BMA@PGOJAHFP@?$AA_?$AA_?$AAc?$AAr?$AAt?$AA_?$AAs?$AAt?$AAd?$AAi?$AAo?$AA_?$AAo?$AAu?$AAt?$AAp?$AAu?$AAt?$AA?3?$AA?3?$AAo?$AAu?$AAt?$AAp?$AAu?$AAt?$AA_?$AAp?$AAr?$AAo?$AAc?$AAe@ 00520988     libucrtd:output.obj
 0002:00015ba8       ??_C@_1BLK@BGFMMAPO@?$AA_?$AA_?$AAc?$AAr?$AAt?$AA_?$AAs?$AAt?$AAd?$AAi?$AAo?$AA_?$AAo?$AAu?$AAt?$AAp?$AAu?$AAt?$AA?3?$AA?3?$AAo?$AAu?$AAt?$AAp?$AAu?$AAt?$AA_?$AAp?$AAr?$AAo?$AAc?$AAe@ 00520ba8     libucrtd:output.obj
 0002:00015dc0       ??_C@_1BNC@DONELHFF@?$AA_?$AA_?$AAc?$AAr?$AAt?$AA_?$AAs?$AAt?$AAd?$AAi?$AAo?$AA_?$AAo?$AAu?$AAt?$AAp?$AAu?$AAt?$AA?3?$AA?3?$AAo?$AAu?$AAt?$AAp?$AAu?$AAt?$AA_?$AAp?$AAr?$AAo?$AAc?$AAe@ 00520dc0     libucrtd:output.obj
 0002:00015ff0       ??_C@_1BMA@GACGPGHN@?$AA_?$AA_?$AAc?$AAr?$AAt?$AA_?$AAs?$AAt?$AAd?$AAi?$AAo?$AA_?$AAo?$AAu?$AAt?$AAp?$AAu?$AAt?$AA?3?$AA?3?$AAo?$AAu?$AAt?$AAp?$AAu?$AAt?$AA_?$AAp?$AAr?$AAo?$AAc?$AAe@ 00520ff0     libucrtd:output.obj
 0002:00016210       ??_C@_1IC@KGDNLBNC@?$AAw?$AAi?$AAd?$AAt?$AAh?$AA_?$AAi?$AAn?$AAd?$AAe?$AAx?$AA?5?$AA?$DO?$AA?$DN?$AA?5?$AA0?$AA?5?$AA?$CG?$AA?$CG?$AA?5?$AA?$CK?$AAe?$AAn?$AAd?$AA_?$AAp?$AAo?$AAi?$AAn?$AAt?$AAe?$AAr@ 00521210     libucrtd:output.obj
 0002:000162b0       ??_C@_1PO@LKIIANED@?$AA_?$AA_?$AAc?$AAr?$AAt?$AA_?$AAs?$AAt?$AAd?$AAi?$AAo?$AA_?$AAo?$AAu?$AAt?$AAp?$AAu?$AAt?$AA?3?$AA?3?$AAp?$AAo?$AAs?$AAi?$AAt?$AAi?$AAo?$AAn?$AAa?$AAl?$AA_?$AAp@ 005212b0     libucrtd:output.obj
 0002:000163e0       ??_C@_1JC@PMCLKCOC@?$AAp?$AAr?$AAe?$AAc?$AAi?$AAs?$AAi?$AAo?$AAn?$AA_?$AAi?$AAn?$AAd?$AAe?$AAx?$AA?5?$AA?$DO?$AA?$DN?$AA?5?$AA0?$AA?5?$AA?$CG?$AA?$CG?$AA?5?$AA?$CK?$AAe?$AAn?$AAd?$AA_?$AAp?$AAo?$AAi@ 005213e0     libucrtd:output.obj
 0002:00016490       ??_C@_1PK@KBJECIEM@?$AA_?$AA_?$AAc?$AAr?$AAt?$AA_?$AAs?$AAt?$AAd?$AAi?$AAo?$AA_?$AAo?$AAu?$AAt?$AAp?$AAu?$AAt?$AA?3?$AA?3?$AAp?$AAo?$AAs?$AAi?$AAt?$AAi?$AAo?$AAn?$AAa?$AAl?$AA_?$AAp@ 00521490     libucrtd:output.obj
 0002:000165c0       ??_C@_1BNI@IMOCDBNE@?$AA_?$AA_?$AAc?$AAr?$AAt?$AA_?$AAs?$AAt?$AAd?$AAi?$AAo?$AA_?$AAo?$AAu?$AAt?$AAp?$AAu?$AAt?$AA?3?$AA?3?$AAo?$AAu?$AAt?$AAp?$AAu?$AAt?$AA_?$AAp?$AAr?$AAo?$AAc?$AAe@ 005215c0     libucrtd:output.obj
 0002:000167f8       ??_C@_1BAK@DALINHHB@?$AA_?$AA_?$AAc?$AAr?$AAt?$AA_?$AAs?$AAt?$AAd?$AAi?$AAo?$AA_?$AAo?$AAu?$AAt?$AAp?$AAu?$AAt?$AA?3?$AA?3?$AAp?$AAo?$AAs?$AAi?$AAt?$AAi?$AAo?$AAn?$AAa?$AAl?$AA_?$AAp@ 005217f8     libucrtd:output.obj
 0002:00016938       ??_C@_1BAG@DOFNHDMF@?$AA_?$AA_?$AAc?$AAr?$AAt?$AA_?$AAs?$AAt?$AAd?$AAi?$AAo?$AA_?$AAo?$AAu?$AAt?$AAp?$AAu?$AAt?$AA?3?$AA?3?$AAp?$AAo?$AAs?$AAi?$AAt?$AAi?$AAo?$AAn?$AAa?$AAl?$AA_?$AAp@ 00521938     libucrtd:output.obj
 0002:00016a78       ??_C@_1BKI@CJEIGDAI@?$AA_?$AA_?$AAc?$AAr?$AAt?$AA_?$AAs?$AAt?$AAd?$AAi?$AAo?$AA_?$AAo?$AAu?$AAt?$AAp?$AAu?$AAt?$AA?3?$AA?3?$AAo?$AAu?$AAt?$AAp?$AAu?$AAt?$AA_?$AAp?$AAr?$AAo?$AAc?$AAe@ 00521a78     libucrtd:output.obj
 0002:00016c78       ??_C@_1BMA@IHIBOLMD@?$AA_?$AA_?$AAc?$AAr?$AAt?$AA_?$AAs?$AAt?$AAd?$AAi?$AAo?$AA_?$AAo?$AAu?$AAt?$AAp?$AAu?$AAt?$AA?3?$AA?3?$AAo?$AAu?$AAt?$AAp?$AAu?$AAt?$AA_?$AAp?$AAr?$AAo?$AAc?$AAe@ 00521c78     libucrtd:output.obj
 0002:00016e98       ??_C@_1BMA@CBPCAOAB@?$AA_?$AA_?$AAc?$AAr?$AAt?$AA_?$AAs?$AAt?$AAd?$AAi?$AAo?$AA_?$AAo?$AAu?$AAt?$AAp?$AAu?$AAt?$AA?3?$AA?3?$AAo?$AAu?$AAt?$AAp?$AAu?$AAt?$AA_?$AAp?$AAr?$AAo?$AAc?$AAe@ 00521e98     libucrtd:output.obj
 0002:000170b8       ??_C@_1PO@PODEJAGE@?$AA_?$AA_?$AAc?$AAr?$AAt?$AA_?$AAs?$AAt?$AAd?$AAi?$AAo?$AA_?$AAo?$AAu?$AAt?$AAp?$AAu?$AAt?$AA?3?$AA?3?$AAp?$AAo?$AAs?$AAi?$AAt?$AAi?$AAo?$AAn?$AAa?$AAl?$AA_?$AAp@ 005220b8     libucrtd:output.obj
 0002:000171e8       ??_C@_1PK@KBJLALII@?$AA_?$AA_?$AAc?$AAr?$AAt?$AA_?$AAs?$AAt?$AAd?$AAi?$AAo?$AA_?$AAo?$AAu?$AAt?$AAp?$AAu?$AAt?$AA?3?$AA?3?$AAp?$AAo?$AAs?$AAi?$AAt?$AAi?$AAo?$AAn?$AAa?$AAl?$AA_?$AAp@ 005221e8     libucrtd:output.obj
 0002:00017318       ??_C@_1BDG@KOLEFKPF@?$AA_?$AA_?$AAc?$AAr?$AAt?$AA_?$AAs?$AAt?$AAd?$AAi?$AAo?$AA_?$AAo?$AAu?$AAt?$AAp?$AAu?$AAt?$AA?3?$AA?3?$AAf?$AAo?$AAr?$AAm?$AAa?$AAt?$AA_?$AAv?$AAa?$AAl?$AAi?$AAd@ 00522318     libucrtd:output.obj
 0002:00017490       ??_C@_1BNI@OPBGCNOB@?$AA_?$AA_?$AAc?$AAr?$AAt?$AA_?$AAs?$AAt?$AAd?$AAi?$AAo?$AA_?$AAo?$AAu?$AAt?$AAp?$AAu?$AAt?$AA?3?$AA?3?$AAo?$AAu?$AAt?$AAp?$AAu?$AAt?$AA_?$AAp?$AAr?$AAo?$AAc?$AAe@ 00522490     libucrtd:output.obj
 0002:000176c8       ??_C@_1BAK@CDLANFGA@?$AA_?$AA_?$AAc?$AAr?$AAt?$AA_?$AAs?$AAt?$AAd?$AAi?$AAo?$AA_?$AAo?$AAu?$AAt?$AAp?$AAu?$AAt?$AA?3?$AA?3?$AAp?$AAo?$AAs?$AAi?$AAt?$AAi?$AAo?$AAn?$AAa?$AAl?$AA_?$AAp@ 005226c8     libucrtd:output.obj
 0002:00017808       ??_C@_1BAG@GKCGGKOF@?$AA_?$AA_?$AAc?$AAr?$AAt?$AA_?$AAs?$AAt?$AAd?$AAi?$AAo?$AA_?$AAo?$AAu?$AAt?$AAp?$AAu?$AAt?$AA?3?$AA?3?$AAp?$AAo?$AAs?$AAi?$AAt?$AAi?$AAo?$AAn?$AAa?$AAl?$AA_?$AAp@ 00522808     libucrtd:output.obj
 0002:00017948       ??_C@_1BEC@NDOOKIMC@?$AA_?$AA_?$AAc?$AAr?$AAt?$AA_?$AAs?$AAt?$AAd?$AAi?$AAo?$AA_?$AAo?$AAu?$AAt?$AAp?$AAu?$AAt?$AA?3?$AA?3?$AAf?$AAo?$AAr?$AAm?$AAa?$AAt?$AA_?$AAv?$AAa?$AAl?$AAi?$AAd@ 00522948     libucrtd:output.obj
 0002:00017acc       ??_C@_1CK@LGDCECDH@?$AA_?$AAf?$AAo?$AAr?$AAm?$AAa?$AAt?$AA_?$AAc?$AAh?$AAa?$AAr?$AA?5?$AA?$CB?$AA?$DN?$AA?5?$AA?8?$AA?2?$AA0?$AA?8?$AA?$AA@ 00522acc     libucrtd:output.obj
 0002:00017b00       ??_C@_1BMA@MEBEEDJE@?$AA_?$AA_?$AAc?$AAr?$AAt?$AA_?$AAs?$AAt?$AAd?$AAi?$AAo?$AA_?$AAo?$AAu?$AAt?$AAp?$AAu?$AAt?$AA?3?$AA?3?$AAo?$AAu?$AAt?$AAp?$AAu?$AAt?$AA_?$AAp?$AAr?$AAo?$AAc?$AAe@ 00522b00     libucrtd:output.obj
 0002:00017d20       ??_C@_1BLE@MHLEAOID@?$AA_?$AA_?$AAc?$AAr?$AAt?$AA_?$AAs?$AAt?$AAd?$AAi?$AAo?$AA_?$AAo?$AAu?$AAt?$AAp?$AAu?$AAt?$AA?3?$AA?3?$AAo?$AAu?$AAt?$AAp?$AAu?$AAt?$AA_?$AAp?$AAr?$AAo?$AAc?$AAe@ 00522d20     libucrtd:output.obj
 0002:00017f2c       ??_C@_06OJHGLDPL@?$CInull?$CJ?$AA@ 00522f2c     libucrtd:output.obj
 0002:00017f34       ??_C@_1O@CEDCILHN@?$AA?$CI?$AAn?$AAu?$AAl?$AAl?$AA?$CJ?$AA?$AA@ 00522f34     libucrtd:output.obj
 0002:00017f48       ??_C@_1BMM@KANDEEGK@?$AA_?$AA_?$AAc?$AAr?$AAt?$AA_?$AAs?$AAt?$AAd?$AAi?$AAo?$AA_?$AAo?$AAu?$AAt?$AAp?$AAu?$AAt?$AA?3?$AA?3?$AAo?$AAu?$AAt?$AAp?$AAu?$AAt?$AA_?$AAp?$AAr?$AAo?$AAc?$AAe@ 00522f48     libucrtd:output.obj
 0002:00018170       ??_C@_1BNC@BAMNIOCM@?$AA_?$AA_?$AAc?$AAr?$AAt?$AA_?$AAs?$AAt?$AAd?$AAi?$AAo?$AA_?$AAo?$AAu?$AAt?$AAp?$AAu?$AAt?$AA?3?$AA?3?$AAo?$AAu?$AAt?$AAp?$AAu?$AAt?$AA_?$AAp?$AAr?$AAo?$AAc?$AAe@ 00523170     libucrtd:output.obj
 0002:000183a0       ??_C@_1BMG@JJPLEEHI@?$AA_?$AA_?$AAc?$AAr?$AAt?$AA_?$AAs?$AAt?$AAd?$AAi?$AAo?$AA_?$AAo?$AAu?$AAt?$AAp?$AAu?$AAt?$AA?3?$AA?3?$AAo?$AAu?$AAt?$AAp?$AAu?$AAt?$AA_?$AAp?$AAr?$AAo?$AAc?$AAe@ 005233a0     libucrtd:output.obj
 0002:000185c0       ??_C@_1BNO@ILHNHKFA@?$AA_?$AA_?$AAc?$AAr?$AAt?$AA_?$AAs?$AAt?$AAd?$AAi?$AAo?$AA_?$AAo?$AAu?$AAt?$AAp?$AAu?$AAt?$AA?3?$AA?3?$AAo?$AAu?$AAt?$AAp?$AAu?$AAt?$AA_?$AAp?$AAr?$AAo?$AAc?$AAe@ 005235c0     libucrtd:output.obj
 0002:00018800       ??_C@_1BNI@EJPCEBAG@?$AA_?$AA_?$AAc?$AAr?$AAt?$AA_?$AAs?$AAt?$AAd?$AAi?$AAo?$AA_?$AAo?$AAu?$AAt?$AAp?$AAu?$AAt?$AA?3?$AA?3?$AAo?$AAu?$AAt?$AAp?$AAu?$AAt?$AA_?$AAp?$AAr?$AAo?$AAc?$AAe@ 00523800     libucrtd:output.obj
 0002:00018a38       ??_C@_1BMM@CMKPNHDJ@?$AA_?$AA_?$AAc?$AAr?$AAt?$AA_?$AAs?$AAt?$AAd?$AAi?$AAo?$AA_?$AAo?$AAu?$AAt?$AAp?$AAu?$AAt?$AA?3?$AA?3?$AAo?$AAu?$AAt?$AAp?$AAu?$AAt?$AA_?$AAp?$AAr?$AAo?$AAc?$AAe@ 00523a38     libucrtd:output.obj
 0002:00018c60       ??_C@_1FE@IAFJEKN@?$AA_?$AAt?$AAy?$AAp?$AAe?$AA_?$AAi?$AAn?$AAd?$AAe?$AAx?$AA?5?$AA?$DO?$AA?$DN?$AA?5?$AA0?$AA?5?$AA?$CG?$AA?$CG?$AA?5?$AA_?$AAt?$AAy?$AAp?$AAe?$AA_?$AAi?$AAn?$AAd?$AAe?$AAx?$AA?5@ 00523c60     libucrtd:output.obj
 0002:00018cc8       ??_C@_1BBG@JLLDGFML@?$AA_?$AA_?$AAc?$AAr?$AAt?$AA_?$AAs?$AAt?$AAd?$AAi?$AAo?$AA_?$AAo?$AAu?$AAt?$AAp?$AAu?$AAt?$AA?3?$AA?3?$AAp?$AAo?$AAs?$AAi?$AAt?$AAi?$AAo?$AAn?$AAa?$AAl?$AA_?$AAp@ 00523cc8     libucrtd:output.obj
 0002:00018e18       ??_C@_1LO@HECDHMMI@?$AAi?$AAs?$AA_?$AAp?$AAo?$AAs?$AAi?$AAt?$AAi?$AAo?$AAn?$AAa?$AAl?$AA_?$AAp?$AAa?$AAr?$AAa?$AAm?$AAe?$AAt?$AAe?$AAr?$AA_?$AAr?$AAe?$AAa?$AAp?$AAp?$AAe?$AAa?$AAr@ 00523e18     libucrtd:output.obj
 0002:00018f00       ??_C@_1BBM@LLHBCDAF@?$AA_?$AA_?$AAc?$AAr?$AAt?$AA_?$AAs?$AAt?$AAd?$AAi?$AAo?$AA_?$AAo?$AAu?$AAt?$AAp?$AAu?$AAt?$AA?3?$AA?3?$AAp?$AAo?$AAs?$AAi?$AAt?$AAi?$AAo?$AAn?$AAa?$AAl?$AA_?$AAp@ 00523f00     libucrtd:output.obj
 0002:00019058       ??_C@_1BOE@OMDELMGH@?$AA_?$AA_?$AAc?$AAr?$AAt?$AA_?$AAs?$AAt?$AAd?$AAi?$AAo?$AA_?$AAo?$AAu?$AAt?$AAp?$AAu?$AAt?$AA?3?$AA?3?$AAo?$AAu?$AAt?$AAp?$AAu?$AAt?$AA_?$AAp?$AAr?$AAo?$AAc?$AAe@ 00524058     libucrtd:output.obj
 0002:000192a0       ??_C@_1BCC@PDNLFIHK@?$AA_?$AA_?$AAc?$AAr?$AAt?$AA_?$AAs?$AAt?$AAd?$AAi?$AAo?$AA_?$AAo?$AAu?$AAt?$AAp?$AAu?$AAt?$AA?3?$AA?3?$AAp?$AAo?$AAs?$AAi?$AAt?$AAi?$AAo?$AAn?$AAa?$AAl?$AA_?$AAp@ 005242a0     libucrtd:output.obj
 0002:00019400       ??_C@_1BCI@ILAANKJG@?$AA_?$AA_?$AAc?$AAr?$AAt?$AA_?$AAs?$AAt?$AAd?$AAi?$AAo?$AA_?$AAo?$AAu?$AAt?$AAp?$AAu?$AAt?$AA?3?$AA?3?$AAp?$AAo?$AAs?$AAi?$AAt?$AAi?$AAo?$AAn?$AAa?$AAl?$AA_?$AAp@ 00524400     libucrtd:output.obj
 0002:00019568       ??_C@_1BMA@FANDDEHK@?$AA_?$AA_?$AAc?$AAr?$AAt?$AA_?$AAs?$AAt?$AAd?$AAi?$AAo?$AA_?$AAo?$AAu?$AAt?$AAp?$AAu?$AAt?$AA?3?$AA?3?$AAo?$AAu?$AAt?$AAp?$AAu?$AAt?$AA_?$AAp?$AAr?$AAo?$AAc?$AAe@ 00524568     libucrtd:output.obj
 0002:00019788       ??_C@_1BLE@IFBJPNFE@?$AA_?$AA_?$AAc?$AAr?$AAt?$AA_?$AAs?$AAt?$AAd?$AAi?$AAo?$AA_?$AAo?$AAu?$AAt?$AAp?$AAu?$AAt?$AA?3?$AA?3?$AAo?$AAu?$AAt?$AAp?$AAu?$AAt?$AA_?$AAp?$AAr?$AAo?$AAc?$AAe@ 00524788     libucrtd:output.obj
 0002:00019998       ??_C@_1BMM@MBMBCJIF@?$AA_?$AA_?$AAc?$AAr?$AAt?$AA_?$AAs?$AAt?$AAd?$AAi?$AAo?$AA_?$AAo?$AAu?$AAt?$AAp?$AAu?$AAt?$AA?3?$AA?3?$AAo?$AAu?$AAt?$AAp?$AAu?$AAt?$AA_?$AAp?$AAr?$AAo?$AAc?$AAe@ 00524998     libucrtd:output.obj
 0002:00019bc0       ??_C@_1BNI@EDCGAPJB@?$AA_?$AA_?$AAc?$AAr?$AAt?$AA_?$AAs?$AAt?$AAd?$AAi?$AAo?$AA_?$AAo?$AAu?$AAt?$AAp?$AAu?$AAt?$AA?3?$AA?3?$AAo?$AAu?$AAt?$AAp?$AAu?$AAt?$AA_?$AAp?$AAr?$AAo?$AAc?$AAe@ 00524bc0     libucrtd:output.obj
 0002:00019df8       ??_C@_1BMM@KBPMKFBC@?$AA_?$AA_?$AAc?$AAr?$AAt?$AA_?$AAs?$AAt?$AAd?$AAi?$AAo?$AA_?$AAo?$AAu?$AAt?$AAp?$AAu?$AAt?$AA?3?$AA?3?$AAo?$AAu?$AAt?$AAp?$AAu?$AAt?$AA_?$AAp?$AAr?$AAo?$AAc?$AAe@ 00524df8     libucrtd:output.obj
 0002:0001a020       ??_C@_1BBG@KIHCHFIM@?$AA_?$AA_?$AAc?$AAr?$AAt?$AA_?$AAs?$AAt?$AAd?$AAi?$AAo?$AA_?$AAo?$AAu?$AAt?$AAp?$AAu?$AAt?$AA?3?$AA?3?$AAp?$AAo?$AAs?$AAi?$AAt?$AAi?$AAo?$AAn?$AAa?$AAl?$AA_?$AAp@ 00525020     libucrtd:output.obj
 0002:0001a170       ??_C@_1BBM@CBBAFMPJ@?$AA_?$AA_?$AAc?$AAr?$AAt?$AA_?$AAs?$AAt?$AAd?$AAi?$AAo?$AA_?$AAo?$AAu?$AAt?$AAp?$AAu?$AAt?$AA?3?$AA?3?$AAp?$AAo?$AAs?$AAi?$AAt?$AAi?$AAo?$AAn?$AAa?$AAl?$AA_?$AAp@ 00525170     libucrtd:output.obj
 0002:0001a2c8       ??_C@_1BOE@LIBLDKPN@?$AA_?$AA_?$AAc?$AAr?$AAt?$AA_?$AAs?$AAt?$AAd?$AAi?$AAo?$AA_?$AAo?$AAu?$AAt?$AAp?$AAu?$AAt?$AA?3?$AA?3?$AAo?$AAu?$AAt?$AAp?$AAu?$AAt?$AA_?$AAp?$AAr?$AAo?$AAc?$AAe@ 005252c8     libucrtd:output.obj
 0002:0001a510       ??_C@_1BCC@GJLKCHIG@?$AA_?$AA_?$AAc?$AAr?$AAt?$AA_?$AAs?$AAt?$AAd?$AAi?$AAo?$AA_?$AAo?$AAu?$AAt?$AAp?$AAu?$AAt?$AA?3?$AA?3?$AAp?$AAo?$AAs?$AAi?$AAt?$AAi?$AAo?$AAn?$AAa?$AAl?$AA_?$AAp@ 00525510     libucrtd:output.obj
 0002:0001a670       ??_C@_1BCI@OBMMNJKK@?$AA_?$AA_?$AAc?$AAr?$AAt?$AA_?$AAs?$AAt?$AAd?$AAi?$AAo?$AA_?$AAo?$AAu?$AAt?$AAp?$AAu?$AAt?$AA?3?$AA?3?$AAp?$AAo?$AAs?$AAi?$AAt?$AAi?$AAo?$AAn?$AAa?$AAl?$AA_?$AAp@ 00525670     libucrtd:output.obj
 0002:0001a7d4       ??_C@_0DI@KIFBHMNO@minkernel?2crts?2ucrt?2inc?2corecrt_@ 005257d4     libucrtd:output.obj
 0002:0001a818       ??_C@_1BBE@FLKADCDA@?$AA_?$AA_?$AAc?$AAr?$AAt?$AA_?$AAs?$AAt?$AAd?$AAi?$AAo?$AA_?$AAo?$AAu?$AAt?$AAp?$AAu?$AAt?$AA?3?$AA?3?$AAp?$AAo?$AAs?$AAi?$AAt?$AAi?$AAo?$AAn?$AAa?$AAl?$AA_?$AAp@ 00525818     libucrtd:output.obj
 0002:0001a968       ??_C@_1BCA@FCGNBIN@?$AA_?$AA_?$AAc?$AAr?$AAt?$AA_?$AAs?$AAt?$AAd?$AAi?$AAo?$AA_?$AAo?$AAu?$AAt?$AAp?$AAu?$AAt?$AA?3?$AA?3?$AAp?$AAo?$AAs?$AAi?$AAt?$AAi?$AAo?$AAn?$AAa?$AAl?$AA_?$AAp@ 00525968     libucrtd:output.obj
 0002:0001aac8       ??_C@_1BBE@IBPNPIIM@?$AA_?$AA_?$AAc?$AAr?$AAt?$AA_?$AAs?$AAt?$AAd?$AAi?$AAo?$AA_?$AAo?$AAu?$AAt?$AAp?$AAu?$AAt?$AA?3?$AA?3?$AAp?$AAo?$AAs?$AAi?$AAt?$AAi?$AAo?$AAn?$AAa?$AAl?$AA_?$AAp@ 00525ac8     libucrtd:output.obj
 0002:0001ac18       ??_C@_1BCA@HCPCJFGA@?$AA_?$AA_?$AAc?$AAr?$AAt?$AA_?$AAs?$AAt?$AAd?$AAi?$AAo?$AA_?$AAo?$AAu?$AAt?$AAp?$AAu?$AAt?$AA?3?$AA?3?$AAp?$AAo?$AAs?$AAi?$AAt?$AAi?$AAo?$AAn?$AAa?$AAl?$AA_?$AAp@ 00525c18     libucrtd:output.obj
 0002:0001ad78       ??_C@_1BLC@INKIGOCN@?$AA_?$AA_?$AAc?$AAr?$AAt?$AA_?$AAs?$AAt?$AAd?$AAi?$AAo?$AA_?$AAo?$AAu?$AAt?$AAp?$AAu?$AAt?$AA?3?$AA?3?$AAo?$AAu?$AAt?$AAp?$AAu?$AAt?$AA_?$AAp?$AAr?$AAo?$AAc?$AAe@ 00525d78     libucrtd:output.obj
 0002:0001af80       ??_C@_1BMK@JGIBNIA@?$AA_?$AA_?$AAc?$AAr?$AAt?$AA_?$AAs?$AAt?$AAd?$AAi?$AAo?$AA_?$AAo?$AAu?$AAt?$AAp?$AAu?$AAt?$AA?3?$AA?3?$AAo?$AAu?$AAt?$AAp?$AAu?$AAt?$AA_?$AAp?$AAr?$AAo?$AAc?$AAe@ 00525f80     libucrtd:output.obj
 0002:0001b1a8       ??_C@_1BMG@CGPDIFDK@?$AA_?$AA_?$AAc?$AAr?$AAt?$AA_?$AAs?$AAt?$AAd?$AAi?$AAo?$AA_?$AAo?$AAu?$AAt?$AAp?$AAu?$AAt?$AA?3?$AA?3?$AAo?$AAu?$AAt?$AAp?$AAu?$AAt?$AA_?$AAp?$AAr?$AAo?$AAc?$AAe@ 005261a8     libucrtd:output.obj
 0002:0001b3c8       ??_C@_1BMC@FAGJFBLI@?$AA_?$AA_?$AAc?$AAr?$AAt?$AA_?$AAs?$AAt?$AAd?$AAi?$AAo?$AA_?$AAo?$AAu?$AAt?$AAp?$AAu?$AAt?$AA?3?$AA?3?$AAo?$AAu?$AAt?$AAp?$AAu?$AAt?$AA_?$AAp?$AAr?$AAo?$AAc?$AAe@ 005263c8     libucrtd:output.obj
 0002:0001b5e8       ??_C@_1BNO@OHFFMOOJ@?$AA_?$AA_?$AAc?$AAr?$AAt?$AA_?$AAs?$AAt?$AAd?$AAi?$AAo?$AA_?$AAo?$AAu?$AAt?$AAp?$AAu?$AAt?$AA?3?$AA?3?$AAo?$AAu?$AAt?$AAp?$AAu?$AAt?$AA_?$AAp?$AAr?$AAo?$AAc?$AAe@ 005265e8     libucrtd:output.obj
 0002:0001b828       ??_C@_1BNK@KHNJGCCP@?$AA_?$AA_?$AAc?$AAr?$AAt?$AA_?$AAs?$AAt?$AAd?$AAi?$AAo?$AA_?$AAo?$AAu?$AAt?$AAp?$AAu?$AAt?$AA?3?$AA?3?$AAo?$AAu?$AAt?$AAp?$AAu?$AAt?$AA_?$AAp?$AAr?$AAo?$AAc?$AAe@ 00526828     libucrtd:output.obj
 0002:0001ba60       ??_C@_1BLK@FOLFMPJH@?$AA_?$AA_?$AAc?$AAr?$AAt?$AA_?$AAs?$AAt?$AAd?$AAi?$AAo?$AA_?$AAo?$AAu?$AAt?$AAp?$AAu?$AAt?$AA?3?$AA?3?$AAo?$AAu?$AAt?$AAp?$AAu?$AAt?$AA_?$AAp?$AAr?$AAo?$AAc?$AAe@ 00526a60     libucrtd:output.obj
 0002:0001bc78       ??_C@_1BNC@OHPDPPJK@?$AA_?$AA_?$AAc?$AAr?$AAt?$AA_?$AAs?$AAt?$AAd?$AAi?$AAo?$AA_?$AAo?$AAu?$AAt?$AAp?$AAu?$AAt?$AA?3?$AA?3?$AAo?$AAu?$AAt?$AAp?$AAu?$AAt?$AA_?$AAp?$AAr?$AAo?$AAc?$AAe@ 00526c78     libucrtd:output.obj
 0002:0001bea8       ??_C@_1BNC@JPKLPOHO@?$AA_?$AA_?$AAc?$AAr?$AAt?$AA_?$AAs?$AAt?$AAd?$AAi?$AAo?$AA_?$AAo?$AAu?$AAt?$AAp?$AAu?$AAt?$AA?3?$AA?3?$AAo?$AAu?$AAt?$AAp?$AAu?$AAt?$AA_?$AAp?$AAr?$AAo?$AAc?$AAe@ 00526ea8     libucrtd:output.obj
 0002:0001c0d8       ??_C@_1BMG@BBEFGBID@?$AA_?$AA_?$AAc?$AAr?$AAt?$AA_?$AAs?$AAt?$AAd?$AAi?$AAo?$AA_?$AAo?$AAu?$AAt?$AAp?$AAu?$AAt?$AA?3?$AA?3?$AAo?$AAu?$AAt?$AAp?$AAu?$AAt?$AA_?$AAp?$AAr?$AAo?$AAc?$AAe@ 005270d8     libucrtd:output.obj
 0002:0001c2f8       ??_C@_1BNO@NAODCKFA@?$AA_?$AA_?$AAc?$AAr?$AAt?$AA_?$AAs?$AAt?$AAd?$AAi?$AAo?$AA_?$AAo?$AAu?$AAt?$AAp?$AAu?$AAt?$AA?3?$AA?3?$AAo?$AAu?$AAt?$AAp?$AAu?$AAt?$AA_?$AAp?$AAr?$AAo?$AAc?$AAe@ 005272f8     libucrtd:output.obj
 0002:0001c538       __Fenv0                    00527538     libucrtd:strtox.obj
 0002:0001c548       ??_C@_1GE@DPGDJKLM@?$AAm?$AAi?$AAn?$AAk?$AAe?$AAr?$AAn?$AAe?$AAl?$AA?2?$AAc?$AAr?$AAt?$AAs?$AA?2?$AAu?$AAc?$AAr?$AAt?$AA?2?$AAi?$AAn?$AAc?$AA?2?$AAc?$AAo?$AAr?$AAe?$AAc?$AAr?$AAt?$AA_@ 00527548     libucrtd:strtox.obj
 0002:0001c5c0       ??_C@_1EO@MLJCKPIB@?$AAb?$AAa?$AAs?$AAe?$AA?5?$AA?$DN?$AA?$DN?$AA?5?$AA0?$AA?5?$AA?$HM?$AA?$HM?$AA?5?$AA?$CI?$AA2?$AA?5?$AA?$DM?$AA?$DN?$AA?5?$AAb?$AAa?$AAs?$AAe?$AA?5?$AA?$CG?$AA?$CG?$AA?5?$AAb?$AAa?$AAs?$AAe?$AA?5@ 005275c0     libucrtd:strtox.obj
 0002:0001c620       ??_C@_1DI@BANODKFL@?$AA_?$AA_?$AAc?$AAr?$AAt?$AA_?$AAs?$AAt?$AAr?$AAt?$AAo?$AAx?$AA?3?$AA?3?$AAp?$AAa?$AAr?$AAs?$AAe?$AA_?$AAi?$AAn?$AAt?$AAe?$AAg?$AAe?$AAr?$AA?$AA@ 00527620     libucrtd:strtox.obj
 0002:0001c664       ??_C@_1BM@PNEBBBDO@?$AA_?$AAp?$AA?5?$AA?$CB?$AA?$DN?$AA?5?$AAn?$AAu?$AAl?$AAl?$AAp?$AAt?$AAr?$AA?$AA@ 00527664     libucrtd:strtox.obj
 0002:0001c688       ??_C@_1HA@MKKIHBHP@?$AA_?$AA_?$AAc?$AAr?$AAt?$AA_?$AAs?$AAt?$AAr?$AAt?$AAo?$AAx?$AA?3?$AA?3?$AAc?$AA_?$AAs?$AAt?$AAr?$AAi?$AAn?$AAg?$AA_?$AAc?$AAh?$AAa?$AAr?$AAa?$AAc?$AAt?$AAe?$AAr@ 00527688     libucrtd:strtox.obj
 0002:0001c710       ??_C@_1CM@GJENOOEJ@?$AAc?$AA?5?$AA?$DN?$AA?$DN?$AA?5?$AA?8?$AA?2?$AA0?$AA?8?$AA?5?$AA?$HM?$AA?$HM?$AA?5?$AA?$CK?$AA_?$AAp?$AA?5?$AA?$DN?$AA?$DN?$AA?5?$AAc?$AA?$AA@ 00527710     libucrtd:strtox.obj
 0002:0001c748       ??_C@_1GK@MNHIDABG@?$AA_?$AA_?$AAc?$AAr?$AAt?$AA_?$AAs?$AAt?$AAr?$AAt?$AAo?$AAx?$AA?3?$AA?3?$AAc?$AA_?$AAs?$AAt?$AAr?$AAi?$AAn?$AAg?$AA_?$AAc?$AAh?$AAa?$AAr?$AAa?$AAc?$AAt?$AAe?$AAr@ 00527748     libucrtd:strtox.obj
 0002:0001c7c8       ??_C@_1HG@FCDBLOEG@?$AA_?$AA_?$AAc?$AAr?$AAt?$AA_?$AAs?$AAt?$AAr?$AAt?$AAo?$AAx?$AA?3?$AA?3?$AAc?$AA_?$AAs?$AAt?$AAr?$AAi?$AAn?$AAg?$AA_?$AAc?$AAh?$AAa?$AAr?$AAa?$AAc?$AAt?$AAe?$AAr@ 005277c8     libucrtd:strtox.obj
 0002:0001c858       ??_C@_1HA@CONLANFI@?$AA_?$AA_?$AAc?$AAr?$AAt?$AA_?$AAs?$AAt?$AAr?$AAt?$AAo?$AAx?$AA?3?$AA?3?$AAc?$AA_?$AAs?$AAt?$AAr?$AAi?$AAn?$AAg?$AA_?$AAc?$AAh?$AAa?$AAr?$AAa?$AAc?$AAt?$AAe?$AAr@ 00527858     libucrtd:strtox.obj
 0002:0001c8e0       ??_C@_0CF@GOGNBNAK@Microsoft?5Visual?5C?$CL?$CL?5Runtime?5Lib@ 005278e0     libucrtd:assert.obj
 0002:0001c910       ??_C@_1EK@MBDPDCGA@?$AAM?$AAi?$AAc?$AAr?$AAo?$AAs?$AAo?$AAf?$AAt?$AA?5?$AAV?$AAi?$AAs?$AAu?$AAa?$AAl?$AA?5?$AAC?$AA?$CL?$AA?$CL?$AA?5?$AAR?$AAu?$AAn?$AAt?$AAi?$AAm?$AAe?$AA?5?$AAL?$AAi?$AAb@ 00527910     libucrtd:assert.obj
 0002:0001c968       ??_C@_0CK@CFPGFGGO@Assertion?5failed?3?5?$CFTs?0?5file?5?$CFTs?0@ 00527968     libucrtd:assert.obj
 0002:0001c9a0       ??_C@_1FE@LHBLIKM@?$AAA?$AAs?$AAs?$AAe?$AAr?$AAt?$AAi?$AAo?$AAn?$AA?5?$AAf?$AAa?$AAi?$AAl?$AAe?$AAd?$AA?3?$AA?5?$AA?$CF?$AAT?$AAs?$AA?0?$AA?5?$AAf?$AAi?$AAl?$AAe?$AA?5?$AA?$CF?$AAT?$AAs?$AA?0@ 005279a0     libucrtd:assert.obj
 0002:0001ca04       ??_C@_0BC@LAIDCHCH@Assertion?5failed?$CB?$AA@ 00527a04     libucrtd:assert.obj
 0002:0001ca1c       ??_C@_1CE@OJBNHDMO@?$AAA?$AAs?$AAs?$AAe?$AAr?$AAt?$AAi?$AAo?$AAn?$AA?5?$AAf?$AAa?$AAi?$AAl?$AAe?$AAd?$AA?$CB?$AA?$AA@ 00527a1c     libucrtd:assert.obj
 0002:0001ca48       ??_C@_09KLGCKDOD@Program?3?5?$AA@ 00527a48     libucrtd:assert.obj
 0002:0001ca54       ??_C@_1BE@PHKBBGE@?$AAP?$AAr?$AAo?$AAg?$AAr?$AAa?$AAm?$AA?3?$AA?5?$AA?$AA@ 00527a54     libucrtd:assert.obj
 0002:0001ca6c       ??_C@_06IGPBOHMJ@File?3?5?$AA@ 00527a6c     libucrtd:assert.obj
 0002:0001ca74       ??_C@_1O@HEMHKNDC@?$AAF?$AAi?$AAl?$AAe?$AA?3?$AA?5?$AA?$AA@ 00527a74     libucrtd:assert.obj
 0002:0001ca84       ??_C@_06FIEBOLOH@Line?3?5?$AA@ 00527a84     libucrtd:assert.obj
 0002:0001ca8c       ??_C@_1O@KCAFKHJE@?$AAL?$AAi?$AAn?$AAe?$AA?3?$AA?5?$AA?$AA@ 00527a8c     libucrtd:assert.obj
 0002:0001ca9c       ??_C@_0N@MEECIJGN@Expression?3?5?$AA@ 00527a9c     libucrtd:assert.obj
 0002:0001caac       ??_C@_1BK@PEDCIPMA@?$AAE?$AAx?$AAp?$AAr?$AAe?$AAs?$AAs?$AAi?$AAo?$AAn?$AA?3?$AA?5?$AA?$AA@ 00527aac     libucrtd:assert.obj
 0002:0001cad0       ??_C@_0HA@OJHAGA@For?5information?5on?5how?5your?5prog@ 00527ad0     libucrtd:assert.obj
 0002:0001cb58       ??_C@_1OA@EGMLFBHJ@?$AAF?$AAo?$AAr?$AA?5?$AAi?$AAn?$AAf?$AAo?$AAr?$AAm?$AAa?$AAt?$AAi?$AAo?$AAn?$AA?5?$AAo?$AAn?$AA?5?$AAh?$AAo?$AAw?$AA?5?$AAy?$AAo?$AAu?$AAr?$AA?5?$AAp?$AAr?$AAo?$AAg@ 00527b58     libucrtd:assert.obj
 0002:0001cc64       ??_C@_0DN@EBBNMLME@?$CIPress?5Retry?5to?5debug?5the?5applic@ 00527c64     libucrtd:assert.obj
 0002:0001ccb0       ??_C@_1HK@POCJMFGK@?$AA?$CI?$AAP?$AAr?$AAe?$AAs?$AAs?$AA?5?$AAR?$AAe?$AAt?$AAr?$AAy?$AA?5?$AAt?$AAo?$AA?5?$AAd?$AAe?$AAb?$AAu?$AAg?$AA?5?$AAt?$AAh?$AAe?$AA?5?$AAa?$AAp?$AAp?$AAl?$AAi?$AAc@ 00527cb0     libucrtd:assert.obj
 0002:0001cd44       ??_C@_17LGKOMLJ@?$AA?4?$AA?4?$AA?4?$AA?$AA@ 00527d44     libucrtd:assert.obj
 0002:0001cd50       ??_C@_01EEMJAFIK@?6?$AA@   00527d50     libucrtd:assert.obj
 0002:0001cd54       ??_C@_13LBAGMAIH@?$AA?6?$AA?$AA@ 00527d54     libucrtd:assert.obj
 0002:0001cd58       ??_C@_02PHMGELLB@?6?6?$AA@ 00527d58     libucrtd:assert.obj
 0002:0001cd5c       ??_C@_15IABLJNFO@?$AA?6?$AA?6?$AA?$AA@ 00527d5c     libucrtd:assert.obj
 0002:0001cd64       ??_C@_0BH@DNAGHKFM@?$DMprogram?5name?5unknown?$DO?$AA@ 00527d64     libucrtd:assert.obj
 0002:0001cd80       ??_C@_1CO@EAEJAADC@?$AA?$DM?$AAp?$AAr?$AAo?$AAg?$AAr?$AAa?$AAm?$AA?5?$AAn?$AAa?$AAm?$AAe?$AA?5?$AAu?$AAn?$AAk?$AAn?$AAo?$AAw?$AAn?$AA?$DO?$AA?$AA@ 00527d80     libucrtd:assert.obj
 0002:0001cdb8       ??_C@_1GE@PMLOPPED@?$AAm?$AAi?$AAn?$AAk?$AAe?$AAr?$AAn?$AAe?$AAl?$AA?2?$AAc?$AAr?$AAt?$AAs?$AA?2?$AAu?$AAc?$AAr?$AAt?$AA?2?$AAs?$AAr?$AAc?$AA?2?$AAa?$AAp?$AAp?$AAc?$AAr?$AAt?$AA?2?$AAs@ 00527db8     libucrtd:assert.obj
 0002:0001ce30       ??_C@_1FE@LPBNNEBB@?$AAc?$AAo?$AAm?$AAm?$AAo?$AAn?$AA_?$AAa?$AAs?$AAs?$AAe?$AAr?$AAt?$AA_?$AAt?$AAo?$AA_?$AAm?$AAe?$AAs?$AAs?$AAa?$AAg?$AAe?$AA_?$AAb?$AAo?$AAx?$AA_?$AAb?$AAu?$AAi@ 00527e30     libucrtd:assert.obj
 0002:0001ce98       ??_C@_1KC@PIMENJIN@?$AAt?$AAr?$AAa?$AAi?$AAt?$AAs?$AA?3?$AA?3?$AAt?$AAc?$AAs?$AAc?$AAp?$AAy?$AA_?$AAs?$AA?$CI?$AAa?$AAs?$AAs?$AAe?$AAr?$AAt?$AA_?$AAb?$AAu?$AAf?$AAf?$AAe?$AAr?$AA?0?$AA?5@ 00527e98     libucrtd:assert.obj
 0002:0001cf60       ??_C@_1KM@HGCBPADM@?$AAt?$AAr?$AAa?$AAi?$AAt?$AAs?$AA?3?$AA?3?$AAt?$AAc?$AAs?$AAc?$AAa?$AAt?$AA_?$AAs?$AA?$CI?$AAa?$AAs?$AAs?$AAe?$AAr?$AAt?$AA_?$AAb?$AAu?$AAf?$AAf?$AAe?$AAr?$AA?0?$AA?5@ 00527f60     libucrtd:assert.obj
 0002:0001d030       ??_C@_1KK@KDENILFB@?$AAt?$AAr?$AAa?$AAi?$AAt?$AAs?$AA?3?$AA?3?$AAt?$AAc?$AAs?$AAc?$AAa?$AAt?$AA_?$AAs?$AA?$CI?$AAa?$AAs?$AAs?$AAe?$AAr?$AAt?$AA_?$AAb?$AAu?$AAf?$AAf?$AAe?$AAr?$AA?0?$AA?5@ 00528030     libucrtd:assert.obj
 0002:0001d100       ??_C@_1PE@ECNALGCA@?$AAt?$AAr?$AAa?$AAi?$AAt?$AAs?$AA?3?$AA?3?$AAt?$AAc?$AAs?$AAc?$AAp?$AAy?$AA_?$AAs?$AA?$CI?$AAp?$AAr?$AAo?$AAg?$AAr?$AAa?$AAm?$AA_?$AAn?$AAa?$AAm?$AAe?$AA?0?$AA?5?$AA?$CI@ 00528100     libucrtd:assert.obj
 0002:0001d228       ??_C@_1BBM@BCEFIAB@?$AAm?$AAe?$AAm?$AAc?$AAp?$AAy?$AA_?$AAs?$AA?$CI?$AA?5?$AAp?$AAc?$AAh?$AA?0?$AA?5?$AAs?$AAi?$AAz?$AAe?$AAo?$AAf?$AA?$CI?$AAC?$AAh?$AAa?$AAr?$AAa?$AAc?$AAt?$AAe?$AAr?$AA?$CJ@ 00528228     libucrtd:assert.obj
 0002:0001d380       ??_C@_1HE@CDLKDPFH@?$AAt?$AAr?$AAa?$AAi?$AAt?$AAs?$AA?3?$AA?3?$AAt?$AAc?$AAs?$AAc?$AAa?$AAt?$AA_?$AAs?$AA?$CI?$AAa?$AAs?$AAs?$AAe?$AAr?$AAt?$AA_?$AAb?$AAu?$AAf?$AAf?$AAe?$AAr?$AA?0?$AA?5@ 00528380     libucrtd:assert.obj
 0002:0001d410       ??_C@_1JO@KJEGDHLC@?$AAt?$AAr?$AAa?$AAi?$AAt?$AAs?$AA?3?$AA?3?$AAt?$AAc?$AAs?$AAc?$AAa?$AAt?$AA_?$AAs?$AA?$CI?$AAa?$AAs?$AAs?$AAe?$AAr?$AAt?$AA_?$AAb?$AAu?$AAf?$AAf?$AAe?$AAr?$AA?0?$AA?5@ 00528410     libucrtd:assert.obj
 0002:0001d4d0       ??_C@_1KE@NJCNOBGA@?$AAt?$AAr?$AAa?$AAi?$AAt?$AAs?$AA?3?$AA?3?$AAt?$AAc?$AAs?$AAc?$AAa?$AAt?$AA_?$AAs?$AA?$CI?$AAa?$AAs?$AAs?$AAe?$AAr?$AAt?$AA_?$AAb?$AAu?$AAf?$AAf?$AAe?$AAr?$AA?0?$AA?5@ 005284d0     libucrtd:assert.obj
 0002:0001d598       ??_C@_1LC@HKLLCKBM@?$AAt?$AAr?$AAa?$AAi?$AAt?$AAs?$AA?3?$AA?3?$AAt?$AAc?$AAs?$AAn?$AAc?$AAa?$AAt?$AA_?$AAs?$AA?$CI?$AAa?$AAs?$AAs?$AAe?$AAr?$AAt?$AA_?$AAb?$AAu?$AAf?$AAf?$AAe?$AAr?$AA?0@ 00528598     libucrtd:assert.obj
 0002:0001d670       ??_C@_1KI@JBNHIIKF@?$AAt?$AAr?$AAa?$AAi?$AAt?$AAs?$AA?3?$AA?3?$AAt?$AAc?$AAs?$AAc?$AAa?$AAt?$AA_?$AAs?$AA?5?$AA?$CI?$AAa?$AAs?$AAs?$AAe?$AAr?$AAt?$AA_?$AAb?$AAu?$AAf?$AAf?$AAe?$AAr?$AA?0@ 00528670     libucrtd:assert.obj
 0002:0001d740       ??_C@_1IK@KKBPPOFO@?$AAt?$AAr?$AAa?$AAi?$AAt?$AAs?$AA?3?$AA?3?$AAt?$AAc?$AAs?$AAc?$AAa?$AAt?$AA_?$AAs?$AA?5?$AA?$CI?$AAa?$AAs?$AAs?$AAe?$AAr?$AAt?$AA_?$AAb?$AAu?$AAf?$AAf?$AAe?$AAr?$AA?0@ 00528740     libucrtd:assert.obj
 0002:0001d7e8       ??_C@_1LO@BFIEBOKI@?$AAt?$AAr?$AAa?$AAi?$AAt?$AAs?$AA?3?$AA?3?$AAt?$AAc?$AAs?$AAn?$AAc?$AAa?$AAt?$AA_?$AAs?$AA?$CI?$AAa?$AAs?$AAs?$AAe?$AAr?$AAt?$AA_?$AAb?$AAu?$AAf?$AAf?$AAe?$AAr?$AA?0@ 005287e8     libucrtd:assert.obj
 0002:0001d8d0       ??_C@_1KE@OEANDPDB@?$AAt?$AAr?$AAa?$AAi?$AAt?$AAs?$AA?3?$AA?3?$AAt?$AAc?$AAs?$AAn?$AAc?$AAa?$AAt?$AA_?$AAs?$AA?$CI?$AAa?$AAs?$AAs?$AAe?$AAr?$AAt?$AA_?$AAb?$AAu?$AAf?$AAf?$AAe?$AAr?$AA?0@ 005288d0     libucrtd:assert.obj
 0002:0001d998       ??_C@_1LG@LMABGFBP@?$AAt?$AAr?$AAa?$AAi?$AAt?$AAs?$AA?3?$AA?3?$AAt?$AAc?$AAs?$AAc?$AAa?$AAt?$AA_?$AAs?$AA?5?$AA?$CI?$AAa?$AAs?$AAs?$AAe?$AAr?$AAt?$AA_?$AAb?$AAu?$AAf?$AAf?$AAe?$AAr?$AA?0@ 00528998     libucrtd:assert.obj
 0002:0001da78       ??_C@_1IA@JPAKIPAA@?$AAt?$AAr?$AAa?$AAi?$AAt?$AAs?$AA?3?$AA?3?$AAt?$AAc?$AAs?$AAc?$AAa?$AAt?$AA_?$AAs?$AA?$CI?$AAa?$AAs?$AAs?$AAe?$AAr?$AAt?$AA_?$AAb?$AAu?$AAf?$AAf?$AAe?$AAr?$AA?0?$AA?5@ 00528a78     libucrtd:assert.obj
 0002:0001db18       ??_C@_1KE@PADDJOL@?$AAt?$AAr?$AAa?$AAi?$AAt?$AAs?$AA?3?$AA?3?$AAt?$AAc?$AAs?$AAc?$AAa?$AAt?$AA_?$AAs?$AA?$CI?$AAa?$AAs?$AAs?$AAe?$AAr?$AAt?$AA_?$AAb?$AAu?$AAf?$AAf?$AAe?$AAr?$AA?0?$AA?5@ 00528b18     libucrtd:assert.obj
 0002:0001dbe0       ??_C@_1BAK@NPHNFBPH@?$AAt?$AAr?$AAa?$AAi?$AAt?$AAs?$AA?3?$AA?3?$AAi?$AAt?$AAo?$AAt?$AA_?$AAs?$AA?$CI?$AA?5?$AAl?$AAi?$AAn?$AAe?$AA_?$AAn?$AAu?$AAm?$AAb?$AAe?$AAr?$AA?0?$AA?5?$AAa?$AAs?$AAs@ 00528be0     libucrtd:assert.obj
 0002:0001dd20       ??_C@_1LA@JOKMAPHG@?$AAt?$AAr?$AAa?$AAi?$AAt?$AAs?$AA?3?$AA?3?$AAt?$AAc?$AAs?$AAc?$AAa?$AAt?$AA_?$AAs?$AA?$CI?$AAa?$AAs?$AAs?$AAe?$AAr?$AAt?$AA_?$AAb?$AAu?$AAf?$AAf?$AAe?$AAr?$AA?0?$AA?5@ 00528d20     libucrtd:assert.obj
 0002:0001ddf8       ??_C@_1LA@IFFOJJCK@?$AAt?$AAr?$AAa?$AAi?$AAt?$AAs?$AA?3?$AA?3?$AAt?$AAc?$AAs?$AAn?$AAc?$AAa?$AAt?$AA_?$AAs?$AA?$CI?$AA?5?$AAa?$AAs?$AAs?$AAe?$AAr?$AAt?$AA_?$AAb?$AAu?$AAf?$AAf?$AAe?$AAr@ 00528df8     libucrtd:assert.obj
 0002:0001ded0       ??_C@_1KG@MFCBNPOK@?$AAt?$AAr?$AAa?$AAi?$AAt?$AAs?$AA?3?$AA?3?$AAt?$AAc?$AAs?$AAc?$AAa?$AAt?$AA_?$AAs?$AA?$CI?$AAa?$AAs?$AAs?$AAe?$AAr?$AAt?$AA_?$AAb?$AAu?$AAf?$AAf?$AAe?$AAr?$AA?0?$AA?5@ 00528ed0     libucrtd:assert.obj
 0002:0001df98       ??_C@_1IC@EDHOAOJ@?$AAt?$AAr?$AAa?$AAi?$AAt?$AAs?$AA?3?$AA?3?$AAt?$AAc?$AAs?$AAc?$AAa?$AAt?$AA_?$AAs?$AA?$CI?$AAa?$AAs?$AAs?$AAe?$AAr?$AAt?$AA_?$AAb?$AAu?$AAf?$AAf?$AAe?$AAr?$AA?0?$AA?5@ 00528f98     libucrtd:assert.obj
 0002:0001e038       ??_C@_1KE@NALOKOIG@?$AAt?$AAr?$AAa?$AAi?$AAt?$AAs?$AA?3?$AA?3?$AAt?$AAc?$AAs?$AAc?$AAa?$AAt?$AA_?$AAs?$AA?$CI?$AAa?$AAs?$AAs?$AAe?$AAr?$AAt?$AA_?$AAb?$AAu?$AAf?$AAf?$AAe?$AAr?$AA?0?$AA?5@ 00529038     libucrtd:assert.obj
 0002:0001e100       ??_C@_1KE@GGOFBC@?$AAt?$AAr?$AAa?$AAi?$AAt?$AAs?$AA?3?$AA?3?$AAt?$AAc?$AAs?$AAc?$AAa?$AAt?$AA_?$AAs?$AA?$CI?$AAa?$AAs?$AAs?$AAe?$AAr?$AAt?$AA_?$AAb?$AAu?$AAf?$AAf?$AAe?$AAr?$AA?0?$AA?5@ 00529100     libucrtd:assert.obj
 0002:0001e1c4       ??_C@_1BO@GCPMHDON@?$AAd?$AAs?$AAt?$AA?5?$AA?$CB?$AA?$DN?$AA?5?$AAn?$AAu?$AAl?$AAl?$AAp?$AAt?$AAr?$AA?$AA@ 005291c4     libucrtd:stricmp.obj
 0002:0001e1e8       ??_C@_1GE@JNJGLDHA@?$AAm?$AAi?$AAn?$AAk?$AAe?$AAr?$AAn?$AAe?$AAl?$AA?2?$AAc?$AAr?$AAt?$AAs?$AA?2?$AAu?$AAc?$AAr?$AAt?$AA?2?$AAs?$AAr?$AAc?$AA?2?$AAa?$AAp?$AAp?$AAc?$AAr?$AAt?$AA?2?$AAs@ 005291e8     libucrtd:stricmp.obj
 0002:0001e260       ??_C@_1BG@GLLONOEH@?$AA_?$AAs?$AAt?$AAr?$AAi?$AAc?$AAm?$AAp?$AA_?$AAl?$AA?$AA@ 00529260     libucrtd:stricmp.obj
 0002:0001e27c       ??_C@_1BO@NEBGDLJE@?$AAs?$AAr?$AAc?$AA?5?$AA?$CB?$AA?$DN?$AA?5?$AAn?$AAu?$AAl?$AAl?$AAp?$AAt?$AAr?$AA?$AA@ 0052927c     libucrtd:stricmp.obj
 0002:0001e2a0       ??_C@_1BC@JLGKKIIG@?$AA_?$AAs?$AAt?$AAr?$AAi?$AAc?$AAm?$AAp?$AA?$AA@ 005292a0     libucrtd:stricmp.obj
 0002:0001e2c8       ??_C@_1GG@FIFJEMIA@?$AAm?$AAi?$AAn?$AAk?$AAe?$AAr?$AAn?$AAe?$AAl?$AA?2?$AAc?$AAr?$AAt?$AAs?$AA?2?$AAu?$AAc?$AAr?$AAt?$AA?2?$AAs?$AAr?$AAc?$AA?2?$AAa?$AAp?$AAp?$AAc?$AAr?$AAt?$AA?2?$AAs@ 005292c8     libucrtd:strnicmp.obj
 0002:0001e344       ??_C@_1BI@BJLEPLEF@?$AA_?$AAs?$AAt?$AAr?$AAn?$AAi?$AAc?$AAm?$AAp?$AA_?$AAl?$AA?$AA@ 00529344     libucrtd:strnicmp.obj
 0002:0001e360       ??_C@_1CC@JLPHKJPH@?$AAc?$AAo?$AAu?$AAn?$AAt?$AA?5?$AA?$DM?$AA?$DN?$AA?5?$AAI?$AAN?$AAT?$AA_?$AAM?$AAA?$AAX?$AA?$AA@ 00529360     libucrtd:strnicmp.obj
 0002:0001e388       ??_C@_1BE@BHJDFFNA@?$AA_?$AAs?$AAt?$AAr?$AAn?$AAi?$AAc?$AAm?$AAp?$AA?$AA@ 00529388     libucrtd:strnicmp.obj
 0002:0001e3a0       __OP_FMODjmptab            005293a0     libucrtd:87fmod.obj
 0002:0001e474       __half                     00529474     libucrtd:pow.obj
 0002:0001e4b0       ?large_power_data@?1??multiply_by_power_of_ten@__crt_strtox@@YA_NAAUbig_integer@2@I@Z@4QBIB 005294b0     libucrtd:input.obj
 0002:0001ef88       ?large_power_indices@?1??multiply_by_power_of_ten@__crt_strtox@@YA_NAAUbig_integer@2@I@Z@4QBUunpack_index@?1??12@YA_N0I@Z@B 00529f88     libucrtd:input.obj
 0002:0001f040       ?small_powers_of_ten@?6??multiply_by_power_of_ten@__crt_strtox@@YA_NAAUbig_integer@2@I@Z@4QBIB 0052a040     libucrtd:input.obj
 0002:0001f06c       ??_C@_1DI@GICAMMFM@?$AA?$CI?$AA?$CC?$AAD?$AAi?$AAv?$AAi?$AAs?$AAi?$AAo?$AAn?$AA?5?$AAb?$AAy?$AA?5?$AAz?$AAe?$AAr?$AAo?$AA?$CC?$AA?0?$AA?5?$AAf?$AAa?$AAl?$AAs?$AAe?$AA?$CJ?$AA?$AA@ 0052a06c     libucrtd:input.obj
 0002:0001f0b0       ??_C@_1GO@BFGDDONN@?$AAm?$AAi?$AAn?$AAk?$AAe?$AAr?$AAn?$AAe?$AAl?$AA?2?$AAc?$AAr?$AAt?$AAs?$AA?2?$AAu?$AAc?$AAr?$AAt?$AA?2?$AAi?$AAn?$AAc?$AA?2?$AAc?$AAo?$AAr?$AAe?$AAc?$AAr?$AAt?$AA_@ 0052a0b0     libucrtd:input.obj
 0002:0001f134       ??_C@_1CC@MOAOAFND@?$AAv?$AAa?$AAl?$AAu?$AAe?$AA?5?$AA?$CB?$AA?$DN?$AA?5?$AAn?$AAu?$AAl?$AAl?$AAp?$AAt?$AAr?$AA?$AA@ 0052a134     libucrtd:input.obj
 0002:0001f15c       ??_C@_1BK@ICEICMHI@?$AA?$CI?$AA_?$AAi?$AAs?$AA_?$AAd?$AAo?$AAu?$AAb?$AAl?$AAe?$AA?$CJ?$AA?$AA@ 0052a15c     libucrtd:input.obj
 0002:0001f180       ??_C@_1FM@FELNCOBF@?$AA_?$AA_?$AAc?$AAr?$AAt?$AA_?$AAs?$AAt?$AAr?$AAt?$AAo?$AAx?$AA?3?$AA?3?$AAf?$AAl?$AAo?$AAa?$AAt?$AAi?$AAn?$AAg?$AA_?$AAp?$AAo?$AAi?$AAn?$AAt?$AA_?$AAv?$AAa?$AAl@ 0052a180     libucrtd:input.obj
 0002:0001f1f0       ??_C@_1BG@GEMHBGAF@?$AA_?$AAi?$AAs?$AA_?$AAd?$AAo?$AAu?$AAb?$AAl?$AAe?$AA?$AA@ 0052a1f0     libucrtd:input.obj
 0002:0001f20c       ??_C@_1BM@CEPACFMA@?$AA?$CI?$AA?$CB?$AA_?$AAi?$AAs?$AA_?$AAd?$AAo?$AAu?$AAb?$AAl?$AAe?$AA?$CJ?$AA?$AA@ 0052a20c     libucrtd:input.obj
 0002:0001f230       ??_C@_1FK@JOJELFFO@?$AA_?$AA_?$AAc?$AAr?$AAt?$AA_?$AAs?$AAt?$AAr?$AAt?$AAo?$AAx?$AA?3?$AA?3?$AAf?$AAl?$AAo?$AAa?$AAt?$AAi?$AAn?$AAg?$AA_?$AAp?$AAo?$AAi?$AAn?$AAt?$AA_?$AAv?$AAa?$AAl@ 0052a230     libucrtd:input.obj
 0002:0001f29c       ??_C@_1BI@BANMPGJI@?$AA?$CB?$AA_?$AAi?$AAs?$AA_?$AAd?$AAo?$AAu?$AAb?$AAl?$AAe?$AA?$AA@ 0052a29c     libucrtd:input.obj
 0002:0001f2b8       ??_C@_1EI@OBAKGPDD@?$AA?$CI?$AA?$CC?$AAu?$AAn?$AAe?$AAx?$AAp?$AAe?$AAc?$AAt?$AAe?$AAd?$AA?5?$AAr?$AAo?$AAu?$AAn?$AAd?$AAi?$AAn?$AAg?$AA?5?$AAm?$AAo?$AAd?$AAe?$AA?$CC?$AA?0?$AA?5?$AAf?$AAa?$AAl@ 0052a2b8     libucrtd:input.obj
 0002:0001f310       ??_C@_0DH@PKLJEKJC@minkernel?2crts?2ucrt?2inc?2corecrt_@ 0052a310     libucrtd:input.obj
 0002:0001f358       ??_C@_1EO@PJGDGGHA@?$AA?$CI?$AA?$CC?$AAU?$AAn?$AAe?$AAx?$AAp?$AAe?$AAc?$AAt?$AAe?$AAd?$AA?5?$AAl?$AAe?$AAn?$AAg?$AAt?$AAh?$AA?5?$AAs?$AAp?$AAe?$AAc?$AAi?$AAf?$AAi?$AAe?$AAr?$AA?$CC?$AA?0?$AA?5@ 0052a358     libucrtd:input.obj
 0002:0001f3b8       ??_C@_1GO@BHHMHLJN@?$AAm?$AAi?$AAn?$AAk?$AAe?$AAr?$AAn?$AAe?$AAl?$AA?2?$AAc?$AAr?$AAt?$AAs?$AA?2?$AAu?$AAc?$AAr?$AAt?$AA?2?$AAi?$AAn?$AAc?$AA?2?$AAc?$AAo?$AAr?$AAe?$AAc?$AAr?$AAt?$AA_@ 0052a3b8     libucrtd:input.obj
 0002:0001f440       ?constraints@?1??is_length_valid@__crt_stdio_input@@YA_NW4conversion_mode@2@W4length_modifier@2@@Z@4QAY0M@$$CBEA 0052a440     libucrtd:input.obj
 0002:0001f4d0       ??_C@_1FO@IJCHOKBM@?$AAm?$AAi?$AAn?$AAk?$AAe?$AAr?$AAn?$AAe?$AAl?$AA?2?$AAc?$AAr?$AAt?$AAs?$AA?2?$AAu?$AAc?$AAr?$AAt?$AA?2?$AAs?$AAr?$AAc?$AA?2?$AAa?$AAp?$AAp?$AAc?$AAr?$AAt?$AA?2?$AAs@ 0052a4d0     libucrtd:input.obj
 0002:0001f540       ??_C@_1BO@EKFGJCMB@?$AAc?$AAo?$AAm?$AAm?$AAo?$AAn?$AA_?$AAv?$AAf?$AAs?$AAc?$AAa?$AAn?$AAf?$AA?$AA@ 0052a540     libucrtd:input.obj
 0002:0001f564       ??_C@_1CE@MCCHPLBM@?$AAb?$AAu?$AAf?$AAf?$AAe?$AAr?$AA?5?$AA?$CB?$AA?$DN?$AA?5?$AAn?$AAu?$AAl?$AAl?$AAp?$AAt?$AAr?$AA?$AA@ 0052a564     libucrtd:input.obj
 0002:0001f590       ??_C@_1BO@KIEHMAMA@?$AAc?$AAo?$AAm?$AAm?$AAo?$AAn?$AA_?$AAv?$AAs?$AAs?$AAc?$AAa?$AAn?$AAf?$AA?$AA@ 0052a590     libucrtd:input.obj
 0002:0001f5b8       ??_C@_1EC@CKJPDGHD@?$AA_?$AAf?$AAo?$AAr?$AAm?$AAa?$AAt?$AA_?$AAp?$AAa?$AAr?$AAs?$AAe?$AAr?$AA?4?$AAe?$AAr?$AAr?$AAo?$AAr?$AA_?$AAc?$AAo?$AAd?$AAe?$AA?$CI?$AA?$CJ?$AA?5?$AA?$DN?$AA?$DN?$AA?5?$AA0@ 0052a5b8     libucrtd:input.obj
 0002:0001f608       ??_C@_1MO@NIEGHDEO@?$AA_?$AA_?$AAc?$AAr?$AAt?$AA_?$AAs?$AAt?$AAd?$AAi?$AAo?$AA_?$AAi?$AAn?$AAp?$AAu?$AAt?$AA?3?$AA?3?$AAi?$AAn?$AAp?$AAu?$AAt?$AA_?$AAp?$AAr?$AAo?$AAc?$AAe?$AAs?$AAs@ 0052a608     libucrtd:input.obj
 0002:0001f700       ??_C@_1NK@EEOJFCHD@?$AA_?$AA_?$AAc?$AAr?$AAt?$AA_?$AAs?$AAt?$AAd?$AAi?$AAo?$AA_?$AAi?$AAn?$AAp?$AAu?$AAt?$AA?3?$AA?3?$AAi?$AAn?$AAp?$AAu?$AAt?$AA_?$AAp?$AAr?$AAo?$AAc?$AAe?$AAs?$AAs@ 0052a700     libucrtd:input.obj
 0002:0001f808       ??_C@_1MO@OMPGGAA@?$AA_?$AA_?$AAc?$AAr?$AAt?$AA_?$AAs?$AAt?$AAd?$AAi?$AAo?$AA_?$AAi?$AAn?$AAp?$AAu?$AAt?$AA?3?$AA?3?$AAi?$AAn?$AAp?$AAu?$AAt?$AA_?$AAp?$AAr?$AAo?$AAc?$AAe?$AAs?$AAs@ 0052a808     libucrtd:input.obj
 0002:0001f900       ??_C@_1NK@MAOOJBKO@?$AA_?$AA_?$AAc?$AAr?$AAt?$AA_?$AAs?$AAt?$AAd?$AAi?$AAo?$AA_?$AAi?$AAn?$AAp?$AAu?$AAt?$AA?3?$AA?3?$AAi?$AAn?$AAp?$AAu?$AAt?$AA_?$AAp?$AAr?$AAo?$AAc?$AAe?$AAs?$AAs@ 0052a900     libucrtd:input.obj
 0002:0001fa08       ??_C@_1HA@GIJAHOIO@?$AA_?$AA_?$AAc?$AAr?$AAt?$AA_?$AAs?$AAt?$AAd?$AAi?$AAo?$AA_?$AAi?$AAn?$AAp?$AAu?$AAt?$AA?3?$AA?3?$AAs?$AAt?$AAr?$AAe?$AAa?$AAm?$AA_?$AAi?$AAn?$AAp?$AAu?$AAt?$AA_@ 0052aa08     libucrtd:input.obj
 0002:0001fa90       ??_C@_1HA@IKGGPHAH@?$AA_?$AA_?$AAc?$AAr?$AAt?$AA_?$AAs?$AAt?$AAd?$AAi?$AAo?$AA_?$AAi?$AAn?$AAp?$AAu?$AAt?$AA?3?$AA?3?$AAf?$AAo?$AAr?$AAm?$AAa?$AAt?$AA_?$AAs?$AAt?$AAr?$AAi?$AAn?$AAg@ 0052aa90     libucrtd:input.obj
 0002:0001fb18       ??_C@_1HG@OBMMLKGL@?$AA_?$AA_?$AAc?$AAr?$AAt?$AA_?$AAs?$AAt?$AAd?$AAi?$AAo?$AA_?$AAi?$AAn?$AAp?$AAu?$AAt?$AA?3?$AA?3?$AAs?$AAt?$AAr?$AAe?$AAa?$AAm?$AA_?$AAi?$AAn?$AAp?$AAu?$AAt?$AA_@ 0052ab18     libucrtd:input.obj
 0002:0001fba8       ??_C@_1HG@GNOOGACN@?$AA_?$AA_?$AAc?$AAr?$AAt?$AA_?$AAs?$AAt?$AAd?$AAi?$AAo?$AA_?$AAi?$AAn?$AAp?$AAu?$AAt?$AA?3?$AA?3?$AAf?$AAo?$AAr?$AAm?$AAa?$AAt?$AA_?$AAs?$AAt?$AAr?$AAi?$AAn?$AAg@ 0052aba8     libucrtd:input.obj
 0002:0001fc38       ??_C@_1BO@JKIEMPPA@?$AA_?$AAi?$AAt?$AA?5?$AA?$CB?$AA?$DN?$AA?5?$AAn?$AAu?$AAl?$AAl?$AAp?$AAt?$AAr?$AA?$AA@ 0052ac38     libucrtd:input.obj
 0002:0001fc60       ??_C@_1HA@NLLONGLH@?$AA_?$AA_?$AAc?$AAr?$AAt?$AA_?$AAs?$AAt?$AAd?$AAi?$AAo?$AA_?$AAi?$AAn?$AAp?$AAu?$AAt?$AA?3?$AA?3?$AAs?$AAt?$AAr?$AAi?$AAn?$AAg?$AA_?$AAi?$AAn?$AAp?$AAu?$AAt?$AA_@ 0052ac60     libucrtd:input.obj
 0002:0001fce8       ??_C@_1BK@DPJMGFFG@?$AA_?$AAi?$AAt?$AA?5?$AA?$DM?$AA?$DN?$AA?5?$AA_?$AAl?$AAa?$AAs?$AAt?$AA?$AA@ 0052ace8     libucrtd:input.obj
 0002:0001fd08       ??_C@_1HG@FBLKABN@?$AA_?$AA_?$AAc?$AAr?$AAt?$AA_?$AAs?$AAt?$AAd?$AAi?$AAo?$AA_?$AAi?$AAn?$AAp?$AAu?$AAt?$AA?3?$AA?3?$AAs?$AAt?$AAr?$AAi?$AAn?$AAg?$AA_?$AAi?$AAn?$AAp?$AAu?$AAt?$AA_@ 0052ad08     libucrtd:input.obj
 0002:0001fd98       ??_C@_1GE@HNDDIBON@?$AA_?$AAk?$AAi?$AAn?$AAd?$AA?5?$AA?$DN?$AA?$DN?$AA?5?$AAf?$AAo?$AAr?$AAm?$AAa?$AAt?$AA_?$AAd?$AAi?$AAr?$AAe?$AAc?$AAt?$AAi?$AAv?$AAe?$AA_?$AAk?$AAi?$AAn?$AAd?$AA?3?$AA?3@ 0052ad98     libucrtd:input.obj
 0002:0001fe10       ??_C@_1GK@CFAIGKIJ@?$AA_?$AAk?$AAi?$AAn?$AAd?$AA?5?$AA?$DN?$AA?$DN?$AA?5?$AAf?$AAo?$AAr?$AAm?$AAa?$AAt?$AA_?$AAd?$AAi?$AAr?$AAe?$AAc?$AAt?$AAi?$AAv?$AAe?$AA_?$AAk?$AAi?$AAn?$AAd?$AA?3?$AA?3@ 0052ae10     libucrtd:input.obj
 0002:0001fe90       ??_C@_1DE@FGKJBHKH@?$AAr?$AAe?$AAs?$AAu?$AAl?$AAt?$AA_?$AAp?$AAo?$AAi?$AAn?$AAt?$AAe?$AAr?$AA?5?$AA?$CB?$AA?$DN?$AA?5?$AAn?$AAu?$AAl?$AAl?$AAp?$AAt?$AAr?$AA?$AA@ 0052ae90     libucrtd:input.obj
 0002:0001fed0       ??_C@_1NK@LNDNKEBK@?$AA_?$AA_?$AAc?$AAr?$AAt?$AA_?$AAs?$AAt?$AAd?$AAi?$AAo?$AA_?$AAi?$AAn?$AAp?$AAu?$AAt?$AA?3?$AA?3?$AAi?$AAn?$AAp?$AAu?$AAt?$AA_?$AAp?$AAr?$AAo?$AAc?$AAe?$AAs?$AAs@ 0052aed0     libucrtd:input.obj
 0002:0001ffd8       ??_C@_1OG@EFLCDJB@?$AA_?$AA_?$AAc?$AAr?$AAt?$AA_?$AAs?$AAt?$AAd?$AAi?$AAo?$AA_?$AAi?$AAn?$AAp?$AAu?$AAt?$AA?3?$AA?3?$AAi?$AAn?$AAp?$AAu?$AAt?$AA_?$AAp?$AAr?$AAo?$AAc?$AAe?$AAs?$AAs@ 0052afd8     libucrtd:input.obj
 0002:000200f0       ??_C@_1NK@MGMDLCAF@?$AA_?$AA_?$AAc?$AAr?$AAt?$AA_?$AAs?$AAt?$AAd?$AAi?$AAo?$AA_?$AAi?$AAn?$AAp?$AAu?$AAt?$AA?3?$AA?3?$AAi?$AAn?$AAp?$AAu?$AAt?$AA_?$AAp?$AAr?$AAo?$AAc?$AAe?$AAs?$AAs@ 0052b0f0     libucrtd:input.obj
 0002:000201f8       ??_C@_1OG@CHGGBHNI@?$AA_?$AA_?$AAc?$AAr?$AAt?$AA_?$AAs?$AAt?$AAd?$AAi?$AAo?$AA_?$AAi?$AAn?$AAp?$AAu?$AAt?$AA?3?$AA?3?$AAi?$AAn?$AAp?$AAu?$AAt?$AA_?$AAp?$AAr?$AAo?$AAc?$AAe?$AAs?$AAs@ 0052b1f8     libucrtd:input.obj
 0002:00020310       ??_C@_1PM@PHBNIJNE@?$AA_?$AA_?$AAc?$AAr?$AAt?$AA_?$AAs?$AAt?$AAd?$AAi?$AAo?$AA_?$AAi?$AAn?$AAp?$AAu?$AAt?$AA?3?$AA?3?$AAi?$AAn?$AAp?$AAu?$AAt?$AA_?$AAp?$AAr?$AAo?$AAc?$AAe?$AAs?$AAs@ 0052b310     libucrtd:input.obj
 0002:00020440       ??_C@_1BAI@ODILPBMP@?$AA_?$AA_?$AAc?$AAr?$AAt?$AA_?$AAs?$AAt?$AAd?$AAi?$AAo?$AA_?$AAi?$AAn?$AAp?$AAu?$AAt?$AA?3?$AA?3?$AAi?$AAn?$AAp?$AAu?$AAt?$AA_?$AAp?$AAr?$AAo?$AAc?$AAe?$AAs?$AAs@ 0052b440     libucrtd:input.obj
 0002:00020580       ??_C@_1PM@CNEAEDGI@?$AA_?$AA_?$AAc?$AAr?$AAt?$AA_?$AAs?$AAt?$AAd?$AAi?$AAo?$AA_?$AAi?$AAn?$AAp?$AAu?$AAt?$AA?3?$AA?3?$AAi?$AAn?$AAp?$AAu?$AAt?$AA_?$AAp?$AAr?$AAo?$AAc?$AAe?$AAs?$AAs@ 0052b580     libucrtd:input.obj
 0002:000206b0       ??_C@_1BAI@JEFPLFCC@?$AA_?$AA_?$AAc?$AAr?$AAt?$AA_?$AAs?$AAt?$AAd?$AAi?$AAo?$AA_?$AAi?$AAn?$AAp?$AAu?$AAt?$AA?3?$AA?3?$AAi?$AAn?$AAp?$AAu?$AAt?$AA_?$AAp?$AAr?$AAo?$AAc?$AAe?$AAs?$AAs@ 0052b6b0     libucrtd:input.obj
 0002:000207f0       ??_C@_1OK@BKPOHNLP@?$AA_?$AA_?$AAc?$AAr?$AAt?$AA_?$AAs?$AAt?$AAd?$AAi?$AAo?$AA_?$AAi?$AAn?$AAp?$AAu?$AAt?$AA?3?$AA?3?$AAi?$AAn?$AAp?$AAu?$AAt?$AA_?$AAp?$AAr?$AAo?$AAc?$AAe?$AAs?$AAs@ 0052b7f0     libucrtd:input.obj
 0002:00020908       ??_C@_1FM@MOIHLFHI@?$AAw?$AAc?$AAt?$AAo?$AAm?$AAb?$AA_?$AAs?$AA?$CI?$AA?$CG?$AAn?$AAa?$AAr?$AAr?$AAo?$AAw?$AA_?$AAc?$AAo?$AAu?$AAn?$AAt?$AA?0?$AA?5?$AAb?$AAu?$AAf?$AAf?$AAe?$AAr?$AA_?$AAp@ 0052b908     libucrtd:input.obj
 0002:00020978       ??_C@_1OK@BHAPBOII@?$AA_?$AA_?$AAc?$AAr?$AAt?$AA_?$AAs?$AAt?$AAd?$AAi?$AAo?$AA_?$AAi?$AAn?$AAp?$AAu?$AAt?$AA?3?$AA?3?$AAi?$AAn?$AAp?$AAu?$AAt?$AA_?$AAp?$AAr?$AAo?$AAc?$AAe?$AAs?$AAs@ 0052b978     libucrtd:input.obj
 0002:00020a90       ??_C@_1DE@KIFHIDDL@?$AA_?$AAi?$AAn?$AAp?$AAu?$AAt?$AA_?$AAa?$AAd?$AAa?$AAp?$AAt?$AAe?$AAr?$AA?5?$AA?$CB?$AA?$DN?$AA?5?$AAn?$AAu?$AAl?$AAl?$AAp?$AAt?$AAr?$AA?$AA@ 0052ba90     libucrtd:input.obj
 0002:00020ad0       ??_C@_1NK@HEPFLICA@?$AA_?$AA_?$AAc?$AAr?$AAt?$AA_?$AAs?$AAt?$AAr?$AAt?$AAo?$AAx?$AA?3?$AA?3?$AAi?$AAn?$AAp?$AAu?$AAt?$AA_?$AAa?$AAd?$AAa?$AAp?$AAt?$AAe?$AAr?$AA_?$AAc?$AAh?$AAa?$AAr@ 0052bad0     libucrtd:input.obj
 0002:00020bd8       ??_C@_1CM@HNIGBHEE@?$AA_?$AAs?$AAu?$AAc?$AAc?$AAe?$AAe?$AAd?$AAe?$AAd?$AA?5?$AA?$CB?$AA?$DN?$AA?5?$AAn?$AAu?$AAl?$AAl?$AAp?$AAt?$AAr?$AA?$AA@ 0052bbd8     libucrtd:input.obj
 0002:00020c10       ??_C@_1OA@DIPMNDML@?$AA_?$AA_?$AAc?$AAr?$AAt?$AA_?$AAs?$AAt?$AAr?$AAt?$AAo?$AAx?$AA?3?$AA?3?$AAi?$AAn?$AAp?$AAu?$AAt?$AA_?$AAa?$AAd?$AAa?$AAp?$AAt?$AAe?$AAr?$AA_?$AAc?$AAh?$AAa?$AAr@ 0052bc10     libucrtd:input.obj
 0002:00020d20       ??_C@_1NK@HHNCOIMJ@?$AA_?$AA_?$AAc?$AAr?$AAt?$AA_?$AAs?$AAt?$AAr?$AAt?$AAo?$AAx?$AA?3?$AA?3?$AAi?$AAn?$AAp?$AAu?$AAt?$AA_?$AAa?$AAd?$AAa?$AAp?$AAt?$AAe?$AAr?$AA_?$AAc?$AAh?$AAa?$AAr@ 0052bd20     libucrtd:input.obj
 0002:00020e28       ??_C@_1OA@OAHHPJE@?$AA_?$AA_?$AAc?$AAr?$AAt?$AA_?$AAs?$AAt?$AAr?$AAt?$AAo?$AAx?$AA?3?$AA?3?$AAi?$AAn?$AAp?$AAu?$AAt?$AA_?$AAa?$AAd?$AAa?$AAp?$AAt?$AAe?$AAr?$AA_?$AAc?$AAh?$AAa?$AAr@ 0052be28     libucrtd:input.obj
 0002:00020f38       ??_C@_1LE@HBGIHGAM@?$AA_?$AAk?$AAi?$AAn?$AAd?$AA?5?$AA?$DN?$AA?$DN?$AA?5?$AAf?$AAo?$AAr?$AAm?$AAa?$AAt?$AA_?$AAd?$AAi?$AAr?$AAe?$AAc?$AAt?$AAi?$AAv?$AAe?$AA_?$AAk?$AAi?$AAn?$AAd?$AA?3?$AA?3@ 0052bf38     libucrtd:input.obj
 0002:00021010       ??_C@_1CE@JMFACANE@?$AAr?$AAe?$AAs?$AAu?$AAl?$AAt?$AA?5?$AA?$CB?$AA?$DN?$AA?5?$AAn?$AAu?$AAl?$AAl?$AAp?$AAt?$AAr?$AA?$AA@ 0052c010     libucrtd:input.obj
 0002:00021040       ??_C@_1EG@HNBONIDJ@?$AA_?$AA_?$AAc?$AAr?$AAt?$AA_?$AAs?$AAt?$AAr?$AAt?$AAo?$AAx?$AA?3?$AA?3?$AAp?$AAa?$AAr?$AAs?$AAe?$AA_?$AAf?$AAl?$AAo?$AAa?$AAt?$AAi?$AAn?$AAg?$AA_?$AAp?$AAo?$AAi@ 0052c040     libucrtd:input.obj
 0002:00021094       ??_C@_1CE@KDGPAKOD@?$AAl?$AAo?$AAc?$AAa?$AAl?$AAe?$AA?5?$AA?$CB?$AA?$DN?$AA?5?$AAn?$AAu?$AAl?$AAl?$AAp?$AAt?$AAr?$AA?$AA@ 0052c094     libucrtd:input.obj
 0002:000210c0       ??_C@_1OI@EKMBGHJE@?$AA_?$AA_?$AAc?$AAr?$AAt?$AA_?$AAs?$AAt?$AAd?$AAi?$AAo?$AA_?$AAi?$AAn?$AAp?$AAu?$AAt?$AA?3?$AA?3?$AAi?$AAn?$AAp?$AAu?$AAt?$AA_?$AAp?$AAr?$AAo?$AAc?$AAe?$AAs?$AAs@ 0052c0c0     libucrtd:input.obj
 0002:000211d8       ??_C@_1GA@INBNJPHA@?$AAs?$AAi?$AAz?$AAe?$AAo?$AAf?$AA?$CI?$AAF?$AAl?$AAo?$AAa?$AAt?$AAi?$AAn?$AAg?$AAT?$AAy?$AAp?$AAe?$AA?$CJ?$AA?5?$AA?$DN?$AA?$DN?$AA?5?$AA_?$AAf?$AAo?$AAr?$AAm?$AAa?$AAt?$AA_@ 0052c1d8     libucrtd:input.obj
 0002:00021250       ??_C@_1PE@LIDKBJDK@?$AA_?$AA_?$AAc?$AAr?$AAt?$AA_?$AAs?$AAt?$AAd?$AAi?$AAo?$AA_?$AAi?$AAn?$AAp?$AAu?$AAt?$AA?3?$AA?3?$AAi?$AAn?$AAp?$AAu?$AAt?$AA_?$AAp?$AAr?$AAo?$AAc?$AAe?$AAs?$AAs@ 0052c250     libucrtd:input.obj
 0002:00021378       ??_C@_1OI@BOLKHOLE@?$AA_?$AA_?$AAc?$AAr?$AAt?$AA_?$AAs?$AAt?$AAd?$AAi?$AAo?$AA_?$AAi?$AAn?$AAp?$AAu?$AAt?$AA?3?$AA?3?$AAi?$AAn?$AAp?$AAu?$AAt?$AA_?$AAp?$AAr?$AAo?$AAc?$AAe?$AAs?$AAs@ 0052c378     libucrtd:input.obj
 0002:00021490       ??_C@_1PE@FONEIAO@?$AA_?$AA_?$AAc?$AAr?$AAt?$AA_?$AAs?$AAt?$AAd?$AAi?$AAo?$AA_?$AAi?$AAn?$AAp?$AAu?$AAt?$AA?3?$AA?3?$AAi?$AAn?$AAp?$AAu?$AAt?$AA_?$AAp?$AAr?$AAo?$AAc?$AAe?$AAs?$AAs@ 0052c490     libucrtd:input.obj
 0002:000215b4       ??_C@_1M@HLGKFCJM@?$AAf?$AAa?$AAl?$AAs?$AAe?$AA?$AA@ 0052c5b4     libucrtd:input.obj
 0002:000215c4       ?inf_uppercase@?2???$parse_floating_point_possible_infinity@DV?$input_adapter_character_source@V?$stream_input_adapter@D@__crt_stdio_input@@@__crt_strtox@@_K@__crt_strtox@@YA?AW4floating_point_parse_result@1@AADAAV?$input_adapter_character_source@V?$stream_input_adapter@D@__crt_stdio_input@@@1@_K@Z@4QBDB 0052c5c4     libucrtd:input.obj
 0002:000215c8       ?inf_lowercase@?2???$parse_floating_point_possible_infinity@DV?$input_adapter_character_source@V?$stream_input_adapter@D@__crt_stdio_input@@@__crt_strtox@@_K@__crt_strtox@@YA?AW4floating_point_parse_result@1@AADAAV?$input_adapter_character_source@V?$stream_input_adapter@D@__crt_stdio_input@@@1@_K@Z@4QBDB 0052c5c8     libucrtd:input.obj
 0002:000215cc       ?inity_uppercase@?5???$parse_floating_point_possible_infinity@DV?$input_adapter_character_source@V?$stream_input_adapter@D@__crt_stdio_input@@@__crt_strtox@@_K@__crt_strtox@@YA?AW4floating_point_parse_result@1@AADAAV?$input_adapter_character_source@V?$stream_input_adapter@D@__crt_stdio_input@@@1@_K@Z@4QBDB 0052c5cc     libucrtd:input.obj
 0002:000215d4       ?inity_lowercase@?5???$parse_floating_point_possible_infinity@DV?$input_adapter_character_source@V?$stream_input_adapter@D@__crt_stdio_input@@@__crt_strtox@@_K@__crt_strtox@@YA?AW4floating_point_parse_result@1@AADAAV?$input_adapter_character_source@V?$stream_input_adapter@D@__crt_stdio_input@@@1@_K@Z@4QBDB 0052c5d4     libucrtd:input.obj
 0002:000215dc       ?uppercase@?2???$parse_floating_point_possible_nan@DV?$input_adapter_character_source@V?$stream_input_adapter@D@__crt_stdio_input@@@__crt_strtox@@_K@__crt_strtox@@YA?AW4floating_point_parse_result@1@AADAAV?$input_adapter_character_source@V?$stream_input_adapter@D@__crt_stdio_input@@@1@_K@Z@4QBDB 0052c5dc     libucrtd:input.obj
 0002:000215e0       ?lowercase@?2???$parse_floating_point_possible_nan@DV?$input_adapter_character_source@V?$stream_input_adapter@D@__crt_stdio_input@@@__crt_strtox@@_K@__crt_strtox@@YA?AW4floating_point_parse_result@1@AADAAV?$input_adapter_character_source@V?$stream_input_adapter@D@__crt_stdio_input@@@1@_K@Z@4QBDB 0052c5e0     libucrtd:input.obj
 0002:000215e4       ?inf_uppercase@?2???$parse_floating_point_possible_infinity@_WV?$input_adapter_character_source@V?$stream_input_adapter@_W@__crt_stdio_input@@@__crt_strtox@@_K@__crt_strtox@@YA?AW4floating_point_parse_result@1@AA_WAAV?$input_adapter_character_source@V?$stream_input_adapter@_W@__crt_stdio_input@@@1@_K@Z@4QB_WB 0052c5e4     libucrtd:input.obj
 0002:000215ec       ?inf_lowercase@?2???$parse_floating_point_possible_infinity@_WV?$input_adapter_character_source@V?$stream_input_adapter@_W@__crt_stdio_input@@@__crt_strtox@@_K@__crt_strtox@@YA?AW4floating_point_parse_result@1@AA_WAAV?$input_adapter_character_source@V?$stream_input_adapter@_W@__crt_stdio_input@@@1@_K@Z@4QB_WB 0052c5ec     libucrtd:input.obj
 0002:000215f4       ?inity_uppercase@?5???$parse_floating_point_possible_infinity@_WV?$input_adapter_character_source@V?$stream_input_adapter@_W@__crt_stdio_input@@@__crt_strtox@@_K@__crt_strtox@@YA?AW4floating_point_parse_result@1@AA_WAAV?$input_adapter_character_source@V?$stream_input_adapter@_W@__crt_stdio_input@@@1@_K@Z@4QB_WB 0052c5f4     libucrtd:input.obj
 0002:00021600       ?inity_lowercase@?5???$parse_floating_point_possible_infinity@_WV?$input_adapter_character_source@V?$stream_input_adapter@_W@__crt_stdio_input@@@__crt_strtox@@_K@__crt_strtox@@YA?AW4floating_point_parse_result@1@AA_WAAV?$input_adapter_character_source@V?$stream_input_adapter@_W@__crt_stdio_input@@@1@_K@Z@4QB_WB 0052c600     libucrtd:input.obj
 0002:0002160c       ?uppercase@?2???$parse_floating_point_possible_nan@_WV?$input_adapter_character_source@V?$stream_input_adapter@_W@__crt_stdio_input@@@__crt_strtox@@_K@__crt_strtox@@YA?AW4floating_point_parse_result@1@AA_WAAV?$input_adapter_character_source@V?$stream_input_adapter@_W@__crt_stdio_input@@@1@_K@Z@4QB_WB 0052c60c     libucrtd:input.obj
 0002:00021614       ?lowercase@?2???$parse_floating_point_possible_nan@_WV?$input_adapter_character_source@V?$stream_input_adapter@_W@__crt_stdio_input@@@__crt_strtox@@_K@__crt_strtox@@YA?AW4floating_point_parse_result@1@AA_WAAV?$input_adapter_character_source@V?$stream_input_adapter@_W@__crt_stdio_input@@@1@_K@Z@4QB_WB 0052c614     libucrtd:input.obj
 0002:0002161c       ?inf_uppercase@?2???$parse_floating_point_possible_infinity@DV?$input_adapter_character_source@V?$string_input_adapter@D@__crt_stdio_input@@@__crt_strtox@@_K@__crt_strtox@@YA?AW4floating_point_parse_result@1@AADAAV?$input_adapter_character_source@V?$string_input_adapter@D@__crt_stdio_input@@@1@_K@Z@4QBDB 0052c61c     libucrtd:input.obj
 0002:00021620       ?inf_lowercase@?2???$parse_floating_point_possible_infinity@DV?$input_adapter_character_source@V?$string_input_adapter@D@__crt_stdio_input@@@__crt_strtox@@_K@__crt_strtox@@YA?AW4floating_point_parse_result@1@AADAAV?$input_adapter_character_source@V?$string_input_adapter@D@__crt_stdio_input@@@1@_K@Z@4QBDB 0052c620     libucrtd:input.obj
 0002:00021624       ?inity_uppercase@?5???$parse_floating_point_possible_infinity@DV?$input_adapter_character_source@V?$string_input_adapter@D@__crt_stdio_input@@@__crt_strtox@@_K@__crt_strtox@@YA?AW4floating_point_parse_result@1@AADAAV?$input_adapter_character_source@V?$string_input_adapter@D@__crt_stdio_input@@@1@_K@Z@4QBDB 0052c624     libucrtd:input.obj
 0002:0002162c       ?inity_lowercase@?5???$parse_floating_point_possible_infinity@DV?$input_adapter_character_source@V?$string_input_adapter@D@__crt_stdio_input@@@__crt_strtox@@_K@__crt_strtox@@YA?AW4floating_point_parse_result@1@AADAAV?$input_adapter_character_source@V?$string_input_adapter@D@__crt_stdio_input@@@1@_K@Z@4QBDB 0052c62c     libucrtd:input.obj
 0002:00021634       ?uppercase@?2???$parse_floating_point_possible_nan@DV?$input_adapter_character_source@V?$string_input_adapter@D@__crt_stdio_input@@@__crt_strtox@@_K@__crt_strtox@@YA?AW4floating_point_parse_result@1@AADAAV?$input_adapter_character_source@V?$string_input_adapter@D@__crt_stdio_input@@@1@_K@Z@4QBDB 0052c634     libucrtd:input.obj
 0002:00021638       ?lowercase@?2???$parse_floating_point_possible_nan@DV?$input_adapter_character_source@V?$string_input_adapter@D@__crt_stdio_input@@@__crt_strtox@@_K@__crt_strtox@@YA?AW4floating_point_parse_result@1@AADAAV?$input_adapter_character_source@V?$string_input_adapter@D@__crt_stdio_input@@@1@_K@Z@4QBDB 0052c638     libucrtd:input.obj
 0002:0002163c       ?inf_uppercase@?2???$parse_floating_point_possible_infinity@_WV?$input_adapter_character_source@V?$string_input_adapter@_W@__crt_stdio_input@@@__crt_strtox@@_K@__crt_strtox@@YA?AW4floating_point_parse_result@1@AA_WAAV?$input_adapter_character_source@V?$string_input_adapter@_W@__crt_stdio_input@@@1@_K@Z@4QB_WB 0052c63c     libucrtd:input.obj
 0002:00021644       ?inf_lowercase@?2???$parse_floating_point_possible_infinity@_WV?$input_adapter_character_source@V?$string_input_adapter@_W@__crt_stdio_input@@@__crt_strtox@@_K@__crt_strtox@@YA?AW4floating_point_parse_result@1@AA_WAAV?$input_adapter_character_source@V?$string_input_adapter@_W@__crt_stdio_input@@@1@_K@Z@4QB_WB 0052c644     libucrtd:input.obj
 0002:0002164c       ?inity_uppercase@?5???$parse_floating_point_possible_infinity@_WV?$input_adapter_character_source@V?$string_input_adapter@_W@__crt_stdio_input@@@__crt_strtox@@_K@__crt_strtox@@YA?AW4floating_point_parse_result@1@AA_WAAV?$input_adapter_character_source@V?$string_input_adapter@_W@__crt_stdio_input@@@1@_K@Z@4QB_WB 0052c64c     libucrtd:input.obj
 0002:00021658       ?inity_lowercase@?5???$parse_floating_point_possible_infinity@_WV?$input_adapter_character_source@V?$string_input_adapter@_W@__crt_stdio_input@@@__crt_strtox@@_K@__crt_strtox@@YA?AW4floating_point_parse_result@1@AA_WAAV?$input_adapter_character_source@V?$string_input_adapter@_W@__crt_stdio_input@@@1@_K@Z@4QB_WB 0052c658     libucrtd:input.obj
 0002:00021664       ?uppercase@?2???$parse_floating_point_possible_nan@_WV?$input_adapter_character_source@V?$string_input_adapter@_W@__crt_stdio_input@@@__crt_strtox@@_K@__crt_strtox@@YA?AW4floating_point_parse_result@1@AA_WAAV?$input_adapter_character_source@V?$string_input_adapter@_W@__crt_stdio_input@@@1@_K@Z@4QB_WB 0052c664     libucrtd:input.obj
 0002:0002166c       ?lowercase@?2???$parse_floating_point_possible_nan@_WV?$input_adapter_character_source@V?$string_input_adapter@_W@__crt_stdio_input@@@__crt_strtox@@_K@__crt_strtox@@YA?AW4floating_point_parse_result@1@AA_WAAV?$input_adapter_character_source@V?$string_input_adapter@_W@__crt_stdio_input@@@1@_K@Z@4QB_WB 0052c66c     libucrtd:input.obj
 0002:00021674       ?uppercase@?1???$parse_floating_point_possible_nan_is_snan@DV?$input_adapter_character_source@V?$stream_input_adapter@D@__crt_stdio_input@@@__crt_strtox@@@__crt_strtox@@YA_NAADAAV?$input_adapter_character_source@V?$stream_input_adapter@D@__crt_stdio_input@@@1@@Z@4QBDB 0052c674     libucrtd:input.obj
 0002:0002167c       ?lowercase@?1???$parse_floating_point_possible_nan_is_snan@DV?$input_adapter_character_source@V?$stream_input_adapter@D@__crt_stdio_input@@@__crt_strtox@@@__crt_strtox@@YA_NAADAAV?$input_adapter_character_source@V?$stream_input_adapter@D@__crt_stdio_input@@@1@@Z@4QBDB 0052c67c     libucrtd:input.obj
 0002:00021684       ?uppercase@?1???$parse_floating_point_possible_nan_is_ind@DV?$input_adapter_character_source@V?$stream_input_adapter@D@__crt_stdio_input@@@__crt_strtox@@@__crt_strtox@@YA_NAADAAV?$input_adapter_character_source@V?$stream_input_adapter@D@__crt_stdio_input@@@1@@Z@4QBDB 0052c684     libucrtd:input.obj
 0002:00021688       ?lowercase@?1???$parse_floating_point_possible_nan_is_ind@DV?$input_adapter_character_source@V?$stream_input_adapter@D@__crt_stdio_input@@@__crt_strtox@@@__crt_strtox@@YA_NAADAAV?$input_adapter_character_source@V?$stream_input_adapter@D@__crt_stdio_input@@@1@@Z@4QBDB 0052c688     libucrtd:input.obj
 0002:0002168c       ?uppercase@?1???$parse_floating_point_possible_nan_is_snan@_WV?$input_adapter_character_source@V?$stream_input_adapter@_W@__crt_stdio_input@@@__crt_strtox@@@__crt_strtox@@YA_NAA_WAAV?$input_adapter_character_source@V?$stream_input_adapter@_W@__crt_stdio_input@@@1@@Z@4QB_WB 0052c68c     libucrtd:input.obj
 0002:00021698       ?lowercase@?1???$parse_floating_point_possible_nan_is_snan@_WV?$input_adapter_character_source@V?$stream_input_adapter@_W@__crt_stdio_input@@@__crt_strtox@@@__crt_strtox@@YA_NAA_WAAV?$input_adapter_character_source@V?$stream_input_adapter@_W@__crt_stdio_input@@@1@@Z@4QB_WB 0052c698     libucrtd:input.obj
 0002:000216a4       ?uppercase@?1???$parse_floating_point_possible_nan_is_ind@_WV?$input_adapter_character_source@V?$stream_input_adapter@_W@__crt_stdio_input@@@__crt_strtox@@@__crt_strtox@@YA_NAA_WAAV?$input_adapter_character_source@V?$stream_input_adapter@_W@__crt_stdio_input@@@1@@Z@4QB_WB 0052c6a4     libucrtd:input.obj
 0002:000216b0       ?lowercase@?1???$parse_floating_point_possible_nan_is_ind@_WV?$input_adapter_character_source@V?$stream_input_adapter@_W@__crt_stdio_input@@@__crt_strtox@@@__crt_strtox@@YA_NAA_WAAV?$input_adapter_character_source@V?$stream_input_adapter@_W@__crt_stdio_input@@@1@@Z@4QB_WB 0052c6b0     libucrtd:input.obj
 0002:000216bc       ?uppercase@?1???$parse_floating_point_possible_nan_is_snan@DV?$input_adapter_character_source@V?$string_input_adapter@D@__crt_stdio_input@@@__crt_strtox@@@__crt_strtox@@YA_NAADAAV?$input_adapter_character_source@V?$string_input_adapter@D@__crt_stdio_input@@@1@@Z@4QBDB 0052c6bc     libucrtd:input.obj
 0002:000216c4       ?lowercase@?1???$parse_floating_point_possible_nan_is_snan@DV?$input_adapter_character_source@V?$string_input_adapter@D@__crt_stdio_input@@@__crt_strtox@@@__crt_strtox@@YA_NAADAAV?$input_adapter_character_source@V?$string_input_adapter@D@__crt_stdio_input@@@1@@Z@4QBDB 0052c6c4     libucrtd:input.obj
 0002:000216cc       ?uppercase@?1???$parse_floating_point_possible_nan_is_ind@DV?$input_adapter_character_source@V?$string_input_adapter@D@__crt_stdio_input@@@__crt_strtox@@@__crt_strtox@@YA_NAADAAV?$input_adapter_character_source@V?$string_input_adapter@D@__crt_stdio_input@@@1@@Z@4QBDB 0052c6cc     libucrtd:input.obj
 0002:000216d0       ?lowercase@?1???$parse_floating_point_possible_nan_is_ind@DV?$input_adapter_character_source@V?$string_input_adapter@D@__crt_stdio_input@@@__crt_strtox@@@__crt_strtox@@YA_NAADAAV?$input_adapter_character_source@V?$string_input_adapter@D@__crt_stdio_input@@@1@@Z@4QBDB 0052c6d0     libucrtd:input.obj
 0002:000216d4       ?uppercase@?1???$parse_floating_point_possible_nan_is_snan@_WV?$input_adapter_character_source@V?$string_input_adapter@_W@__crt_stdio_input@@@__crt_strtox@@@__crt_strtox@@YA_NAA_WAAV?$input_adapter_character_source@V?$string_input_adapter@_W@__crt_stdio_input@@@1@@Z@4QB_WB 0052c6d4     libucrtd:input.obj
 0002:000216e0       ?lowercase@?1???$parse_floating_point_possible_nan_is_snan@_WV?$input_adapter_character_source@V?$string_input_adapter@_W@__crt_stdio_input@@@__crt_strtox@@@__crt_strtox@@YA_NAA_WAAV?$input_adapter_character_source@V?$string_input_adapter@_W@__crt_stdio_input@@@1@@Z@4QB_WB 0052c6e0     libucrtd:input.obj
 0002:000216ec       ?uppercase@?1???$parse_floating_point_possible_nan_is_ind@_WV?$input_adapter_character_source@V?$string_input_adapter@_W@__crt_stdio_input@@@__crt_strtox@@@__crt_strtox@@YA_NAA_WAAV?$input_adapter_character_source@V?$string_input_adapter@_W@__crt_stdio_input@@@1@@Z@4QB_WB 0052c6ec     libucrtd:input.obj
 0002:000216f8       ?lowercase@?1???$parse_floating_point_possible_nan_is_ind@_WV?$input_adapter_character_source@V?$string_input_adapter@_W@__crt_stdio_input@@@__crt_strtox@@@__crt_strtox@@YA_NAA_WAAV?$input_adapter_character_source@V?$string_input_adapter@_W@__crt_stdio_input@@@1@@Z@4QB_WB 0052c6f8     libucrtd:input.obj
 0002:00021704       _RtlNtPathSeperatorString  0052c704     libucrtd:exit.obj
 0002:00021710       ??_C@_13FPGAJAPJ@?$AA?2?$AA?$AA@ 0052c710     libucrtd:exit.obj
 0002:00021714       _RtlDosPathSeperatorsString 0052c714     libucrtd:exit.obj
 0002:00021720       ??_C@_15MNCACJLI@?$AA?2?$AA?1?$AA?$AA@ 0052c720     libucrtd:exit.obj
 0002:00021728       _RtlAlternateDosPathSeperatorString 0052c728     libucrtd:exit.obj
 0002:00021734       ??_C@_13CGOKJPIL@?$AA?1?$AA?$AA@ 0052c734     libucrtd:exit.obj
 0002:00021738       ??_C@_1BI@BGOHAHKC@?$AAm?$AAs?$AAc?$AAo?$AAr?$AAe?$AAe?$AA?4?$AAd?$AAl?$AAl?$AA?$AA@ 0052c738     libucrtd:exit.obj
 0002:00021754       ??_C@_0P@MIGLKIOC@CorExitProcess?$AA@ 0052c754     libucrtd:exit.obj
 0002:00021768       ___acrt_exception_action_table 0052c768     libucrtd:exception_filter.obj
 0002:00021814       ___acrt_signal_action_table_count 0052c814     libucrtd:exception_filter.obj
 0002:00021818       ___acrt_signal_action_table_size 0052c818     libucrtd:exception_filter.obj
 0002:0002181c       ___acrt_signal_action_first_fpe_index 0052c81c     libucrtd:exception_filter.obj
 0002:00021820       ___acrt_signal_action_fpe_count 0052c820     libucrtd:exception_filter.obj
 0002:00021828       ??_C@_1IC@DCNEKBE@?$AAm?$AAi?$AAn?$AAk?$AAe?$AAr?$AAn?$AAe?$AAl?$AA?2?$AAc?$AAr?$AAt?$AAs?$AA?2?$AAu?$AAc?$AAr?$AAt?$AA?2?$AAs?$AAr?$AAc?$AA?2?$AAa?$AAp?$AAp?$AAc?$AAr?$AAt?$AA?2?$AAi@ 0052c828     libucrtd:report_runtime_error.obj
 0002:000218c4       ??_C@_1DI@BLFJHKKP@?$AA_?$AA_?$AAa?$AAc?$AAr?$AAt?$AA_?$AAr?$AAe?$AAp?$AAo?$AAr?$AAt?$AA_?$AAr?$AAu?$AAn?$AAt?$AAi?$AAm?$AAe?$AA_?$AAe?$AAr?$AAr?$AAo?$AAr?$AA?$AA@ 0052c8c4     libucrtd:report_runtime_error.obj
 0002:00021908       ??_C@_1LE@MHPGJGKE@?$AAw?$AAc?$AAs?$AAc?$AAp?$AAy?$AA_?$AAs?$AA?$CI?$AAo?$AAu?$AAt?$AAm?$AAs?$AAg?$AA?0?$AA?5?$AA?$CI?$AAs?$AAi?$AAz?$AAe?$AAo?$AAf?$AA?$CI?$AA?$CK?$AA_?$AA_?$AAc?$AAo?$AAu?$AAn@ 0052c908     libucrtd:report_runtime_error.obj
 0002:000219e0       ??_C@_1DE@JNGNBFGO@?$AAR?$AAu?$AAn?$AAt?$AAi?$AAm?$AAe?$AA?5?$AAE?$AAr?$AAr?$AAo?$AAr?$AA?$CB?$AA?6?$AA?6?$AAP?$AAr?$AAo?$AAg?$AAr?$AAa?$AAm?$AA?3?$AA?5?$AA?$AA@ 0052c9e0     libucrtd:report_runtime_error.obj
 0002:00021a20       ??_C@_1HK@FJJNAABO@?$AAw?$AAc?$AAs?$AAc?$AAp?$AAy?$AA_?$AAs?$AA?$CI?$AAp?$AAr?$AAo?$AAg?$AAn?$AAa?$AAm?$AAe?$AA?0?$AA?5?$AAp?$AAr?$AAo?$AAg?$AAn?$AAa?$AAm?$AAe?$AA_?$AAs?$AAi?$AAz?$AAe@ 0052ca20     libucrtd:report_runtime_error.obj
 0002:00021ab8       ??_C@_1HI@FLHKGEBE@?$AAw?$AAc?$AAs?$AAn?$AAc?$AAp?$AAy?$AA_?$AAs?$AA?$CI?$AAp?$AAc?$AAh?$AA?0?$AA?5?$AAp?$AAr?$AAo?$AAg?$AAn?$AAa?$AAm?$AAe?$AA_?$AAs?$AAi?$AAz?$AAe?$AA?5?$AA?9?$AA?5?$AA?$CI@ 0052cab8     libucrtd:report_runtime_error.obj
 0002:00021b48       ??_C@_1IG@MNNKBLBI@?$AAw?$AAc?$AAs?$AAc?$AAa?$AAt?$AA_?$AAs?$AA?$CI?$AAo?$AAu?$AAt?$AAm?$AAs?$AAg?$AA?0?$AA?5?$AA?$CI?$AAs?$AAi?$AAz?$AAe?$AAo?$AAf?$AA?$CI?$AA?$CK?$AA_?$AA_?$AAc?$AAo?$AAu?$AAn@ 0052cb48     libucrtd:report_runtime_error.obj
 0002:00021be8       ??_C@_1IG@DFBBBDAN@?$AAw?$AAc?$AAs?$AAc?$AAa?$AAt?$AA_?$AAs?$AA?$CI?$AAo?$AAu?$AAt?$AAm?$AAs?$AAg?$AA?0?$AA?5?$AA?$CI?$AAs?$AAi?$AAz?$AAe?$AAo?$AAf?$AA?$CI?$AA?$CK?$AA_?$AA_?$AAc?$AAo?$AAu?$AAn@ 0052cbe8     libucrtd:report_runtime_error.obj
 0002:00021c88       ??_C@_0DI@KNDIGDEP@minkernel?2crts?2ucrt?2src?2appcrt?2s@ 0052cc88     libucrtd:argv_parsing.obj
 0002:00021cd0       ??_C@_1JO@PGBIJBAM@?$AAm?$AAo?$AAd?$AAe?$AA?5?$AA?$DN?$AA?$DN?$AA?5?$AA_?$AAc?$AAr?$AAt?$AA_?$AAa?$AAr?$AAg?$AAv?$AA_?$AAe?$AAx?$AAp?$AAa?$AAn?$AAd?$AAe?$AAd?$AA_?$AAa?$AAr?$AAg?$AAu?$AAm@ 0052ccd0     libucrtd:argv_parsing.obj
 0002:00021d90       ??_C@_1HA@JMLCANEE@?$AAm?$AAi?$AAn?$AAk?$AAe?$AAr?$AAn?$AAe?$AAl?$AA?2?$AAc?$AAr?$AAt?$AAs?$AA?2?$AAu?$AAc?$AAr?$AAt?$AA?2?$AAs?$AAr?$AAc?$AA?2?$AAa?$AAp?$AAp?$AAc?$AAr?$AAt?$AA?2?$AAs@ 0052cd90     libucrtd:argv_parsing.obj
 0002:00021e18       ??_C@_1CM@LHOJELIC@?$AAc?$AAo?$AAm?$AAm?$AAo?$AAn?$AA_?$AAc?$AAo?$AAn?$AAf?$AAi?$AAg?$AAu?$AAr?$AAe?$AA_?$AAa?$AAr?$AAg?$AAv?$AA?$AA@ 0052ce18     libucrtd:argv_parsing.obj
 0002:00021e50       ??_C@_0EG@LEHKHOEH@minkernel?2crts?2ucrt?2src?2desktopc@ 0052ce50     libucrtd:environment_initialization.obj
 0002:00021ea8       ??_C@_1IM@IMOFFPLG@?$AAm?$AAi?$AAn?$AAk?$AAe?$AAr?$AAn?$AAe?$AAl?$AA?2?$AAc?$AAr?$AAt?$AAs?$AA?2?$AAu?$AAc?$AAr?$AAt?$AA?2?$AAs?$AAr?$AAc?$AA?2?$AAd?$AAe?$AAs?$AAk?$AAt?$AAo?$AAp?$AAc@ 0052cea8     libucrtd:environment_initialization.obj
 0002:00021f50       ??_C@_1CG@MNNNBNAK@?$AAc?$AAr?$AAe?$AAa?$AAt?$AAe?$AA_?$AAe?$AAn?$AAv?$AAi?$AAr?$AAo?$AAn?$AAm?$AAe?$AAn?$AAt?$AA?$AA@ 0052cf50     libucrtd:environment_initialization.obj
 0002:00021f80       ??_C@_1HI@OOPIFFGA@?$AAt?$AAr?$AAa?$AAi?$AAt?$AAs?$AA?3?$AA?3?$AAt?$AAc?$AAs?$AAc?$AAp?$AAy?$AA_?$AAs?$AA?$CI?$AAv?$AAa?$AAr?$AAi?$AAa?$AAb?$AAl?$AAe?$AA?4?$AAg?$AAe?$AAt?$AA?$CI?$AA?$CJ?$AA?0@ 0052cf80     libucrtd:environment_initialization.obj
 0002:00022010       ??_C@_1MI@PNMMBOIN@?$AAm?$AAo?$AAd?$AAe?$AA?5?$AA?$DN?$AA?$DN?$AA?5?$AA_?$AAO?$AA_?$AAT?$AAE?$AAX?$AAT?$AA?5?$AA?$HM?$AA?$HM?$AA?5?$AAm?$AAo?$AAd?$AAe?$AA?5?$AA?$DN?$AA?$DN?$AA?5?$AA_?$AAO?$AA_?$AAB?$AAI@ 0052d010     libucrtd:setmode.obj
 0002:00022100       ??_C@_1GC@CIJNGKLD@?$AAm?$AAi?$AAn?$AAk?$AAe?$AAr?$AAn?$AAe?$AAl?$AA?2?$AAc?$AAr?$AAt?$AAs?$AA?2?$AAu?$AAc?$AAr?$AAt?$AA?2?$AAs?$AAr?$AAc?$AA?2?$AAa?$AAp?$AAp?$AAc?$AAr?$AAt?$AA?2?$AAl@ 0052d100     libucrtd:setmode.obj
 0002:00022178       ??_C@_1BC@JBGGJDCM@?$AA_?$AAs?$AAe?$AAt?$AAm?$AAo?$AAd?$AAe?$AA?$AA@ 0052d178     libucrtd:setmode.obj
 0002:00022190       ??_C@_1FO@LPCLHKGE@?$AA?$CI?$AAf?$AAh?$AA?5?$AA?$DO?$AA?$DN?$AA?5?$AA0?$AA?5?$AA?$CG?$AA?$CG?$AA?5?$AA?$CI?$AAu?$AAn?$AAs?$AAi?$AAg?$AAn?$AAe?$AAd?$AA?$CJ?$AAf?$AAh?$AA?5?$AA?$DM?$AA?5?$AA?$CI?$AAu?$AAn?$AAs?$AAi@ 0052d190     libucrtd:setmode.obj
 0002:00022200       ??_C@_1CM@OKGMMMDH@?$AA?$CI?$AA_?$AAo?$AAs?$AAf?$AAi?$AAl?$AAe?$AA?$CI?$AAf?$AAh?$AA?$CJ?$AA?5?$AA?$CG?$AA?5?$AAF?$AAO?$AAP?$AAE?$AAN?$AA?$CJ?$AA?$AA@ 0052d200     libucrtd:setmode.obj
 0002:00022238       ??_C@_1JE@ECKHFIFP@?$AA?$CI?$AA?$CC?$AAI?$AAn?$AAv?$AAa?$AAl?$AAi?$AAd?$AA?5?$AAf?$AAi?$AAl?$AAe?$AA?5?$AAd?$AAe?$AAs?$AAc?$AAr?$AAi?$AAp?$AAt?$AAo?$AAr?$AA?4?$AA?5?$AAF?$AAi?$AAl?$AAe?$AA?5@ 0052d238     libucrtd:setmode.obj
 0002:000222f0       ??_C@_1HC@GNDCDMJL@?$AAm?$AAo?$AAd?$AAe?$AA?5?$AA?$DN?$AA?$DN?$AA?5?$AA_?$AAO?$AA_?$AAT?$AAE?$AAX?$AAT?$AA?5?$AA?$HM?$AA?$HM?$AA?5?$AAm?$AAo?$AAd?$AAe?$AA?5?$AA?$DN?$AA?$DN?$AA?5?$AA_?$AAO?$AA_?$AAB?$AAI@ 0052d2f0     libucrtd:setmode.obj
 0002:00022378       ??_C@_1BG@IEEHLOCL@?$AA_?$AAs?$AAe?$AAt?$AA_?$AAf?$AAm?$AAo?$AAd?$AAe?$AA?$AA@ 0052d378     libucrtd:setmode.obj
 0002:00022394       ??_C@_1CC@ODGEBJBO@?$AAp?$AAM?$AAo?$AAd?$AAe?$AA?5?$AA?$CB?$AA?$DN?$AA?5?$AAn?$AAu?$AAl?$AAl?$AAp?$AAt?$AAr?$AA?$AA@ 0052d394     libucrtd:setmode.obj
 0002:000223bc       ??_C@_1BG@CKGMPOFH@?$AA_?$AAg?$AAe?$AAt?$AA_?$AAf?$AAm?$AAo?$AAd?$AAe?$AA?$AA@ 0052d3bc     libucrtd:setmode.obj
 0002:000223d8       ??_C@_1GK@EMNILMBI@?$AAm?$AAi?$AAn?$AAk?$AAe?$AAr?$AAn?$AAe?$AAl?$AA?2?$AAc?$AAr?$AAt?$AAs?$AA?2?$AAu?$AAc?$AAr?$AAt?$AA?2?$AAs?$AAr?$AAc?$AA?2?$AAa?$AAp?$AAp?$AAc?$AAr?$AAt?$AA?2?$AAs@ 0052d3d8     libucrtd:argv_data.obj
 0002:00022458       ??_C@_1BK@PNLDCCDP@?$AA_?$AAg?$AAe?$AAt?$AA_?$AAw?$AAp?$AAg?$AAm?$AAp?$AAt?$AAr?$AA?$AA@ 0052d458     libucrtd:argv_data.obj
 0002:00022478       ??_C@_1CI@ENCADPBF@?$AA_?$AAw?$AAp?$AAg?$AAm?$AAp?$AAt?$AAr?$AA?5?$AA?$CB?$AA?$DN?$AA?5?$AAn?$AAu?$AAl?$AAl?$AAp?$AAt?$AAr?$AA?$AA@ 0052d478     libucrtd:argv_data.obj
 0002:000224a8       ??_C@_1BI@COAAPHJK@?$AA_?$AAg?$AAe?$AAt?$AA_?$AAp?$AAg?$AAm?$AAp?$AAt?$AAr?$AA?$AA@ 0052d4a8     libucrtd:argv_data.obj
 0002:000224c4       ??_C@_1CG@CKJHPBDG@?$AA_?$AAp?$AAg?$AAm?$AAp?$AAt?$AAr?$AA?5?$AA?$CB?$AA?$DN?$AA?5?$AAn?$AAu?$AAl?$AAl?$AAp?$AAt?$AAr?$AA?$AA@ 0052d4c4     libucrtd:argv_data.obj
 0002:000224f8       ___lc_category             0052d4f8     libucrtd:wsetlocale.obj
 0002:00022550       ??_C@_1O@GIFLHMA@?$AAL?$AAC?$AA_?$AAA?$AAL?$AAL?$AA?$AA@ 0052d550     libucrtd:wsetlocale.obj
 0002:00022560       ??_C@_1BG@PPOMIBNJ@?$AAL?$AAC?$AA_?$AAC?$AAO?$AAL?$AAL?$AAA?$AAT?$AAE?$AA?$AA@ 0052d560     libucrtd:wsetlocale.obj
 0002:0002257c       ??_C@_1BC@FFJGAPJM@?$AAL?$AAC?$AA_?$AAC?$AAT?$AAY?$AAP?$AAE?$AA?$AA@ 0052d57c     libucrtd:wsetlocale.obj
 0002:00022594       ??_C@_1BI@PCKFNJFB@?$AAL?$AAC?$AA_?$AAM?$AAO?$AAN?$AAE?$AAT?$AAA?$AAR?$AAY?$AA?$AA@ 0052d594     libucrtd:wsetlocale.obj
 0002:000225b0       ??_C@_1BG@ENIEDKID@?$AAL?$AAC?$AA_?$AAN?$AAU?$AAM?$AAE?$AAR?$AAI?$AAC?$AA?$AA@ 0052d5b0     libucrtd:wsetlocale.obj
 0002:000225cc       ??_C@_1BA@HAAOMIIG@?$AAL?$AAC?$AA_?$AAT?$AAI?$AAM?$AAE?$AA?$AA@ 0052d5cc     libucrtd:wsetlocale.obj
 0002:00022678       ??_C@_1GA@LDEGDKD@?$AA?$CI?$AA?$CC?$AAI?$AAn?$AAv?$AAa?$AAl?$AAi?$AAd?$AA?5?$AAp?$AAa?$AAr?$AAa?$AAm?$AAe?$AAt?$AAe?$AAr?$AA?5?$AAf?$AAo?$AAr?$AA?5?$AA_?$AAc?$AAo?$AAn?$AAf?$AAi?$AAg?$AAt@ 0052d678     libucrtd:wsetlocale.obj
 0002:000226f0       ??_C@_1GK@DPKNLBIE@?$AAm?$AAi?$AAn?$AAk?$AAe?$AAr?$AAn?$AAe?$AAl?$AA?2?$AAc?$AAr?$AAt?$AAs?$AA?2?$AAu?$AAc?$AAr?$AAt?$AA?2?$AAs?$AAr?$AAc?$AA?2?$AAa?$AAp?$AAp?$AAc?$AAr?$AAt?$AA?2?$AAl@ 0052d6f0     libucrtd:wsetlocale.obj
 0002:00022770       ??_C@_1CI@FGIONOJM@?$AA_?$AAc?$AAo?$AAn?$AAf?$AAi?$AAg?$AAt?$AAh?$AAr?$AAe?$AAa?$AAd?$AAl?$AAo?$AAc?$AAa?$AAl?$AAe?$AA?$AA@ 0052d770     libucrtd:wsetlocale.obj
 0002:000227a0       ??_C@_0DF@MKMHJGEJ@minkernel?2crts?2ucrt?2src?2appcrt?2l@ 0052d7a0     libucrtd:wsetlocale.obj
 0002:000227e0       ??_C@_1FG@OHLFEKMC@?$AAL?$AAC?$AA_?$AAM?$AAI?$AAN?$AA?5?$AA?$DM?$AA?$DN?$AA?5?$AA_?$AAc?$AAa?$AAt?$AAe?$AAg?$AAo?$AAr?$AAy?$AA?5?$AA?$CG?$AA?$CG?$AA?5?$AA_?$AAc?$AAa?$AAt?$AAe?$AAg?$AAo?$AAr?$AAy@ 0052d7e0     libucrtd:wsetlocale.obj
 0002:00022848       ??_C@_1BI@KJNPAEHL@?$AA_?$AAw?$AAs?$AAe?$AAt?$AAl?$AAo?$AAc?$AAa?$AAl?$AAe?$AA?$AA@ 0052d848     libucrtd:wsetlocale.obj
 0002:00022864       ??_C@_15NBPDDFIP@?$AA?$DN?$AA?$DL?$AA?$AA@ 0052d864     libucrtd:wsetlocale.obj
 0002:0002286c       ??_C@_13PJJBFPED@?$AA?$DL?$AA?$AA@ 0052d86c     libucrtd:wsetlocale.obj
 0002:00022870       ??_C@_1CG@DKJCBBPP@?$AA_?$AAw?$AAs?$AAe?$AAt?$AAl?$AAo?$AAc?$AAa?$AAl?$AAe?$AA_?$AAn?$AAo?$AAl?$AAo?$AAc?$AAk?$AA?$AA@ 0052d870     libucrtd:wsetlocale.obj
 0002:000228a0       ??_C@_1IG@NGDCPCDE@?$AAw?$AAc?$AAs?$AAn?$AAc?$AAp?$AAy?$AA_?$AAs?$AA?$CI?$AAl?$AAc?$AAt?$AAe?$AAm?$AAp?$AA?0?$AA?5?$AA?$CI?$AAs?$AAi?$AAz?$AAe?$AAo?$AAf?$AA?$CI?$AA?$CK?$AA_?$AA_?$AAc?$AAo?$AAu@ 0052d8a0     libucrtd:wsetlocale.obj
 0002:00022940       ??_C@_1CI@ODOPEMNJ@?$AA_?$AAw?$AAs?$AAe?$AAt?$AAl?$AAo?$AAc?$AAa?$AAl?$AAe?$AA_?$AAs?$AAe?$AAt?$AA_?$AAc?$AAa?$AAt?$AA?$AA@ 0052d940     libucrtd:wsetlocale.obj
 0002:00022970       ??_C@_1EM@MHOCNIAA@?$AAw?$AAc?$AAs?$AAc?$AAp?$AAy?$AA_?$AAs?$AA?$CI?$AAp?$AAc?$AAh?$AA_?$AAc?$AAa?$AAt?$AA_?$AAl?$AAo?$AAc?$AAa?$AAl?$AAe?$AA?0?$AA?5?$AAc?$AAc?$AAh?$AA?0?$AA?5?$AAl?$AAc@ 0052d970     libucrtd:wsetlocale.obj
 0002:000229cc       ??_C@_13NMPKAAJP@?$AA?$DN?$AA?$AA@ 0052d9cc     libucrtd:wsetlocale.obj
 0002:000229d0       ??_C@_1CI@LKOPFFBD@?$AA_?$AAw?$AAs?$AAe?$AAt?$AAl?$AAo?$AAc?$AAa?$AAl?$AAe?$AA_?$AAg?$AAe?$AAt?$AA_?$AAa?$AAl?$AAl?$AA?$AA@ 0052d9d0     libucrtd:wsetlocale.obj
 0002:00022a00       ??_C@_1DC@HMLJMODP@?$AAw?$AAc?$AAs?$AAc?$AAa?$AAt?$AA_?$AAs?$AA?$CI?$AAp?$AAc?$AAh?$AA?0?$AA?5?$AAc?$AAc?$AAh?$AA?0?$AA?5?$AAL?$AA?$CC?$AA?$DL?$AA?$CC?$AA?$CJ?$AA?$AA@ 0052da00     libucrtd:wsetlocale.obj
 0002:00022a3c       ??_C@_1BM@OIIBLEFG@?$AA_?$AAe?$AAx?$AAp?$AAa?$AAn?$AAd?$AAl?$AAo?$AAc?$AAa?$AAl?$AAe?$AA?$AA@ 0052da3c     libucrtd:wsetlocale.obj
 0002:00022a60       ??_C@_1BCM@BOFLACKH@?$AAw?$AAc?$AAs?$AAn?$AAc?$AAp?$AAy?$AA_?$AAs?$AA?$CI?$AAl?$AAo?$AAc?$AAa?$AAl?$AAe?$AAN?$AAa?$AAm?$AAe?$AAO?$AAu?$AAt?$AAp?$AAu?$AAt?$AA?0?$AA?5?$AAl?$AAo?$AAc?$AAa@ 0052da60     libucrtd:wsetlocale.obj
 0002:00022bc8       ??_C@_1EI@OCINLCHN@?$AAw?$AAc?$AAs?$AAc?$AAp?$AAy?$AA_?$AAs?$AA?$CI?$AAo?$AAu?$AAt?$AAp?$AAu?$AAt?$AA?0?$AA?5?$AAs?$AAi?$AAz?$AAe?$AAI?$AAn?$AAC?$AAh?$AAa?$AAr?$AAs?$AA?0?$AA?5?$AAL?$AA?$CC@ 0052dbc8     libucrtd:wsetlocale.obj
 0002:00022c20       ??_C@_13FHBKNHDA@?$AAC?$AA?$AA@ 0052dc20     libucrtd:wsetlocale.obj
 0002:00022c28       ??_C@_1MO@NNCNEOAP@?$AAw?$AAc?$AAs?$AAn?$AAc?$AAp?$AAy?$AA_?$AAs?$AA?$CI?$AAl?$AAo?$AAc?$AAa?$AAl?$AAe?$AAN?$AAa?$AAm?$AAe?$AAO?$AAu?$AAt?$AAp?$AAu?$AAt?$AA?0?$AA?5?$AAl?$AAo?$AAc?$AAa@ 0052dc28     libucrtd:wsetlocale.obj
 0002:00022d20       ??_C@_1IG@MKDIEKFD@?$AAw?$AAc?$AAs?$AAn?$AAc?$AAp?$AAy?$AA_?$AAs?$AA?$CI?$AAc?$AAa?$AAc?$AAh?$AAe?$AAo?$AAu?$AAt?$AA?0?$AA?5?$AAc?$AAa?$AAc?$AAh?$AAe?$AAo?$AAu?$AAt?$AAL?$AAe?$AAn?$AA?0@ 0052dd20     libucrtd:wsetlocale.obj
 0002:00022dc0       ??_C@_1KK@KMIFPBBC@?$AAw?$AAc?$AAs?$AAn?$AAc?$AAp?$AAy?$AA_?$AAs?$AA?$CI?$AAl?$AAo?$AAc?$AAa?$AAl?$AAe?$AAN?$AAa?$AAm?$AAe?$AAO?$AAu?$AAt?$AAp?$AAu?$AAt?$AA?0?$AA?5?$AAl?$AAo?$AAc?$AAa@ 0052ddc0     libucrtd:wsetlocale.obj
 0002:00022e90       ??_C@_1BBO@MGLBPLBP@?$AAw?$AAc?$AAs?$AAn?$AAc?$AAp?$AAy?$AA_?$AAs?$AA?$CI?$AA_?$AAp?$AAs?$AAe?$AAt?$AAl?$AAo?$AAc?$AA_?$AAd?$AAa?$AAt?$AAa?$AA?9?$AA?$DO?$AA_?$AAc?$AAa?$AAc?$AAh?$AAe?$AAL@ 0052de90     libucrtd:wsetlocale.obj
 0002:00022fe8       ??_C@_1BDK@DHHMOMPJ@?$AAw?$AAc?$AAs?$AAn?$AAc?$AAp?$AAy?$AA_?$AAs?$AA?$CI?$AA_?$AAp?$AAs?$AAe?$AAt?$AAl?$AAo?$AAc?$AA_?$AAd?$AAa?$AAt?$AAa?$AA?9?$AA?$DO?$AA_?$AAc?$AAa?$AAc?$AAh?$AAe?$AAL@ 0052dfe8     libucrtd:wsetlocale.obj
 0002:00023160       ??_C@_1IC@FCCDBGLL@?$AAw?$AAc?$AAs?$AAn?$AAc?$AAp?$AAy?$AA_?$AAs?$AA?$CI?$AAc?$AAa?$AAc?$AAh?$AAe?$AAi?$AAn?$AA?0?$AA?5?$AAc?$AAa?$AAc?$AAh?$AAe?$AAi?$AAn?$AAL?$AAe?$AAn?$AA?0?$AA?5?$AAe@ 0052e160     libucrtd:wsetlocale.obj
 0002:00023200       ??_C@_1FA@HOOAAHFF@?$AAw?$AAc?$AAs?$AAc?$AAp?$AAy?$AA_?$AAs?$AA?$CI?$AAo?$AAu?$AAt?$AAp?$AAu?$AAt?$AA?0?$AA?5?$AAs?$AAi?$AAz?$AAe?$AAI?$AAn?$AAC?$AAh?$AAa?$AAr?$AAs?$AA?0?$AA?5?$AAc?$AAa@ 0052e200     libucrtd:wsetlocale.obj
 0002:00023260       ??_C@_1BC@LEOKFFML@?$AA_?$AAw?$AAc?$AAs?$AAc?$AAa?$AAt?$AAs?$AA?$AA@ 0052e260     libucrtd:wsetlocale.obj
 0002:00023278       ??_C@_1BHK@BGMBCJOP@?$AAw?$AAc?$AAs?$AAc?$AAa?$AAt?$AA_?$AAs?$AA?$CI?$AAo?$AAu?$AAt?$AAs?$AAt?$AAr?$AA?0?$AA?5?$AAn?$AAu?$AAm?$AAb?$AAe?$AAr?$AAO?$AAf?$AAE?$AAl?$AAe?$AAm?$AAe?$AAn?$AAt@ 0052e278     libucrtd:wsetlocale.obj
 0002:00023440       ??_C@_1BK@GNCHCGCN@?$AA_?$AA_?$AAl?$AAc?$AA_?$AAw?$AAc?$AAs?$AAt?$AAo?$AAl?$AAc?$AA?$AA@ 0052e440     libucrtd:wsetlocale.obj
 0002:00023460       ??_C@_1MI@MGHKCMFH@?$AAw?$AAc?$AAs?$AAn?$AAc?$AAp?$AAy?$AA_?$AAs?$AA?$CI?$AAn?$AAa?$AAm?$AAe?$AAs?$AA?9?$AA?$DO?$AAs?$AAz?$AAC?$AAo?$AAd?$AAe?$AAP?$AAa?$AAg?$AAe?$AA?0?$AA?5?$AA?$CI?$AAs?$AAi@ 0052e460     libucrtd:wsetlocale.obj
 0002:00023550       ??_C@_17MBJJLFDM@?$AA_?$AA?4?$AA?0?$AA?$AA@ 0052e550     libucrtd:wsetlocale.obj
 0002:00023560       ??_C@_1LO@GGCCDNLJ@?$AAw?$AAc?$AAs?$AAn?$AAc?$AAp?$AAy?$AA_?$AAs?$AA?$CI?$AAn?$AAa?$AAm?$AAe?$AAs?$AA?9?$AA?$DO?$AAs?$AAz?$AAL?$AAa?$AAn?$AAg?$AAu?$AAa?$AAg?$AAe?$AA?0?$AA?5?$AA?$CI?$AAs?$AAi@ 0052e560     libucrtd:wsetlocale.obj
 0002:00023648       ??_C@_1LK@JOIOCOID@?$AAw?$AAc?$AAs?$AAn?$AAc?$AAp?$AAy?$AA_?$AAs?$AA?$CI?$AAn?$AAa?$AAm?$AAe?$AAs?$AA?9?$AA?$DO?$AAs?$AAz?$AAC?$AAo?$AAu?$AAn?$AAt?$AAr?$AAy?$AA?0?$AA?5?$AA?$CI?$AAs?$AAi?$AAz@ 0052e648     libucrtd:wsetlocale.obj
 0002:00023728       ??_C@_1LO@OJICFEP@?$AAw?$AAc?$AAs?$AAn?$AAc?$AAp?$AAy?$AA_?$AAs?$AA?$CI?$AAn?$AAa?$AAm?$AAe?$AAs?$AA?9?$AA?$DO?$AAs?$AAz?$AAC?$AAo?$AAd?$AAe?$AAP?$AAa?$AAg?$AAe?$AA?0?$AA?5?$AA?$CI?$AAs?$AAi@ 0052e728     libucrtd:wsetlocale.obj
 0002:0002380c       ??_C@_1BK@HEBMGPEK@?$AA_?$AA_?$AAl?$AAc?$AA_?$AAl?$AAc?$AAt?$AAo?$AAw?$AAc?$AAs?$AA?$AA@ 0052e80c     libucrtd:wsetlocale.obj
 0002:00023830       ??_C@_1GM@FOFMGOEK@?$AAw?$AAc?$AAs?$AAc?$AAp?$AAy?$AA_?$AAs?$AA?$CI?$AAl?$AAo?$AAc?$AAa?$AAl?$AAe?$AA?0?$AA?5?$AAn?$AAu?$AAm?$AAb?$AAe?$AAr?$AAO?$AAf?$AAE?$AAl?$AAe?$AAm?$AAe?$AAn?$AAt@ 0052e830     libucrtd:wsetlocale.obj
 0002:000238b4       ??_C@_13ENNFDPBH@?$AA_?$AA?$AA@ 0052e8b4     libucrtd:wsetlocale.obj
 0002:000238b8       ??_C@_13JOFGPIOO@?$AA?4?$AA?$AA@ 0052e8b8     libucrtd:wsetlocale.obj
 0002:000238bc       ??_C@_1DA@BBIOOKDN@?$AA_?$AA_?$AAa?$AAc?$AAr?$AAt?$AA_?$AAc?$AAo?$AAp?$AAy?$AA_?$AAl?$AAo?$AAc?$AAa?$AAl?$AAe?$AA_?$AAn?$AAa?$AAm?$AAe?$AA?$AA@ 0052e8bc     libucrtd:wsetlocale.obj
 0002:000238f8       ??_C@_1GI@HBNMCKGD@?$AAw?$AAc?$AAs?$AAn?$AAc?$AAp?$AAy?$AA_?$AAs?$AA?$CI?$AAl?$AAo?$AAc?$AAa?$AAl?$AAe?$AAN?$AAa?$AAm?$AAe?$AAC?$AAo?$AAp?$AAy?$AA?0?$AA?5?$AAc?$AAc?$AAh?$AA?$CL?$AA1?$AA?0@ 0052e8f8     libucrtd:wsetlocale.obj
 0002:00023974       ??_C@_1CO@JKFLNGDK@?$AAm?$AAo?$AAd?$AAe?$AA?5?$AA?$DN?$AA?$DN?$AA?5?$AA0?$AA?5?$AA?$HM?$AA?$HM?$AA?5?$AAm?$AAo?$AAd?$AAe?$AA?5?$AA?$DN?$AA?$DN?$AA?5?$AA1?$AA?$AA@ 0052e974     libucrtd:new_mode.obj
 0002:000239b0       ??_C@_1GC@PJMKBHEK@?$AAm?$AAi?$AAn?$AAk?$AAe?$AAr?$AAn?$AAe?$AAl?$AA?2?$AAc?$AAr?$AAt?$AAs?$AA?2?$AAu?$AAc?$AAr?$AAt?$AA?2?$AAs?$AAr?$AAc?$AA?2?$AAa?$AAp?$AAp?$AAc?$AAr?$AAt?$AA?2?$AAh@ 0052e9b0     libucrtd:new_mode.obj
 0002:00023a28       ??_C@_1BM@PDPAKJNF@?$AA_?$AAs?$AAe?$AAt?$AA_?$AAn?$AAe?$AAw?$AA_?$AAm?$AAo?$AAd?$AAe?$AA?$AA@ 0052ea28     libucrtd:new_mode.obj
 0002:00023b68       ??_C@_03KHJOGHMM@exp?$AA@  0052eb68     libucrtd:fpexcept.obj
 0002:00023b6c       ??_C@_03JGHBODFD@pow?$AA@  0052eb6c     libucrtd:fpexcept.obj
 0002:00023b70       ??_C@_03MGHMBJCF@log?$AA@  0052eb70     libucrtd:fpexcept.obj
 0002:00023b74       ??_C@_05HGHHAHAP@log10?$AA@ 0052eb74     libucrtd:fpexcept.obj
 0002:00023b7c       ??_C@_04COOMCNPB@sinh?$AA@ 0052eb7c     libucrtd:fpexcept.obj
 0002:00023b84       ??_C@_04HPJJNFIM@cosh?$AA@ 0052eb84     libucrtd:fpexcept.obj
 0002:00023b8c       ??_C@_04FJHINJAO@tanh?$AA@ 0052eb8c     libucrtd:fpexcept.obj
 0002:00023b94       ??_C@_04FIHNOPOL@asin?$AA@ 0052eb94     libucrtd:fpexcept.obj
 0002:00023b9c       ??_C@_04PDIFKINK@acos?$AA@ 0052eb9c     libucrtd:fpexcept.obj
 0002:00023ba4       ??_C@_04MLLJIGOK@atan?$AA@ 0052eba4     libucrtd:fpexcept.obj
 0002:00023bac       ??_C@_05KNGEOGJB@atan2?$AA@ 0052ebac     libucrtd:fpexcept.obj
 0002:00023bb4       ??_C@_04EIAKFFMI@sqrt?$AA@ 0052ebb4     libucrtd:fpexcept.obj
 0002:00023bbc       ??_C@_03BLEJJJBH@sin?$AA@  0052ebbc     libucrtd:fpexcept.obj
 0002:00023bc0       ??_C@_03LALBNOCG@cos?$AA@  0052ebc0     libucrtd:fpexcept.obj
 0002:00023bc4       ??_C@_03IIINPABG@tan?$AA@  0052ebc4     libucrtd:fpexcept.obj
 0002:00023bc8       ??_C@_04GFPJNGEK@ceil?$AA@ 0052ebc8     libucrtd:fpexcept.obj
 0002:00023bd0       ??_C@_05PBJFFIGL@floor?$AA@ 0052ebd0     libucrtd:fpexcept.obj
 0002:00023bd8       ??_C@_04ODHECPBC@fabs?$AA@ 0052ebd8     libucrtd:fpexcept.obj
 0002:00023be0       ??_C@_04EHEDPDJG@modf?$AA@ 0052ebe0     libucrtd:fpexcept.obj
 0002:00023be8       ??_C@_05CEJMAHNP@ldexp?$AA@ 0052ebe8     libucrtd:fpexcept.obj
 0002:00023bf0       ??_C@_05KBKMEMPO@_cabs?$AA@ 0052ebf0     libucrtd:fpexcept.obj
 0002:00023bf8       ??_C@_06MEIMCGCF@_hypot?$AA@ 0052ebf8     libucrtd:fpexcept.obj
 0002:00023c00       ??_C@_04KEPJIHGP@fmod?$AA@ 0052ec00     libucrtd:fpexcept.obj
 0002:00023c08       ??_C@_05GKKHEGJL@frexp?$AA@ 0052ec08     libucrtd:fpexcept.obj
 0002:00023c10       ??_C@_03MJLDFKDL@_y0?$AA@  0052ec10     libucrtd:fpexcept.obj
 0002:00023c14       ??_C@_03NAKIGLHK@_y1?$AA@  0052ec14     libucrtd:fpexcept.obj
 0002:00023c18       ??_C@_03ONILCKOB@_yn?$AA@  0052ec18     libucrtd:fpexcept.obj
 0002:00023c1c       ??_C@_05JGDBENOH@_logb?$AA@ 0052ec1c     libucrtd:fpexcept.obj
 0002:00023c24       ??_C@_0L@KDOEJCKC@_nextafter?$AA@ 0052ec24     libucrtd:fpexcept.obj
 0002:00023c34       ??_C@_0DC@NBHMIIKL@minkernel?2crts?2ucrt?2src?2appcrt?2s@ 0052ec34     libucrtd:onexit.obj
 0002:00023d00       ??_C@_1DG@JNDMIEJL@?$AA?$CI?$AA?$CC?$AAI?$AAn?$AAv?$AAa?$AAl?$AAi?$AAd?$AA?5?$AAi?$AAn?$AAp?$AAu?$AAt?$AA?5?$AAv?$AAa?$AAl?$AAu?$AAe?$AA?$CC?$AA?0?$AA?5?$AA0?$AA?$CJ?$AA?$AA@ 0052ed00     libucrtd:contrlfp.obj
 0002:00023d40       ??_C@_1FO@HHLKCIKB@?$AAm?$AAi?$AAn?$AAk?$AAe?$AAr?$AAn?$AAe?$AAl?$AA?2?$AAc?$AAr?$AAt?$AAs?$AA?2?$AAu?$AAc?$AAr?$AAt?$AA?2?$AAs?$AAr?$AAc?$AA?2?$AAa?$AAp?$AAp?$AAc?$AAr?$AAt?$AA?2?$AAt@ 0052ed40     libucrtd:contrlfp.obj
 0002:00023db0       ??_C@_1BK@CDOALEA@?$AA_?$AAc?$AAo?$AAn?$AAt?$AAr?$AAo?$AAl?$AAf?$AAp?$AA_?$AAs?$AA?$AA@ 0052edb0     libucrtd:contrlfp.obj
 0002:00023de8       ??_C@_04HJMOFLDF@Free?$AA@ 0052ede8     libucrtd:debug_heap.obj
 0002:00023df0       ??_C@_06EFAGIKOH@Normal?$AA@ 0052edf0     libucrtd:debug_heap.obj
 0002:00023df8       ??_C@_03OGPFLFLO@CRT?$AA@  0052edf8     libucrtd:debug_heap.obj
 0002:00023dfc       ??_C@_06KMEJCCGM@Ignore?$AA@ 0052edfc     libucrtd:debug_heap.obj
 0002:00023e04       ??_C@_06PJIGMIJB@Client?$AA@ 0052ee04     libucrtd:debug_heap.obj
 0002:00023e0c       ??_C@_1CE@LJFEPPMP@?$AA_?$AAC?$AAr?$AAt?$AAC?$AAh?$AAe?$AAc?$AAk?$AAM?$AAe?$AAm?$AAo?$AAr?$AAy?$AA?$CI?$AA?$CJ?$AA?$AA@ 0052ee0c     libucrtd:debug_heap.obj
 0002:00023e38       ??_C@_1GG@OCLHPJPK@?$AAm?$AAi?$AAn?$AAk?$AAe?$AAr?$AAn?$AAe?$AAl?$AA?2?$AAc?$AAr?$AAt?$AAs?$AA?2?$AAu?$AAc?$AAr?$AAt?$AA?2?$AAs?$AAr?$AAc?$AA?2?$AAa?$AAp?$AAp?$AAc?$AAr?$AAt?$AA?2?$AAh@ 0052ee38     libucrtd:debug_heap.obj
 0002:00023eb4       ??_C@_0DF@BBEGIFEK@Client?5hook?5allocation?5failure?5a@ 0052eeb4     libucrtd:debug_heap.obj
 0002:00023ef4       ??_C@_0CB@CCLOLAHO@Client?5hook?5allocation?5failure?4?6@ 0052eef4     libucrtd:debug_heap.obj
 0002:00023f1c       ??_C@_02DKCKIIND@?$CFs?$AA@ 0052ef1c     libucrtd:debug_heap.obj
 0002:00023f20       ??_C@_0DC@JEMAGEKG@Error?3?5memory?5allocation?3?5bad?5me@ 0052ef20     libucrtd:debug_heap.obj
 0002:00023f5c       ??_C@_0DI@KKJPDPGM@Client?5hook?5re?9allocation?5failur@ 0052ef5c     libucrtd:debug_heap.obj
 0002:00023fa0       ??_C@_0CE@DOFMDOL@Client?5hook?5re?9allocation?5failur@ 0052efa0     libucrtd:debug_heap.obj
 0002:00023fd0       ??_C@_0FA@EFEIGJKG@Error?3?5memory?5allocation?3?5bad?5me@ 0052efd0     libucrtd:debug_heap.obj
 0002:00024030       ??_C@_0EM@LGFLMAGJ@The?5Block?5at?50x?$CFp?5was?5allocated?5@ 0052f030     libucrtd:debug_heap.obj
 0002:0002408c       ??_C@_1DM@DEDLGNML@?$AA_?$AAC?$AAr?$AAt?$AAI?$AAs?$AAV?$AAa?$AAl?$AAi?$AAd?$AAH?$AAe?$AAa?$AAp?$AAP?$AAo?$AAi?$AAn?$AAt?$AAe?$AAr?$AA?$CI?$AAb?$AAl?$AAo?$AAc?$AAk?$AA?$CJ?$AA?$AA@ 0052f08c     libucrtd:debug_heap.obj
 0002:000240d8       ??_C@_1PC@MCGKJLN@?$AAo?$AAl?$AAd?$AA_?$AAh?$AAe?$AAa?$AAd?$AA?9?$AA?$DO?$AA_?$AAl?$AAi?$AAn?$AAe?$AA_?$AAn?$AAu?$AAm?$AAb?$AAe?$AAr?$AA?5?$AA?$DN?$AA?$DN?$AA?5?$AAl?$AAi?$AAn?$AAe?$AA_?$AAn@ 0052f0d8     libucrtd:debug_heap.obj
 0002:000241fc       ??_C@_0DA@HFBKENN@Error?3?5possible?5heap?5corruption?5@ 0052f1fc     libucrtd:debug_heap.obj
 0002:00024238       ??_C@_1JM@MCMEPJEP@?$AAr?$AAe?$AAa?$AAl?$AAl?$AAo?$AAc?$AAa?$AAt?$AAi?$AAo?$AAn?$AA_?$AAi?$AAs?$AA_?$AAa?$AAl?$AAl?$AAo?$AAw?$AAe?$AAd?$AA?5?$AA?$HM?$AA?$HM?$AA?5?$AA?$CI?$AA?$CB?$AAr?$AAe?$AAa@ 0052f238     libucrtd:debug_heap.obj
 0002:000242f4       ??_C@_1DM@LNOPKAIJ@?$AA_?$AA_?$AAa?$AAc?$AAr?$AAt?$AA_?$AAl?$AAa?$AAs?$AAt?$AA_?$AAb?$AAl?$AAo?$AAc?$AAk?$AA?5?$AA?$DN?$AA?$DN?$AA?5?$AAo?$AAl?$AAd?$AA_?$AAh?$AAe?$AAa?$AAd?$AA?$AA@ 0052f2f4     libucrtd:debug_heap.obj
 0002:0002433c       ??_C@_1DO@HABCJBHO@?$AA_?$AA_?$AAa?$AAc?$AAr?$AAt?$AA_?$AAf?$AAi?$AAr?$AAs?$AAt?$AA_?$AAb?$AAl?$AAo?$AAc?$AAk?$AA?5?$AA?$DN?$AA?$DN?$AA?5?$AAo?$AAl?$AAd?$AA_?$AAh?$AAe?$AAa?$AAd?$AA?$AA@ 0052f33c     libucrtd:debug_heap.obj
 0002:00024388       ??_C@_1CC@CKEAHJPH@?$AAb?$AAl?$AAo?$AAc?$AAk?$AA?5?$AA?$CB?$AA?$DN?$AA?5?$AAn?$AAu?$AAl?$AAl?$AAp?$AAt?$AAr?$AA?$AA@ 0052f388     libucrtd:debug_heap.obj
 0002:000243b0       ??_C@_1BI@HAPNGHDP@?$AA_?$AAe?$AAx?$AAp?$AAa?$AAn?$AAd?$AA_?$AAd?$AAb?$AAg?$AA?$AA@ 0052f3b0     libucrtd:debug_heap.obj
 0002:000243d0       ??_C@_0EJ@HEIBCIMJ@The?5Block?5at?50x?$CFp?5was?5allocated?5@ 0052f3d0     libucrtd:debug_heap.obj
 0002:00024428       ??_C@_0BL@KEIPLFAC@Client?5hook?5free?5failure?4?6?$AA@ 0052f428     libucrtd:debug_heap.obj
 0002:00024448       ??_C@_1FA@KDNEBILF@?$AAi?$AAs?$AA_?$AAb?$AAl?$AAo?$AAc?$AAk?$AA_?$AAt?$AAy?$AAp?$AAe?$AA_?$AAv?$AAa?$AAl?$AAi?$AAd?$AA?$CI?$AAh?$AAe?$AAa?$AAd?$AAe?$AAr?$AA?9?$AA?$DO?$AA_?$AAb?$AAl?$AAo@ 0052f448     libucrtd:debug_heap.obj
 0002:000244a8       ??_C@_0KI@JGFOHMEB@HEAP?5CORRUPTION?5DETECTED?3?5before@ 0052f4a8     libucrtd:debug_heap.obj
 0002:00024578       ??_C@_0IK@PJCGLBOB@HEAP?5CORRUPTION?5DETECTED?3?5before@ 0052f578     libucrtd:debug_heap.obj
 0002:00024620       ??_C@_0KE@MBMNHHHN@HEAP?5CORRUPTION?5DETECTED?3?5after?5@ 0052f620     libucrtd:debug_heap.obj
 0002:000246e8       ??_C@_0IG@LEMBDCJK@HEAP?5CORRUPTION?5DETECTED?3?5after?5@ 0052f6e8     libucrtd:debug_heap.obj
 0002:00024788       ??_C@_1OK@GFEOEJAF@?$AAh?$AAe?$AAa?$AAd?$AAe?$AAr?$AA?9?$AA?$DO?$AA_?$AAl?$AAi?$AAn?$AAe?$AA_?$AAn?$AAu?$AAm?$AAb?$AAe?$AAr?$AA?5?$AA?$DN?$AA?$DN?$AA?5?$AAl?$AAi?$AAn?$AAe?$AA_?$AAn?$AAu?$AAm@ 0052f788     libucrtd:debug_heap.obj
 0002:000248a0       ??_C@_1ME@GFALMLNA@?$AAh?$AAe?$AAa?$AAd?$AAe?$AAr?$AA?9?$AA?$DO?$AA_?$AAb?$AAl?$AAo?$AAc?$AAk?$AA_?$AAu?$AAs?$AAe?$AA?5?$AA?$DN?$AA?$DN?$AA?5?$AAb?$AAl?$AAo?$AAc?$AAk?$AA_?$AAu?$AAs?$AAe?$AA?5@ 0052f8a0     libucrtd:debug_heap.obj
 0002:0002498c       ??_C@_1DI@ILNOPEPI@?$AA_?$AA_?$AAa?$AAc?$AAr?$AAt?$AA_?$AAl?$AAa?$AAs?$AAt?$AA_?$AAb?$AAl?$AAo?$AAc?$AAk?$AA?5?$AA?$DN?$AA?$DN?$AA?5?$AAh?$AAe?$AAa?$AAd?$AAe?$AAr?$AA?$AA@ 0052f98c     libucrtd:debug_heap.obj
 0002:000249d0       ??_C@_1DK@KEHFGDIJ@?$AA_?$AA_?$AAa?$AAc?$AAr?$AAt?$AA_?$AAf?$AAi?$AAr?$AAs?$AAt?$AA_?$AAb?$AAl?$AAo?$AAc?$AAk?$AA?5?$AA?$DN?$AA?$DN?$AA?5?$AAh?$AAe?$AAa?$AAd?$AAe?$AAr?$AA?$AA@ 0052f9d0     libucrtd:debug_heap.obj
 0002:00024a18       ??_C@_1BG@MBKOGDLD@?$AA_?$AAm?$AAs?$AAi?$AAz?$AAe?$AA_?$AAd?$AAb?$AAg?$AA?$AA@ 0052fa18     libucrtd:debug_heap.obj
 0002:00024a34       ??_C@_07OHKEFPKJ@DAMAGED?$AA@ 0052fa34     libucrtd:debug_heap.obj
 0002:00024a40       ??_C@_0KA@IHNJJKPL@HEAP?5CORRUPTION?5DETECTED?3?5on?5top@ 0052fa40     libucrtd:debug_heap.obj
 0002:00024b00       ??_C@_0IC@BBJIOOJH@HEAP?5CORRUPTION?5DETECTED?3?5on?5top@ 0052fb00     libucrtd:debug_heap.obj
 0002:00024ba0       ??_C@_0EG@DGJMPDBH@?$CFhs?5located?5at?50x?$CFp?5is?5?$CFIu?5bytes@ 0052fba0     libucrtd:debug_heap.obj
 0002:00024bf4       ??_C@_0CI@JMLBEDHJ@?$CFhs?5located?5at?50x?$CFp?5is?5?$CFIu?5bytes@ 0052fbf4     libucrtd:debug_heap.obj
 0002:00024c28       ??_C@_0EG@GPFHANHO@Cycle?5in?5block?5list?5detected?5whi@ 0052fc28     libucrtd:debug_heap.obj
 0002:00024c7c       ??_C@_0BJ@ELMAOCAJ@Heap?5validation?5failed?4?6?$AA@ 0052fc7c     libucrtd:debug_heap.obj
 0002:00024ca0       ??_C@_1IE@BBIFDGEB@?$AAn?$AAe?$AAw?$AA_?$AAb?$AAi?$AAt?$AAs?$AA?5?$AA?$DN?$AA?$DN?$AA?5?$AA_?$AAC?$AAR?$AAT?$AAD?$AAB?$AAG?$AA_?$AAR?$AAE?$AAP?$AAO?$AAR?$AAT?$AA_?$AAF?$AAL?$AAA?$AAG?$AA?5@ 0052fca0     libucrtd:debug_heap.obj
 0002:00024d40       ??_C@_1BO@GJFDNMNF@?$AA_?$AAC?$AAr?$AAt?$AAS?$AAe?$AAt?$AAD?$AAb?$AAg?$AAF?$AAl?$AAa?$AAg?$AA?$AA@ 0052fd40     libucrtd:debug_heap.obj
 0002:00024d64       ??_C@_1CI@CEIBPAIA@?$AAc?$AAa?$AAl?$AAl?$AAb?$AAa?$AAc?$AAk?$AA?5?$AA?$CB?$AA?$DN?$AA?5?$AAn?$AAu?$AAl?$AAl?$AAp?$AAt?$AAr?$AA?$AA@ 0052fd64     libucrtd:debug_heap.obj
 0002:00024d94       ??_C@_1DE@GJCKCKEC@?$AA_?$AAC?$AAr?$AAt?$AAD?$AAo?$AAF?$AAo?$AAr?$AAA?$AAl?$AAl?$AAC?$AAl?$AAi?$AAe?$AAn?$AAt?$AAO?$AAb?$AAj?$AAe?$AAc?$AAt?$AAs?$AA?$AA@ 0052fd94     libucrtd:debug_heap.obj
 0002:00024dd4       ??_C@_1CC@BBKMONGA@?$AAs?$AAt?$AAa?$AAt?$AAe?$AA?5?$AA?$CB?$AA?$DN?$AA?5?$AAn?$AAu?$AAl?$AAl?$AAp?$AAt?$AAr?$AA?$AA@ 0052fdd4     libucrtd:debug_heap.obj
 0002:00024dfc       ??_C@_1CE@NJJKELF@?$AA_?$AAC?$AAr?$AAt?$AAM?$AAe?$AAm?$AAC?$AAh?$AAe?$AAc?$AAk?$AAp?$AAo?$AAi?$AAn?$AAt?$AA?$AA@ 0052fdfc     libucrtd:debug_heap.obj
 0002:00024e28       ??_C@_0DP@LEFMFBOD@Bad?5memory?5block?5found?5at?50x?$CFp?4?6@ 0052fe28     libucrtd:debug_heap.obj
 0002:00024e74       ??_C@_0CB@EAAIGELO@Bad?5memory?5block?5found?5at?50x?$CFp?4?6@ 0052fe74     libucrtd:debug_heap.obj
 0002:00024e9c       ??_C@_1CE@PDIENACM@?$AA_?$AAC?$AAr?$AAt?$AAM?$AAe?$AAm?$AAD?$AAi?$AAf?$AAf?$AAe?$AAr?$AAe?$AAn?$AAc?$AAe?$AA?$AA@ 0052fe9c     libucrtd:debug_heap.obj
 0002:00024ec8       ??_C@_1CK@FFKLBHMD@?$AAo?$AAl?$AAd?$AA_?$AAs?$AAt?$AAa?$AAt?$AAe?$AA?5?$AA?$CB?$AA?$DN?$AA?5?$AAn?$AAu?$AAl?$AAl?$AAp?$AAt?$AAr?$AA?$AA@ 0052fec8     libucrtd:debug_heap.obj
 0002:00024efc       ??_C@_1CK@NJPPHDJP@?$AAn?$AAe?$AAw?$AA_?$AAs?$AAt?$AAa?$AAt?$AAe?$AA?5?$AA?$CB?$AA?$DN?$AA?5?$AAn?$AAu?$AAl?$AAl?$AAp?$AAt?$AAr?$AA?$AA@ 0052fefc     libucrtd:debug_heap.obj
 0002:00024f30       ??_C@_05MKKEDADM@?$CF?42X?5?$AA@ 0052ff30     libucrtd:debug_heap.obj
 0002:00024f38       ??_C@_1CC@DIJAHFFJ@?$AAp?$AAr?$AAi?$AAn?$AAt?$AA_?$AAb?$AAl?$AAo?$AAc?$AAk?$AA_?$AAd?$AAa?$AAt?$AAa?$AA?$AA@ 0052ff38     libucrtd:debug_heap.obj
 0002:00024f60       ??_C@_1BI@KALLJECN@?$AA?$CI?$AA?$CK?$AA_?$AAe?$AAr?$AAr?$AAn?$AAo?$AA?$CI?$AA?$CJ?$AA?$CJ?$AA?$AA@ 0052ff60     libucrtd:debug_heap.obj
 0002:00024f7c       ??_C@_0BA@HJBKCELP@?5Data?3?5?$DM?$CFs?$DO?5?$CFs?6?$AA@ 0052ff7c     libucrtd:debug_heap.obj
 0002:00024f90       ??_C@_0BE@KCIPKCIA@Dumping?5objects?5?9?$DO?6?$AA@ 0052ff90     libucrtd:debug_heap.obj
 0002:00024fa8       ??_C@_0BE@OIEFNFL@?$CDFile?5Error?$CD?$CI?$CFd?$CJ?5?3?5?$AA@ 0052ffa8     libucrtd:debug_heap.obj
 0002:00024fc0       ??_C@_0L@JMEFFCCJ@?$CFhs?$CI?$CFd?$CJ?5?3?5?$AA@ 0052ffc0     libucrtd:debug_heap.obj
 0002:00024fd0       ??_C@_06PKLGBFGM@?$HL?$CFld?$HN?5?$AA@ 0052ffd0     libucrtd:debug_heap.obj
 0002:00024fd8       ??_C@_0DD@GHNAAKBB@client?5block?5at?50x?$CFp?0?5subtype?5?$CFx@ 0052ffd8     libucrtd:debug_heap.obj
 0002:00025018       ??_C@_0CH@FAGDDGPN@normal?5block?5at?50x?$CFp?0?5?$CFIu?5bytes?5@ 00530018     libucrtd:debug_heap.obj
 0002:00025048       ??_C@_0DA@MDLBNIBM@crt?5block?5at?50x?$CFp?0?5subtype?5?$CFx?0?5?$CF@ 00530048     libucrtd:debug_heap.obj
 0002:00025084       ??_C@_0BH@GFGKJDCO@Object?5dump?5complete?4?6?$AA@ 00530084     libucrtd:debug_heap.obj
 0002:000250a0       ??_C@_0BI@JBFPOEJA@Detected?5memory?5leaks?$CB?6?$AA@ 005300a0     libucrtd:debug_heap.obj
 0002:000250bc       ??_C@_1CM@MPNIBKGK@?$AA_?$AAC?$AAr?$AAt?$AAM?$AAe?$AAm?$AAD?$AAu?$AAm?$AAp?$AAS?$AAt?$AAa?$AAt?$AAi?$AAs?$AAt?$AAi?$AAc?$AAs?$AA?$AA@ 005300bc     libucrtd:debug_heap.obj
 0002:000250f0       ??_C@_0BO@DACNIABB@?$CFId?5bytes?5in?5?$CFId?5?$CFhs?5Blocks?4?6?$AA@ 005300f0     libucrtd:debug_heap.obj
 0002:00025114       ??_C@_0CB@BLHDAFNE@Largest?5number?5used?3?5?$CFId?5bytes?4?6@ 00530114     libucrtd:debug_heap.obj
 0002:0002513c       ??_C@_0BP@DEDHGGGI@Total?5allocations?3?5?$CFId?5bytes?4?6?$AA@ 0053013c     libucrtd:debug_heap.obj
 0002:00025164       ??_C@_1CM@JKMDHENJ@?$AAI?$AAS?$AA_?$AA2?$AA_?$AAP?$AAO?$AAW?$AA_?$AAN?$AA?$CI?$AAa?$AAl?$AAi?$AAg?$AAn?$AAm?$AAe?$AAn?$AAt?$AA?$CJ?$AA?$AA@ 00530164     libucrtd:debug_heap.obj
 0002:00025198       ??_C@_1DG@DONCJBBJ@?$AA_?$AAa?$AAl?$AAi?$AAg?$AAn?$AAe?$AAd?$AA_?$AAo?$AAf?$AAf?$AAs?$AAe?$AAt?$AA_?$AAm?$AAa?$AAl?$AAl?$AAo?$AAc?$AA_?$AAd?$AAb?$AAg?$AA?$AA@ 00530198     libucrtd:debug_heap.obj
 0002:000251d8       ??_C@_1DK@LFLKFPDA@?$AAo?$AAf?$AAf?$AAs?$AAe?$AAt?$AA?5?$AA?$DN?$AA?$DN?$AA?5?$AA0?$AA?5?$AA?$HM?$AA?$HM?$AA?5?$AAo?$AAf?$AAf?$AAs?$AAe?$AAt?$AA?5?$AA?$DM?$AA?5?$AAs?$AAi?$AAz?$AAe?$AA?$AA@ 005301d8     libucrtd:debug_heap.obj
 0002:00025220       ??_C@_0EI@NDNJMAJK@The?5block?5at?50x?$CFp?5was?5not?5alloca@ 00530220     libucrtd:debug_heap.obj
 0002:00025278       ??_C@_0DL@PGHMMKNE@Damage?5before?50x?$CFp?5which?5was?5all@ 00530278     libucrtd:debug_heap.obj
 0002:000252c0       ??_C@_1DI@NINIKFFK@?$AA_?$AAa?$AAl?$AAi?$AAg?$AAn?$AAe?$AAd?$AA_?$AAo?$AAf?$AAf?$AAs?$AAe?$AAt?$AA_?$AAr?$AAe?$AAa?$AAl?$AAl?$AAo?$AAc?$AA_?$AAd?$AAb?$AAg?$AA?$AA@ 005302c0     libucrtd:debug_heap.obj
 0002:00025304       ??_C@_1CG@CEGMHIMN@?$AA_?$AAa?$AAl?$AAi?$AAg?$AAn?$AAe?$AAd?$AA_?$AAm?$AAs?$AAi?$AAz?$AAe?$AA_?$AAd?$AAb?$AAg?$AA?$AA@ 00530304     libucrtd:debug_heap.obj
 0002:00025338       ??_C@_0EF@PGELACII@The?5block?5at?50x?$CFp?5was?5not?5alloca@ 00530338     libucrtd:debug_heap.obj
 0002:00025390       ??_C@_1GI@BBAEIKL@?$AA?$CI?$AA?$CI?$AAd?$AAe?$AAs?$AAt?$AAi?$AAn?$AAa?$AAt?$AAi?$AAo?$AAn?$AA?$CJ?$AA?$CJ?$AA?5?$AA?$CB?$AA?$DN?$AA?5?$AAN?$AAU?$AAL?$AAL?$AA?5?$AA?$CG?$AA?$CG?$AA?5?$AA?$CI?$AA?$CI?$AAs?$AAi?$AAz@ 00530390     libucrtd:strcpy_s.obj
 0002:00025410       ??_C@_1HI@PBJPCEBC@?$AAm?$AAi?$AAn?$AAk?$AAe?$AAr?$AAn?$AAe?$AAl?$AA?2?$AAc?$AAr?$AAt?$AAs?$AA?2?$AAu?$AAc?$AAr?$AAt?$AA?2?$AAi?$AAn?$AAc?$AA?2?$AAc?$AAo?$AAr?$AAe?$AAc?$AAr?$AAt?$AA_@ 00530410     libucrtd:strcpy_s.obj
 0002:000254a0       ??_C@_1CA@FHIAGDFH@?$AAc?$AAo?$AAm?$AAm?$AAo?$AAn?$AA_?$AAt?$AAc?$AAs?$AAc?$AAp?$AAy?$AA_?$AAs?$AA?$AA@ 005304a0     libucrtd:strcpy_s.obj
 0002:000254c8       ??_C@_1CK@EIOKGPJL@?$AA?$CI?$AA?$CI?$AA?$CI?$AAs?$AAo?$AAu?$AAr?$AAc?$AAe?$AA?$CJ?$AA?$CJ?$AA?$CJ?$AA?5?$AA?$CB?$AA?$DN?$AA?5?$AAN?$AAU?$AAL?$AAL?$AA?$AA@ 005304c8     libucrtd:strcpy_s.obj
 0002:000254fc       ??_C@_1CI@HCPHDDLE@?$AAB?$AAu?$AAf?$AAf?$AAe?$AAr?$AA?5?$AAi?$AAs?$AA?5?$AAt?$AAo?$AAo?$AA?5?$AAs?$AAm?$AAa?$AAl?$AAl?$AA?$AA@ 005304fc     libucrtd:strcpy_s.obj
 0002:0002552c       ??_C@_1DM@MADKGDLO@?$AA?$CI?$AAL?$AA?$CC?$AAB?$AAu?$AAf?$AAf?$AAe?$AAr?$AA?5?$AAi?$AAs?$AA?5?$AAt?$AAo?$AAo?$AA?5?$AAs?$AAm?$AAa?$AAl?$AAl?$AA?$CC?$AA?5?$AA?$CG?$AA?$CG?$AA?5?$AA0?$AA?$CJ?$AA?$AA@ 0053052c     libucrtd:strcpy_s.obj
 0002:00025574       ??_C@_1DA@LLLMNMKI@?$AAa?$AAb?$AAo?$AAr?$AAt?$AA?$CI?$AA?$CJ?$AA?5?$AAh?$AAa?$AAs?$AA?5?$AAb?$AAe?$AAe?$AAn?$AA?5?$AAc?$AAa?$AAl?$AAl?$AAe?$AAd?$AA?$AA@ 00530574     libucrtd:abort.obj
 0002:000255c0       ??_C@_1BA@GLMCNLEM@?$AAW?$AAa?$AAr?$AAn?$AAi?$AAn?$AAg?$AA?$AA@ 005305c0     libucrtd:dbgrpt.obj
 0002:000255d4       ??_C@_1M@ILHOPKA@?$AAE?$AAr?$AAr?$AAo?$AAr?$AA?$AA@ 005305d4     libucrtd:dbgrpt.obj
 0002:000255e4       ??_C@_1CC@CGHMNGDG@?$AAA?$AAs?$AAs?$AAe?$AAr?$AAt?$AAi?$AAo?$AAn?$AA?5?$AAF?$AAa?$AAi?$AAl?$AAe?$AAd?$AA?$AA@ 005305e4     libucrtd:dbgrpt.obj
 0002:00025610       ??_C@_1OG@PMPPFHAF@?$AA?6?$AA?6?$AAF?$AAo?$AAr?$AA?5?$AAi?$AAn?$AAf?$AAo?$AAr?$AAm?$AAa?$AAt?$AAi?$AAo?$AAn?$AA?5?$AAo?$AAn?$AA?5?$AAh?$AAo?$AAw?$AA?5?$AAy?$AAo?$AAu?$AAr?$AA?5?$AAp?$AAr@ 00530610     libucrtd:dbgrpt.obj
 0002:00025728       ??_C@_1MG@LJLILFFD@?$AAD?$AAe?$AAb?$AAu?$AAg?$AA?5?$AA?$CF?$AAl?$AAs?$AA?$CB?$AA?6?$AA?6?$AAP?$AAr?$AAo?$AAg?$AAr?$AAa?$AAm?$AA?3?$AA?5?$AA?$CF?$AAh?$AAs?$AA?$CF?$AAl?$AAs?$AA?$CF?$AAl?$AAs?$AA?$CF?$AAh@ 00530728     libucrtd:dbgrpt.obj
 0002:00025818       ??_C@_1MG@OODCADGL@?$AAD?$AAe?$AAb?$AAu?$AAg?$AA?5?$AA?$CF?$AAl?$AAs?$AA?$CB?$AA?6?$AA?6?$AAP?$AAr?$AAo?$AAg?$AAr?$AAa?$AAm?$AA?3?$AA?5?$AA?$CF?$AAl?$AAs?$AA?$CF?$AAl?$AAs?$AA?$CF?$AAl?$AAs?$AA?$CF?$AAl@ 00530818     libucrtd:dbgrpt.obj
 0002:00025908       ??_C@_1HI@OFEHGPPC@?$AAm?$AAo?$AAd?$AAe?$AA?5?$AA?$DN?$AA?$DN?$AA?5?$AA_?$AAC?$AAR?$AAT?$AA_?$AAR?$AAP?$AAT?$AAH?$AAO?$AAO?$AAK?$AA_?$AAI?$AAN?$AAS?$AAT?$AAA?$AAL?$AAL?$AA?5?$AA?$HM?$AA?$HM?$AA?5@ 00530908     libucrtd:dbgrpt.obj
 0002:00025998       ??_C@_1FO@GMJDLAJD@?$AAm?$AAi?$AAn?$AAk?$AAe?$AAr?$AAn?$AAe?$AAl?$AA?2?$AAc?$AAr?$AAt?$AAs?$AA?2?$AAu?$AAc?$AAr?$AAt?$AA?2?$AAs?$AAr?$AAc?$AA?2?$AAa?$AAp?$AAp?$AAc?$AAr?$AAt?$AA?2?$AAm@ 00530998     libucrtd:dbgrpt.obj
 0002:00025a08       ??_C@_1CO@FFNKOJOG@?$AAc?$AAo?$AAm?$AAm?$AAo?$AAn?$AA_?$AAs?$AAe?$AAt?$AA_?$AAr?$AAe?$AAp?$AAo?$AAr?$AAt?$AA_?$AAh?$AAo?$AAo?$AAk?$AA?$AA@ 00530a08     libucrtd:dbgrpt.obj
 0002:00025a40       ??_C@_1CI@ONEHFNHD@?$AAn?$AAe?$AAw?$AA_?$AAh?$AAo?$AAo?$AAk?$AA?5?$AA?$CB?$AA?$DN?$AA?5?$AAn?$AAu?$AAl?$AAl?$AAp?$AAt?$AAr?$AA?$AA@ 00530a40     libucrtd:dbgrpt.obj
 0002:00025a70       ??_C@_1CM@EHMOGBJJ@?$AAc?$AAo?$AAm?$AAm?$AAo?$AAn?$AA_?$AAm?$AAe?$AAs?$AAs?$AAa?$AAg?$AAe?$AA_?$AAw?$AAi?$AAn?$AAd?$AAo?$AAw?$AA?$AA@ 00530a70     libucrtd:dbgrpt.obj
 0002:00025aa8       ??_C@_11LOCGONAA@?$AA?$AA@ 00530aa8     libucrtd:dbgrpt.obj
 0002:00025aac       ??_C@_1BA@GLLGCPCK@?$AA?6?$AAL?$AAi?$AAn?$AAe?$AA?3?$AA?5?$AA?$AA@ 00530aac     libucrtd:dbgrpt.obj
 0002:00025ac0       ??_C@_1BA@LNHECFIM@?$AA?6?$AAF?$AAi?$AAl?$AAe?$AA?3?$AA?5?$AA?$AA@ 00530ac0     libucrtd:dbgrpt.obj
 0002:00025ad4       ??_C@_1BE@CGCJKGHI@?$AA?6?$AAM?$AAo?$AAd?$AAu?$AAl?$AAe?$AA?3?$AA?5?$AA?$AA@ 00530ad4     libucrtd:dbgrpt.obj
 0002:00025af0       ??_C@_1JM@IBOIJEOO@?$AAw?$AAc?$AAs?$AAc?$AAp?$AAy?$AA_?$AAs?$AA?$CI?$AAm?$AAe?$AAs?$AAs?$AAa?$AAg?$AAe?$AA_?$AAb?$AAu?$AAf?$AAf?$AAe?$AAr?$AA?0?$AA?5?$AA4?$AA0?$AA9?$AA6?$AA?0?$AA?5?$AAL@ 00530af0     libucrtd:dbgrpt.obj
 0002:00025bb0       ??_C@_1FG@BBOLDHGF@?$AA_?$AAC?$AAr?$AAt?$AAD?$AAb?$AAg?$AAR?$AAe?$AAp?$AAo?$AAr?$AAt?$AA?3?$AA?5?$AAS?$AAt?$AAr?$AAi?$AAn?$AAg?$AA?5?$AAt?$AAo?$AAo?$AA?5?$AAl?$AAo?$AAn?$AAg?$AA?5?$AAo@ 00530bb0     libucrtd:dbgrpt.obj
 0002:00025c20       ??_C@_1FK@BNNDOGMN@?$AA?$CI?$AA?$CC?$AAT?$AAh?$AAe?$AA?5?$AAh?$AAo?$AAo?$AAk?$AA?5?$AAf?$AAu?$AAn?$AAc?$AAt?$AAi?$AAo?$AAn?$AA?5?$AAi?$AAs?$AA?5?$AAn?$AAo?$AAt?$AA?5?$AAi?$AAn?$AA?5?$AAt?$AAh@ 00530c20     libucrtd:dbgrpt.obj
 0002:00025c8c       ??_C@_0CP@HDJNPEFB@minkernel?2crts?2ucrt?2src?2appcrt?2m@ 00530c8c     libucrtd:dbgrpt.obj
 0002:00025e78       ??_C@_1FM@MJJGEFKM@?$AAm?$AAi?$AAn?$AAk?$AAe?$AAr?$AAn?$AAe?$AAl?$AA?2?$AAc?$AAr?$AAt?$AAs?$AA?2?$AAu?$AAc?$AAr?$AAt?$AA?2?$AAs?$AAr?$AAc?$AA?2?$AAa?$AAp?$AAp?$AAc?$AAr?$AAt?$AA?2?$AAm@ 00530e78     libucrtd:errno.obj
 0002:00025ee8       ??_C@_1BG@KCMPBBDK@?$AA_?$AAg?$AAe?$AAt?$AA_?$AAe?$AAr?$AAr?$AAn?$AAo?$AA?$AA@ 00530ee8     libucrtd:errno.obj
 0002:00025f04       ??_C@_1BM@INIPHHDD@?$AA_?$AAg?$AAe?$AAt?$AA_?$AAd?$AAo?$AAs?$AAe?$AAr?$AAr?$AAn?$AAo?$AA?$AA@ 00530f04     libucrtd:errno.obj
 0002:00025f88       ??_C@_1EG@CNNIPFIM@?$AAa?$AAp?$AAi?$AA?9?$AAm?$AAs?$AA?9?$AAw?$AAi?$AAn?$AA?9?$AAa?$AAp?$AAp?$AAm?$AAo?$AAd?$AAe?$AAl?$AA?9?$AAr?$AAu?$AAn?$AAt?$AAi?$AAm?$AAe?$AA?9?$AAl?$AA1?$AA?9?$AA1@ 00530f88     libucrtd:winapi_thunks.obj
 0002:00025fe0       ??_C@_1EA@JGEFHKEI@?$AAa?$AAp?$AAi?$AA?9?$AAm?$AAs?$AA?9?$AAw?$AAi?$AAn?$AA?9?$AAc?$AAo?$AAr?$AAe?$AA?9?$AAd?$AAa?$AAt?$AAe?$AAt?$AAi?$AAm?$AAe?$AA?9?$AAl?$AA1?$AA?9?$AA1?$AA?9?$AA1?$AA?$AA@ 00530fe0     libucrtd:winapi_thunks.obj
 0002:0002602c       ??_C@_1DI@GCIAAENM@?$AAa?$AAp?$AAi?$AA?9?$AAm?$AAs?$AA?9?$AAw?$AAi?$AAn?$AA?9?$AAc?$AAo?$AAr?$AAe?$AA?9?$AAf?$AAi?$AAl?$AAe?$AA?9?$AAl?$AA2?$AA?9?$AA1?$AA?9?$AA1?$AA?$AA@ 0053102c     libucrtd:winapi_thunks.obj
 0002:00026070       ??_C@_1EI@MPIAOHOC@?$AAa?$AAp?$AAi?$AA?9?$AAm?$AAs?$AA?9?$AAw?$AAi?$AAn?$AA?9?$AAc?$AAo?$AAr?$AAe?$AA?9?$AAl?$AAo?$AAc?$AAa?$AAl?$AAi?$AAz?$AAa?$AAt?$AAi?$AAo?$AAn?$AA?9?$AAl?$AA1?$AA?9@ 00531070     libucrtd:winapi_thunks.obj
 0002:000260c8       ??_C@_1FK@FPHCKFIE@?$AAa?$AAp?$AAi?$AA?9?$AAm?$AAs?$AA?9?$AAw?$AAi?$AAn?$AA?9?$AAc?$AAo?$AAr?$AAe?$AA?9?$AAl?$AAo?$AAc?$AAa?$AAl?$AAi?$AAz?$AAa?$AAt?$AAi?$AAo?$AAn?$AA?9?$AAo?$AAb?$AAs@ 005310c8     libucrtd:winapi_thunks.obj
 0002:00026138       ??_C@_1EM@DILCGIIO@?$AAa?$AAp?$AAi?$AA?9?$AAm?$AAs?$AA?9?$AAw?$AAi?$AAn?$AA?9?$AAc?$AAo?$AAr?$AAe?$AA?9?$AAp?$AAr?$AAo?$AAc?$AAe?$AAs?$AAs?$AAt?$AAh?$AAr?$AAe?$AAa?$AAd?$AAs?$AA?9?$AAl@ 00531138     libucrtd:winapi_thunks.obj
 0002:00026194       ??_C@_1DM@LNCGDDPN@?$AAa?$AAp?$AAi?$AA?9?$AAm?$AAs?$AA?9?$AAw?$AAi?$AAn?$AA?9?$AAc?$AAo?$AAr?$AAe?$AA?9?$AAs?$AAt?$AAr?$AAi?$AAn?$AAg?$AA?9?$AAl?$AA1?$AA?9?$AA1?$AA?9?$AA0?$AA?$AA@ 00531194     libucrtd:winapi_thunks.obj
 0002:000261dc       ??_C@_1DO@FPAPJEMD@?$AAa?$AAp?$AAi?$AA?9?$AAm?$AAs?$AA?9?$AAw?$AAi?$AAn?$AA?9?$AAc?$AAo?$AAr?$AAe?$AA?9?$AAs?$AAy?$AAs?$AAi?$AAn?$AAf?$AAo?$AA?9?$AAl?$AA1?$AA?9?$AA2?$AA?9?$AA1?$AA?$AA@ 005311dc     libucrtd:winapi_thunks.obj
 0002:00026228       ??_C@_1DK@NDHNAHIO@?$AAa?$AAp?$AAi?$AA?9?$AAm?$AAs?$AA?9?$AAw?$AAi?$AAn?$AA?9?$AAc?$AAo?$AAr?$AAe?$AA?9?$AAw?$AAi?$AAn?$AAr?$AAt?$AA?9?$AAl?$AA1?$AA?9?$AA1?$AA?9?$AA0?$AA?$AA@ 00531228     libucrtd:winapi_thunks.obj
 0002:00026270       ??_C@_1DM@KGHDGBCM@?$AAa?$AAp?$AAi?$AA?9?$AAm?$AAs?$AA?9?$AAw?$AAi?$AAn?$AA?9?$AAc?$AAo?$AAr?$AAe?$AA?9?$AAx?$AAs?$AAt?$AAa?$AAt?$AAe?$AA?9?$AAl?$AA2?$AA?9?$AA1?$AA?9?$AA0?$AA?$AA@ 00531270     libucrtd:winapi_thunks.obj
 0002:000262b8       ??_C@_1EO@IJIOEFOH@?$AAa?$AAp?$AAi?$AA?9?$AAm?$AAs?$AA?9?$AAw?$AAi?$AAn?$AA?9?$AAr?$AAt?$AAc?$AAo?$AAr?$AAe?$AA?9?$AAn?$AAt?$AAu?$AAs?$AAe?$AAr?$AA?9?$AAw?$AAi?$AAn?$AAd?$AAo?$AAw?$AA?9@ 005312b8     libucrtd:winapi_thunks.obj
 0002:00026318       ??_C@_1FG@HHGEKANL@?$AAa?$AAp?$AAi?$AA?9?$AAm?$AAs?$AA?9?$AAw?$AAi?$AAn?$AA?9?$AAs?$AAe?$AAc?$AAu?$AAr?$AAi?$AAt?$AAy?$AA?9?$AAs?$AAy?$AAs?$AAt?$AAe?$AAm?$AAf?$AAu?$AAn?$AAc?$AAt?$AAi@ 00531318     libucrtd:winapi_thunks.obj
 0002:00026380       ??_C@_1FG@NCKKOLKO@?$AAe?$AAx?$AAt?$AA?9?$AAm?$AAs?$AA?9?$AAw?$AAi?$AAn?$AA?9?$AAk?$AAe?$AAr?$AAn?$AAe?$AAl?$AA3?$AA2?$AA?9?$AAp?$AAa?$AAc?$AAk?$AAa?$AAg?$AAe?$AA?9?$AAc?$AAu?$AAr?$AAr@ 00531380     libucrtd:winapi_thunks.obj
 0002:000263e8       ??_C@_1EG@DBIOJECG@?$AAe?$AAx?$AAt?$AA?9?$AAm?$AAs?$AA?9?$AAw?$AAi?$AAn?$AA?9?$AAn?$AAt?$AAu?$AAs?$AAe?$AAr?$AA?9?$AAd?$AAi?$AAa?$AAl?$AAo?$AAg?$AAb?$AAo?$AAx?$AA?9?$AAl?$AA1?$AA?9?$AA1@ 005313e8     libucrtd:winapi_thunks.obj
 0002:00026440       ??_C@_1EO@FIHMJCLF@?$AAe?$AAx?$AAt?$AA?9?$AAm?$AAs?$AA?9?$AAw?$AAi?$AAn?$AA?9?$AAn?$AAt?$AAu?$AAs?$AAe?$AAr?$AA?9?$AAw?$AAi?$AAn?$AAd?$AAo?$AAw?$AAs?$AAt?$AAa?$AAt?$AAi?$AAo?$AAn?$AA?9@ 00531440     libucrtd:winapi_thunks.obj
 0002:000264a0       ??_C@_1O@BCCLBEOE@?$AAu?$AAs?$AAe?$AAr?$AA3?$AA2?$AA?$AA@ 005314a0     libucrtd:winapi_thunks.obj
 0002:000264b0       ??_C@_1HE@OILMBOBA@?$AAm?$AAi?$AAn?$AAk?$AAe?$AAr?$AAn?$AAe?$AAl?$AA?2?$AAc?$AAr?$AAt?$AAs?$AA?2?$AAu?$AAc?$AAr?$AAt?$AA?2?$AAs?$AAr?$AAc?$AA?2?$AAa?$AAp?$AAp?$AAc?$AAr?$AAt?$AA?2?$AAi@ 005314b0     libucrtd:winapi_thunks.obj
 0002:00026540       ??_C@_0BA@FHFNEAED@AreFileApisANSI?$AA@ 00531540     libucrtd:winapi_thunks.obj
 0002:00026560       ??_C@_0BA@IHGNDAEB@CompareStringEx?$AA@ 00531560     libucrtd:winapi_thunks.obj
 0002:00026580       ??_C@_0BE@LJANKFHF@EnumSystemLocalesEx?$AA@ 00531580     libucrtd:winapi_thunks.obj
 0002:000265d4       ??_C@_0BA@HNOPNCHB@GetActiveWindow?$AA@ 005315d4     libucrtd:winapi_thunks.obj
 0002:000265f4       ??_C@_0BE@JOGNEJCI@GetCurrentPackageId?$AA@ 005315f4     libucrtd:winapi_thunks.obj
 0002:00026618       ??_C@_0BA@EPCJIIPD@GetDateFormatEx?$AA@ 00531618     libucrtd:winapi_thunks.obj
 0002:00026638       ??_C@_0BJ@DIBIJBHA@GetEnabledXStateFeatures?$AA@ 00531638     libucrtd:winapi_thunks.obj
 0002:00026664       ??_C@_0BN@NEEHBBPO@GetFileInformationByHandleEx?$AA@ 00531664     libucrtd:winapi_thunks.obj
 0002:00026694       ??_C@_0BD@HHGDFDBJ@GetLastActivePopup?$AA@ 00531694     libucrtd:winapi_thunks.obj
 0002:000266b8       ??_C@_0BA@ONOKGCMP@GetLocaleInfoEx?$AA@ 005316b8     libucrtd:winapi_thunks.obj
 0002:000266d8       ??_C@_0BI@DFKBFLJE@GetProcessWindowStation?$AA@ 005316d8     libucrtd:winapi_thunks.obj
 0002:000266f8       ??_C@_0BP@FPNJPEJC@GetSystemTimePreciseAsFileTime?$AA@ 005316f8     libucrtd:winapi_thunks.obj
 0002:0002672c       ??_C@_0BA@CIJJKCJJ@GetTimeFormatEx?$AA@ 0053172c     libucrtd:winapi_thunks.obj
 0002:0002674c       ??_C@_0BJ@PBCCBIPI@GetUserDefaultLocaleName?$AA@ 0053174c     libucrtd:winapi_thunks.obj
 0002:00026778       ??_C@_0BK@DEKFELLI@GetUserObjectInformationW?$AA@ 00531778     libucrtd:winapi_thunks.obj
 0002:000267a4       ??_C@_0BG@IKLDMBLM@GetXStateFeaturesMask?$AA@ 005317a4     libucrtd:winapi_thunks.obj
 0002:000267d8       ??_C@_0BC@CELBKLLA@IsValidLocaleName?$AA@ 005317d8     libucrtd:winapi_thunks.obj
 0002:000267fc       ??_C@_0O@KKBNKAPF@LCMapStringEx?$AA@ 005317fc     libucrtd:winapi_thunks.obj
 0002:00026818       ??_C@_0BB@CDHDDLLP@LCIDToLocaleName?$AA@ 00531818     libucrtd:winapi_thunks.obj
 0002:00026838       ??_C@_0BB@HBDEELFH@LocaleNameToLCID?$AA@ 00531838     libucrtd:winapi_thunks.obj
 0002:00026858       ??_C@_0BE@KINNKFDA@LocateXStateFeature?$AA@ 00531858     libucrtd:winapi_thunks.obj
 0002:0002687c       ??_C@_0M@CHKKJDAI@MessageBoxA?$AA@ 0053187c     libucrtd:winapi_thunks.obj
 0002:00026898       ??_C@_0M@DLDCCGNP@MessageBoxW?$AA@ 00531898     libucrtd:winapi_thunks.obj
 0002:000268ac       ??_C@_0N@PPOMPGGK@RoInitialize?$AA@ 005318ac     libucrtd:winapi_thunks.obj
 0002:000268c0       ??_C@_0P@LLFHBIJD@RoUninitialize?$AA@ 005318c0     libucrtd:winapi_thunks.obj
 0002:000268e0       ??_C@_0BI@BKLFFAPO@SetThreadStackGuarantee?$AA@ 005318e0     libucrtd:winapi_thunks.obj
 0002:00026908       ??_C@_0BC@JEAENNKH@SystemFunction036?$AA@ 00531908     libucrtd:winapi_thunks.obj
 0002:00026920       ??_C@_1DC@JKJAOJNC@?$AAc?$AAa?$AAc?$AAh?$AAe?$AAd?$AA_?$AAs?$AAt?$AAa?$AAt?$AAe?$AA?5?$AA?$DN?$AA?$DN?$AA?5?$AAp?$AAa?$AAc?$AAk?$AAa?$AAg?$AAe?$AAd?$AA?$AA@ 00531920     libucrtd:winapi_thunks.obj
 0002:0002695c       ??_C@_1DK@JOPMHFDB@?$AAc?$AAa?$AAc?$AAh?$AAe?$AAd?$AA_?$AAs?$AAt?$AAa?$AAt?$AAe?$AA?5?$AA?$DN?$AA?$DN?$AA?5?$AAn?$AAo?$AAt?$AA_?$AAp?$AAa?$AAc?$AAk?$AAa?$AAg?$AAe?$AAd?$AA?$AA@ 0053195c     libucrtd:winapi_thunks.obj
 0002:000269a8       ??_C@_1GE@GPOPIOIG@?$AAm?$AAi?$AAn?$AAk?$AAe?$AAr?$AAn?$AAe?$AAl?$AA?2?$AAc?$AAr?$AAt?$AAs?$AA?2?$AAu?$AAc?$AAr?$AAt?$AA?2?$AAs?$AAr?$AAc?$AA?2?$AAa?$AAp?$AAp?$AAc?$AAr?$AAt?$AA?2?$AAs@ 005319a8     libucrtd:_freebuf.obj
 0002:00026a20       ??_C@_1GA@MGFNAPEH@?$AAm?$AAi?$AAn?$AAk?$AAe?$AAr?$AAn?$AAe?$AAl?$AA?2?$AAc?$AAr?$AAt?$AAs?$AA?2?$AAu?$AAc?$AAr?$AAt?$AA?2?$AAs?$AAr?$AAc?$AA?2?$AAa?$AAp?$AAp?$AAc?$AAr?$AAt?$AA?2?$AAs@ 00531a20     libucrtd:fgetwc.obj
 0002:00026a94       ??_C@_1O@CGPBPCOK@?$AAf?$AAg?$AAe?$AAt?$AAw?$AAc?$AA?$AA@ 00531a94     libucrtd:fgetwc.obj
 0002:00026aa8       ??_C@_1GA@KCAHHNGP@?$AAm?$AAi?$AAn?$AAk?$AAe?$AAr?$AAn?$AAe?$AAl?$AA?2?$AAc?$AAr?$AAt?$AAs?$AA?2?$AAu?$AAc?$AAr?$AAt?$AA?2?$AAs?$AAr?$AAc?$AA?2?$AAa?$AAp?$AAp?$AAc?$AAr?$AAt?$AA?2?$AAs@ 00531aa8     libucrtd:fileno.obj
 0002:00026b1c       ??_C@_1BA@JGHIEKKM@?$AA_?$AAf?$AAi?$AAl?$AAe?$AAn?$AAo?$AA?$AA@ 00531b1c     libucrtd:fileno.obj
 0002:00026b30       ??_C@_1FO@HEEKIEFN@?$AAm?$AAi?$AAn?$AAk?$AAe?$AAr?$AAn?$AAe?$AAl?$AA?2?$AAc?$AAr?$AAt?$AAs?$AA?2?$AAu?$AAc?$AAr?$AAt?$AA?2?$AAs?$AAr?$AAc?$AA?2?$AAa?$AAp?$AAp?$AAc?$AAr?$AAt?$AA?2?$AAs@ 00531b30     libucrtd:fgetc.obj
 0002:00026ba0       ??_C@_1BM@ODJEACKA@?$AA_?$AAf?$AAg?$AAe?$AAt?$AAc?$AA_?$AAn?$AAo?$AAl?$AAo?$AAc?$AAk?$AA?$AA@ 00531ba0     libucrtd:fgetc.obj
 0002:00026bc4       ??_C@_1M@FBFFFGJE@?$AAf?$AAg?$AAe?$AAt?$AAc?$AA?$AA@ 00531bc4     libucrtd:fgetc.obj
 0002:00026bd8       ??_C@_1FO@FNOAOMLP@?$AAm?$AAi?$AAn?$AAk?$AAe?$AAr?$AAn?$AAe?$AAl?$AA?2?$AAc?$AAr?$AAt?$AAs?$AA?2?$AAu?$AAc?$AAr?$AAt?$AA?2?$AAs?$AAr?$AAc?$AA?2?$AAa?$AAp?$AAp?$AAc?$AAr?$AAt?$AA?2?$AAs@ 00531bd8     libucrtd:fputc.obj
 0002:00026c48       ??_C@_1M@OIJMPNCO@?$AAf?$AAp?$AAu?$AAt?$AAc?$AA?$AA@ 00531c48     libucrtd:fputc.obj
 0002:00026c58       ??_C@_1GA@JFCHAOOC@?$AAm?$AAi?$AAn?$AAk?$AAe?$AAr?$AAn?$AAe?$AAl?$AA?2?$AAc?$AAr?$AAt?$AAs?$AA?2?$AAu?$AAc?$AAr?$AAt?$AA?2?$AAs?$AAr?$AAc?$AA?2?$AAa?$AAp?$AAp?$AAc?$AAr?$AAt?$AA?2?$AAs@ 00531c58     libucrtd:fwrite.obj
 0002:00026ccc       ??_C@_1O@KLNKIMAP@?$AAf?$AAw?$AAr?$AAi?$AAt?$AAe?$AA?$AA@ 00531ccc     libucrtd:fwrite.obj
 0002:00026cdc       ??_C@_1BO@JGPKCBCE@?$AA_?$AAf?$AAw?$AAr?$AAi?$AAt?$AAe?$AA_?$AAn?$AAo?$AAl?$AAo?$AAc?$AAk?$AA?$AA@ 00531cdc     libucrtd:fwrite.obj
 0002:00026d00       ??_C@_1FG@KLKDPCLL@?$AAe?$AAl?$AAe?$AAm?$AAe?$AAn?$AAt?$AA_?$AAc?$AAo?$AAu?$AAn?$AAt?$AA?5?$AA?$DM?$AA?$DN?$AA?5?$AA?$CI?$AAS?$AAI?$AAZ?$AAE?$AA_?$AAM?$AAA?$AAX?$AA?5?$AA?1?$AA?5?$AAe?$AAl?$AAe@ 00531d00     libucrtd:fwrite.obj
 0002:00026d68       ??_C@_1LG@DCNDJCHK@?$AA?$CI?$AA?$CC?$AAI?$AAn?$AAc?$AAo?$AAn?$AAs?$AAi?$AAs?$AAt?$AAe?$AAn?$AAt?$AA?5?$AAS?$AAt?$AAr?$AAe?$AAa?$AAm?$AA?5?$AAC?$AAo?$AAu?$AAn?$AAt?$AA?4?$AA?5?$AAF?$AAl?$AAu@ 00531d68     libucrtd:fwrite.obj
 0002:00026e48       ??_C@_1GC@GBMDABED@?$AAm?$AAi?$AAn?$AAk?$AAe?$AAr?$AAn?$AAe?$AAl?$AA?2?$AAc?$AAr?$AAt?$AAs?$AA?2?$AAu?$AAc?$AAr?$AAt?$AA?2?$AAs?$AAr?$AAc?$AA?2?$AAa?$AAp?$AAp?$AAc?$AAr?$AAt?$AA?2?$AAs@ 00531e48     libucrtd:_sftbuf.obj
 0002:00026ec0       ??_C@_0DB@EPIHMFLB@minkernel?2crts?2ucrt?2src?2appcrt?2s@ 00531ec0     libucrtd:_sftbuf.obj
 0002:00026f00       ??_C@_1BBC@DECGKMGJ@?$AA_?$AAl?$AAo?$AAc?$AA_?$AAu?$AAp?$AAd?$AAa?$AAt?$AAe?$AA?4?$AAG?$AAe?$AAt?$AAL?$AAo?$AAc?$AAa?$AAl?$AAe?$AAT?$AA?$CI?$AA?$CJ?$AA?9?$AA?$DO?$AAl?$AAo?$AAc?$AAi?$AAn?$AAf@ 00531f00     libucrtd:mbtowc.obj
 0002:00027048       ??_C@_1GE@CGIHMDEJ@?$AAm?$AAi?$AAn?$AAk?$AAe?$AAr?$AAn?$AAe?$AAl?$AA?2?$AAc?$AAr?$AAt?$AAs?$AA?2?$AAu?$AAc?$AAr?$AAt?$AA?2?$AAs?$AAr?$AAc?$AA?2?$AAa?$AAp?$AAp?$AAc?$AAr?$AAt?$AA?2?$AAc@ 00532048     libucrtd:mbtowc.obj
 0002:000270c0       ??_C@_1DK@NBNOAGKB@?$AAd?$AAe?$AAs?$AAt?$AAi?$AAn?$AAa?$AAt?$AAi?$AAo?$AAn?$AA_?$AAc?$AAo?$AAu?$AAn?$AAt?$AA?5?$AA?$DM?$AA?$DN?$AA?5?$AAI?$AAN?$AAT?$AA_?$AAM?$AAA?$AAX?$AA?$AA@ 005320c0     libucrtd:wctomb.obj
 0002:00027108       ??_C@_1GE@FCCEPHFG@?$AAm?$AAi?$AAn?$AAk?$AAe?$AAr?$AAn?$AAe?$AAl?$AA?2?$AAc?$AAr?$AAt?$AAs?$AA?2?$AAu?$AAc?$AAr?$AAt?$AA?2?$AAs?$AAr?$AAc?$AA?2?$AAa?$AAp?$AAp?$AAc?$AAr?$AAt?$AA?2?$AAc@ 00532108     libucrtd:wctomb.obj
 0002:00027180       ??_C@_1BI@IEADNOHF@?$AA_?$AAw?$AAc?$AAt?$AAo?$AAm?$AAb?$AA_?$AAs?$AA_?$AAl?$AA?$AA@ 00532180     libucrtd:wctomb.obj
 0002:0002719c       ??_C@_1CM@ENFEGCNE@?$AAd?$AAe?$AAs?$AAt?$AAi?$AAn?$AAa?$AAt?$AAi?$AAo?$AAn?$AA_?$AAc?$AAo?$AAu?$AAn?$AAt?$AA?5?$AA?$DO?$AA?5?$AA0?$AA?$AA@ 0053219c     libucrtd:wctomb.obj
 0002:000271d0       ??_C@_0DM@DKIFNNOL@minkernel?2crts?2ucrt?2src?2appcrt?2i@ 005321d0     libucrtd:per_thread_data.obj
 0002:00027218       ??_C@_03OEIAHPBN@INF?$AA@  00532218     libucrtd:cvt.obj
 0002:0002721c       ??_C@_03OJHLLCGB@inf?$AA@  0053221c     libucrtd:cvt.obj
 0002:00027220       ??_C@_03LKNCIKJB@NAN?$AA@  00532220     libucrtd:cvt.obj
 0002:00027224       ??_C@_03LHCJEHON@nan?$AA@  00532224     libucrtd:cvt.obj
 0002:00027228       ??_C@_09OFJJIMPC@NAN?$CISNAN?$CJ?$AA@ 00532228     libucrtd:cvt.obj
 0002:00027234       ??_C@_09IPFBKMDL@nan?$CIsnan?$CJ?$AA@ 00532234     libucrtd:cvt.obj
 0002:00027240       ??_C@_08IKHNHAJ@NAN?$CIIND?$CJ?$AA@ 00532240     libucrtd:cvt.obj
 0002:0002724c       ??_C@_08OFCDMILK@nan?$CIind?$CJ?$AA@ 0053224c     libucrtd:cvt.obj
 0002:00027258       ??_C@_1FO@GKAKAPLI@?$AAm?$AAi?$AAn?$AAk?$AAe?$AAr?$AAn?$AAe?$AAl?$AA?2?$AAc?$AAr?$AAt?$AAs?$AA?2?$AAu?$AAc?$AAr?$AAt?$AA?2?$AAs?$AAr?$AAc?$AA?2?$AAa?$AAp?$AAp?$AAc?$AAr?$AAt?$AA?2?$AAc@ 00532258     libucrtd:cvt.obj
 0002:000272c8       ??_C@_1DE@EHGIGIDK@?$AAf?$AAp?$AA_?$AAf?$AAo?$AAr?$AAm?$AAa?$AAt?$AA_?$AAn?$AAa?$AAn?$AA_?$AAo?$AAr?$AA_?$AAi?$AAn?$AAf?$AAi?$AAn?$AAi?$AAt?$AAy?$AA?$AA@ 005322c8     libucrtd:cvt.obj
 0002:00027308       ??_C@_1LI@PCMLJPCO@?$AAs?$AAt?$AAr?$AAc?$AAp?$AAy?$AA_?$AAs?$AA?$CI?$AA?5?$AAr?$AAe?$AAs?$AAu?$AAl?$AAt?$AA_?$AAb?$AAu?$AAf?$AAf?$AAe?$AAr?$AA?0?$AA?5?$AAr?$AAe?$AAs?$AAu?$AAl?$AAt?$AA_@ 00532308     libucrtd:cvt.obj
 0002:000273e8       ??_C@_1KO@LJHOFBCD@?$AAr?$AAe?$AAs?$AAu?$AAl?$AAt?$AA_?$AAb?$AAu?$AAf?$AAf?$AAe?$AAr?$AA_?$AAc?$AAo?$AAu?$AAn?$AAt?$AA?5?$AA?$DO?$AA?5?$AAs?$AAt?$AAa?$AAt?$AAi?$AAc?$AA_?$AAc?$AAa?$AAs@ 005323e8     libucrtd:cvt.obj
 0002:000274b8       ??_C@_1CK@BOLHOMFO@?$AAf?$AAp?$AA_?$AAf?$AAo?$AAr?$AAm?$AAa?$AAt?$AA_?$AAe?$AA_?$AAi?$AAn?$AAt?$AAe?$AAr?$AAn?$AAa?$AAl?$AA?$AA@ 005324b8     libucrtd:cvt.obj
 0002:000274f0       ??_C@_1BBA@FHDJNBGM@?$AAs?$AAt?$AAr?$AAc?$AAp?$AAy?$AA_?$AAs?$AA?$CI?$AA?5?$AAp?$AA?0?$AA?5?$AAr?$AAe?$AAs?$AAu?$AAl?$AAt?$AA_?$AAb?$AAu?$AAf?$AAf?$AAe?$AAr?$AA_?$AAc?$AAo?$AAu?$AAn?$AAt@ 005324f0     libucrtd:cvt.obj
 0002:00027638       ??_C@_05KLBDPFGC@e?$CL000?$AA@ 00532638     libucrtd:cvt.obj
 0002:00027640       ??_C@_1IC@FILKPBAB@?$AAr?$AAe?$AAs?$AAu?$AAl?$AAt?$AA_?$AAb?$AAu?$AAf?$AAf?$AAe?$AAr?$AA_?$AAc?$AAo?$AAu?$AAn?$AAt?$AA?5?$AA?$DO?$AA?5?$AAs?$AAt?$AAa?$AAt?$AAi?$AAc?$AA_?$AAc?$AAa?$AAs@ 00532640     libucrtd:cvt.obj
 0002:000276dc       ??_C@_1BI@PNBDLNBB@?$AAf?$AAp?$AA_?$AAf?$AAo?$AAr?$AAm?$AAa?$AAt?$AA_?$AAa?$AA?$AA@ 005326dc     libucrtd:cvt.obj
 0002:000276f8       ??_C@_1DC@MGKAFPFD@?$AAr?$AAe?$AAs?$AAu?$AAl?$AAt?$AA_?$AAb?$AAu?$AAf?$AAf?$AAe?$AAr?$AA?5?$AA?$CB?$AA?$DN?$AA?5?$AAn?$AAu?$AAl?$AAl?$AAp?$AAt?$AAr?$AA?$AA@ 005326f8     libucrtd:cvt.obj
 0002:00027734       ??_C@_1CC@LDAHJAKK@?$AA_?$AA_?$AAa?$AAc?$AAr?$AAt?$AA_?$AAf?$AAp?$AA_?$AAf?$AAo?$AAr?$AAm?$AAa?$AAt?$AA?$AA@ 00532734     libucrtd:cvt.obj
 0002:0002775c       ??_C@_1DA@NMLJJOCO@?$AAr?$AAe?$AAs?$AAu?$AAl?$AAt?$AA_?$AAb?$AAu?$AAf?$AAf?$AAe?$AAr?$AA_?$AAc?$AAo?$AAu?$AAn?$AAt?$AA?5?$AA?$DO?$AA?5?$AA0?$AA?$AA@ 0053275c     libucrtd:cvt.obj
 0002:00027798       ??_C@_1DE@MNOPBCOK@?$AAs?$AAc?$AAr?$AAa?$AAt?$AAc?$AAh?$AA_?$AAb?$AAu?$AAf?$AAf?$AAe?$AAr?$AA?5?$AA?$CB?$AA?$DN?$AA?5?$AAn?$AAu?$AAl?$AAl?$AAp?$AAt?$AAr?$AA?$AA@ 00532798     libucrtd:cvt.obj
 0002:000277d8       ??_C@_1DC@CKBKNFKH@?$AAs?$AAc?$AAr?$AAa?$AAt?$AAc?$AAh?$AA_?$AAb?$AAu?$AAf?$AAf?$AAe?$AAr?$AA_?$AAc?$AAo?$AAu?$AAn?$AAt?$AA?5?$AA?$DO?$AA?5?$AA0?$AA?$AA@ 005327d8     libucrtd:cvt.obj
 0002:00027818       ??_C@_1EI@JAHBOGIM@?$AA?$CI?$AA?$CC?$AAU?$AAn?$AAs?$AAu?$AAp?$AAp?$AAo?$AAr?$AAt?$AAe?$AAd?$AA?5?$AAf?$AAo?$AAr?$AAm?$AAa?$AAt?$AA?5?$AAs?$AAp?$AAe?$AAc?$AAi?$AAf?$AAi?$AAe?$AAr?$AA?$CC?$AA?0@ 00532818     libucrtd:cvt.obj
 0002:00027870       ??_C@_1GA@OJHMFOOJ@?$AAm?$AAi?$AAn?$AAk?$AAe?$AAr?$AAn?$AAe?$AAl?$AA?2?$AAc?$AAr?$AAt?$AAs?$AA?2?$AAu?$AAc?$AAr?$AAt?$AA?2?$AAs?$AAr?$AAc?$AA?2?$AAa?$AAp?$AAp?$AAc?$AAr?$AAt?$AA?2?$AAs@ 00532870     libucrtd:fputwc.obj
 0002:000278e4       ??_C@_1O@HJNPHHHB@?$AAf?$AAp?$AAu?$AAt?$AAw?$AAc?$AA?$AA@ 005328e4     libucrtd:fputwc.obj
 0002:000278f4       ??_C@_03KOEHGMDN@Sun?$AA@  005328f4     libucrtd:nlsdata.obj
 0002:000278f8       ??_C@_03PDAGKDH@Mon?$AA@   005328f8     libucrtd:nlsdata.obj
 0002:000278fc       ??_C@_03NAGEINEP@Tue?$AA@  005328fc     libucrtd:nlsdata.obj
 0002:00027900       ??_C@_03MHOMLAJA@Wed?$AA@  00532900     libucrtd:nlsdata.obj
 0002:00027904       ??_C@_03IOFIKPDN@Thu?$AA@  00532904     libucrtd:nlsdata.obj
 0002:00027908       ??_C@_03IDIOELNC@Fri?$AA@  00532908     libucrtd:nlsdata.obj
 0002:0002790c       ??_C@_03FEFJNEK@Sat?$AA@   0053290c     libucrtd:nlsdata.obj
 0002:00027910       ??_C@_06OOPIFAJ@Sunday?$AA@ 00532910     libucrtd:nlsdata.obj
 0002:00027918       ??_C@_06JLEDEDGH@Monday?$AA@ 00532918     libucrtd:nlsdata.obj
 0002:00027920       ??_C@_07BAAGCFCM@Tuesday?$AA@ 00532920     libucrtd:nlsdata.obj
 0002:0002792c       ??_C@_09DLIGFAKA@Wednesday?$AA@ 0053292c     libucrtd:nlsdata.obj
 0002:00027938       ??_C@_08HACCIKIA@Thursday?$AA@ 00532938     libucrtd:nlsdata.obj
 0002:00027944       ??_C@_06JECMNKMI@Friday?$AA@ 00532944     libucrtd:nlsdata.obj
 0002:0002794c       ??_C@_08INBOOONO@Saturday?$AA@ 0053294c     libucrtd:nlsdata.obj
 0002:00027958       ??_C@_03JIHJHPIE@Jan?$AA@  00532958     libucrtd:nlsdata.obj
 0002:0002795c       ??_C@_03HJBDCHOM@Feb?$AA@  0053295c     libucrtd:nlsdata.obj
 0002:00027960       ??_C@_03ODNJBKGA@Mar?$AA@  00532960     libucrtd:nlsdata.obj
 0002:00027964       ??_C@_03LEOLGMJP@Apr?$AA@  00532964     libucrtd:nlsdata.obj
 0002:00027968       ??_C@_03CNMDKL@May?$AA@    00532968     libucrtd:nlsdata.obj
 0002:0002796c       ??_C@_03IDFGHECI@Jun?$AA@  0053296c     libucrtd:nlsdata.obj
 0002:00027970       ??_C@_03LBGABGKK@Jul?$AA@  00532970     libucrtd:nlsdata.obj
 0002:00027974       ??_C@_03IFJFEIGA@Aug?$AA@  00532974     libucrtd:nlsdata.obj
 0002:00027978       ??_C@_03GGCAPAJC@Sep?$AA@  00532978     libucrtd:nlsdata.obj
 0002:0002797c       ??_C@_03BMAOKBAD@Oct?$AA@  0053297c     libucrtd:nlsdata.obj
 0002:00027980       ??_C@_03JPJOFNIA@Nov?$AA@  00532980     libucrtd:nlsdata.obj
 0002:00027984       ??_C@_03MKABNOCG@Dec?$AA@  00532984     libucrtd:nlsdata.obj
 0002:00027988       ??_C@_07CGJPFGJA@January?$AA@ 00532988     libucrtd:nlsdata.obj
 0002:00027994       ??_C@_08GNJGEPFN@February?$AA@ 00532994     libucrtd:nlsdata.obj
 0002:000279a0       ??_C@_05HPCKOFNC@March?$AA@ 005329a0     libucrtd:nlsdata.obj
 0002:000279a8       ??_C@_05DMJDNLEJ@April?$AA@ 005329a8     libucrtd:nlsdata.obj
 0002:000279b0       ??_C@_04CNLMGBGM@June?$AA@ 005329b0     libucrtd:nlsdata.obj
 0002:000279b8       ??_C@_04MIEPOIFP@July?$AA@ 005329b8     libucrtd:nlsdata.obj
 0002:000279c0       ??_C@_06LBBHFDDG@August?$AA@ 005329c0     libucrtd:nlsdata.obj
 0002:000279c8       ??_C@_09BHHEALKD@September?$AA@ 005329c8     libucrtd:nlsdata.obj
 0002:000279d4       ??_C@_07JJNFCEND@October?$AA@ 005329d4     libucrtd:nlsdata.obj
 0002:000279e0       ??_C@_08HCHEGEOA@November?$AA@ 005329e0     libucrtd:nlsdata.obj
 0002:000279ec       ??_C@_08EDHMEBNP@December?$AA@ 005329ec     libucrtd:nlsdata.obj
 0002:000279f8       ??_C@_02DEDBPAFC@AM?$AA@   005329f8     libucrtd:nlsdata.obj
 0002:000279fc       ??_C@_02CJNFDJBF@PM?$AA@   005329fc     libucrtd:nlsdata.obj
 0002:00027a00       ??_C@_08BPBNCDIB@MM?1dd?1yy?$AA@ 00532a00     libucrtd:nlsdata.obj
 0002:00027a0c       ??_C@_0BE@CKGJFCPC@dddd?0?5MMMM?5dd?0?5yyyy?$AA@ 00532a0c     libucrtd:nlsdata.obj
 0002:00027a24       ??_C@_08JCCMCCIL@HH?3mm?3ss?$AA@ 00532a24     libucrtd:nlsdata.obj
 0002:00027a30       ??_C@_17MBGCMIPB@?$AAS?$AAu?$AAn?$AA?$AA@ 00532a30     libucrtd:nlsdata.obj
 0002:00027a3c       ??_C@_17KBOMKBF@?$AAM?$AAo?$AAn?$AA?$AA@ 00532a3c     libucrtd:nlsdata.obj
 0002:00027a48       ??_C@_17BMKGEGOJ@?$AAT?$AAu?$AAe?$AA?$AA@ 00532a48     libucrtd:nlsdata.obj
 0002:00027a54       ??_C@_17CJEDCEPE@?$AAW?$AAe?$AAd?$AA?$AA@ 00532a54     libucrtd:nlsdata.obj
 0002:00027a60       ??_C@_17PDPHAADD@?$AAT?$AAh?$AAu?$AA?$AA@ 00532a60     libucrtd:nlsdata.obj
 0002:00027a6c       ??_C@_17HFOLPPLP@?$AAF?$AAr?$AAi?$AA?$AA@ 00532a6c     libucrtd:nlsdata.obj
 0002:00027a78       ??_C@_17GGIBDPIH@?$AAS?$AAa?$AAt?$AA?$AA@ 00532a78     libucrtd:nlsdata.obj
 0002:00027a84       ??_C@_1O@IHNHDHPB@?$AAS?$AAu?$AAn?$AAd?$AAa?$AAy?$AA?$AA@ 00532a84     libucrtd:nlsdata.obj
 0002:00027a94       ??_C@_1O@MMNBFLIA@?$AAM?$AAo?$AAn?$AAd?$AAa?$AAy?$AA?$AA@ 00532a94     libucrtd:nlsdata.obj
 0002:00027aa4       ??_C@_1BA@ENFBFFEK@?$AAT?$AAu?$AAe?$AAs?$AAd?$AAa?$AAy?$AA?$AA@ 00532aa4     libucrtd:nlsdata.obj
 0002:00027ab8       ??_C@_1BE@EBOGMDOH@?$AAW?$AAe?$AAd?$AAn?$AAe?$AAs?$AAd?$AAa?$AAy?$AA?$AA@ 00532ab8     libucrtd:nlsdata.obj
 0002:00027ad0       ??_C@_1BC@HHMNLIHE@?$AAT?$AAh?$AAu?$AAr?$AAs?$AAd?$AAa?$AAy?$AA?$AA@ 00532ad0     libucrtd:nlsdata.obj
 0002:00027ae8       ??_C@_1O@PDICJHAG@?$AAF?$AAr?$AAi?$AAd?$AAa?$AAy?$AA?$AA@ 00532ae8     libucrtd:nlsdata.obj
 0002:00027af8       ??_C@_1BC@ENMNNPAJ@?$AAS?$AAa?$AAt?$AAu?$AAr?$AAd?$AAa?$AAy?$AA?$AA@ 00532af8     libucrtd:nlsdata.obj
 0002:00027b10       ??_C@_17DKNBKCHM@?$AAJ?$AAa?$AAn?$AA?$AA@ 00532b10     libucrtd:nlsdata.obj
 0002:00027b1c       ??_C@_17LMDJEKJN@?$AAF?$AAe?$AAb?$AA?$AA@ 00532b1c     libucrtd:nlsdata.obj
 0002:00027b28       ??_C@_17CKNLEDEC@?$AAM?$AAa?$AAr?$AA?$AA@ 00532b28     libucrtd:nlsdata.obj
 0002:00027b34       ??_C@_17LFPOIHDD@?$AAA?$AAp?$AAr?$AA?$AA@ 00532b34     libucrtd:nlsdata.obj
 0002:00027b40       ??_C@_17PNNKMEED@?$AAM?$AAa?$AAy?$AA?$AA@ 00532b40     libucrtd:nlsdata.obj
 0002:00027b4c       ??_C@_17KCJGOCPB@?$AAJ?$AAu?$AAn?$AA?$AA@ 00532b4c     libucrtd:nlsdata.obj
 0002:00027b58       ??_C@_17IJPCKHK@?$AAJ?$AAu?$AAl?$AA?$AA@ 00532b58     libucrtd:nlsdata.obj
 0002:00027b64       ??_C@_17ICPELBCN@?$AAA?$AAu?$AAg?$AA?$AA@ 00532b64     libucrtd:nlsdata.obj
 0002:00027b70       ??_C@_17HCHCOKMG@?$AAS?$AAe?$AAp?$AA?$AA@ 00532b70     libucrtd:nlsdata.obj
 0002:00027b7c       ??_C@_17FNLKOI@?$AAO?$AAc?$AAt?$AA?$AA@ 00532b7c     libucrtd:nlsdata.obj
 0002:00027b88       ??_C@_17BBDMLCIG@?$AAN?$AAo?$AAv?$AA?$AA@ 00532b88     libucrtd:nlsdata.obj
 0002:00027b94       ??_C@_17EGKACKIF@?$AAD?$AAe?$AAc?$AA?$AA@ 00532b94     libucrtd:nlsdata.obj
 0002:00027ba0       ??_C@_1BA@EFMEIEBA@?$AAJ?$AAa?$AAn?$AAu?$AAa?$AAr?$AAy?$AA?$AA@ 00532ba0     libucrtd:nlsdata.obj
 0002:00027bb4       ??_C@_1BC@JGDDFFAM@?$AAF?$AAe?$AAb?$AAr?$AAu?$AAa?$AAr?$AAy?$AA?$AA@ 00532bb4     libucrtd:nlsdata.obj
 0002:00027bcc       ??_C@_1M@IKEENEDF@?$AAM?$AAa?$AAr?$AAc?$AAh?$AA?$AA@ 00532bcc     libucrtd:nlsdata.obj
 0002:00027bdc       ??_C@_1M@GJNLMHFD@?$AAA?$AAp?$AAr?$AAi?$AAl?$AA?$AA@ 00532bdc     libucrtd:nlsdata.obj
 0002:00027bec       ??_C@_19EPFLPGAP@?$AAJ?$AAu?$AAn?$AAe?$AA?$AA@ 00532bec     libucrtd:nlsdata.obj
 0002:00027bf8       ??_C@_19BIFMLPCD@?$AAJ?$AAu?$AAl?$AAy?$AA?$AA@ 00532bf8     libucrtd:nlsdata.obj
 0002:00027c04       ??_C@_1O@PAHLKOAC@?$AAA?$AAu?$AAg?$AAu?$AAs?$AAt?$AA?$AA@ 00532c04     libucrtd:nlsdata.obj
 0002:00027c14       ??_C@_1BE@DKAAMBJL@?$AAS?$AAe?$AAp?$AAt?$AAe?$AAm?$AAb?$AAe?$AAr?$AA?$AA@ 00532c14     libucrtd:nlsdata.obj
 0002:00027c2c       ??_C@_1BA@EPANDLNG@?$AAO?$AAc?$AAt?$AAo?$AAb?$AAe?$AAr?$AA?$AA@ 00532c2c     libucrtd:nlsdata.obj
 0002:00027c40       ??_C@_1BC@BGLIFPF@?$AAN?$AAo?$AAv?$AAe?$AAm?$AAb?$AAe?$AAr?$AA?$AA@ 00532c40     libucrtd:nlsdata.obj
 0002:00027c58       ??_C@_1BC@FEMKIFH@?$AAD?$AAe?$AAc?$AAe?$AAm?$AAb?$AAe?$AAr?$AA?$AA@ 00532c58     libucrtd:nlsdata.obj
 0002:00027c70       ??_C@_15ODEHAHHF@?$AAA?$AAM?$AA?$AA@ 00532c70     libucrtd:nlsdata.obj
 0002:00027c78       ??_C@_15CLMNNGEL@?$AAP?$AAM?$AA?$AA@ 00532c78     libucrtd:nlsdata.obj
 0002:00027c80       ??_C@_1BC@IEBCMHCM@?$AAM?$AAM?$AA?1?$AAd?$AAd?$AA?1?$AAy?$AAy?$AA?$AA@ 00532c80     libucrtd:nlsdata.obj
 0002:00027c98       ??_C@_1CI@KNAKOEBC@?$AAd?$AAd?$AAd?$AAd?$AA?0?$AA?5?$AAM?$AAM?$AAM?$AAM?$AA?5?$AAd?$AAd?$AA?0?$AA?5?$AAy?$AAy?$AAy?$AAy?$AA?$AA@ 00532c98     libucrtd:nlsdata.obj
 0002:00027cc8       ??_C@_1BC@GDGBMEMK@?$AAH?$AAH?$AA?3?$AAm?$AAm?$AA?3?$AAs?$AAs?$AA?$AA@ 00532cc8     libucrtd:nlsdata.obj
 0002:00027ce0       ??_C@_1M@BMHNFIME@?$AAe?$AAn?$AA?9?$AAU?$AAS?$AA?$AA@ 00532ce0     libucrtd:nlsdata.obj
 0002:00027cf0       ___lc_time_c               00532cf0     libucrtd:nlsdata.obj
 0002:00027e9c       ??_C@_1CI@JELMFMDH@?$AAc?$AA?5?$AA?$DO?$AA?$DN?$AA?5?$AA?9?$AA1?$AA?5?$AA?$CG?$AA?$CG?$AA?5?$AAc?$AA?5?$AA?$DM?$AA?$DN?$AA?5?$AA2?$AA5?$AA5?$AA?$AA@ 00532e9c     libucrtd:isctype.obj
 0002:00027ed0       ??_C@_1GG@KPBGDFHJ@?$AAm?$AAi?$AAn?$AAk?$AAe?$AAr?$AAn?$AAe?$AAl?$AA?2?$AAc?$AAr?$AAt?$AAs?$AA?2?$AAu?$AAc?$AAr?$AAt?$AA?2?$AAs?$AAr?$AAc?$AA?2?$AAa?$AAp?$AAp?$AAc?$AAr?$AAt?$AA?2?$AAc@ 00532ed0     libucrtd:isctype.obj
 0002:00027f50       ??_C@_1GA@HBEFGMHK@?$AAm?$AAi?$AAn?$AAk?$AAe?$AAr?$AAn?$AAe?$AAl?$AA?2?$AAc?$AAr?$AAt?$AAs?$AA?2?$AAu?$AAc?$AAr?$AAt?$AA?2?$AAs?$AAr?$AAc?$AA?2?$AAa?$AAp?$AAp?$AAc?$AAr?$AAt?$AA?2?$AAc@ 00532f50     libucrtd:xtoa.obj
 0002:00027fc4       ??_C@_1BM@HMPEMLNP@?$AAc?$AAo?$AAm?$AAm?$AAo?$AAn?$AA_?$AAx?$AAt?$AAo?$AAx?$AA_?$AAs?$AA?$AA@ 00532fc4     libucrtd:xtoa.obj
 0002:00027fe8       ??_C@_1CC@ONIJBMJF@?$AAb?$AAu?$AAf?$AAf?$AAe?$AAr?$AA_?$AAc?$AAo?$AAu?$AAn?$AAt?$AA?5?$AA?$DO?$AA?5?$AA0?$AA?$AA@ 00532fe8     libucrtd:xtoa.obj
 0002:00028010       ??_C@_1HA@JFIOFNKD@?$AAb?$AAu?$AAf?$AAf?$AAe?$AAr?$AA_?$AAc?$AAo?$AAu?$AAn?$AAt?$AA?5?$AA?$DO?$AA?5?$AAs?$AAt?$AAa?$AAt?$AAi?$AAc?$AA_?$AAc?$AAa?$AAs?$AAt?$AA?$DM?$AAs?$AAi?$AAz?$AAe?$AA_@ 00533010     libucrtd:xtoa.obj
 0002:00028098       ??_C@_1DE@PCJGDBBD@?$AA2?$AA?5?$AA?$DM?$AA?$DN?$AA?5?$AAr?$AAa?$AAd?$AAi?$AAx?$AA?5?$AA?$CG?$AA?$CG?$AA?5?$AAr?$AAa?$AAd?$AAi?$AAx?$AA?5?$AA?$DM?$AA?$DN?$AA?5?$AA3?$AA6?$AA?$AA@ 00533098     libucrtd:xtoa.obj
 0002:000280d8       ??_C@_1CM@LONILNIJ@?$AAl?$AAe?$AAn?$AAg?$AAt?$AAh?$AA?5?$AA?$DM?$AA?5?$AAb?$AAu?$AAf?$AAf?$AAe?$AAr?$AA_?$AAc?$AAo?$AAu?$AAn?$AAt?$AA?$AA@ 005330d8     libucrtd:xtoa.obj
 0002:0002810c       ??_C@_1BI@OLPLFKOE@?$AAc?$AAo?$AAm?$AAm?$AAo?$AAn?$AA_?$AAx?$AAt?$AAo?$AAx?$AA?$AA@ 0053310c     libucrtd:xtoa.obj
 0002:00028128       ??_C@_1DE@BCNCAIK@?$AA?$CI?$AA?$CC?$AAI?$AAn?$AAv?$AAa?$AAl?$AAi?$AAd?$AA?5?$AAe?$AAr?$AAr?$AAo?$AAr?$AA_?$AAm?$AAo?$AAd?$AAe?$AA?$CC?$AA?0?$AA?5?$AA0?$AA?$CJ?$AA?$AA@ 00533128     libucrtd:set_error_mode.obj
 0002:00028168       ??_C@_1GO@EBFPMMIJ@?$AAm?$AAi?$AAn?$AAk?$AAe?$AAr?$AAn?$AAe?$AAl?$AA?2?$AAc?$AAr?$AAt?$AAs?$AA?2?$AAu?$AAc?$AAr?$AAt?$AA?2?$AAs?$AAr?$AAc?$AA?2?$AAa?$AAp?$AAp?$AAc?$AAr?$AAt?$AA?2?$AAm@ 00533168     libucrtd:set_error_mode.obj
 0002:000281ec       ??_C@_1CA@LFDHAMEM@?$AA_?$AAs?$AAe?$AAt?$AA_?$AAe?$AAr?$AAr?$AAo?$AAr?$AA_?$AAm?$AAo?$AAd?$AAe?$AA?$AA@ 005331ec     libucrtd:set_error_mode.obj
 0002:00028214       ??_C@_1CA@EOJJMFA@?$AAc?$AAo?$AAm?$AAm?$AAo?$AAn?$AA_?$AAt?$AAc?$AAs?$AAc?$AAa?$AAt?$AA_?$AAs?$AA?$AA@ 00533214     libucrtd:wcscat_s.obj
 0002:0002823c       ??_C@_1DM@FHLMIEG@?$AAS?$AAt?$AAr?$AAi?$AAn?$AAg?$AA?5?$AAi?$AAs?$AA?5?$AAn?$AAo?$AAt?$AA?5?$AAn?$AAu?$AAl?$AAl?$AA?5?$AAt?$AAe?$AAr?$AAm?$AAi?$AAn?$AAa?$AAt?$AAe?$AAd?$AA?$AA@ 0053323c     libucrtd:wcscat_s.obj
 0002:00028288       ??_C@_1FA@MJKDNFFB@?$AA?$CI?$AAL?$AA?$CC?$AAS?$AAt?$AAr?$AAi?$AAn?$AAg?$AA?5?$AAi?$AAs?$AA?5?$AAn?$AAo?$AAt?$AA?5?$AAn?$AAu?$AAl?$AAl?$AA?5?$AAt?$AAe?$AAr?$AAm?$AAi?$AAn?$AAa?$AAt?$AAe?$AAd@ 00533288     libucrtd:wcscat_s.obj
 0002:000282e8       ??_C@_1CC@HELMJGIF@?$AAc?$AAo?$AAm?$AAm?$AAo?$AAn?$AA_?$AAt?$AAc?$AAs?$AAn?$AAc?$AAa?$AAt?$AA_?$AAs?$AA?$AA@ 005332e8     libucrtd:wcsncat_s.obj
 0002:00028310       ??_C@_1GC@NAMEPLDD@?$AAm?$AAi?$AAn?$AAk?$AAe?$AAr?$AAn?$AAe?$AAl?$AA?2?$AAc?$AAr?$AAt?$AAs?$AA?2?$AAu?$AAc?$AAr?$AAt?$AA?2?$AAs?$AAr?$AAc?$AA?2?$AAa?$AAp?$AAp?$AAc?$AAr?$AAt?$AA?2?$AAs@ 00533310     libucrtd:setvbuf.obj
 0002:00028388       ??_C@_1BA@OGODIODK@?$AAs?$AAe?$AAt?$AAv?$AAb?$AAu?$AAf?$AA?$AA@ 00533388     libucrtd:setvbuf.obj
 0002:000283a0       ??_C@_1GG@CBGCKJPC@?$AAt?$AAy?$AAp?$AAe?$AA?5?$AA?$DN?$AA?$DN?$AA?5?$AA_?$AAI?$AAO?$AAN?$AAB?$AAF?$AA?5?$AA?$HM?$AA?$HM?$AA?5?$AAt?$AAy?$AAp?$AAe?$AA?5?$AA?$DN?$AA?$DN?$AA?5?$AA_?$AAI?$AAO?$AAF?$AAB?$AAF@ 005333a0     libucrtd:setvbuf.obj
 0002:00028420       ??_C@_1HK@PBPJKDDM@?$AA2?$AA?5?$AA?$DM?$AA?$DN?$AA?5?$AAb?$AAu?$AAf?$AAf?$AAe?$AAr?$AA_?$AAs?$AAi?$AAz?$AAe?$AA_?$AAi?$AAn?$AA_?$AAb?$AAy?$AAt?$AAe?$AAs?$AA?5?$AA?$CG?$AA?$CG?$AA?5?$AAb?$AAu?$AAf@ 00533420     libucrtd:setvbuf.obj
 0002:000284b4       ??_C@_0DB@BJFCCEBD@minkernel?2crts?2ucrt?2src?2appcrt?2s@ 005334b4     libucrtd:setvbuf.obj
 0002:000284f0       ??_C@_0CP@JIIONAG@minkernel?2crts?2ucrt?2src?2appcrt?2m@ 005334f0     libucrtd:signal.obj
 0002:00028528       ??_C@_1DA@NBILLKNO@?$AAl?$AAo?$AAc?$AAa?$AAl?$AA_?$AAa?$AAc?$AAt?$AAi?$AAo?$AAn?$AA?5?$AA?$CB?$AA?$DN?$AA?5?$AAn?$AAu?$AAl?$AAl?$AAp?$AAt?$AAr?$AA?$AA@ 00533528     libucrtd:signal.obj
 0002:00028568       ??_C@_1FO@CCGDPEKE@?$AAm?$AAi?$AAn?$AAk?$AAe?$AAr?$AAn?$AAe?$AAl?$AA?2?$AAc?$AAr?$AAt?$AAs?$AA?2?$AAu?$AAc?$AAr?$AAt?$AA?2?$AAs?$AAr?$AAc?$AA?2?$AAa?$AAp?$AAp?$AAc?$AAr?$AAt?$AA?2?$AAm@ 00533568     libucrtd:signal.obj
 0002:000285d8       ??_C@_1M@DMJEIKHL@?$AAr?$AAa?$AAi?$AAs?$AAe?$AA?$AA@ 005335d8     libucrtd:signal.obj
 0002:000285e8       ??_C@_1DO@MLNEDKGB@?$AA?$CI?$AA?$CC?$AAI?$AAn?$AAv?$AAa?$AAl?$AAi?$AAd?$AA?5?$AAs?$AAi?$AAg?$AAn?$AAa?$AAl?$AA?5?$AAo?$AAr?$AA?5?$AAe?$AAr?$AAr?$AAo?$AAr?$AA?$CC?$AA?0?$AA?5?$AA0?$AA?$CJ?$AA?$AA@ 005335e8     libucrtd:signal.obj
 0002:00028720       __indefinite               00533720     libucrtd:87disp.obj
 0002:0002872a       __piby2                    0053372a     libucrtd:87disp.obj
 0002:00028734       __piby4                    00533734     libucrtd:87disp.obj
 0002:00028778       __DEFAULT_CW_in_mem        00533778     libucrtd:common.obj
 0002:0002877a       __pi_by_2_to_61            0053377a     libucrtd:common.obj
 0002:00028950       __infinity                 00533950     libucrtd:87tran.obj
 0002:0002895a       __minfinity                0053395a     libucrtd:87tran.obj
 0002:00028964       __logemax                  00533964     libucrtd:87tran.obj
 0002:0002898a       __OP_EXPjmptab             0053398a     libucrtd:87tran.obj
 0002:00028b38       __real@4000000000000000    00533b38     libucrtd:powhlp.obj
 0002:00028c10       __d_inf                    00533c10     libucrtd:util.obj
 0002:00028c20       __d_ind                    00533c20     libucrtd:util.obj
 0002:00028c30       __d_max                    00533c30     libucrtd:util.obj
 0002:00028c40       __d_min                    00533c40     libucrtd:util.obj
 0002:00028c50       __d_mzero                  00533c50     libucrtd:util.obj
 0002:00028f28       __wctype                   00533f28     libucrtd:ctype.obj
 0002:00029198       ___newctype                00534198     libucrtd:ctype.obj
 0002:00029538       ___newclmap                00534538     libucrtd:ctype.obj
 0002:00029708       ___newcumap                00534708     libucrtd:ctype.obj
 0002:000298d8       ??_C@_1GC@KHPDKBHB@?$AAm?$AAi?$AAn?$AAk?$AAe?$AAr?$AAn?$AAe?$AAl?$AA?2?$AAc?$AAr?$AAt?$AAs?$AA?2?$AAu?$AAc?$AAr?$AAt?$AA?2?$AAs?$AAr?$AAc?$AA?2?$AAa?$AAp?$AAp?$AAc?$AAr?$AAt?$AA?2?$AAs@ 005348d8     libucrtd:ungetwc.obj
 0002:00029950       ??_C@_1BA@INJHLAEB@?$AAu?$AAn?$AAg?$AAe?$AAt?$AAw?$AAc?$AA?$AA@ 00534950     libucrtd:ungetwc.obj
 0002:00029968       ??_C@_1GA@JPJEOEOF@?$AAm?$AAi?$AAn?$AAk?$AAe?$AAr?$AAn?$AAe?$AAl?$AA?2?$AAc?$AAr?$AAt?$AAs?$AA?2?$AAu?$AAc?$AAr?$AAt?$AA?2?$AAs?$AAr?$AAc?$AA?2?$AAa?$AAp?$AAp?$AAc?$AAr?$AAt?$AA?2?$AAs@ 00534968     libucrtd:ungetc.obj
 0002:000299dc       ??_C@_1O@JDPLECOK@?$AAu?$AAn?$AAg?$AAe?$AAt?$AAc?$AA?$AA@ 005349dc     libucrtd:ungetc.obj
 0002:000299ec       ??_C@_1BO@OLMLKKEA@?$AA_?$AAu?$AAn?$AAg?$AAe?$AAt?$AAc?$AA_?$AAn?$AAo?$AAl?$AAo?$AAc?$AAk?$AA?$AA@ 005349ec     libucrtd:ungetc.obj
 0002:00029a10       ??_C@_1CC@CHNFGJIC@?$AAc?$AAo?$AAm?$AAm?$AAo?$AAn?$AA_?$AAt?$AAc?$AAs?$AAn?$AAc?$AAp?$AAy?$AA_?$AAs?$AA?$AA@ 00534a10     libucrtd:wcsncpy_s.obj
 0002:00029a38       ??_C@_1HE@CEMHPOHH@?$AAm?$AAi?$AAn?$AAk?$AAe?$AAr?$AAn?$AAe?$AAl?$AA?2?$AAc?$AAr?$AAt?$AAs?$AA?2?$AAu?$AAc?$AAr?$AAt?$AA?2?$AAs?$AAr?$AAc?$AA?2?$AAa?$AAp?$AAp?$AAc?$AAr?$AAt?$AA?2?$AAs@ 00534a38     libucrtd:argv_wildcards.obj
 0002:00029ac4       ??_C@_1DK@IBFFOJGB@?$AAc?$AAo?$AAm?$AAm?$AAo?$AAn?$AA_?$AAe?$AAx?$AAp?$AAa?$AAn?$AAd?$AA_?$AAa?$AAr?$AAg?$AAv?$AA_?$AAw?$AAi?$AAl?$AAd?$AAc?$AAa?$AAr?$AAd?$AAs?$AA?$AA@ 00534ac4     libucrtd:argv_wildcards.obj
 0002:00029b10       ??_C@_1MC@FLPKOFON@?$AAt?$AAr?$AAa?$AAi?$AAt?$AAs?$AA?3?$AA?3?$AAt?$AAc?$AAs?$AAn?$AAc?$AAp?$AAy?$AA_?$AAs?$AA?$CI?$AA?5?$AAc?$AAh?$AAa?$AAr?$AAa?$AAc?$AAt?$AAe?$AAr?$AA_?$AAi?$AAt?$AA?0@ 00534b10     libucrtd:argv_wildcards.obj
 0002:00029bf8       ??_C@_0DK@FPFMIIJB@minkernel?2crts?2ucrt?2src?2appcrt?2s@ 00534bf8     libucrtd:argv_wildcards.obj
 0002:00029c40       ??_C@_1EA@KOCCBLAD@?$AAc?$AAo?$AAp?$AAy?$AA_?$AAa?$AAn?$AAd?$AA_?$AAa?$AAd?$AAd?$AA_?$AAa?$AAr?$AAg?$AAu?$AAm?$AAe?$AAn?$AAt?$AA_?$AAt?$AAo?$AA_?$AAb?$AAu?$AAf?$AAf?$AAe?$AAr?$AA?$AA@ 00534c40     libucrtd:argv_wildcards.obj
 0002:00029c90       ??_C@_1KM@GDJIGAGL@?$AAt?$AAr?$AAa?$AAi?$AAt?$AAs?$AA?3?$AA?3?$AAt?$AAc?$AAs?$AAn?$AAc?$AAp?$AAy?$AA_?$AAs?$AA?$CI?$AAa?$AAr?$AAg?$AAu?$AAm?$AAe?$AAn?$AAt?$AA_?$AAb?$AAu?$AAf?$AAf?$AAe@ 00534c90     libucrtd:argv_wildcards.obj
 0002:00029d60       ??_C@_1PI@FGFLAGCC@?$AAt?$AAr?$AAa?$AAi?$AAt?$AAs?$AA?3?$AA?3?$AAt?$AAc?$AAs?$AAn?$AAc?$AAp?$AAy?$AA_?$AAs?$AA?$CI?$AA?5?$AAa?$AAr?$AAg?$AAu?$AAm?$AAe?$AAn?$AAt?$AA_?$AAb?$AAu?$AAf?$AAf@ 00534d60     libucrtd:argv_wildcards.obj
 0002:00029ea0       ??_C@_1M@HPNHIDJI@?$AAj?$AAa?$AA?9?$AAJ?$AAP?$AA?$AA@ 00534ea0     libucrtd:mbctype.obj
 0002:00029eb0       ??_C@_1M@BIBDDEMK@?$AAz?$AAh?$AA?9?$AAC?$AAN?$AA?$AA@ 00534eb0     libucrtd:mbctype.obj
 0002:00029ec0       ??_C@_1M@JLOOOEGK@?$AAk?$AAo?$AA?9?$AAK?$AAR?$AA?$AA@ 00534ec0     libucrtd:mbctype.obj
 0002:00029ed0       ??_C@_1M@CLNBBOPM@?$AAz?$AAh?$AA?9?$AAT?$AAW?$AA?$AA@ 00534ed0     libucrtd:mbctype.obj
 0002:00029ee0       ??_C@_0DE@HGDKNBFD@minkernel?2crts?2ucrt?2src?2appcrt?2m@ 00534ee0     libucrtd:mbctype.obj
 0002:00029f20       ??_C@_0ED@BLPEHJAI@minkernel?2crts?2ucrt?2src?2desktopc@ 00534f20     libucrtd:get_environment_from_os.obj
 0002:00029f70       ??_C@_1DO@PANKIJNP@?$AAe?$AAq?$AAu?$AAa?$AAl?$AA_?$AAs?$AAi?$AAg?$AAn?$AA?5?$AA?9?$AA?5?$AAo?$AAp?$AAt?$AAi?$AAo?$AAn?$AA?5?$AA?$DM?$AA?5?$AA_?$AAM?$AAA?$AAX?$AA_?$AAE?$AAN?$AAV?$AA?$AA@ 00534f70     libucrtd:setenv.obj
 0002:00029fc0       ??_C@_1GE@MMOHBENP@?$AAm?$AAi?$AAn?$AAk?$AAe?$AAr?$AAn?$AAe?$AAl?$AA?2?$AAc?$AAr?$AAt?$AAs?$AA?2?$AAu?$AAc?$AAr?$AAt?$AA?2?$AAs?$AAr?$AAc?$AA?2?$AAd?$AAe?$AAs?$AAk?$AAt?$AAo?$AAp?$AAc@ 00534fc0     libucrtd:setenv.obj
 0002:0002a038       ??_C@_1GK@KBABANDM@?$AAt?$AAr?$AAa?$AAi?$AAt?$AAs?$AA?3?$AA?3?$AAt?$AAc?$AAs?$AAn?$AAl?$AAe?$AAn?$AA?$CI?$AAe?$AAq?$AAu?$AAa?$AAl?$AA_?$AAs?$AAi?$AAg?$AAn?$AA?5?$AA?$CL?$AA?5?$AA1?$AA?0?$AA?5@ 00535038     libucrtd:setenv.obj
 0002:0002a0b8       ??_C@_0DC@NJKMKCIL@minkernel?2crts?2ucrt?2src?2desktopc@ 005350b8     libucrtd:setenv.obj
 0002:0002a0f8       ??_C@_1EC@IKJPFBIM@?$AA?$CI?$AA?$CC?$AAC?$AAR?$AAT?$AA?5?$AAl?$AAo?$AAg?$AAi?$AAc?$AA?5?$AAe?$AAr?$AAr?$AAo?$AAr?$AA?5?$AAi?$AAn?$AA?5?$AAs?$AAe?$AAt?$AAe?$AAn?$AAv?$AA?$CC?$AA?0?$AA?5?$AA0?$AA?$CJ@ 005350f8     libucrtd:setenv.obj
 0002:0002a148       ??_C@_1FE@KHMDCEEJ@?$AAc?$AAo?$AAm?$AAm?$AAo?$AAn?$AA_?$AAs?$AAe?$AAt?$AA_?$AAv?$AAa?$AAr?$AAi?$AAa?$AAb?$AAl?$AAe?$AA_?$AAi?$AAn?$AA_?$AAe?$AAn?$AAv?$AAi?$AAr?$AAo?$AAn?$AAm?$AAe@ 00535148     libucrtd:setenv.obj
 0002:0002a1b0       ??_C@_1EM@NIOJJLEA@?$AAt?$AAr?$AAa?$AAi?$AAt?$AAs?$AA?3?$AA?3?$AAt?$AAc?$AAs?$AAc?$AAp?$AAy?$AA_?$AAs?$AA?$CI?$AAn?$AAa?$AAm?$AAe?$AA?0?$AA?5?$AAc?$AAo?$AAu?$AAn?$AAt?$AA?0?$AA?5?$AAo?$AAp@ 005351b0     libucrtd:setenv.obj
 0002:0002a20c       ??_C@_1CC@PIMGMDJH@?$AAc?$AAo?$AAp?$AAy?$AA_?$AAe?$AAn?$AAv?$AAi?$AAr?$AAo?$AAn?$AAm?$AAe?$AAn?$AAt?$AA?$AA@ 0053520c     libucrtd:setenv.obj
 0002:0002a238       ??_C@_1GG@EDHOMIDL@?$AAt?$AAr?$AAa?$AAi?$AAt?$AAs?$AA?3?$AA?3?$AAt?$AAc?$AAs?$AAc?$AAp?$AAy?$AA_?$AAs?$AA?$CI?$AA?$CK?$AAn?$AAe?$AAw?$AA_?$AAi?$AAt?$AA?0?$AA?5?$AAr?$AAe?$AAq?$AAu?$AAi?$AAr@ 00535238     libucrtd:setenv.obj
 0002:0002a2b4       ??_C@_0DB@JFFPGLDM@minkernel?2crts?2ucrt?2src?2appcrt?2l@ 005352b4     libucrtd:osfinfo.obj
 0002:0002a2f0       ??_C@_1EM@BPODPNEJ@?$AAs?$AAt?$AAa?$AAt?$AAi?$AAc?$AA_?$AAc?$AAa?$AAs?$AAt?$AA?$DM?$AAu?$AAn?$AAs?$AAi?$AAg?$AAn?$AAe?$AAd?$AA?$DO?$AA?$CI?$AAf?$AAh?$AA?$CJ?$AA?5?$AA?$DM?$AA?5?$AA_?$AAN?$AAH?$AAA@ 005352f0     libucrtd:osfinfo.obj
 0002:0002a350       ??_C@_1GC@LDGKBAFM@?$AAm?$AAi?$AAn?$AAk?$AAe?$AAr?$AAn?$AAe?$AAl?$AA?2?$AAc?$AAr?$AAt?$AAs?$AA?2?$AAu?$AAc?$AAr?$AAt?$AA?2?$AAs?$AAr?$AAc?$AA?2?$AAa?$AAp?$AAp?$AAc?$AAr?$AAt?$AA?2?$AAl@ 00535350     libucrtd:osfinfo.obj
 0002:0002a3c8       ??_C@_1DM@JELNOMLN@?$AA_?$AA_?$AAa?$AAc?$AAr?$AAt?$AA_?$AAl?$AAo?$AAw?$AAi?$AAo?$AA_?$AAe?$AAn?$AAs?$AAu?$AAr?$AAe?$AA_?$AAf?$AAh?$AA_?$AAe?$AAx?$AAi?$AAs?$AAt?$AAs?$AA?$AA@ 005353c8     libucrtd:osfinfo.obj
 0002:0002a410       ??_C@_1FK@MGHFJLAL@?$AAf?$AAh?$AA?5?$AA?$DO?$AA?$DN?$AA?5?$AA0?$AA?5?$AA?$CG?$AA?$CG?$AA?5?$AA?$CI?$AAu?$AAn?$AAs?$AAi?$AAg?$AAn?$AAe?$AAd?$AA?$CJ?$AAf?$AAh?$AA?5?$AA?$DM?$AA?5?$AA?$CI?$AAu?$AAn?$AAs?$AAi?$AAg@ 00535410     libucrtd:osfinfo.obj
 0002:0002a47c       ??_C@_1BO@EMBOBGKE@?$AA_?$AAg?$AAe?$AAt?$AA_?$AAo?$AAs?$AAf?$AAh?$AAa?$AAn?$AAd?$AAl?$AAe?$AA?$AA@ 0053547c     libucrtd:osfinfo.obj
 0002:0002a4a0       ??_C@_1CI@ILOIOBLM@?$AA_?$AAo?$AAs?$AAf?$AAi?$AAl?$AAe?$AA?$CI?$AAf?$AAh?$AA?$CJ?$AA?5?$AA?$CG?$AA?5?$AAF?$AAO?$AAP?$AAE?$AAN?$AA?$AA@ 005354a0     libucrtd:osfinfo.obj
 0002:0002a4d0       ??_C@_0DE@PKCHMIOF@minkernel?2crts?2ucrt?2src?2appcrt?2l@ 005354d0     libucrtd:initctype.obj
 0002:0002a510       ??_C@_1GI@DPHPBMAL@?$AAm?$AAi?$AAn?$AAk?$AAe?$AAr?$AAn?$AAe?$AAl?$AA?2?$AAc?$AAr?$AAt?$AAs?$AA?2?$AAu?$AAc?$AAr?$AAt?$AA?2?$AAs?$AAr?$AAc?$AA?2?$AAa?$AAp?$AAp?$AAc?$AAr?$AAt?$AA?2?$AAl@ 00535510     libucrtd:initctype.obj
 0002:0002a58c       ??_C@_1DG@NMBGBDM@?$AAp?$AAl?$AAo?$AAc?$AAi?$AA?9?$AA?$DO?$AAc?$AAt?$AAy?$AAp?$AAe?$AA1?$AA_?$AAr?$AAe?$AAf?$AAc?$AAo?$AAu?$AAn?$AAt?$AA?5?$AA?$DO?$AA?5?$AA0?$AA?$AA@ 0053558c     libucrtd:initctype.obj
 0002:0002a5cc       ??_C@_0DC@GMDOHFAP@minkernel?2crts?2ucrt?2src?2appcrt?2l@ 005355cc     libucrtd:initmon.obj
 0002:0002a608       ??_C@_1DM@GKAPAMDO@?$AAp?$AAl?$AAo?$AAc?$AAi?$AA?9?$AA?$DO?$AAl?$AAc?$AAo?$AAn?$AAv?$AA_?$AAm?$AAo?$AAn?$AA_?$AAr?$AAe?$AAf?$AAc?$AAo?$AAu?$AAn?$AAt?$AA?5?$AA?$DO?$AA?5?$AA0?$AA?$AA@ 00535608     libucrtd:initmon.obj
 0002:0002a650       ??_C@_1GE@IEFGCKMH@?$AAm?$AAi?$AAn?$AAk?$AAe?$AAr?$AAn?$AAe?$AAl?$AA?2?$AAc?$AAr?$AAt?$AAs?$AA?2?$AAu?$AAc?$AAr?$AAt?$AA?2?$AAs?$AAr?$AAc?$AA?2?$AAa?$AAp?$AAp?$AAc?$AAr?$AAt?$AA?2?$AAl@ 00535650     libucrtd:initmon.obj
 0002:0002a6c8       ??_C@_0DC@KHILMDMC@minkernel?2crts?2ucrt?2src?2appcrt?2l@ 005356c8     libucrtd:initnum.obj
 0002:0002a704       ??_C@_1DM@IFKAINNE@?$AAp?$AAl?$AAo?$AAc?$AAi?$AA?9?$AA?$DO?$AAl?$AAc?$AAo?$AAn?$AAv?$AA_?$AAn?$AAu?$AAm?$AA_?$AAr?$AAe?$AAf?$AAc?$AAo?$AAu?$AAn?$AAt?$AA?5?$AA?$DO?$AA?5?$AA0?$AA?$AA@ 00535704     libucrtd:initnum.obj
 0002:0002a750       ??_C@_1GE@GOIFKKDC@?$AAm?$AAi?$AAn?$AAk?$AAe?$AAr?$AAn?$AAe?$AAl?$AA?2?$AAc?$AAr?$AAt?$AAs?$AA?2?$AAu?$AAc?$AAr?$AAt?$AA?2?$AAs?$AAr?$AAc?$AA?2?$AAa?$AAp?$AAp?$AAc?$AAr?$AAt?$AA?2?$AAl@ 00535750     libucrtd:initnum.obj
 0002:0002a7c8       ??_C@_0DD@MPFICDAE@minkernel?2crts?2ucrt?2src?2appcrt?2l@ 005357c8     libucrtd:inittime.obj
 0002:0002a808       ??_C@_1HK@HACABKKK@?$AA?$CI?$AA?$CC?$AAl?$AAc?$AA_?$AAt?$AAi?$AAm?$AAe?$AA_?$AAc?$AAu?$AAr?$AAr?$AA?5?$AAu?$AAn?$AAe?$AAx?$AAp?$AAe?$AAc?$AAt?$AAe?$AAd?$AAl?$AAy?$AA?5?$AAh?$AAa?$AAs?$AA?5@ 00535808     libucrtd:inittime.obj
 0002:0002a8a0       ??_C@_1GG@BFOOANHJ@?$AAm?$AAi?$AAn?$AAk?$AAe?$AAr?$AAn?$AAe?$AAl?$AA?2?$AAc?$AAr?$AAt?$AAs?$AA?2?$AAu?$AAc?$AAr?$AAt?$AA?2?$AAs?$AAr?$AAc?$AA?2?$AAa?$AAp?$AAp?$AAc?$AAr?$AAt?$AA?2?$AAl@ 005358a0     libucrtd:inittime.obj
 0002:0002a920       ??_C@_1FE@KNPCCODH@?$AA?$CI?$AA?$CC?$AAC?$AAo?$AAr?$AAr?$AAu?$AAp?$AAt?$AAe?$AAd?$AA?5?$AAp?$AAo?$AAi?$AAn?$AAt?$AAe?$AAr?$AA?5?$AAp?$AAa?$AAs?$AAs?$AAe?$AAd?$AA?5?$AAt?$AAo?$AA?5?$AA_?$AAf@ 00535920     libucrtd:getstringtypea.obj
 0002:0002a988       ??_C@_1HG@NGPLHMCI@?$AAm?$AAi?$AAn?$AAk?$AAe?$AAr?$AAn?$AAe?$AAl?$AA?2?$AAc?$AAr?$AAt?$AAs?$AA?2?$AAu?$AAc?$AAr?$AAt?$AA?2?$AAd?$AAe?$AAv?$AAd?$AAi?$AAv?$AA?2?$AAv?$AAc?$AAr?$AAu?$AAn@ 00535988     libucrtd:getstringtypea.obj
 0002:0002aa18       ??_C@_0DJ@HCPJODDK@minkernel?2crts?2ucrt?2src?2appcrt?2l@ 00535a18     libucrtd:getstringtypea.obj
 0002:0002aa60       ??_C@_1BKC@NBNHJIDM@?$AA?$CI?$AAp?$AAt?$AAl?$AAo?$AAc?$AAi?$AA?9?$AA?$DO?$AAl?$AAc?$AA_?$AAc?$AAa?$AAt?$AAe?$AAg?$AAo?$AAr?$AAy?$AA?$FL?$AAc?$AAa?$AAt?$AAe?$AAg?$AAo?$AAr?$AAy?$AA?$FN?$AA?4?$AAl@ 00535a60     libucrtd:locale_refcounting.obj
 0002:0002ac58       ??_C@_1HK@HCNMEOLA@?$AAm?$AAi?$AAn?$AAk?$AAe?$AAr?$AAn?$AAe?$AAl?$AA?2?$AAc?$AAr?$AAt?$AAs?$AA?2?$AAu?$AAc?$AAr?$AAt?$AA?2?$AAs?$AAr?$AAc?$AA?2?$AAa?$AAp?$AAp?$AAc?$AAr?$AAt?$AA?2?$AAl@ 00535c58     libucrtd:locale_refcounting.obj
 0002:0002acec       ??_C@_1BC@LLOKLNP@?$AAa?$AAm?$AAe?$AAr?$AAi?$AAc?$AAa?$AAn?$AA?$AA@ 00535cec     libucrtd:get_qualified_locale.obj
 0002:0002ad04       ??_C@_1CC@HEIGCDGG@?$AAa?$AAm?$AAe?$AAr?$AAi?$AAc?$AAa?$AAn?$AA?5?$AAe?$AAn?$AAg?$AAl?$AAi?$AAs?$AAh?$AA?$AA@ 00535d04     libucrtd:get_qualified_locale.obj
 0002:0002ad2c       ??_C@_1CC@IHCNOMIN@?$AAa?$AAm?$AAe?$AAr?$AAi?$AAc?$AAa?$AAn?$AA?9?$AAe?$AAn?$AAg?$AAl?$AAi?$AAs?$AAh?$AA?$AA@ 00535d2c     libucrtd:get_qualified_locale.obj
 0002:0002ad54       ??_C@_1BG@GKAGPCGG@?$AAa?$AAu?$AAs?$AAt?$AAr?$AAa?$AAl?$AAi?$AAa?$AAn?$AA?$AA@ 00535d54     libucrtd:get_qualified_locale.obj
 0002:0002ad70       ??_C@_1BA@GMENCENF@?$AAb?$AAe?$AAl?$AAg?$AAi?$AAa?$AAn?$AA?$AA@ 00535d70     libucrtd:get_qualified_locale.obj
 0002:0002ad84       ??_C@_1BC@PJMIIAAN@?$AAc?$AAa?$AAn?$AAa?$AAd?$AAi?$AAa?$AAn?$AA?$AA@ 00535d84     libucrtd:get_qualified_locale.obj
 0002:0002ad9c       ??_C@_17NOIMNFBF@?$AAc?$AAh?$AAh?$AA?$AA@ 00535d9c     libucrtd:get_qualified_locale.obj
 0002:0002ada8       ??_C@_17GGDALCHA@?$AAc?$AAh?$AAi?$AA?$AA@ 00535da8     libucrtd:get_qualified_locale.obj
 0002:0002adb4       ??_C@_1BA@NPNJKIBL@?$AAc?$AAh?$AAi?$AAn?$AAe?$AAs?$AAe?$AA?$AA@ 00535db4     libucrtd:get_qualified_locale.obj
 0002:0002adc8       ??_C@_1CC@DINBAMMJ@?$AAc?$AAh?$AAi?$AAn?$AAe?$AAs?$AAe?$AA?9?$AAh?$AAo?$AAn?$AAg?$AAk?$AAo?$AAn?$AAg?$AA?$AA@ 00535dc8     libucrtd:get_qualified_locale.obj
 0002:0002adf0       ??_C@_1CG@IOBJPACO@?$AAc?$AAh?$AAi?$AAn?$AAe?$AAs?$AAe?$AA?9?$AAs?$AAi?$AAm?$AAp?$AAl?$AAi?$AAf?$AAi?$AAe?$AAd?$AA?$AA@ 00535df0     libucrtd:get_qualified_locale.obj
 0002:0002ae20       ??_C@_1CE@GAJNDCKG@?$AAc?$AAh?$AAi?$AAn?$AAe?$AAs?$AAe?$AA?9?$AAs?$AAi?$AAn?$AAg?$AAa?$AAp?$AAo?$AAr?$AAe?$AA?$AA@ 00535e20     libucrtd:get_qualified_locale.obj
 0002:0002ae4c       ??_C@_1CI@PAJPIOOD@?$AAc?$AAh?$AAi?$AAn?$AAe?$AAs?$AAe?$AA?9?$AAt?$AAr?$AAa?$AAd?$AAi?$AAt?$AAi?$AAo?$AAn?$AAa?$AAl?$AA?$AA@ 00535e4c     libucrtd:get_qualified_locale.obj
 0002:0002ae7c       ??_C@_1BM@NILJBMMD@?$AAd?$AAu?$AAt?$AAc?$AAh?$AA?9?$AAb?$AAe?$AAl?$AAg?$AAi?$AAa?$AAn?$AA?$AA@ 00535e7c     libucrtd:get_qualified_locale.obj
 0002:0002aea0       ??_C@_1CC@OOJPJNEJ@?$AAe?$AAn?$AAg?$AAl?$AAi?$AAs?$AAh?$AA?9?$AAa?$AAm?$AAe?$AAr?$AAi?$AAc?$AAa?$AAn?$AA?$AA@ 00535ea0     libucrtd:get_qualified_locale.obj
 0002:0002aec8       ??_C@_1BI@IOLFEEM@?$AAe?$AAn?$AAg?$AAl?$AAi?$AAs?$AAh?$AA?9?$AAa?$AAu?$AAs?$AA?$AA@ 00535ec8     libucrtd:get_qualified_locale.obj
 0002:0002aee4       ??_C@_1BO@HFFNLENJ@?$AAe?$AAn?$AAg?$AAl?$AAi?$AAs?$AAh?$AA?9?$AAb?$AAe?$AAl?$AAi?$AAz?$AAe?$AA?$AA@ 00535ee4     libucrtd:get_qualified_locale.obj
 0002:0002af08       ??_C@_1BI@HAPKJMPO@?$AAe?$AAn?$AAg?$AAl?$AAi?$AAs?$AAh?$AA?9?$AAc?$AAa?$AAn?$AA?$AA@ 00535f08     libucrtd:get_qualified_locale.obj
 0002:0002af24       ??_C@_1CE@HLNDMIOJ@?$AAe?$AAn?$AAg?$AAl?$AAi?$AAs?$AAh?$AA?9?$AAc?$AAa?$AAr?$AAi?$AAb?$AAb?$AAe?$AAa?$AAn?$AA?$AA@ 00535f24     libucrtd:get_qualified_locale.obj
 0002:0002af50       ??_C@_1BI@LDHJHHAC@?$AAe?$AAn?$AAg?$AAl?$AAi?$AAs?$AAh?$AA?9?$AAi?$AAr?$AAe?$AA?$AA@ 00535f50     libucrtd:get_qualified_locale.obj
 0002:0002af6c       ??_C@_1CA@NJMMCFOC@?$AAe?$AAn?$AAg?$AAl?$AAi?$AAs?$AAh?$AA?9?$AAj?$AAa?$AAm?$AAa?$AAi?$AAc?$AAa?$AA?$AA@ 00535f6c     libucrtd:get_qualified_locale.obj
 0002:0002af94       ??_C@_1BG@BHJEBBGG@?$AAe?$AAn?$AAg?$AAl?$AAi?$AAs?$AAh?$AA?9?$AAn?$AAz?$AA?$AA@ 00535f94     libucrtd:get_qualified_locale.obj
 0002:0002afb0       ??_C@_1CK@FGOEJJCO@?$AAe?$AAn?$AAg?$AAl?$AAi?$AAs?$AAh?$AA?9?$AAs?$AAo?$AAu?$AAt?$AAh?$AA?5?$AAa?$AAf?$AAr?$AAi?$AAc?$AAa?$AA?$AA@ 00535fb0     libucrtd:get_qualified_locale.obj
 0002:0002afe4       ??_C@_1DE@PDBJPCJ@?$AAe?$AAn?$AAg?$AAl?$AAi?$AAs?$AAh?$AA?9?$AAt?$AAr?$AAi?$AAn?$AAi?$AAd?$AAa?$AAd?$AA?5?$AAy?$AA?5?$AAt?$AAo?$AAb?$AAa?$AAg?$AAo?$AA?$AA@ 00535fe4     libucrtd:get_qualified_locale.obj
 0002:0002b024       ??_C@_1BG@JGCANDME@?$AAe?$AAn?$AAg?$AAl?$AAi?$AAs?$AAh?$AA?9?$AAu?$AAk?$AA?$AA@ 00536024     libucrtd:get_qualified_locale.obj
 0002:0002b040       ??_C@_1BG@DINKMLE@?$AAe?$AAn?$AAg?$AAl?$AAi?$AAs?$AAh?$AA?9?$AAu?$AAs?$AA?$AA@ 00536040     libucrtd:get_qualified_locale.obj
 0002:0002b05c       ??_C@_1BI@NMFDBHJE@?$AAe?$AAn?$AAg?$AAl?$AAi?$AAs?$AAh?$AA?9?$AAu?$AAs?$AAa?$AA?$AA@ 0053605c     libucrtd:get_qualified_locale.obj
 0002:0002b078       ??_C@_1BO@OIHKJKII@?$AAf?$AAr?$AAe?$AAn?$AAc?$AAh?$AA?9?$AAb?$AAe?$AAl?$AAg?$AAi?$AAa?$AAn?$AA?$AA@ 00536078     libucrtd:get_qualified_locale.obj
 0002:0002b09c       ??_C@_1CA@NKAELJKI@?$AAf?$AAr?$AAe?$AAn?$AAc?$AAh?$AA?9?$AAc?$AAa?$AAn?$AAa?$AAd?$AAi?$AAa?$AAn?$AA?$AA@ 0053609c     libucrtd:get_qualified_locale.obj
 0002:0002b0c4       ??_C@_1CE@MGKCNLGN@?$AAf?$AAr?$AAe?$AAn?$AAc?$AAh?$AA?9?$AAl?$AAu?$AAx?$AAe?$AAm?$AAb?$AAo?$AAu?$AAr?$AAg?$AA?$AA@ 005360c4     libucrtd:get_qualified_locale.obj
 0002:0002b0f0       ??_C@_1BK@CEGEAILM@?$AAf?$AAr?$AAe?$AAn?$AAc?$AAh?$AA?9?$AAs?$AAw?$AAi?$AAs?$AAs?$AA?$AA@ 005360f0     libucrtd:get_qualified_locale.obj
 0002:0002b110       ??_C@_1CA@PAFKEOCC@?$AAg?$AAe?$AAr?$AAm?$AAa?$AAn?$AA?9?$AAa?$AAu?$AAs?$AAt?$AAr?$AAi?$AAa?$AAn?$AA?$AA@ 00536110     libucrtd:get_qualified_locale.obj
 0002:0002b138       ??_C@_1CI@HCFHGOFD@?$AAg?$AAe?$AAr?$AAm?$AAa?$AAn?$AA?9?$AAl?$AAi?$AAc?$AAh?$AAt?$AAe?$AAn?$AAs?$AAt?$AAe?$AAi?$AAn?$AA?$AA@ 00536138     libucrtd:get_qualified_locale.obj
 0002:0002b168       ??_C@_1CE@FEDDNPDG@?$AAg?$AAe?$AAr?$AAm?$AAa?$AAn?$AA?9?$AAl?$AAu?$AAx?$AAe?$AAm?$AAb?$AAo?$AAu?$AAr?$AAg?$AA?$AA@ 00536168     libucrtd:get_qualified_locale.obj
 0002:0002b194       ??_C@_1BK@LIMINNMN@?$AAg?$AAe?$AAr?$AAm?$AAa?$AAn?$AA?9?$AAs?$AAw?$AAi?$AAs?$AAs?$AA?$AA@ 00536194     libucrtd:get_qualified_locale.obj
 0002:0002b1b4       ??_C@_1BM@LGMDBEPD@?$AAi?$AAr?$AAi?$AAs?$AAh?$AA?9?$AAe?$AAn?$AAg?$AAl?$AAi?$AAs?$AAh?$AA?$AA@ 005361b4     libucrtd:get_qualified_locale.obj
 0002:0002b1d8       ??_C@_1BM@NNCFBAEE@?$AAi?$AAt?$AAa?$AAl?$AAi?$AAa?$AAn?$AA?9?$AAs?$AAw?$AAi?$AAs?$AAs?$AA?$AA@ 005361d8     libucrtd:get_qualified_locale.obj
 0002:0002b1fc       ??_C@_1BE@FEDJNPIB@?$AAn?$AAo?$AAr?$AAw?$AAe?$AAg?$AAi?$AAa?$AAn?$AA?$AA@ 005361fc     libucrtd:get_qualified_locale.obj
 0002:0002b214       ??_C@_1CC@CILKDEIE@?$AAn?$AAo?$AAr?$AAw?$AAe?$AAg?$AAi?$AAa?$AAn?$AA?9?$AAb?$AAo?$AAk?$AAm?$AAa?$AAl?$AA?$AA@ 00536214     libucrtd:get_qualified_locale.obj
 0002:0002b23c       ??_C@_1CE@DHMMHEPL@?$AAn?$AAo?$AAr?$AAw?$AAe?$AAg?$AAi?$AAa?$AAn?$AA?9?$AAn?$AAy?$AAn?$AAo?$AAr?$AAs?$AAk?$AA?$AA@ 0053623c     libucrtd:get_qualified_locale.obj
 0002:0002b268       ??_C@_1CK@OPNMHECD@?$AAp?$AAo?$AAr?$AAt?$AAu?$AAg?$AAu?$AAe?$AAs?$AAe?$AA?9?$AAb?$AAr?$AAa?$AAz?$AAi?$AAl?$AAi?$AAa?$AAn?$AA?$AA@ 00536268     libucrtd:get_qualified_locale.obj
 0002:0002b29c       ??_C@_1CE@KEEHCDB@?$AAs?$AAp?$AAa?$AAn?$AAi?$AAs?$AAh?$AA?9?$AAa?$AAr?$AAg?$AAe?$AAn?$AAt?$AAi?$AAn?$AAa?$AA?$AA@ 0053629c     libucrtd:get_qualified_locale.obj
 0002:0002b2c8       ??_C@_1CA@GIAOLHJD@?$AAs?$AAp?$AAa?$AAn?$AAi?$AAs?$AAh?$AA?9?$AAb?$AAo?$AAl?$AAi?$AAv?$AAi?$AAa?$AA?$AA@ 005362c8     libucrtd:get_qualified_locale.obj
 0002:0002b2f0       ??_C@_1BM@OJNDFNPD@?$AAs?$AAp?$AAa?$AAn?$AAi?$AAs?$AAh?$AA?9?$AAc?$AAh?$AAi?$AAl?$AAe?$AA?$AA@ 005362f0     libucrtd:get_qualified_locale.obj
 0002:0002b314       ??_C@_1CC@OCOLPALL@?$AAs?$AAp?$AAa?$AAn?$AAi?$AAs?$AAh?$AA?9?$AAc?$AAo?$AAl?$AAo?$AAm?$AAb?$AAi?$AAa?$AA?$AA@ 00536314     libucrtd:get_qualified_locale.obj
 0002:0002b33c       ??_C@_1CG@BPOFMKBB@?$AAs?$AAp?$AAa?$AAn?$AAi?$AAs?$AAh?$AA?9?$AAc?$AAo?$AAs?$AAt?$AAa?$AA?5?$AAr?$AAi?$AAc?$AAa?$AA?$AA@ 0053633c     libucrtd:get_qualified_locale.obj
 0002:0002b36c       ??_C@_1DG@IGOBAPBB@?$AAs?$AAp?$AAa?$AAn?$AAi?$AAs?$AAh?$AA?9?$AAd?$AAo?$AAm?$AAi?$AAn?$AAi?$AAc?$AAa?$AAn?$AA?5?$AAr?$AAe?$AAp?$AAu?$AAb?$AAl?$AAi?$AAc?$AA?$AA@ 0053636c     libucrtd:get_qualified_locale.obj
 0002:0002b3ac       ??_C@_1CA@JHAPGEGI@?$AAs?$AAp?$AAa?$AAn?$AAi?$AAs?$AAh?$AA?9?$AAe?$AAc?$AAu?$AAa?$AAd?$AAo?$AAr?$AA?$AA@ 005363ac     libucrtd:get_qualified_locale.obj
 0002:0002b3d4       ??_C@_1CI@LAPALJPP@?$AAs?$AAp?$AAa?$AAn?$AAi?$AAs?$AAh?$AA?9?$AAe?$AAl?$AA?5?$AAs?$AAa?$AAl?$AAv?$AAa?$AAd?$AAo?$AAr?$AA?$AA@ 005363d4     libucrtd:get_qualified_locale.obj
 0002:0002b404       ??_C@_1CE@PDGBOFOM@?$AAs?$AAp?$AAa?$AAn?$AAi?$AAs?$AAh?$AA?9?$AAg?$AAu?$AAa?$AAt?$AAe?$AAm?$AAa?$AAl?$AAa?$AA?$AA@ 00536404     libucrtd:get_qualified_locale.obj
 0002:0002b430       ??_C@_1CC@NBEBAODI@?$AAs?$AAp?$AAa?$AAn?$AAi?$AAs?$AAh?$AA?9?$AAh?$AAo?$AAn?$AAd?$AAu?$AAr?$AAa?$AAs?$AA?$AA@ 00536430     libucrtd:get_qualified_locale.obj
 0002:0002b458       ??_C@_1CA@LLKGHBMF@?$AAs?$AAp?$AAa?$AAn?$AAi?$AAs?$AAh?$AA?9?$AAm?$AAe?$AAx?$AAi?$AAc?$AAa?$AAn?$AA?$AA@ 00536458     libucrtd:get_qualified_locale.obj
 0002:0002b480       ??_C@_1BO@LKNDOIGD@?$AAs?$AAp?$AAa?$AAn?$AAi?$AAs?$AAh?$AA?9?$AAm?$AAo?$AAd?$AAe?$AAr?$AAn?$AA?$AA@ 00536480     libucrtd:get_qualified_locale.obj
 0002:0002b4a4       ??_C@_1CE@NMDMOEEB@?$AAs?$AAp?$AAa?$AAn?$AAi?$AAs?$AAh?$AA?9?$AAn?$AAi?$AAc?$AAa?$AAr?$AAa?$AAg?$AAu?$AAa?$AA?$AA@ 005364a4     libucrtd:get_qualified_locale.obj
 0002:0002b4d0       ??_C@_1BO@LLCBEJGB@?$AAs?$AAp?$AAa?$AAn?$AAi?$AAs?$AAh?$AA?9?$AAp?$AAa?$AAn?$AAa?$AAm?$AAa?$AA?$AA@ 005364d0     libucrtd:get_qualified_locale.obj
 0002:0002b4f4       ??_C@_1CC@FKPGGIHO@?$AAs?$AAp?$AAa?$AAn?$AAi?$AAs?$AAh?$AA?9?$AAp?$AAa?$AAr?$AAa?$AAg?$AAu?$AAa?$AAy?$AA?$AA@ 005364f4     libucrtd:get_qualified_locale.obj
 0002:0002b51c       ??_C@_1BK@CDEIHOOP@?$AAs?$AAp?$AAa?$AAn?$AAi?$AAs?$AAh?$AA?9?$AAp?$AAe?$AAr?$AAu?$AA?$AA@ 0053651c     libucrtd:get_qualified_locale.obj
 0002:0002b53c       ??_C@_1CI@GAHAKKGP@?$AAs?$AAp?$AAa?$AAn?$AAi?$AAs?$AAh?$AA?9?$AAp?$AAu?$AAe?$AAr?$AAt?$AAo?$AA?5?$AAr?$AAi?$AAc?$AAo?$AA?$AA@ 0053653c     libucrtd:get_qualified_locale.obj
 0002:0002b56c       ??_C@_1CA@NKJBCAGP@?$AAs?$AAp?$AAa?$AAn?$AAi?$AAs?$AAh?$AA?9?$AAu?$AAr?$AAu?$AAg?$AAu?$AAa?$AAy?$AA?$AA@ 0053656c     libucrtd:get_qualified_locale.obj
 0002:0002b594       ??_C@_1CE@ODILCONM@?$AAs?$AAp?$AAa?$AAn?$AAi?$AAs?$AAh?$AA?9?$AAv?$AAe?$AAn?$AAe?$AAz?$AAu?$AAe?$AAl?$AAa?$AA?$AA@ 00536594     libucrtd:get_qualified_locale.obj
 0002:0002b5c0       ??_C@_1CA@OBNMCGFO@?$AAs?$AAw?$AAe?$AAd?$AAi?$AAs?$AAh?$AA?9?$AAf?$AAi?$AAn?$AAl?$AAa?$AAn?$AAd?$AA?$AA@ 005365c0     libucrtd:get_qualified_locale.obj
 0002:0002b5e8       ??_C@_1M@PIPDDPPI@?$AAs?$AAw?$AAi?$AAs?$AAs?$AA?$AA@ 005365e8     libucrtd:get_qualified_locale.obj
 0002:0002b5f8       ??_C@_15PJPFLCCM@?$AAu?$AAk?$AA?$AA@ 005365f8     libucrtd:get_qualified_locale.obj
 0002:0002b600       ??_C@_15GMFIMNFM@?$AAu?$AAs?$AA?$AA@ 00536600     libucrtd:get_qualified_locale.obj
 0002:0002b608       ??_C@_17HAEBFAGL@?$AAu?$AAs?$AAa?$AA?$AA@ 00536608     libucrtd:get_qualified_locale.obj
 0002:0002b614       ??_C@_1BA@DPFJEPHB@?$AAa?$AAm?$AAe?$AAr?$AAi?$AAc?$AAa?$AA?$AA@ 00536614     libucrtd:get_qualified_locale.obj
 0002:0002b628       ??_C@_1BA@ELOGGFK@?$AAb?$AAr?$AAi?$AAt?$AAa?$AAi?$AAn?$AA?$AA@ 00536628     libucrtd:get_qualified_locale.obj
 0002:0002b63c       ??_C@_1M@GHBGIGDA@?$AAc?$AAh?$AAi?$AAn?$AAa?$AA?$AA@ 0053663c     libucrtd:get_qualified_locale.obj
 0002:0002b64c       ??_C@_1M@NCHEJOPO@?$AAc?$AAz?$AAe?$AAc?$AAh?$AA?$AA@ 0053664c     libucrtd:get_qualified_locale.obj
 0002:0002b65c       ??_C@_1BA@BKPAPBLA@?$AAe?$AAn?$AAg?$AAl?$AAa?$AAn?$AAd?$AA?$AA@ 0053665c     libucrtd:get_qualified_locale.obj
 0002:0002b670       ??_C@_1BM@HKBCKIPC@?$AAg?$AAr?$AAe?$AAa?$AAt?$AA?5?$AAb?$AAr?$AAi?$AAt?$AAa?$AAi?$AAn?$AA?$AA@ 00536670     libucrtd:get_qualified_locale.obj
 0002:0002b694       ??_C@_1BA@PPCHPGJB@?$AAh?$AAo?$AAl?$AAl?$AAa?$AAn?$AAd?$AA?$AA@ 00536694     libucrtd:get_qualified_locale.obj
 0002:0002b6a8       ??_C@_1BE@JBMPEGDG@?$AAh?$AAo?$AAn?$AAg?$AA?9?$AAk?$AAo?$AAn?$AAg?$AA?$AA@ 005366a8     libucrtd:get_qualified_locale.obj
 0002:0002b6c0       ??_C@_1BI@KOELBBPJ@?$AAn?$AAe?$AAw?$AA?9?$AAz?$AAe?$AAa?$AAl?$AAa?$AAn?$AAd?$AA?$AA@ 005366c0     libucrtd:get_qualified_locale.obj
 0002:0002b6dc       ??_C@_15HIEBHAIO@?$AAn?$AAz?$AA?$AA@ 005366dc     libucrtd:get_qualified_locale.obj
 0002:0002b6e4       ??_C@_1BC@CHBCPFPI@?$AAp?$AAr?$AA?5?$AAc?$AAh?$AAi?$AAn?$AAa?$AA?$AA@ 005366e4     libucrtd:get_qualified_locale.obj
 0002:0002b6fc       ??_C@_1BC@JAOIIFKD@?$AAp?$AAr?$AA?9?$AAc?$AAh?$AAi?$AAn?$AAa?$AA?$AA@ 005366fc     libucrtd:get_qualified_locale.obj
 0002:0002b714       ??_C@_1BI@BEHPPHKC@?$AAp?$AAu?$AAe?$AAr?$AAt?$AAo?$AA?9?$AAr?$AAi?$AAc?$AAo?$AA?$AA@ 00536714     libucrtd:get_qualified_locale.obj
 0002:0002b730       ??_C@_1O@PAEOFKDI@?$AAs?$AAl?$AAo?$AAv?$AAa?$AAk?$AA?$AA@ 00536730     libucrtd:get_qualified_locale.obj
 0002:0002b740       ??_C@_1BK@FIHMCKAM@?$AAs?$AAo?$AAu?$AAt?$AAh?$AA?5?$AAa?$AAf?$AAr?$AAi?$AAc?$AAa?$AA?$AA@ 00536740     libucrtd:get_qualified_locale.obj
 0002:0002b760       ??_C@_1BI@NAEOODKB@?$AAs?$AAo?$AAu?$AAt?$AAh?$AA?5?$AAk?$AAo?$AAr?$AAe?$AAa?$AA?$AA@ 00536760     libucrtd:get_qualified_locale.obj
 0002:0002b77c       ??_C@_1BK@FBDGGIFF@?$AAs?$AAo?$AAu?$AAt?$AAh?$AA?9?$AAa?$AAf?$AAr?$AAi?$AAc?$AAa?$AA?$AA@ 0053677c     libucrtd:get_qualified_locale.obj
 0002:0002b79c       ??_C@_1BI@GHLEJDPK@?$AAs?$AAo?$AAu?$AAt?$AAh?$AA?9?$AAk?$AAo?$AAr?$AAe?$AAa?$AA?$AA@ 0053679c     libucrtd:get_qualified_locale.obj
 0002:0002b7b8       ??_C@_1CE@PLHLOMJF@?$AAt?$AAr?$AAi?$AAn?$AAi?$AAd?$AAa?$AAd?$AA?5?$AA?$CG?$AA?5?$AAt?$AAo?$AAb?$AAa?$AAg?$AAo?$AA?$AA@ 005367b8     libucrtd:get_qualified_locale.obj
 0002:0002b7e4       ??_C@_1BO@MODIMHHI@?$AAu?$AAn?$AAi?$AAt?$AAe?$AAd?$AA?9?$AAk?$AAi?$AAn?$AAg?$AAd?$AAo?$AAm?$AA?$AA@ 005367e4     libucrtd:get_qualified_locale.obj
 0002:0002b808       ??_C@_1BM@FFHJONBJ@?$AAu?$AAn?$AAi?$AAt?$AAe?$AAd?$AA?9?$AAs?$AAt?$AAa?$AAt?$AAe?$AAs?$AA?$AA@ 00536808     libucrtd:get_qualified_locale.obj
 0002:0002b830       ___acrt_rg_language        00536830     libucrtd:get_qualified_locale.obj
 0002:0002bbd8       ___acrt_rg_language_count  00536bd8     libucrtd:get_qualified_locale.obj
 0002:0002bbe0       ___acrt_rg_country         00536be0     libucrtd:get_qualified_locale.obj
 0002:0002bd2c       ___acrt_rg_country_count   00536d2c     libucrtd:get_qualified_locale.obj
 0002:0002bd30       ??_C@_1HO@CKHMGCFN@?$AAm?$AAi?$AAn?$AAk?$AAe?$AAr?$AAn?$AAe?$AAl?$AA?2?$AAc?$AAr?$AAt?$AAs?$AA?2?$AAu?$AAc?$AAr?$AAt?$AA?2?$AAs?$AAr?$AAc?$AA?2?$AAa?$AAp?$AAp?$AAc?$AAr?$AAt?$AA?2?$AAl@ 00536d30     libucrtd:get_qualified_locale.obj
 0002:0002bdc8       ??_C@_1DI@HCPCNHHP@?$AA_?$AA_?$AAa?$AAc?$AAr?$AAt?$AA_?$AAg?$AAe?$AAt?$AA_?$AAq?$AAu?$AAa?$AAl?$AAi?$AAf?$AAi?$AAe?$AAd?$AA_?$AAl?$AAo?$AAc?$AAa?$AAl?$AAe?$AA?$AA@ 00536dc8     libucrtd:get_qualified_locale.obj
 0002:0002be10       ??_C@_1BFC@DEALMEIM@?$AAw?$AAc?$AAs?$AAn?$AAc?$AAp?$AAy?$AA_?$AAs?$AA?$CI?$AAl?$AAp?$AAO?$AAu?$AAt?$AAS?$AAt?$AAr?$AA?9?$AA?$DO?$AAs?$AAz?$AAL?$AAo?$AAc?$AAa?$AAl?$AAe?$AAN?$AAa?$AAm?$AAe@ 00536e10     libucrtd:get_qualified_locale.obj
 0002:0002bfa8       ??_C@_1CM@OGEMFJNJ@?$AAL?$AAa?$AAn?$AAg?$AAC?$AAo?$AAu?$AAn?$AAt?$AAr?$AAy?$AAE?$AAn?$AAu?$AAm?$AAP?$AAr?$AAo?$AAc?$AAE?$AAx?$AA?$AA@ 00536fa8     libucrtd:get_qualified_locale.obj
 0002:0002bfe0       ??_C@_1BDC@CGCEDIGP@?$AAw?$AAc?$AAs?$AAn?$AAc?$AAp?$AAy?$AA_?$AAs?$AA?$CI?$AA_?$AAp?$AAs?$AAe?$AAt?$AAl?$AAo?$AAc?$AA_?$AAd?$AAa?$AAt?$AAa?$AA?9?$AA?$DO?$AA_?$AAc?$AAa?$AAc?$AAh?$AAe?$AAL@ 00536fe0     libucrtd:get_qualified_locale.obj
 0002:0002c150       ??_C@_1CG@PGLLICHO@?$AAL?$AAa?$AAn?$AAg?$AAu?$AAa?$AAg?$AAe?$AAE?$AAn?$AAu?$AAm?$AAP?$AAr?$AAo?$AAc?$AAE?$AAx?$AA?$AA@ 00537150     libucrtd:get_qualified_locale.obj
 0002:0002c180       ??_C@_1DC@CPKFANGP@?$AAG?$AAe?$AAt?$AAL?$AAo?$AAc?$AAa?$AAl?$AAe?$AAN?$AAa?$AAm?$AAe?$AAF?$AAr?$AAo?$AAm?$AAD?$AAe?$AAf?$AAa?$AAu?$AAl?$AAt?$AA?$AA@ 00537180     libucrtd:get_qualified_locale.obj
 0002:0002c1c0       ??_C@_1BCC@GMJIFDHO@?$AAw?$AAc?$AAs?$AAn?$AAc?$AAp?$AAy?$AA_?$AAs?$AA?$CI?$AA_?$AAp?$AAs?$AAe?$AAt?$AAl?$AAo?$AAc?$AA_?$AAd?$AAa?$AAt?$AAa?$AA?9?$AA?$DO?$AA_?$AAc?$AAa?$AAc?$AAh?$AAe?$AAL@ 005371c0     libucrtd:get_qualified_locale.obj
 0002:0002c31c       ??_C@_17DNCLJFIF@?$AAA?$AAC?$AAP?$AA?$AA@ 0053731c     libucrtd:get_qualified_locale.obj
 0002:0002c328       ??_C@_17CIKBIHLH@?$AAO?$AAC?$AAP?$AA?$AA@ 00537328     libucrtd:get_qualified_locale.obj
 0002:0002c334       ___rglangidNotDefault      00537334     libucrtd:getqloc_downlevel.obj
 0002:0002c34c       ??_C@_1CO@HCPPKOH@?$AA_?$AA_?$AAa?$AAc?$AAr?$AAt?$AA_?$AAh?$AAe?$AAa?$AAp?$AA?5?$AA?$CB?$AA?$DN?$AA?5?$AAn?$AAu?$AAl?$AAl?$AAp?$AAt?$AAr?$AA?$AA@ 0053734c     libucrtd:heap_handle.obj
 0002:0002c388       ??_C@_1GI@OADBAEGE@?$AAm?$AAi?$AAn?$AAk?$AAe?$AAr?$AAn?$AAe?$AAl?$AA?2?$AAc?$AAr?$AAt?$AAs?$AA?2?$AAu?$AAc?$AAr?$AAt?$AA?2?$AAs?$AAr?$AAc?$AA?2?$AAa?$AAp?$AAp?$AAc?$AAr?$AAt?$AA?2?$AAh@ 00537388     libucrtd:heap_handle.obj
 0002:0002c404       ??_C@_1CC@LLFJPCJO@?$AAn?$AAe?$AAw?$AA_?$AAh?$AAa?$AAn?$AAd?$AAl?$AAe?$AAr?$AA?5?$AA?$DN?$AA?$DN?$AA?5?$AA0?$AA?$AA@ 00537404     libucrtd:new_handler.obj
 0002:0002c430       ??_C@_1GI@GALDAPMM@?$AAm?$AAi?$AAn?$AAk?$AAe?$AAr?$AAn?$AAe?$AAl?$AA?2?$AAc?$AAr?$AAt?$AAs?$AA?2?$AAu?$AAc?$AAr?$AAt?$AA?2?$AAs?$AAr?$AAc?$AA?2?$AAa?$AAp?$AAp?$AAc?$AAr?$AAt?$AA?2?$AAh@ 00537430     libucrtd:new_handler.obj
 0002:0002c4b0       ??_C@_1GE@KFPKEKCH@?$AAm?$AAi?$AAn?$AAk?$AAe?$AAr?$AAn?$AAe?$AAl?$AA?2?$AAc?$AAr?$AAt?$AAs?$AA?2?$AAu?$AAc?$AAr?$AAt?$AA?2?$AAs?$AAr?$AAc?$AA?2?$AAa?$AAp?$AAp?$AAc?$AAr?$AAt?$AA?2?$AAt@ 005374b0     libucrtd:ieee87.obj
 0002:0002c528       ??_C@_1BO@OFDNCLL@?$AA_?$AAs?$AAe?$AAt?$AA_?$AAc?$AAo?$AAn?$AAt?$AAr?$AAo?$AAl?$AAf?$AAp?$AA?$AA@ 00537528     libucrtd:ieee87.obj
 0002:0002c550       ??_C@_1GO@OKJGOMCB@?$AA_?$AAc?$AAo?$AAn?$AAt?$AAr?$AAo?$AAl?$AAf?$AAp?$AA_?$AAs?$AA?$CI?$AA?$CI?$AA?$CI?$AAv?$AAo?$AAi?$AAd?$AA?5?$AA?$CK?$AA?$CJ?$AA0?$AA?$CJ?$AA?0?$AA?5?$AAn?$AAe?$AAw?$AAc?$AAt?$AAr@ 00537550     libucrtd:ieee87.obj
 0002:0002c5d4       ??_C@_1BG@HHIFPOEK@?$AAm?$AAs?$AAv?$AAc?$AAr?$AAt?$AA?4?$AAd?$AAl?$AAl?$AA?$AA@ 005375d4     libucrtd:free_base.obj
 0002:0002c5f0       ??_C@_1CE@NPMGPNNP@?$AAI?$AAS?$AA_?$AA2?$AA_?$AAP?$AAO?$AAW?$AA_?$AAN?$AA?$CI?$AAa?$AAl?$AAi?$AAg?$AAn?$AA?$CJ?$AA?$AA@ 005375f0     libucrtd:align.obj
 0002:0002c620       ??_C@_1FM@GHAMPDNO@?$AAm?$AAi?$AAn?$AAk?$AAe?$AAr?$AAn?$AAe?$AAl?$AA?2?$AAc?$AAr?$AAt?$AAs?$AA?2?$AAu?$AAc?$AAr?$AAt?$AA?2?$AAs?$AAr?$AAc?$AA?2?$AAa?$AAp?$AAp?$AAc?$AAr?$AAt?$AA?2?$AAh@ 00537620     libucrtd:align.obj
 0002:0002c690       ??_C@_1DI@LCGAEAA@?$AA_?$AAa?$AAl?$AAi?$AAg?$AAn?$AAe?$AAd?$AA_?$AAo?$AAf?$AAf?$AAs?$AAe?$AAt?$AA_?$AAm?$AAa?$AAl?$AAl?$AAo?$AAc?$AA_?$AAb?$AAa?$AAs?$AAe?$AA?$AA@ 00537690     libucrtd:align.obj
 0002:0002c6d4       ??_C@_1DK@PBMGAKHJ@?$AA_?$AAa?$AAl?$AAi?$AAg?$AAn?$AAe?$AAd?$AA_?$AAo?$AAf?$AAf?$AAs?$AAe?$AAt?$AA_?$AAr?$AAe?$AAa?$AAl?$AAl?$AAo?$AAc?$AA_?$AAb?$AAa?$AAs?$AAe?$AA?$AA@ 005376d4     libucrtd:align.obj
 0002:0002c71c       ??_C@_1CI@DHKEEEHJ@?$AA_?$AAa?$AAl?$AAi?$AAg?$AAn?$AAe?$AAd?$AA_?$AAm?$AAs?$AAi?$AAz?$AAe?$AA_?$AAb?$AAa?$AAs?$AAe?$AA?$AA@ 0053771c     libucrtd:align.obj
 0002:0002c750       ??_C@_1FO@GEKPJHID@?$AAm?$AAi?$AAn?$AAk?$AAe?$AAr?$AAn?$AAe?$AAl?$AA?2?$AAc?$AAr?$AAt?$AAs?$AA?2?$AAu?$AAc?$AAr?$AAt?$AA?2?$AAs?$AAr?$AAc?$AA?2?$AAa?$AAp?$AAp?$AAc?$AAr?$AAt?$AA?2?$AAh@ 00537750     libucrtd:expand.obj
 0002:0002c7c0       ??_C@_1BK@JMCGJOCC@?$AA_?$AAe?$AAx?$AAp?$AAa?$AAn?$AAd?$AA_?$AAb?$AAa?$AAs?$AAe?$AA?$AA@ 005377c0     libucrtd:expand.obj
 0002:0002c7e0       ??_C@_1FA@IFFFOLDJ@?$AAn?$AAR?$AAp?$AAt?$AAT?$AAy?$AAp?$AAe?$AA?5?$AA?$DO?$AA?$DN?$AA?5?$AA0?$AA?5?$AA?$CG?$AA?$CG?$AA?5?$AAn?$AAR?$AAp?$AAt?$AAT?$AAy?$AAp?$AAe?$AA?5?$AA?$DM?$AA?5?$AA_?$AAC?$AAR?$AAT@ 005377e0     libucrtd:dbgrptt.obj
 0002:0002c840       ??_C@_1GA@LFAOKOOP@?$AAm?$AAi?$AAn?$AAk?$AAe?$AAr?$AAn?$AAe?$AAl?$AA?2?$AAc?$AAr?$AAt?$AAs?$AA?2?$AAu?$AAc?$AAr?$AAt?$AA?2?$AAs?$AAr?$AAc?$AA?2?$AAa?$AAp?$AAp?$AAc?$AAr?$AAt?$AA?2?$AAm@ 00537840     libucrtd:dbgrptt.obj
 0002:0002c8b4       ??_C@_1CE@FIHIECNJ@?$AA_?$AAC?$AAr?$AAt?$AAS?$AAe?$AAt?$AAR?$AAe?$AAp?$AAo?$AAr?$AAt?$AAM?$AAo?$AAd?$AAe?$AA?$AA@ 005378b4     libucrtd:dbgrptt.obj
 0002:0002c8e0       ??_C@_1NK@LOFHIHFC@?$AAf?$AAM?$AAo?$AAd?$AAe?$AA?5?$AA?$DN?$AA?$DN?$AA?5?$AA_?$AAC?$AAR?$AAT?$AAD?$AAB?$AAG?$AA_?$AAR?$AAE?$AAP?$AAO?$AAR?$AAT?$AA_?$AAM?$AAO?$AAD?$AAE?$AA?5?$AA?$HM?$AA?$HM?$AA?5@ 005378e0     libucrtd:dbgrptt.obj
 0002:0002c9e8       ??_C@_1CE@IKKEDCME@?$AA_?$AAC?$AAr?$AAt?$AAS?$AAe?$AAt?$AAR?$AAe?$AAp?$AAo?$AAr?$AAt?$AAF?$AAi?$AAl?$AAe?$AA?$AA@ 005379e8     libucrtd:dbgrptt.obj
 0002:0002ca14       ??_C@_1CA@KHJHLKA@?$AA_?$AAV?$AAC?$AAr?$AAt?$AAD?$AAb?$AAg?$AAR?$AAe?$AAp?$AAo?$AAr?$AAt?$AAA?$AA?$AA@ 00537a14     libucrtd:dbgrptt.obj
 0002:0002ca40       ??_C@_1FA@JPHJBHEM@?$AA_?$AAi?$AAt?$AAo?$AAa?$AA_?$AAs?$AA?$CI?$AAn?$AAL?$AAi?$AAn?$AAe?$AA?0?$AA?5?$AAs?$AAz?$AAL?$AAi?$AAn?$AAe?$AAM?$AAe?$AAs?$AAs?$AAa?$AAg?$AAe?$AA?0?$AA?5?$AA4?$AA0@ 00537a40     libucrtd:dbgrptt.obj
 0002:0002caa0       ??_C@_0CG@BNGLOCEO@Second?5Chance?5Assertion?5Failed?3?5@ 00537aa0     libucrtd:dbgrptt.obj
 0002:0002cad0       ??_C@_0P@DFJNDPOP@?$DMfile?5unknown?$DO?$AA@ 00537ad0     libucrtd:dbgrptt.obj
 0002:0002cae4       ??_C@_07BHGABMGB@?0?5Line?5?$AA@ 00537ae4     libucrtd:dbgrptt.obj
 0002:0002caf0       ??_C@_1JI@GAALPGBM@?$AAs?$AAt?$AAr?$AAc?$AAp?$AAy?$AA_?$AAs?$AA?$CI?$AAs?$AAz?$AAU?$AAs?$AAe?$AAr?$AAM?$AAe?$AAs?$AAs?$AAa?$AAg?$AAe?$AA?0?$AA?5?$AA4?$AA0?$AA9?$AA6?$AA?0?$AA?5?$AA?$CC?$AA_@ 00537af0     libucrtd:dbgrptt.obj
 0002:0002cba8       ??_C@_0CL@EACFGMNB@_CrtDbgReport?3?5String?5too?5long?5o@ 00537ba8     libucrtd:dbgrptt.obj
 0002:0002cbe0       ??_C@_1KK@GIGAEDMO@?$AAs?$AAt?$AAr?$AAc?$AAp?$AAy?$AA_?$AAs?$AA?$CI?$AAs?$AAz?$AAL?$AAi?$AAn?$AAe?$AAM?$AAe?$AAs?$AAs?$AAa?$AAg?$AAe?$AA?0?$AA?5?$AA4?$AA0?$AA9?$AA6?$AA?0?$AA?5?$AAs?$AAz@ 00537be0     libucrtd:dbgrptt.obj
 0002:0002ccac       ??_C@_0BD@CAENFOHP@Assertion?5failed?3?5?$AA@ 00537cac     libucrtd:dbgrptt.obj
 0002:0002ccc8       ??_C@_1FK@NPGBPOFO@?$AAs?$AAt?$AAr?$AAc?$AAa?$AAt?$AA_?$AAs?$AA?$CI?$AAs?$AAz?$AAL?$AAi?$AAn?$AAe?$AAM?$AAe?$AAs?$AAs?$AAa?$AAg?$AAe?$AA?0?$AA?5?$AA4?$AA0?$AA9?$AA6?$AA?0?$AA?5?$AAs?$AAz@ 00537cc8     libucrtd:dbgrptt.obj
 0002:0002cd38       ??_C@_1EI@CACDLAFK@?$AAs?$AAt?$AAr?$AAc?$AAa?$AAt?$AA_?$AAs?$AA?$CI?$AAs?$AAz?$AAL?$AAi?$AAn?$AAe?$AAM?$AAe?$AAs?$AAs?$AAa?$AAg?$AAe?$AA?0?$AA?5?$AA4?$AA0?$AA9?$AA6?$AA?0?$AA?5?$AA?$CC?$AA?2@ 00537d38     libucrtd:dbgrptt.obj
 0002:0002cd90       ??_C@_01LIIJDEN@?$AN?$AA@  00537d90     libucrtd:dbgrptt.obj
 0002:0002cd98       ??_C@_1EI@LDHJEDO@?$AAs?$AAt?$AAr?$AAc?$AAa?$AAt?$AA_?$AAs?$AA?$CI?$AAs?$AAz?$AAL?$AAi?$AAn?$AAe?$AAM?$AAe?$AAs?$AAs?$AAa?$AAg?$AAe?$AA?0?$AA?5?$AA4?$AA0?$AA9?$AA6?$AA?0?$AA?5?$AA?$CC?$AA?2@ 00537d98     libucrtd:dbgrptt.obj
 0002:0002cdf0       ??_C@_0M@IPILFDFN@?$CFs?$CI?$CFd?$CJ?5?3?5?$CFs?$AA@ 00537df0     libucrtd:dbgrptt.obj
 0002:0002ce00       ??_C@_1JG@CPKCIOEE@?$AAs?$AAt?$AAr?$AAc?$AAp?$AAy?$AA_?$AAs?$AA?$CI?$AAs?$AAz?$AAO?$AAu?$AAt?$AAM?$AAe?$AAs?$AAs?$AAa?$AAg?$AAe?$AA?0?$AA?5?$AA4?$AA0?$AA9?$AA6?$AA?0?$AA?5?$AA?$CC?$AA_?$AAC@ 00537e00     libucrtd:dbgrptt.obj
 0002:0002ceb8       ??_C@_1FI@IBIOIHEG@?$AAs?$AAt?$AAr?$AAc?$AAp?$AAy?$AA_?$AAs?$AA?$CI?$AAs?$AAz?$AAO?$AAu?$AAt?$AAM?$AAe?$AAs?$AAs?$AAa?$AAg?$AAe?$AA?0?$AA?5?$AA4?$AA0?$AA9?$AA6?$AA?0?$AA?5?$AAs?$AAz?$AAL@ 00537eb8     libucrtd:dbgrptt.obj
 0002:0002cf28       ??_C@_1IM@OOKIFKOH@?$AAe?$AA?5?$AA?$DN?$AA?5?$AAm?$AAb?$AAs?$AAt?$AAo?$AAw?$AAc?$AAs?$AA_?$AAs?$AA?$CI?$AA?$CG?$AAr?$AAe?$AAt?$AA?0?$AA?5?$AAs?$AAz?$AAO?$AAu?$AAt?$AAM?$AAe?$AAs?$AAs?$AAa?$AAg@ 00537f28     libucrtd:dbgrptt.obj
 0002:0002cfd0       ??_C@_1MC@IGEECMDB@?$AAw?$AAc?$AAs?$AAc?$AAp?$AAy?$AA_?$AAs?$AA?$CI?$AAs?$AAz?$AAO?$AAu?$AAt?$AAM?$AAe?$AAs?$AAs?$AAa?$AAg?$AAe?$AA2?$AA?0?$AA?5?$AA4?$AA0?$AA9?$AA6?$AA?0?$AA?5?$AAL?$AA?$CC@ 00537fd0     libucrtd:dbgrptt.obj
 0002:0002d0b8       ??_C@_1HO@PJOFIKFE@?$AA_?$AAC?$AAr?$AAt?$AAD?$AAb?$AAg?$AAR?$AAe?$AAp?$AAo?$AAr?$AAt?$AA?3?$AA?5?$AAS?$AAt?$AAr?$AAi?$AAn?$AAg?$AA?5?$AAt?$AAo?$AAo?$AA?5?$AAl?$AAo?$AAn?$AAg?$AA?5?$AAo@ 005380b8     libucrtd:dbgrptt.obj
 0002:0002d150       ??_C@_1CA@HPALHDOD@?$AA_?$AAV?$AAC?$AAr?$AAt?$AAD?$AAb?$AAg?$AAR?$AAe?$AAp?$AAo?$AAr?$AAt?$AAW?$AA?$AA@ 00538150     libucrtd:dbgrptt.obj
 0002:0002d178       ??_C@_1FA@CNLLOMHI@?$AA_?$AAi?$AAt?$AAo?$AAw?$AA_?$AAs?$AA?$CI?$AAn?$AAL?$AAi?$AAn?$AAe?$AA?0?$AA?5?$AAs?$AAz?$AAL?$AAi?$AAn?$AAe?$AAM?$AAe?$AAs?$AAs?$AAa?$AAg?$AAe?$AA?0?$AA?5?$AA4?$AA0@ 00538178     libucrtd:dbgrptt.obj
 0002:0002d1d8       ??_C@_1EM@MJFLEDMB@?$AAS?$AAe?$AAc?$AAo?$AAn?$AAd?$AA?5?$AAC?$AAh?$AAa?$AAn?$AAc?$AAe?$AA?5?$AAA?$AAs?$AAs?$AAe?$AAr?$AAt?$AAi?$AAo?$AAn?$AA?5?$AAF?$AAa?$AAi?$AAl?$AAe?$AAd?$AA?3?$AA?5@ 005381d8     libucrtd:dbgrptt.obj
 0002:0002d234       ??_C@_1BO@OCHMLCAG@?$AA?$DM?$AAf?$AAi?$AAl?$AAe?$AA?5?$AAu?$AAn?$AAk?$AAn?$AAo?$AAw?$AAn?$AA?$DO?$AA?$AA@ 00538234     libucrtd:dbgrptt.obj
 0002:0002d258       ??_C@_1BA@ELMMDCFC@?$AA?0?$AA?5?$AAL?$AAi?$AAn?$AAe?$AA?5?$AA?$AA@ 00538258     libucrtd:dbgrptt.obj
 0002:0002d270       ??_C@_1JK@KHFABAEO@?$AAw?$AAc?$AAs?$AAc?$AAp?$AAy?$AA_?$AAs?$AA?$CI?$AAs?$AAz?$AAU?$AAs?$AAe?$AAr?$AAM?$AAe?$AAs?$AAs?$AAa?$AAg?$AAe?$AA?0?$AA?5?$AA4?$AA0?$AA9?$AA6?$AA?0?$AA?5?$AAL?$AA?$CC@ 00538270     libucrtd:dbgrptt.obj
 0002:0002d328       ??_C@_1KO@DGAHENCH@?$AAw?$AAc?$AAs?$AAc?$AAp?$AAy?$AA_?$AAs?$AA?$CI?$AAs?$AAz?$AAL?$AAi?$AAn?$AAe?$AAM?$AAe?$AAs?$AAs?$AAa?$AAg?$AAe?$AA?0?$AA?5?$AA4?$AA0?$AA9?$AA6?$AA?0?$AA?5?$AAs?$AAz@ 00538328     libucrtd:dbgrptt.obj
 0002:0002d3f8       ??_C@_1CG@FFFGGODN@?$AAA?$AAs?$AAs?$AAe?$AAr?$AAt?$AAi?$AAo?$AAn?$AA?5?$AAf?$AAa?$AAi?$AAl?$AAe?$AAd?$AA?3?$AA?5?$AA?$AA@ 005383f8     libucrtd:dbgrptt.obj
 0002:0002d428       ??_C@_1FK@HPADHBBD@?$AAw?$AAc?$AAs?$AAc?$AAa?$AAt?$AA_?$AAs?$AA?$CI?$AAs?$AAz?$AAL?$AAi?$AAn?$AAe?$AAM?$AAe?$AAs?$AAs?$AAa?$AAg?$AAe?$AA?0?$AA?5?$AA4?$AA0?$AA9?$AA6?$AA?0?$AA?5?$AAs?$AAz@ 00538428     libucrtd:dbgrptt.obj
 0002:0002d498       ??_C@_1EK@NMDFGHMF@?$AAw?$AAc?$AAs?$AAc?$AAa?$AAt?$AA_?$AAs?$AA?$CI?$AAs?$AAz?$AAL?$AAi?$AAn?$AAe?$AAM?$AAe?$AAs?$AAs?$AAa?$AAg?$AAe?$AA?0?$AA?5?$AA4?$AA0?$AA9?$AA6?$AA?0?$AA?5?$AAL?$AA?$CC@ 00538498     libucrtd:dbgrptt.obj
 0002:0002d4f0       ??_C@_13CMNBPIDO@?$AA?$AN?$AA?$AA@ 005384f0     libucrtd:dbgrptt.obj
 0002:0002d4f8       ??_C@_1EK@PHCBEDKB@?$AAw?$AAc?$AAs?$AAc?$AAa?$AAt?$AA_?$AAs?$AA?$CI?$AAs?$AAz?$AAL?$AAi?$AAn?$AAe?$AAM?$AAe?$AAs?$AAs?$AAa?$AAg?$AAe?$AA?0?$AA?5?$AA4?$AA0?$AA9?$AA6?$AA?0?$AA?5?$AAL?$AA?$CC@ 005384f8     libucrtd:dbgrptt.obj
 0002:0002d550       ??_C@_1BM@GIBPMLNL@?$AA?$CF?$AAl?$AAs?$AA?$CI?$AA?$CF?$AAd?$AA?$CJ?$AA?5?$AA?3?$AA?5?$AA?$CF?$AAl?$AAs?$AA?$AA@ 00538550     libucrtd:dbgrptt.obj
 0002:0002d578       ??_C@_1JI@EACPGHID@?$AAw?$AAc?$AAs?$AAc?$AAp?$AAy?$AA_?$AAs?$AA?$CI?$AAs?$AAz?$AAO?$AAu?$AAt?$AAM?$AAe?$AAs?$AAs?$AAa?$AAg?$AAe?$AA?0?$AA?5?$AA4?$AA0?$AA9?$AA6?$AA?0?$AA?5?$AAL?$AA?$CC?$AA_@ 00538578     libucrtd:dbgrptt.obj
 0002:0002d630       ??_C@_1FI@DBAIJPJE@?$AAw?$AAc?$AAs?$AAc?$AAp?$AAy?$AA_?$AAs?$AA?$CI?$AAs?$AAz?$AAO?$AAu?$AAt?$AAM?$AAe?$AAs?$AAs?$AAa?$AAg?$AAe?$AA?0?$AA?5?$AA4?$AA0?$AA9?$AA6?$AA?0?$AA?5?$AAs?$AAz?$AAL@ 00538630     libucrtd:dbgrptt.obj
 0002:0002d6a0       ??_C@_1IK@LEBMBAP@?$AAw?$AAc?$AAs?$AAt?$AAo?$AAm?$AAb?$AAs?$AA_?$AAs?$AA?$CI?$AAn?$AAu?$AAl?$AAl?$AAp?$AAt?$AAr?$AA?0?$AA?5?$AAs?$AAz?$AAO?$AAu?$AAt?$AAM?$AAe?$AAs?$AAs?$AAa?$AAg?$AAe@ 005386a0     libucrtd:dbgrptt.obj
 0002:0002d748       ??_C@_1MA@LBAMNNOB@?$AAs?$AAt?$AAr?$AAc?$AAp?$AAy?$AA_?$AAs?$AA?$CI?$AAs?$AAz?$AAO?$AAu?$AAt?$AAM?$AAe?$AAs?$AAs?$AAa?$AAg?$AAe?$AA2?$AA?0?$AA?5?$AA4?$AA0?$AA9?$AA6?$AA?0?$AA?5?$AA?$CC?$AA_@ 00538748     libucrtd:dbgrptt.obj
 0002:0002d830       ??_C@_0DP@GNPEPHJD@_CrtDbgReport?3?5String?5too?5long?5o@ 00538830     libucrtd:dbgrptt.obj
 0002:0002d880       ??_C@_1IE@CPGKIAGP@?$AAw?$AAc?$AAs?$AAt?$AAo?$AAm?$AAb?$AAs?$AA_?$AAs?$AA?$CI?$AA?$CG?$AAr?$AAe?$AAt?$AA?0?$AA?5?$AAs?$AAz?$AAa?$AAO?$AAu?$AAt?$AAM?$AAe?$AAs?$AAs?$AAa?$AAg?$AAe?$AA?0?$AA?5@ 00538880     libucrtd:dbgrptt.obj
 0002:0002e1ac       ??_C@_15EMKDOKLE@?$AAa?$AAr?$AA?$AA@ 005391ac     libucrtd:lcidtoname_downlevel.obj
 0002:0002e1b4       ??_C@_15KNPADPLH@?$AAb?$AAg?$AA?$AA@ 005391b4     libucrtd:lcidtoname_downlevel.obj
 0002:0002e1bc       ??_C@_15EDMHLDMO@?$AAc?$AAa?$AA?$AA@ 005391bc     libucrtd:lcidtoname_downlevel.obj
 0002:0002e1c4       ??_C@_1O@BPEAJADD@?$AAz?$AAh?$AA?9?$AAC?$AAH?$AAS?$AA?$AA@ 005391c4     libucrtd:lcidtoname_downlevel.obj
 0002:0002e1d4       ??_C@_15LJNHCMNK@?$AAc?$AAs?$AA?$AA@ 005391d4     libucrtd:lcidtoname_downlevel.obj
 0002:0002e1dc       ??_C@_15FOMCIDHG@?$AAd?$AAa?$AA?$AA@ 005391dc     libucrtd:lcidtoname_downlevel.obj
 0002:0002e1e4       ??_C@_15NBKABECB@?$AAd?$AAe?$AA?$AA@ 005391e4     libucrtd:lcidtoname_downlevel.obj
 0002:0002e1ec       ??_C@_15GHPEIIAO@?$AAe?$AAl?$AA?$AA@ 005391ec     libucrtd:lcidtoname_downlevel.obj
 0002:0002e1f4       ??_C@_15MNPNEAIF@?$AAe?$AAn?$AA?$AA@ 005391f4     libucrtd:lcidtoname_downlevel.obj
 0002:0002e1fc       ??_C@_15GPIOMPMH@?$AAe?$AAs?$AA?$AA@ 005391fc     libucrtd:lcidtoname_downlevel.obj
 0002:0002e204       ??_C@_15NGLOAKJC@?$AAf?$AAi?$AA?$AA@ 00539204     libucrtd:lcidtoname_downlevel.obj
 0002:0002e20c       ??_C@_15FBKGNKAM@?$AAf?$AAr?$AA?$AA@ 0053920c     libucrtd:lcidtoname_downlevel.obj
 0002:0002e214       ??_C@_15KGGCNEFK@?$AAh?$AAe?$AA?$AA@ 00539214     libucrtd:lcidtoname_downlevel.obj
 0002:0002e21c       ??_C@_15PGHLIDMF@?$AAh?$AAu?$AA?$AA@ 0053921c     libucrtd:lcidtoname_downlevel.obj
 0002:0002e224       ??_C@_15BIEMAPLM@?$AAi?$AAs?$AA?$AA@ 00539224     libucrtd:lcidtoname_downlevel.obj
 0002:0002e22c       ??_C@_15IFJLDHAF@?$AAi?$AAt?$AA?$AA@ 0053922c     libucrtd:lcidtoname_downlevel.obj
 0002:0002e234       ??_C@_15GEMIOCAG@?$AAj?$AAa?$AA?$AA@ 00539234     libucrtd:lcidtoname_downlevel.obj
 0002:0002e23c       ??_C@_15EPELEGJA@?$AAk?$AAo?$AA?$AA@ 0053923c     libucrtd:lcidtoname_downlevel.obj
 0002:0002e244       ??_C@_15NDDHIMN@?$AAn?$AAl?$AA?$AA@ 00539244     libucrtd:lcidtoname_downlevel.obj
 0002:0002e24c       ??_C@_15BPIGNHCD@?$AAn?$AAo?$AA?$AA@ 0053924c     libucrtd:lcidtoname_downlevel.obj
 0002:0002e254       ??_C@_15DEOPBLCG@?$AAp?$AAl?$AA?$AA@ 00539254     libucrtd:lcidtoname_downlevel.obj
 0002:0002e25c       ??_C@_15KBECGEFG@?$AAp?$AAt?$AA?$AA@ 0053925c     libucrtd:lcidtoname_downlevel.obj
 0002:0002e264       ??_C@_15GLJCBFMD@?$AAr?$AAo?$AA?$AA@ 00539264     libucrtd:lcidtoname_downlevel.obj
 0002:0002e26c       ??_C@_15FEDGKCDI@?$AAr?$AAu?$AA?$AA@ 0053926c     libucrtd:lcidtoname_downlevel.obj
 0002:0002e274       ??_C@_15GLKMLLHM@?$AAh?$AAr?$AA?$AA@ 00539274     libucrtd:lcidtoname_downlevel.obj
 0002:0002e27c       ??_C@_15CPKMFBDB@?$AAs?$AAk?$AA?$AA@ 0053927c     libucrtd:lcidtoname_downlevel.obj
 0002:0002e284       ??_C@_15BAAIOGMK@?$AAs?$AAq?$AA?$AA@ 00539284     libucrtd:lcidtoname_downlevel.obj
 0002:0002e28c       ??_C@_15INNPNOHD@?$AAs?$AAv?$AA?$AA@ 0053928c     libucrtd:lcidtoname_downlevel.obj
 0002:0002e294       ??_C@_15CABMMOGH@?$AAt?$AAh?$AA?$AA@ 00539294     libucrtd:lcidtoname_downlevel.obj
 0002:0002e29c       ??_C@_15BPLIHJJM@?$AAt?$AAr?$AA?$AA@ 0053929c     libucrtd:lcidtoname_downlevel.obj
 0002:0002e2a4       ??_C@_15NEOEKKDJ@?$AAu?$AAr?$AA?$AA@ 005392a4     libucrtd:lcidtoname_downlevel.obj
 0002:0002e2ac       ??_C@_15NFICGAJK@?$AAi?$AAd?$AA?$AA@ 005392ac     libucrtd:lcidtoname_downlevel.obj
 0002:0002e2b4       ??_C@_15HPJPHDM@?$AAb?$AAe?$AA?$AA@ 005392b4     libucrtd:lcidtoname_downlevel.obj
 0002:0002e2bc       ??_C@_15LCHLGJII@?$AAs?$AAl?$AA?$AA@ 005392bc     libucrtd:lcidtoname_downlevel.obj
 0002:0002e2c4       ??_C@_15PCFJPHHO@?$AAe?$AAt?$AA?$AA@ 005392c4     libucrtd:lcidtoname_downlevel.obj
 0002:0002e2cc       ??_C@_15HPFPGODN@?$AAl?$AAv?$AA?$AA@ 005392cc     libucrtd:lcidtoname_downlevel.obj
 0002:0002e2d4       ??_C@_15NFFGKGLG@?$AAl?$AAt?$AA?$AA@ 005392d4     libucrtd:lcidtoname_downlevel.obj
 0002:0002e2dc       ??_C@_15BDAKCCHN@?$AAf?$AAa?$AA?$AA@ 005392dc     libucrtd:lcidtoname_downlevel.obj
 0002:0002e2e4       ??_C@_15NFGIAIAJ@?$AAv?$AAi?$AA?$AA@ 005392e4     libucrtd:lcidtoname_downlevel.obj
 0002:0002e2ec       ??_C@_15LMKNDMHN@?$AAh?$AAy?$AA?$AA@ 005392ec     libucrtd:lcidtoname_downlevel.obj
 0002:0002e2f4       ??_C@_15IJBHMCFL@?$AAa?$AAz?$AA?$AA@ 005392f4     libucrtd:lcidtoname_downlevel.obj
 0002:0002e2fc       ??_C@_15EKOFJABL@?$AAe?$AAu?$AA?$AA@ 005392fc     libucrtd:lcidtoname_downlevel.obj
 0002:0002e304       ??_C@_15BGHADCNK@?$AAm?$AAk?$AA?$AA@ 00539304     libucrtd:lcidtoname_downlevel.obj
 0002:0002e30c       ??_C@_15JDNICKHM@?$AAa?$AAf?$AA?$AA@ 0053930c     libucrtd:lcidtoname_downlevel.obj
 0002:0002e314       ??_C@_15KPJEDBKD@?$AAk?$AAa?$AA?$AA@ 00539314     libucrtd:lcidtoname_downlevel.obj
 0002:0002e31c       ??_C@_15PDNFFFEO@?$AAf?$AAo?$AA?$AA@ 0053931c     libucrtd:lcidtoname_downlevel.obj
 0002:0002e324       ??_C@_15OMLEGLOC@?$AAh?$AAi?$AA?$AA@ 00539324     libucrtd:lcidtoname_downlevel.obj
 0002:0002e32c       ??_C@_15IDNNENKK@?$AAm?$AAs?$AA?$AA@ 0053932c     libucrtd:lcidtoname_downlevel.obj
 0002:0002e334       ??_C@_15MACJNBMH@?$AAk?$AAk?$AA?$AA@ 00539334     libucrtd:lcidtoname_downlevel.obj
 0002:0002e33c       ??_C@_15DKDJEOND@?$AAk?$AAy?$AA?$AA@ 0053933c     libucrtd:lcidtoname_downlevel.obj
 0002:0002e344       ??_C@_15DFGDLJBG@?$AAs?$AAw?$AA?$AA@ 00539344     libucrtd:lcidtoname_downlevel.obj
 0002:0002e34c       ??_C@_15BBFAICNG@?$AAu?$AAz?$AA?$AA@ 0053934c     libucrtd:lcidtoname_downlevel.obj
 0002:0002e354       ??_C@_15DKNDCGEA@?$AAt?$AAt?$AA?$AA@ 00539354     libucrtd:lcidtoname_downlevel.obj
 0002:0002e35c       ??_C@_15MGIFMDPL@?$AAp?$AAa?$AA?$AA@ 0053935c     libucrtd:lcidtoname_downlevel.obj
 0002:0002e364       ??_C@_15HCNDBBA@?$AAg?$AAu?$AA?$AA@ 00539364     libucrtd:lcidtoname_downlevel.obj
 0002:0002e36c       ??_C@_15FNBEIBON@?$AAt?$AAa?$AA?$AA@ 0053936c     libucrtd:lcidtoname_downlevel.obj
 0002:0002e374       ??_C@_15NCHGBGLK@?$AAt?$AAe?$AA?$AA@ 00539374     libucrtd:lcidtoname_downlevel.obj
 0002:0002e37c       ??_C@_15PHPHCBPF@?$AAk?$AAn?$AA?$AA@ 0053937c     libucrtd:lcidtoname_downlevel.obj
 0002:0002e384       ??_C@_15DLGBCKMP@?$AAm?$AAr?$AA?$AA@ 00539384     libucrtd:lcidtoname_downlevel.obj
 0002:0002e38c       ??_C@_15EABBLBFF@?$AAs?$AAa?$AA?$AA@ 0053938c     libucrtd:lcidtoname_downlevel.obj
 0002:0002e394       ??_C@_15CBKOMCOI@?$AAm?$AAn?$AA?$AA@ 00539394     libucrtd:lcidtoname_downlevel.obj
 0002:0002e39c       ??_C@_15CKDMCJAF@?$AAg?$AAl?$AA?$AA@ 0053939c     libucrtd:lcidtoname_downlevel.obj
 0002:0002e3a4       ??_C@_17CNJFBPG@?$AAk?$AAo?$AAk?$AA?$AA@ 005393a4     libucrtd:lcidtoname_downlevel.obj
 0002:0002e3b0       ??_C@_17FFBJICPL@?$AAs?$AAy?$AAr?$AA?$AA@ 005393b0     libucrtd:lcidtoname_downlevel.obj
 0002:0002e3bc       ??_C@_17KPNDCPAF@?$AAd?$AAi?$AAv?$AA?$AA@ 005393bc     libucrtd:lcidtoname_downlevel.obj
 0002:0002e3c8       ??_C@_1M@OKAHONE@?$AAa?$AAr?$AA?9?$AAS?$AAA?$AA?$AA@ 005393c8     libucrtd:lcidtoname_downlevel.obj
 0002:0002e3d8       ??_C@_1M@FFFIGIGK@?$AAb?$AAg?$AA?9?$AAB?$AAG?$AA?$AA@ 005393d8     libucrtd:lcidtoname_downlevel.obj
 0002:0002e3e8       ??_C@_1M@BJNKEDC@?$AAc?$AAa?$AA?9?$AAE?$AAS?$AA?$AA@ 005393e8     libucrtd:lcidtoname_downlevel.obj
 0002:0002e3f8       ??_C@_1M@IJJHFJHA@?$AAc?$AAs?$AA?9?$AAC?$AAZ?$AA?$AA@ 005393f8     libucrtd:lcidtoname_downlevel.obj
 0002:0002e408       ??_C@_1M@CLPEOBGI@?$AAd?$AAa?$AA?9?$AAD?$AAK?$AA?$AA@ 00539408     libucrtd:lcidtoname_downlevel.obj
 0002:0002e418       ??_C@_1M@MCMADGCB@?$AAd?$AAe?$AA?9?$AAD?$AAE?$AA?$AA@ 00539418     libucrtd:lcidtoname_downlevel.obj
 0002:0002e428       ??_C@_1M@OOCKEMAM@?$AAe?$AAl?$AA?9?$AAG?$AAR?$AA?$AA@ 00539428     libucrtd:lcidtoname_downlevel.obj
 0002:0002e438       ??_C@_1M@DDNJFGID@?$AAf?$AAi?$AA?9?$AAF?$AAI?$AA?$AA@ 00539438     libucrtd:lcidtoname_downlevel.obj
 0002:0002e448       ??_C@_1M@GLIPPMAC@?$AAf?$AAr?$AA?9?$AAF?$AAR?$AA?$AA@ 00539448     libucrtd:lcidtoname_downlevel.obj
 0002:0002e458       ??_C@_1M@GFMCHPE@?$AAh?$AAe?$AA?9?$AAI?$AAL?$AA?$AA@ 00539458     libucrtd:lcidtoname_downlevel.obj
 0002:0002e468       ??_C@_1M@MHLPGNKM@?$AAh?$AAu?$AA?9?$AAH?$AAU?$AA?$AA@ 00539468     libucrtd:lcidtoname_downlevel.obj
 0002:0002e478       ??_C@_1M@LPDDNNPN@?$AAi?$AAs?$AA?9?$AAI?$AAS?$AA?$AA@ 00539478     libucrtd:lcidtoname_downlevel.obj
 0002:0002e488       ??_C@_1M@MADIPODN@?$AAi?$AAt?$AA?9?$AAI?$AAT?$AA?$AA@ 00539488     libucrtd:lcidtoname_downlevel.obj
 0002:0002e498       ??_C@_1M@IHBJJGG@?$AAn?$AAl?$AA?9?$AAN?$AAL?$AA?$AA@ 00539498     libucrtd:lcidtoname_downlevel.obj
 0002:0002e4a8       ??_C@_1M@EANAGDL@?$AAn?$AAb?$AA?9?$AAN?$AAO?$AA?$AA@ 005394a8     libucrtd:lcidtoname_downlevel.obj
 0002:0002e4b8       ??_C@_1M@NEIEMEGP@?$AAp?$AAl?$AA?9?$AAP?$AAL?$AA?$AA@ 005394b8     libucrtd:lcidtoname_downlevel.obj
 0002:0002e4c8       ??_C@_1M@BOCFIGEP@?$AAp?$AAt?$AA?9?$AAB?$AAR?$AA?$AA@ 005394c8     libucrtd:lcidtoname_downlevel.obj
 0002:0002e4d8       ??_C@_1M@IMPFOPBG@?$AAr?$AAo?$AA?9?$AAR?$AAO?$AA?$AA@ 005394d8     libucrtd:lcidtoname_downlevel.obj
 0002:0002e4e8       ??_C@_1M@IDNNEJMM@?$AAr?$AAu?$AA?9?$AAR?$AAU?$AA?$AA@ 005394e8     libucrtd:lcidtoname_downlevel.obj
 0002:0002e4f8       ??_C@_1M@LILEEOGM@?$AAh?$AAr?$AA?9?$AAH?$AAR?$AA?$AA@ 005394f8     libucrtd:lcidtoname_downlevel.obj
 0002:0002e508       ??_C@_1M@FKIFEHPB@?$AAs?$AAk?$AA?9?$AAS?$AAK?$AA?$AA@ 00539508     libucrtd:lcidtoname_downlevel.obj
 0002:0002e518       ??_C@_1M@LJMAMNPJ@?$AAs?$AAq?$AA?9?$AAA?$AAL?$AA?$AA@ 00539518     libucrtd:lcidtoname_downlevel.obj
 0002:0002e528       ??_C@_1M@GIAKDKJK@?$AAs?$AAv?$AA?9?$AAS?$AAE?$AA?$AA@ 00539528     libucrtd:lcidtoname_downlevel.obj
 0002:0002e538       ??_C@_1M@MKJKIKCL@?$AAt?$AAh?$AA?9?$AAT?$AAH?$AA?$AA@ 00539538     libucrtd:lcidtoname_downlevel.obj
 0002:0002e548       ??_C@_1M@MFLCCMPB@?$AAt?$AAr?$AA?9?$AAT?$AAR?$AA?$AA@ 00539548     libucrtd:lcidtoname_downlevel.obj
 0002:0002e558       ??_C@_1M@OIJHDKJN@?$AAu?$AAr?$AA?9?$AAP?$AAK?$AA?$AA@ 00539558     libucrtd:lcidtoname_downlevel.obj
 0002:0002e568       ??_C@_1M@LHIPCIEK@?$AAi?$AAd?$AA?9?$AAI?$AAD?$AA?$AA@ 00539568     libucrtd:lcidtoname_downlevel.obj
 0002:0002e578       ??_C@_1M@MFMOBGI@?$AAu?$AAk?$AA?9?$AAU?$AAA?$AA?$AA@ 00539578     libucrtd:lcidtoname_downlevel.obj
 0002:0002e588       ??_C@_1M@OBGLJIPL@?$AAb?$AAe?$AA?9?$AAB?$AAY?$AA?$AA@ 00539588     libucrtd:lcidtoname_downlevel.obj
 0002:0002e598       ??_C@_1M@BCFAJEAD@?$AAs?$AAl?$AA?9?$AAS?$AAI?$AA?$AA@ 00539598     libucrtd:lcidtoname_downlevel.obj
 0002:0002e5a8       ??_C@_1M@FKFFEDDN@?$AAe?$AAt?$AA?9?$AAE?$AAE?$AA?$AA@ 005395a8     libucrtd:lcidtoname_downlevel.obj
 0002:0002e5b8       ??_C@_1M@KGKKAACI@?$AAl?$AAv?$AA?9?$AAL?$AAV?$AA?$AA@ 005395b8     libucrtd:lcidtoname_downlevel.obj
 0002:0002e5c8       ??_C@_1M@IFGBIJO@?$AAl?$AAt?$AA?9?$AAL?$AAT?$AA?$AA@ 005395c8     libucrtd:lcidtoname_downlevel.obj
 0002:0002e5d8       ??_C@_1M@FGEAHEDM@?$AAf?$AAa?$AA?9?$AAI?$AAR?$AA?$AA@ 005395d8     libucrtd:lcidtoname_downlevel.obj
 0002:0002e5e8       ??_C@_1M@KBMAIBFN@?$AAv?$AAi?$AA?9?$AAV?$AAN?$AA?$AA@ 005395e8     libucrtd:lcidtoname_downlevel.obj
 0002:0002e5f8       ??_C@_1M@GPCBKDJK@?$AAh?$AAy?$AA?9?$AAA?$AAM?$AA?$AA@ 005395f8     libucrtd:lcidtoname_downlevel.obj
 0002:0002e608       ??_C@_1BG@BECMDDJB@?$AAa?$AAz?$AA?9?$AAA?$AAZ?$AA?9?$AAL?$AAa?$AAt?$AAn?$AA?$AA@ 00539608     libucrtd:lcidtoname_downlevel.obj
 0002:0002e624       ??_C@_1M@MAOFCAEA@?$AAe?$AAu?$AA?9?$AAE?$AAS?$AA?$AA@ 00539624     libucrtd:lcidtoname_downlevel.obj
 0002:0002e634       ??_C@_1M@IGHABKPI@?$AAm?$AAk?$AA?9?$AAM?$AAK?$AA?$AA@ 00539634     libucrtd:lcidtoname_downlevel.obj
 0002:0002e644       ??_C@_1M@IAIGNEJG@?$AAt?$AAn?$AA?9?$AAZ?$AAA?$AA?$AA@ 00539644     libucrtd:lcidtoname_downlevel.obj
 0002:0002e654       ??_C@_1M@IIJCOJFA@?$AAx?$AAh?$AA?9?$AAZ?$AAA?$AA?$AA@ 00539654     libucrtd:lcidtoname_downlevel.obj
 0002:0002e664       ??_C@_1M@LGPJHNJH@?$AAz?$AAu?$AA?9?$AAZ?$AAA?$AA?$AA@ 00539664     libucrtd:lcidtoname_downlevel.obj
 0002:0002e674       ??_C@_1M@HOKAOIO@?$AAa?$AAf?$AA?9?$AAZ?$AAA?$AA?$AA@ 00539674     libucrtd:lcidtoname_downlevel.obj
 0002:0002e684       ??_C@_1M@DPCLHLIE@?$AAk?$AAa?$AA?9?$AAG?$AAE?$AA?$AA@ 00539684     libucrtd:lcidtoname_downlevel.obj
 0002:0002e694       ??_C@_1M@BLKMHJBI@?$AAf?$AAo?$AA?9?$AAF?$AAO?$AA?$AA@ 00539694     libucrtd:lcidtoname_downlevel.obj
 0002:0002e6a4       ??_C@_1M@LGGJAPPB@?$AAh?$AAi?$AA?9?$AAI?$AAN?$AA?$AA@ 005396a4     libucrtd:lcidtoname_downlevel.obj
 0002:0002e6b4       ??_C@_1M@FIKPIHFE@?$AAm?$AAt?$AA?9?$AAM?$AAT?$AA?$AA@ 005396b4     libucrtd:lcidtoname_downlevel.obj
 0002:0002e6c4       ??_C@_1M@HEGGPBFA@?$AAs?$AAe?$AA?9?$AAN?$AAO?$AA?$AA@ 005396c4     libucrtd:lcidtoname_downlevel.obj
 0002:0002e6d4       ??_C@_1M@EIBJEEPA@?$AAm?$AAs?$AA?9?$AAM?$AAY?$AA?$AA@ 005396d4     libucrtd:lcidtoname_downlevel.obj
 0002:0002e6e4       ??_C@_1M@FHLBGMPP@?$AAk?$AAk?$AA?9?$AAK?$AAZ?$AA?$AA@ 005396e4     libucrtd:lcidtoname_downlevel.obj
 0002:0002e6f4       ??_C@_1M@NGJJLCGI@?$AAk?$AAy?$AA?9?$AAK?$AAG?$AA?$AA@ 005396f4     libucrtd:lcidtoname_downlevel.obj
 0002:0002e704       ??_C@_1M@GIENNBFC@?$AAs?$AAw?$AA?9?$AAK?$AAE?$AA?$AA@ 00539704     libucrtd:lcidtoname_downlevel.obj
 0002:0002e714       ??_C@_1BG@NDGMJIMJ@?$AAu?$AAz?$AA?9?$AAU?$AAZ?$AA?9?$AAL?$AAa?$AAt?$AAn?$AA?$AA@ 00539714     libucrtd:lcidtoname_downlevel.obj
 0002:0002e730       ??_C@_1M@IDCCIHBC@?$AAt?$AAt?$AA?9?$AAR?$AAU?$AA?$AA@ 00539730     libucrtd:lcidtoname_downlevel.obj
 0002:0002e740       ??_C@_1M@LOICPMOJ@?$AAb?$AAn?$AA?9?$AAI?$AAN?$AA?$AA@ 00539740     libucrtd:lcidtoname_downlevel.obj
 0002:0002e750       ??_C@_1M@KPKKNEAH@?$AAp?$AAa?$AA?9?$AAI?$AAN?$AA?$AA@ 00539750     libucrtd:lcidtoname_downlevel.obj
 0002:0002e760       ??_C@_1M@PJGPPBOG@?$AAg?$AAu?$AA?9?$AAI?$AAN?$AA?$AA@ 00539760     libucrtd:lcidtoname_downlevel.obj
 0002:0002e770       ??_C@_1M@KMKMOPHI@?$AAt?$AAa?$AA?9?$AAI?$AAN?$AA?$AA@ 00539770     libucrtd:lcidtoname_downlevel.obj
 0002:0002e780       ??_C@_1M@KFEHEPAC@?$AAt?$AAe?$AA?9?$AAI?$AAN?$AA?$AA@ 00539780     libucrtd:lcidtoname_downlevel.obj
 0002:0002e790       ??_C@_1M@CDCLMGHI@?$AAk?$AAn?$AA?9?$AAI?$AAN?$AA?$AA@ 00539790     libucrtd:lcidtoname_downlevel.obj
 0002:0002e7a0       ??_C@_1M@MIODLDKF@?$AAm?$AAl?$AA?9?$AAI?$AAN?$AA?$AA@ 005397a0     libucrtd:lcidtoname_downlevel.obj
 0002:0002e7b0       ??_C@_1M@PBIEACPO@?$AAm?$AAr?$AA?9?$AAI?$AAN?$AA?$AA@ 005397b0     libucrtd:lcidtoname_downlevel.obj
 0002:0002e7c0       ??_C@_1M@NIDEAGPH@?$AAs?$AAa?$AA?9?$AAI?$AAN?$AA?$AA@ 005397c0     libucrtd:lcidtoname_downlevel.obj
 0002:0002e7d0       ??_C@_1M@FHIHCBIO@?$AAm?$AAn?$AA?9?$AAM?$AAN?$AA?$AA@ 005397d0     libucrtd:lcidtoname_downlevel.obj
 0002:0002e7e0       ??_C@_1M@JAIJPENP@?$AAc?$AAy?$AA?9?$AAG?$AAB?$AA?$AA@ 005397e0     libucrtd:lcidtoname_downlevel.obj
 0002:0002e7f0       ??_C@_1M@PHGFBEPN@?$AAg?$AAl?$AA?9?$AAE?$AAS?$AA?$AA@ 005397f0     libucrtd:lcidtoname_downlevel.obj
 0002:0002e800       ??_C@_1O@KPIPDNCP@?$AAk?$AAo?$AAk?$AA?9?$AAI?$AAN?$AA?$AA@ 00539800     libucrtd:lcidtoname_downlevel.obj
 0002:0002e810       ??_C@_1O@KNHJLDJA@?$AAs?$AAy?$AAr?$AA?9?$AAS?$AAY?$AA?$AA@ 00539810     libucrtd:lcidtoname_downlevel.obj
 0002:0002e820       ??_C@_1O@MKEKBLAH@?$AAd?$AAi?$AAv?$AA?9?$AAM?$AAV?$AA?$AA@ 00539820     libucrtd:lcidtoname_downlevel.obj
 0002:0002e830       ??_C@_1O@OHDCKDDF@?$AAq?$AAu?$AAz?$AA?9?$AAB?$AAO?$AA?$AA@ 00539830     libucrtd:lcidtoname_downlevel.obj
 0002:0002e840       ??_C@_1M@LEPJNLFD@?$AAn?$AAs?$AA?9?$AAZ?$AAA?$AA?$AA@ 00539840     libucrtd:lcidtoname_downlevel.obj
 0002:0002e850       ??_C@_1M@OMLEIIJB@?$AAm?$AAi?$AA?9?$AAN?$AAZ?$AA?$AA@ 00539850     libucrtd:lcidtoname_downlevel.obj
 0002:0002e860       ??_C@_1M@PMPEAILG@?$AAa?$AAr?$AA?9?$AAI?$AAQ?$AA?$AA@ 00539860     libucrtd:lcidtoname_downlevel.obj
 0002:0002e870       ??_C@_1M@CNKPNOEE@?$AAd?$AAe?$AA?9?$AAC?$AAH?$AA?$AA@ 00539870     libucrtd:lcidtoname_downlevel.obj
 0002:0002e880       ??_C@_1M@LKMGMLKO@?$AAe?$AAn?$AA?9?$AAG?$AAB?$AA?$AA@ 00539880     libucrtd:lcidtoname_downlevel.obj
 0002:0002e890       ??_C@_1M@PGKJFFGL@?$AAe?$AAs?$AA?9?$AAM?$AAX?$AA?$AA@ 00539890     libucrtd:lcidtoname_downlevel.obj
 0002:0002e8a0       ??_C@_1M@DNNANBDC@?$AAf?$AAr?$AA?9?$AAB?$AAE?$AA?$AA@ 005398a0     libucrtd:lcidtoname_downlevel.obj
 0002:0002e8b0       ??_C@_1M@HLGMDFHM@?$AAi?$AAt?$AA?9?$AAC?$AAH?$AA?$AA@ 005398b0     libucrtd:lcidtoname_downlevel.obj
 0002:0002e8c0       ??_C@_1M@CLLBGJH@?$AAn?$AAl?$AA?9?$AAB?$AAE?$AA?$AA@ 005398c0     libucrtd:lcidtoname_downlevel.obj
 0002:0002e8d0       ??_C@_1M@BODBOGLF@?$AAn?$AAn?$AA?9?$AAN?$AAO?$AA?$AA@ 005398d0     libucrtd:lcidtoname_downlevel.obj
 0002:0002e8e0       ??_C@_1M@HFFAHKAD@?$AAp?$AAt?$AA?9?$AAP?$AAT?$AA?$AA@ 005398e0     libucrtd:lcidtoname_downlevel.obj
 0002:0002e8f0       ??_C@_1BG@LNOAKHIE@?$AAs?$AAr?$AA?9?$AAS?$AAP?$AA?9?$AAL?$AAa?$AAt?$AAn?$AA?$AA@ 005398f0     libucrtd:lcidtoname_downlevel.obj
 0002:0002e90c       ??_C@_1M@HBMHBGAK@?$AAs?$AAv?$AA?9?$AAF?$AAI?$AA?$AA@ 0053990c     libucrtd:lcidtoname_downlevel.obj
 0002:0002e91c       ??_C@_1BG@DGCJGJBE@?$AAa?$AAz?$AA?9?$AAA?$AAZ?$AA?9?$AAC?$AAy?$AAr?$AAl?$AA?$AA@ 0053991c     libucrtd:lcidtoname_downlevel.obj
 0002:0002e938       ??_C@_1M@KEJDAAHB@?$AAs?$AAe?$AA?9?$AAS?$AAE?$AA?$AA@ 00539938     libucrtd:lcidtoname_downlevel.obj
 0002:0002e948       ??_C@_1M@HEIBJJAD@?$AAm?$AAs?$AA?9?$AAB?$AAN?$AA?$AA@ 00539948     libucrtd:lcidtoname_downlevel.obj
 0002:0002e958       ??_C@_1BG@PBGJMCEM@?$AAu?$AAz?$AA?9?$AAU?$AAZ?$AA?9?$AAC?$AAy?$AAr?$AAl?$AA?$AA@ 00539958     libucrtd:lcidtoname_downlevel.obj
 0002:0002e974       ??_C@_1O@LAOBCMDF@?$AAq?$AAu?$AAz?$AA?9?$AAE?$AAC?$AA?$AA@ 00539974     libucrtd:lcidtoname_downlevel.obj
 0002:0002e984       ??_C@_1M@POEEMAIO@?$AAa?$AAr?$AA?9?$AAE?$AAG?$AA?$AA@ 00539984     libucrtd:lcidtoname_downlevel.obj
 0002:0002e994       ??_C@_1M@EFAKDEDL@?$AAz?$AAh?$AA?9?$AAH?$AAK?$AA?$AA@ 00539994     libucrtd:lcidtoname_downlevel.obj
 0002:0002e9a4       ??_C@_1M@HKKIJHGI@?$AAd?$AAe?$AA?9?$AAA?$AAT?$AA?$AA@ 005399a4     libucrtd:lcidtoname_downlevel.obj
 0002:0002e9b4       ??_C@_1M@KBFBEHJF@?$AAe?$AAn?$AA?9?$AAA?$AAU?$AA?$AA@ 005399b4     libucrtd:lcidtoname_downlevel.obj
 0002:0002e9c4       ??_C@_1M@MNPLFAAH@?$AAe?$AAs?$AA?9?$AAE?$AAS?$AA?$AA@ 005399c4     libucrtd:lcidtoname_downlevel.obj
 0002:0002e9d4       ??_C@_1M@HJOOJFMA@?$AAf?$AAr?$AA?9?$AAC?$AAA?$AA?$AA@ 005399d4     libucrtd:lcidtoname_downlevel.obj
 0002:0002e9e4       ??_C@_1BG@JPOFPNAB@?$AAs?$AAr?$AA?9?$AAS?$AAP?$AA?9?$AAC?$AAy?$AAr?$AAl?$AA?$AA@ 005399e4     libucrtd:lcidtoname_downlevel.obj
 0002:0002ea00       ??_C@_1M@LNFOCMOB@?$AAs?$AAe?$AA?9?$AAF?$AAI?$AA?$AA@ 00539a00     libucrtd:lcidtoname_downlevel.obj
 0002:0002ea10       ??_C@_1O@MGJBOAMB@?$AAq?$AAu?$AAz?$AA?9?$AAP?$AAE?$AA?$AA@ 00539a10     libucrtd:lcidtoname_downlevel.obj
 0002:0002ea20       ??_C@_1M@GJINLBOK@?$AAa?$AAr?$AA?9?$AAL?$AAY?$AA?$AA@ 00539a20     libucrtd:lcidtoname_downlevel.obj
 0002:0002ea30       ??_C@_1M@GGMNHJNL@?$AAz?$AAh?$AA?9?$AAS?$AAG?$AA?$AA@ 00539a30     libucrtd:lcidtoname_downlevel.obj
 0002:0002ea40       ??_C@_1M@HOIKODND@?$AAd?$AAe?$AA?9?$AAL?$AAU?$AA?$AA@ 00539a40     libucrtd:lcidtoname_downlevel.obj
 0002:0002ea50       ??_C@_1M@DDOCCGFG@?$AAe?$AAn?$AA?9?$AAC?$AAA?$AA?$AA@ 00539a50     libucrtd:lcidtoname_downlevel.obj
 0002:0002ea60       ??_C@_1M@BNOEMJLF@?$AAe?$AAs?$AA?9?$AAG?$AAT?$AA?$AA@ 00539a60     libucrtd:lcidtoname_downlevel.obj
 0002:0002ea70       ??_C@_1M@EOGNKEK@?$AAf?$AAr?$AA?9?$AAC?$AAH?$AA?$AA@ 00539a70     libucrtd:lcidtoname_downlevel.obj
 0002:0002ea80       ??_C@_1M@FLIDJFHL@?$AAh?$AAr?$AA?9?$AAB?$AAA?$AA?$AA@ 00539a80     libucrtd:lcidtoname_downlevel.obj
 0002:0002ea90       ??_C@_1O@FMCELNAJ@?$AAs?$AAm?$AAj?$AA?9?$AAN?$AAO?$AA?$AA@ 00539a90     libucrtd:lcidtoname_downlevel.obj
 0002:0002eaa0       ??_C@_1M@JHGLJMGJ@?$AAa?$AAr?$AA?9?$AAD?$AAZ?$AA?$AA@ 00539aa0     libucrtd:lcidtoname_downlevel.obj
 0002:0002eab0       ??_C@_1M@JKKFDCNP@?$AAz?$AAh?$AA?9?$AAM?$AAO?$AA?$AA@ 00539ab0     libucrtd:lcidtoname_downlevel.obj
 0002:0002eac0       ??_C@_1M@GEEFALPE@?$AAd?$AAe?$AA?9?$AAL?$AAI?$AA?$AA@ 00539ac0     libucrtd:lcidtoname_downlevel.obj
 0002:0002ead0       ??_C@_1M@IGEOFBG@?$AAe?$AAn?$AA?9?$AAN?$AAZ?$AA?$AA@ 00539ad0     libucrtd:lcidtoname_downlevel.obj
 0002:0002eae0       ??_C@_1M@KDBONEHP@?$AAe?$AAs?$AA?9?$AAC?$AAR?$AA?$AA@ 00539ae0     libucrtd:lcidtoname_downlevel.obj
 0002:0002eaf0       ??_C@_1M@FHMDOHNN@?$AAf?$AAr?$AA?9?$AAL?$AAU?$AA?$AA@ 00539af0     libucrtd:lcidtoname_downlevel.obj
 0002:0002eb00       ??_C@_1BG@NFKKMAFG@?$AAb?$AAs?$AA?9?$AAB?$AAA?$AA?9?$AAL?$AAa?$AAt?$AAn?$AA?$AA@ 00539b00     libucrtd:lcidtoname_downlevel.obj
 0002:0002eb1c       ??_C@_1O@IMNBEMCI@?$AAs?$AAm?$AAj?$AA?9?$AAS?$AAE?$AA?$AA@ 00539b1c     libucrtd:lcidtoname_downlevel.obj
 0002:0002eb2c       ??_C@_1M@DHHMBNDP@?$AAa?$AAr?$AA?9?$AAM?$AAA?$AA?$AA@ 00539b2c     libucrtd:lcidtoname_downlevel.obj
 0002:0002eb3c       ??_C@_1M@BNBLJCGH@?$AAe?$AAn?$AA?9?$AAI?$AAE?$AA?$AA@ 00539b3c     libucrtd:lcidtoname_downlevel.obj
 0002:0002eb4c       ??_C@_1M@GEPAFMDL@?$AAe?$AAs?$AA?9?$AAP?$AAA?$AA?$AA@ 00539b4c     libucrtd:lcidtoname_downlevel.obj
 0002:0002eb5c       ??_C@_1M@OJONDMDL@?$AAf?$AAr?$AA?9?$AAM?$AAC?$AA?$AA@ 00539b5c     libucrtd:lcidtoname_downlevel.obj
 0002:0002eb6c       ??_C@_1BG@OBCNFJB@?$AAs?$AAr?$AA?9?$AAB?$AAA?$AA?9?$AAL?$AAa?$AAt?$AAn?$AA?$AA@ 00539b6c     libucrtd:lcidtoname_downlevel.obj
 0002:0002eb88       ??_C@_1O@KEMEEGPO@?$AAs?$AAm?$AAa?$AA?9?$AAN?$AAO?$AA?$AA@ 00539b88     libucrtd:lcidtoname_downlevel.obj
 0002:0002eb98       ??_C@_1M@ELMGFODK@?$AAa?$AAr?$AA?9?$AAT?$AAN?$AA?$AA@ 00539b98     libucrtd:lcidtoname_downlevel.obj
 0002:0002eba8       ??_C@_1M@BHDLHFAF@?$AAe?$AAn?$AA?9?$AAZ?$AAA?$AA?$AA@ 00539ba8     libucrtd:lcidtoname_downlevel.obj
 0002:0002ebb8       ??_C@_1M@BMGIGLIF@?$AAe?$AAs?$AA?9?$AAD?$AAO?$AA?$AA@ 00539bb8     libucrtd:lcidtoname_downlevel.obj
 0002:0002ebc8       ??_C@_1BG@CMBHIPBE@?$AAs?$AAr?$AA?9?$AAB?$AAA?$AA?9?$AAC?$AAy?$AAr?$AAl?$AA?$AA@ 00539bc8     libucrtd:lcidtoname_downlevel.obj
 0002:0002ebe4       ??_C@_1O@HEDBLHNP@?$AAs?$AAm?$AAa?$AA?9?$AAS?$AAE?$AA?$AA@ 00539be4     libucrtd:lcidtoname_downlevel.obj
 0002:0002ebf4       ??_C@_1M@DAGCADIM@?$AAa?$AAr?$AA?9?$AAO?$AAM?$AA?$AA@ 00539bf4     libucrtd:lcidtoname_downlevel.obj
 0002:0002ec04       ??_C@_1M@FODLMICG@?$AAe?$AAn?$AA?9?$AAJ?$AAM?$AA?$AA@ 00539c04     libucrtd:lcidtoname_downlevel.obj
 0002:0002ec14       ??_C@_1M@DNMLCIHB@?$AAe?$AAs?$AA?9?$AAV?$AAE?$AA?$AA@ 00539c14     libucrtd:lcidtoname_downlevel.obj
 0002:0002ec24       ??_C@_1O@EOKHMKJK@?$AAs?$AAm?$AAs?$AA?9?$AAF?$AAI?$AA?$AA@ 00539c24     libucrtd:lcidtoname_downlevel.obj
 0002:0002ec34       ??_C@_1M@CAFJMKOF@?$AAa?$AAr?$AA?9?$AAY?$AAE?$AA?$AA@ 00539c34     libucrtd:lcidtoname_downlevel.obj
 0002:0002ec44       ??_C@_1M@CBFHIJLI@?$AAe?$AAn?$AA?9?$AAC?$AAB?$AA?$AA@ 00539c44     libucrtd:lcidtoname_downlevel.obj
 0002:0002ec54       ??_C@_1M@BGNFLDN@?$AAe?$AAs?$AA?9?$AAC?$AAO?$AA?$AA@ 00539c54     libucrtd:lcidtoname_downlevel.obj
 0002:0002ec64       ??_C@_1O@JMPHMAMC@?$AAs?$AAm?$AAn?$AA?9?$AAF?$AAI?$AA?$AA@ 00539c64     libucrtd:lcidtoname_downlevel.obj
 0002:0002ec74       ??_C@_1M@JLANABKE@?$AAa?$AAr?$AA?9?$AAS?$AAY?$AA?$AA@ 00539c74     libucrtd:lcidtoname_downlevel.obj
 0002:0002ec84       ??_C@_1M@HPKGCFGN@?$AAe?$AAn?$AA?9?$AAB?$AAZ?$AA?$AA@ 00539c84     libucrtd:lcidtoname_downlevel.obj
 0002:0002ec94       ??_C@_1M@OLJCMLGM@?$AAe?$AAs?$AA?9?$AAP?$AAE?$AA?$AA@ 00539c94     libucrtd:lcidtoname_downlevel.obj
 0002:0002eca4       ??_C@_1M@MKKGFKLE@?$AAa?$AAr?$AA?9?$AAJ?$AAO?$AA?$AA@ 00539ca4     libucrtd:lcidtoname_downlevel.obj
 0002:0002ecb4       ??_C@_1M@EKPGLDNI@?$AAe?$AAn?$AA?9?$AAT?$AAT?$AA?$AA@ 00539cb4     libucrtd:lcidtoname_downlevel.obj
 0002:0002ecc4       ??_C@_1M@OONGHFHE@?$AAe?$AAs?$AA?9?$AAA?$AAR?$AA?$AA@ 00539cc4     libucrtd:lcidtoname_downlevel.obj
 0002:0002ecd4       ??_C@_1M@OOJFGBHE@?$AAa?$AAr?$AA?9?$AAL?$AAB?$AA?$AA@ 00539cd4     libucrtd:lcidtoname_downlevel.obj
 0002:0002ece4       ??_C@_1M@GCEJHNEG@?$AAe?$AAn?$AA?9?$AAZ?$AAW?$AA?$AA@ 00539ce4     libucrtd:lcidtoname_downlevel.obj
 0002:0002ecf4       ??_C@_1M@JNOCAHJI@?$AAe?$AAs?$AA?9?$AAE?$AAC?$AA?$AA@ 00539cf4     libucrtd:lcidtoname_downlevel.obj
 0002:0002ed04       ??_C@_1M@JEFHPGGB@?$AAa?$AAr?$AA?9?$AAK?$AAW?$AA?$AA@ 00539d04     libucrtd:lcidtoname_downlevel.obj
 0002:0002ed14       ??_C@_1M@MLKIBJOJ@?$AAe?$AAn?$AA?9?$AAP?$AAH?$AA?$AA@ 00539d14     libucrtd:lcidtoname_downlevel.obj
 0002:0002ed24       ??_C@_1M@BDNIPEND@?$AAe?$AAs?$AA?9?$AAC?$AAL?$AA?$AA@ 00539d24     libucrtd:lcidtoname_downlevel.obj
 0002:0002ed34       ??_C@_1M@MPNMEKBD@?$AAa?$AAr?$AA?9?$AAA?$AAE?$AA?$AA@ 00539d34     libucrtd:lcidtoname_downlevel.obj
 0002:0002ed44       ??_C@_1M@KBJALCPI@?$AAe?$AAs?$AA?9?$AAU?$AAY?$AA?$AA@ 00539d44     libucrtd:lcidtoname_downlevel.obj
 0002:0002ed54       ??_C@_1M@LLCCOAGA@?$AAa?$AAr?$AA?9?$AAB?$AAH?$AA?$AA@ 00539d54     libucrtd:lcidtoname_downlevel.obj
 0002:0002ed64       ??_C@_1M@PBFNCDEL@?$AAe?$AAs?$AA?9?$AAP?$AAY?$AA?$AA@ 00539d64     libucrtd:lcidtoname_downlevel.obj
 0002:0002ed74       ??_C@_1M@EDGINPNP@?$AAa?$AAr?$AA?9?$AAQ?$AAA?$AA?$AA@ 00539d74     libucrtd:lcidtoname_downlevel.obj
 0002:0002ed84       ??_C@_1M@MKDBIIJI@?$AAe?$AAs?$AA?9?$AAB?$AAO?$AA?$AA@ 00539d84     libucrtd:lcidtoname_downlevel.obj
 0002:0002ed94       ??_C@_1M@CPKKEBLD@?$AAe?$AAs?$AA?9?$AAS?$AAV?$AA?$AA@ 00539d94     libucrtd:lcidtoname_downlevel.obj
 0002:0002eda4       ??_C@_1M@NDBGMMJL@?$AAe?$AAs?$AA?9?$AAH?$AAN?$AA?$AA@ 00539da4     libucrtd:lcidtoname_downlevel.obj
 0002:0002edb4       ??_C@_1M@JIJIBHDP@?$AAe?$AAs?$AA?9?$AAN?$AAI?$AA?$AA@ 00539db4     libucrtd:lcidtoname_downlevel.obj
 0002:0002edc4       ??_C@_1M@CGFMKEEK@?$AAe?$AAs?$AA?9?$AAP?$AAR?$AA?$AA@ 00539dc4     libucrtd:lcidtoname_downlevel.obj
 0002:0002edd4       ??_C@_1O@ICJHKIIK@?$AAz?$AAh?$AA?9?$AAC?$AAH?$AAT?$AA?$AA@ 00539dd4     libucrtd:lcidtoname_downlevel.obj
 0002:0002ede4       ??_C@_15CLNEJCE@?$AAs?$AAr?$AA?$AA@ 00539de4     libucrtd:lcidtoname_downlevel.obj
 0002:0002f67c       ??_C@_1M@KAHEKEIG@?$AAa?$AAf?$AA?9?$AAz?$AAa?$AA?$AA@ 0053a67c     libucrtd:lcidtoname_downlevel.obj
 0002:0002f68c       ??_C@_1M@GIECOABL@?$AAa?$AAr?$AA?9?$AAa?$AAe?$AA?$AA@ 0053a68c     libucrtd:lcidtoname_downlevel.obj
 0002:0002f69c       ??_C@_1M@BMLMEKGI@?$AAa?$AAr?$AA?9?$AAb?$AAh?$AA?$AA@ 0053a69c     libucrtd:lcidtoname_downlevel.obj
 0002:0002f6ac       ??_C@_1M@DAPFDGGB@?$AAa?$AAr?$AA?9?$AAd?$AAz?$AA?$AA@ 0053a6ac     libucrtd:lcidtoname_downlevel.obj
 0002:0002f6bc       ??_C@_1M@FJNKGKIG@?$AAa?$AAr?$AA?9?$AAe?$AAg?$AA?$AA@ 0053a6bc     libucrtd:lcidtoname_downlevel.obj
 0002:0002f6cc       ??_C@_1M@FLGKKCLO@?$AAa?$AAr?$AA?9?$AAi?$AAq?$AA?$AA@ 0053a6cc     libucrtd:lcidtoname_downlevel.obj
 0002:0002f6dc       ??_C@_1M@GNDIPALM@?$AAa?$AAr?$AA?9?$AAj?$AAo?$AA?$AA@ 0053a6dc     libucrtd:lcidtoname_downlevel.obj
 0002:0002f6ec       ??_C@_1M@DDMJFMGJ@?$AAa?$AAr?$AA?9?$AAk?$AAw?$AA?$AA@ 0053a6ec     libucrtd:lcidtoname_downlevel.obj
 0002:0002f6fc       ??_C@_1M@EJALMLHM@?$AAa?$AAr?$AA?9?$AAl?$AAb?$AA?$AA@ 0053a6fc     libucrtd:lcidtoname_downlevel.obj
 0002:0002f70c       ??_C@_1M@MOBDBLOC@?$AAa?$AAr?$AA?9?$AAl?$AAy?$AA?$AA@ 0053a70c     libucrtd:lcidtoname_downlevel.obj
 0002:0002f71c       ??_C@_1M@JAOCLHDH@?$AAa?$AAr?$AA?9?$AAm?$AAa?$AA?$AA@ 0053a71c     libucrtd:lcidtoname_downlevel.obj
 0002:0002f72c       ??_C@_1M@JHPMKJIE@?$AAa?$AAr?$AA?9?$AAo?$AAm?$AA?$AA@ 0053a72c     libucrtd:lcidtoname_downlevel.obj
 0002:0002f73c       ??_C@_1M@OEPGHFNH@?$AAa?$AAr?$AA?9?$AAq?$AAa?$AA?$AA@ 0053a73c     libucrtd:lcidtoname_downlevel.obj
 0002:0002f74c       ??_C@_1M@KJDONENM@?$AAa?$AAr?$AA?9?$AAs?$AAa?$AA?$AA@ 0053a74c     libucrtd:lcidtoname_downlevel.obj
 0002:0002f75c       ??_C@_1M@DMJDKLKM@?$AAa?$AAr?$AA?9?$AAs?$AAy?$AA?$AA@ 0053a75c     libucrtd:lcidtoname_downlevel.obj
 0002:0002f76c       ??_C@_1M@OMFIPEDC@?$AAa?$AAr?$AA?9?$AAt?$AAn?$AA?$AA@ 0053a76c     libucrtd:lcidtoname_downlevel.obj
 0002:0002f77c       ??_C@_1M@IHMHGAON@?$AAa?$AAr?$AA?9?$AAy?$AAe?$AA?$AA@ 0053a77c     libucrtd:lcidtoname_downlevel.obj
 0002:0002f78c       ??_C@_1BG@KDCPGJGB@?$AAa?$AAz?$AA?9?$AAa?$AAz?$AA?9?$AAc?$AAy?$AAr?$AAl?$AA?$AA@ 0053a78c     libucrtd:lcidtoname_downlevel.obj
 0002:0002f7a8       ??_C@_1BG@IBCKDDOE@?$AAa?$AAz?$AA?9?$AAa?$AAz?$AA?9?$AAl?$AAa?$AAt?$AAn?$AA?$AA@ 0053a7a8     libucrtd:lcidtoname_downlevel.obj
 0002:0002f7c4       ??_C@_1M@EGPFDCPD@?$AAb?$AAe?$AA?9?$AAb?$AAy?$AA?$AA@ 0053a7c4     libucrtd:lcidtoname_downlevel.obj
 0002:0002f7d4       ??_C@_1M@PCMGMCGC@?$AAb?$AAg?$AA?9?$AAb?$AAg?$AA?$AA@ 0053a7d4     libucrtd:lcidtoname_downlevel.obj
 0002:0002f7e4       ??_C@_1M@BJBMFGOB@?$AAb?$AAn?$AA?9?$AAi?$AAn?$AA?$AA@ 0053a7e4     libucrtd:lcidtoname_downlevel.obj
 0002:0002f7f4       ??_C@_1BG@EAKMMACD@?$AAb?$AAs?$AA?9?$AAb?$AAa?$AA?9?$AAl?$AAa?$AAt?$AAn?$AA?$AA@ 0053a7f4     libucrtd:lcidtoname_downlevel.obj
 0002:0002f810       ??_C@_1M@KGADAODK@?$AAc?$AAa?$AA?9?$AAe?$AAs?$AA?$AA@ 0053a810     libucrtd:lcidtoname_downlevel.obj
 0002:0002f820       ??_C@_1M@COAJPDHI@?$AAc?$AAs?$AA?9?$AAc?$AAz?$AA?$AA@ 0053a820     libucrtd:lcidtoname_downlevel.obj
 0002:0002f830       ??_C@_1M@DHBHFONH@?$AAc?$AAy?$AA?9?$AAg?$AAb?$AA?$AA@ 0053a830     libucrtd:lcidtoname_downlevel.obj
 0002:0002f840       ??_C@_1M@IMGKELGA@?$AAd?$AAa?$AA?9?$AAd?$AAk?$AA?$AA@ 0053a840     libucrtd:lcidtoname_downlevel.obj
 0002:0002f850       ??_C@_1M@NNDGDNGA@?$AAd?$AAe?$AA?9?$AAa?$AAt?$AA?$AA@ 0053a850     libucrtd:lcidtoname_downlevel.obj
 0002:0002f860       ??_C@_1M@IKDBHEEM@?$AAd?$AAe?$AA?9?$AAc?$AAh?$AA?$AA@ 0053a860     libucrtd:lcidtoname_downlevel.obj
 0002:0002f870       ??_C@_1M@GFFOJMCJ@?$AAd?$AAe?$AA?9?$AAd?$AAe?$AA?$AA@ 0053a870     libucrtd:lcidtoname_downlevel.obj
 0002:0002f880       ??_C@_1M@MDNLKBPM@?$AAd?$AAe?$AA?9?$AAl?$AAi?$AA?$AA@ 0053a880     libucrtd:lcidtoname_downlevel.obj
 0002:0002f890       ??_C@_1M@NJBEEJNL@?$AAd?$AAe?$AA?9?$AAl?$AAu?$AA?$AA@ 0053a890     libucrtd:lcidtoname_downlevel.obj
 0002:0002f8a0       ??_C@_1O@GNNELBAP@?$AAd?$AAi?$AAv?$AA?9?$AAm?$AAv?$AA?$AA@ 0053a8a0     libucrtd:lcidtoname_downlevel.obj
 0002:0002f8b0       ??_C@_1M@EJLEOGAE@?$AAe?$AAl?$AA?9?$AAg?$AAr?$AA?$AA@ 0053a8b0     libucrtd:lcidtoname_downlevel.obj
 0002:0002f8c0       ??_C@_1M@GMPONJN@?$AAe?$AAn?$AA?9?$AAa?$AAu?$AA?$AA@ 0053a8c0     libucrtd:lcidtoname_downlevel.obj
 0002:0002f8d0       ??_C@_1M@NIDIIPGF@?$AAe?$AAn?$AA?9?$AAb?$AAz?$AA?$AA@ 0053a8d0     libucrtd:lcidtoname_downlevel.obj
 0002:0002f8e0       ??_C@_1M@JEHMIMFO@?$AAe?$AAn?$AA?9?$AAc?$AAa?$AA?$AA@ 0053a8e0     libucrtd:lcidtoname_downlevel.obj
 0002:0002f8f0       ??_C@_1M@IGMJCDLA@?$AAe?$AAn?$AA?9?$AAc?$AAb?$AA?$AA@ 0053a8f0     libucrtd:lcidtoname_downlevel.obj
 0002:0002f900       ??_C@_1M@BNFIGBKG@?$AAe?$AAn?$AA?9?$AAg?$AAb?$AA?$AA@ 0053a900     libucrtd:lcidtoname_downlevel.obj
 0002:0002f910       ??_C@_1M@LKIFDIGP@?$AAe?$AAn?$AA?9?$AAi?$AAe?$AA?$AA@ 0053a910     libucrtd:lcidtoname_downlevel.obj
 0002:0002f920       ??_C@_1M@PJKFGCCO@?$AAe?$AAn?$AA?9?$AAj?$AAm?$AA?$AA@ 0053a920     libucrtd:lcidtoname_downlevel.obj
 0002:0002f930       ??_C@_1M@KPPKEPBO@?$AAe?$AAn?$AA?9?$AAn?$AAz?$AA?$AA@ 0053a930     libucrtd:lcidtoname_downlevel.obj
 0002:0002f940       ??_C@_1M@GMDGLDOB@?$AAe?$AAn?$AA?9?$AAp?$AAh?$AA?$AA@ 0053a940     libucrtd:lcidtoname_downlevel.obj
 0002:0002f950       ??_C@_1M@ONGIBJNA@?$AAe?$AAn?$AA?9?$AAt?$AAt?$AA?$AA@ 0053a950     libucrtd:lcidtoname_downlevel.obj
 0002:0002f960       ??_C@_1M@LLODPCMM@?$AAe?$AAn?$AA?9?$AAu?$AAs?$AA?$AA@ 0053a960     libucrtd:lcidtoname_downlevel.obj
 0002:0002f970       ??_C@_1M@LAKFNPAN@?$AAe?$AAn?$AA?9?$AAz?$AAa?$AA?$AA@ 0053a970     libucrtd:lcidtoname_downlevel.obj
 0002:0002f980       ??_C@_1M@MFNHNHEO@?$AAe?$AAn?$AA?9?$AAz?$AAw?$AA?$AA@ 0053a980     libucrtd:lcidtoname_downlevel.obj
 0002:0002f990       ??_C@_1M@EJEINPHM@?$AAe?$AAs?$AA?9?$AAa?$AAr?$AA?$AA@ 0053a990     libucrtd:lcidtoname_downlevel.obj
 0002:0002f9a0       ??_C@_1M@GNKPCCJA@?$AAe?$AAs?$AA?9?$AAb?$AAo?$AA?$AA@ 0053a9a0     libucrtd:lcidtoname_downlevel.obj
 0002:0002f9b0       ??_C@_1M@LEEGFONL@?$AAe?$AAs?$AA?9?$AAc?$AAl?$AA?$AA@ 0053a9b0     libucrtd:lcidtoname_downlevel.obj
 0002:0002f9c0       ??_C@_1M@KGPDPBDF@?$AAe?$AAs?$AA?9?$AAc?$AAo?$AA?$AA@ 0053a9c0     libucrtd:lcidtoname_downlevel.obj
 0002:0002f9d0       ??_C@_1M@EIAHOHH@?$AAe?$AAs?$AA?9?$AAc?$AAr?$AA?$AA@ 0053a9d0     libucrtd:lcidtoname_downlevel.obj
 0002:0002f9e0       ??_C@_1M@LLPGMBIN@?$AAe?$AAs?$AA?9?$AAd?$AAo?$AA?$AA@ 0053a9e0     libucrtd:lcidtoname_downlevel.obj
 0002:0002f9f0       ??_C@_1M@DKHMKNJA@?$AAe?$AAs?$AA?9?$AAe?$AAc?$AA?$AA@ 0053a9f0     libucrtd:lcidtoname_downlevel.obj
 0002:0002fa00       ??_C@_1M@GKGFPKAP@?$AAe?$AAs?$AA?9?$AAe?$AAs?$AA?$AA@ 0053aa00     libucrtd:lcidtoname_downlevel.obj
 0002:0002fa10       ??_C@_1M@LKHKGDLN@?$AAe?$AAs?$AA?9?$AAg?$AAt?$AA?$AA@ 0053aa10     libucrtd:lcidtoname_downlevel.obj
 0002:0002fa20       ??_C@_1M@HEIIGGJD@?$AAe?$AAs?$AA?9?$AAh?$AAn?$AA?$AA@ 0053aa20     libucrtd:lcidtoname_downlevel.obj
 0002:0002fa30       ??_C@_1M@FBDHPPGD@?$AAe?$AAs?$AA?9?$AAm?$AAx?$AA?$AA@ 0053aa30     libucrtd:lcidtoname_downlevel.obj
 0002:0002fa40       ??_C@_1M@DPAGLNDH@?$AAe?$AAs?$AA?9?$AAn?$AAi?$AA?$AA@ 0053aa40     libucrtd:lcidtoname_downlevel.obj
 0002:0002fa50       ??_C@_1M@MDGOPGDD@?$AAe?$AAs?$AA?9?$AAp?$AAa?$AA?$AA@ 0053aa50     libucrtd:lcidtoname_downlevel.obj
 0002:0002fa60       ??_C@_1M@EMAMGBGE@?$AAe?$AAs?$AA?9?$AAp?$AAe?$AA?$AA@ 0053aa60     libucrtd:lcidtoname_downlevel.obj
 0002:0002fa70       ??_C@_1M@IBMCAOEC@?$AAe?$AAs?$AA?9?$AAp?$AAr?$AA?$AA@ 0053aa70     libucrtd:lcidtoname_downlevel.obj
 0002:0002fa80       ??_C@_1M@FGMDIJED@?$AAe?$AAs?$AA?9?$AAp?$AAy?$AA?$AA@ 0053aa80     libucrtd:lcidtoname_downlevel.obj
 0002:0002fa90       ??_C@_1M@IIDEOLLL@?$AAe?$AAs?$AA?9?$AAs?$AAv?$AA?$AA@ 0053aa90     libucrtd:lcidtoname_downlevel.obj
 0002:0002faa0       ??_C@_1M@GAOBIPA@?$AAe?$AAs?$AA?9?$AAu?$AAy?$AA?$AA@ 0053aaa0     libucrtd:lcidtoname_downlevel.obj
 0002:0002fab0       ??_C@_1M@JKFFICHJ@?$AAe?$AAs?$AA?9?$AAv?$AAe?$AA?$AA@ 0053aab0     libucrtd:lcidtoname_downlevel.obj
 0002:0002fac0       ??_C@_1M@PNMLOJDF@?$AAe?$AAt?$AA?9?$AAe?$AAe?$AA?$AA@ 0053aac0     libucrtd:lcidtoname_downlevel.obj
 0002:0002fad0       ??_C@_1M@GHHLIKEI@?$AAe?$AAu?$AA?9?$AAe?$AAs?$AA?$AA@ 0053aad0     libucrtd:lcidtoname_downlevel.obj
 0002:0002fae0       ??_C@_1M@PBNONODE@?$AAf?$AAa?$AA?9?$AAi?$AAr?$AA?$AA@ 0053aae0     libucrtd:lcidtoname_downlevel.obj
 0002:0002faf0       ??_C@_1M@JEEHPMIL@?$AAf?$AAi?$AA?9?$AAf?$AAi?$AA?$AA@ 0053aaf0     libucrtd:lcidtoname_downlevel.obj
 0002:0002fb00       ??_C@_1M@LMDCNDBA@?$AAf?$AAo?$AA?9?$AAf?$AAo?$AA?$AA@ 0053ab00     libucrtd:lcidtoname_downlevel.obj
 0002:0002fb10       ??_C@_1M@JKEOHLDK@?$AAf?$AAr?$AA?9?$AAb?$AAe?$AA?$AA@ 0053ab10     libucrtd:lcidtoname_downlevel.obj
 0002:0002fb20       ??_C@_1M@NOHADPMI@?$AAf?$AAr?$AA?9?$AAc?$AAa?$AA?$AA@ 0053ab20     libucrtd:lcidtoname_downlevel.obj
 0002:0002fb30       ??_C@_1M@KDHIHAEC@?$AAf?$AAr?$AA?9?$AAc?$AAh?$AA?$AA@ 0053ab30     libucrtd:lcidtoname_downlevel.obj
 0002:0002fb40       ??_C@_1M@MMBBFGAK@?$AAf?$AAr?$AA?9?$AAf?$AAr?$AA?$AA@ 0053ab40     libucrtd:lcidtoname_downlevel.obj
 0002:0002fb50       ??_C@_1M@PAFNENNF@?$AAf?$AAr?$AA?9?$AAl?$AAu?$AA?$AA@ 0053ab50     libucrtd:lcidtoname_downlevel.obj
 0002:0002fb60       ??_C@_1M@EOHDJGDD@?$AAf?$AAr?$AA?9?$AAm?$AAc?$AA?$AA@ 0053ab60     libucrtd:lcidtoname_downlevel.obj
 0002:0002fb70       ??_C@_1M@FAPLLOPF@?$AAg?$AAl?$AA?9?$AAe?$AAs?$AA?$AA@ 0053ab70     libucrtd:lcidtoname_downlevel.obj
 0002:0002fb80       ??_C@_1M@FOPBFLOO@?$AAg?$AAu?$AA?9?$AAi?$AAn?$AA?$AA@ 0053ab80     libucrtd:lcidtoname_downlevel.obj
 0002:0002fb90       ??_C@_1M@KBMCINPM@?$AAh?$AAe?$AA?9?$AAi?$AAl?$AA?$AA@ 0053ab90     libucrtd:lcidtoname_downlevel.obj
 0002:0002fba0       ??_C@_1M@BBPHKFPJ@?$AAh?$AAi?$AA?9?$AAi?$AAn?$AA?$AA@ 0053aba0     libucrtd:lcidtoname_downlevel.obj
 0002:0002fbb0       ??_C@_1M@PMBNDPHD@?$AAh?$AAr?$AA?9?$AAb?$AAa?$AA?$AA@ 0053abb0     libucrtd:lcidtoname_downlevel.obj
 0002:0002fbc0       ??_C@_1M@BPCKOEGE@?$AAh?$AAr?$AA?9?$AAh?$AAr?$AA?$AA@ 0053abc0     libucrtd:lcidtoname_downlevel.obj
 0002:0002fbd0       ??_C@_1M@GACBMHKE@?$AAh?$AAu?$AA?9?$AAh?$AAu?$AA?$AA@ 0053abd0     libucrtd:lcidtoname_downlevel.obj
 0002:0002fbe0       ??_C@_1M@MILPAJJC@?$AAh?$AAy?$AA?9?$AAa?$AAm?$AA?$AA@ 0053abe0     libucrtd:lcidtoname_downlevel.obj
 0002:0002fbf0       ??_C@_1M@BABBICEC@?$AAi?$AAd?$AA?9?$AAi?$AAd?$AA?$AA@ 0053abf0     libucrtd:lcidtoname_downlevel.obj
 0002:0002fc00       ??_C@_1M@BIKNHHPF@?$AAi?$AAs?$AA?9?$AAi?$AAs?$AA?$AA@ 0053ac00     libucrtd:lcidtoname_downlevel.obj
 0002:0002fc10       ??_C@_1M@NMPCJPHE@?$AAi?$AAt?$AA?9?$AAc?$AAh?$AA?$AA@ 0053ac10     libucrtd:lcidtoname_downlevel.obj
 0002:0002fc20       ??_C@_1M@GHKGFEDF@?$AAi?$AAt?$AA?9?$AAi?$AAt?$AA?$AA@ 0053ac20     libucrtd:lcidtoname_downlevel.obj
 0002:0002fc30       ??_C@_1M@NIEJCJJA@?$AAj?$AAa?$AA?9?$AAj?$AAp?$AA?$AA@ 0053ac30     libucrtd:lcidtoname_downlevel.obj
 0002:0002fc40       ??_C@_1M@JILFNBIM@?$AAk?$AAa?$AA?9?$AAg?$AAe?$AA?$AA@ 0053ac40     libucrtd:lcidtoname_downlevel.obj
 0002:0002fc50       ??_C@_1M@PACPMGPH@?$AAk?$AAk?$AA?9?$AAk?$AAz?$AA?$AA@ 0053ac50     libucrtd:lcidtoname_downlevel.obj
 0002:0002fc60       ??_C@_1M@IELFGMHA@?$AAk?$AAn?$AA?9?$AAi?$AAn?$AA?$AA@ 0053ac60     libucrtd:lcidtoname_downlevel.obj
 0002:0002fc70       ??_C@_1O@IBBJHCH@?$AAk?$AAo?$AAk?$AA?9?$AAi?$AAn?$AA?$AA@ 0053ac70     libucrtd:lcidtoname_downlevel.obj
 0002:0002fc80       ??_C@_1M@DMHAEOGC@?$AAk?$AAo?$AA?9?$AAk?$AAr?$AA?$AA@ 0053ac80     libucrtd:lcidtoname_downlevel.obj
 0002:0002fc90       ??_C@_1M@HBAHBIGA@?$AAk?$AAy?$AA?9?$AAk?$AAg?$AA?$AA@ 0053ac90     libucrtd:lcidtoname_downlevel.obj
 0002:0002fca0       ??_C@_1M@KPMILCJG@?$AAl?$AAt?$AA?9?$AAl?$AAt?$AA?$AA@ 0053aca0     libucrtd:lcidtoname_downlevel.obj
 0002:0002fcb0       ??_C@_1M@BDEKKCA@?$AAl?$AAv?$AA?9?$AAl?$AAv?$AA?$AA@ 0053acb0     libucrtd:lcidtoname_downlevel.obj
 0002:0002fcc0       ??_C@_1M@ELCKCCJJ@?$AAm?$AAi?$AA?9?$AAn?$AAz?$AA?$AA@ 0053acc0     libucrtd:lcidtoname_downlevel.obj
 0002:0002fcd0       ??_C@_1M@CBOOLAPA@?$AAm?$AAk?$AA?9?$AAm?$AAk?$AA?$AA@ 0053acd0     libucrtd:lcidtoname_downlevel.obj
 0002:0002fce0       ??_C@_1M@GPHNBJKN@?$AAm?$AAl?$AA?9?$AAi?$AAn?$AA?$AA@ 0053ace0     libucrtd:lcidtoname_downlevel.obj
 0002:0002fcf0       ??_C@_1M@PABJILIG@?$AAm?$AAn?$AA?9?$AAm?$AAn?$AA?$AA@ 0053acf0     libucrtd:lcidtoname_downlevel.obj
 0002:0002fd00       ??_C@_1M@FGBKKIPG@?$AAm?$AAr?$AA?9?$AAi?$AAn?$AA?$AA@ 0053ad00     libucrtd:lcidtoname_downlevel.obj
 0002:0002fd10       ??_C@_1M@NDBPDDAL@?$AAm?$AAs?$AA?9?$AAb?$AAn?$AA?$AA@ 0053ad10     libucrtd:lcidtoname_downlevel.obj
 0002:0002fd20       ??_C@_1M@OPIHOOPI@?$AAm?$AAs?$AA?9?$AAm?$AAy?$AA?$AA@ 0053ad20     libucrtd:lcidtoname_downlevel.obj
 0002:0002fd30       ??_C@_1M@PPDBCNFM@?$AAm?$AAt?$AA?9?$AAm?$AAt?$AA?$AA@ 0053ad30     libucrtd:lcidtoname_downlevel.obj
 0002:0002fd40       ??_C@_1M@KDJDKMDD@?$AAn?$AAb?$AA?9?$AAn?$AAo?$AA?$AA@ 0053ad40     libucrtd:lcidtoname_downlevel.obj
 0002:0002fd50       ??_C@_1M@KFCFLMJP@?$AAn?$AAl?$AA?9?$AAb?$AAe?$AA?$AA@ 0053ad50     libucrtd:lcidtoname_downlevel.obj
 0002:0002fd60       ??_C@_1M@KPOPDDGO@?$AAn?$AAl?$AA?9?$AAn?$AAl?$AA?$AA@ 0053ad60     libucrtd:lcidtoname_downlevel.obj
 0002:0002fd70       ??_C@_1M@LJKPEMLN@?$AAn?$AAn?$AA?9?$AAn?$AAo?$AA?$AA@ 0053ad70     libucrtd:lcidtoname_downlevel.obj
 0002:0002fd80       ??_C@_1M@BDGHHBFL@?$AAn?$AAs?$AA?9?$AAz?$AAa?$AA?$AA@ 0053ad80     libucrtd:lcidtoname_downlevel.obj
 0002:0002fd90       ??_C@_1M@IDEHOAP@?$AAp?$AAa?$AA?9?$AAi?$AAn?$AA?$AA@ 0053ad90     libucrtd:lcidtoname_downlevel.obj
 0002:0002fda0       ??_C@_1M@HDBKGOGH@?$AAp?$AAl?$AA?9?$AAp?$AAl?$AA?$AA@ 0053ada0     libucrtd:lcidtoname_downlevel.obj
 0002:0002fdb0       ??_C@_1M@LJLLCMEH@?$AAp?$AAt?$AA?9?$AAb?$AAr?$AA?$AA@ 0053adb0     libucrtd:lcidtoname_downlevel.obj
 0002:0002fdc0       ??_C@_1M@NCMONAAL@?$AAp?$AAt?$AA?9?$AAp?$AAt?$AA?$AA@ 0053adc0     libucrtd:lcidtoname_downlevel.obj
 0002:0002fdd0       ??_C@_1O@EAKMAJDN@?$AAq?$AAu?$AAz?$AA?9?$AAb?$AAo?$AA?$AA@ 0053add0     libucrtd:lcidtoname_downlevel.obj
 0002:0002fde0       ??_C@_1O@BHHPIGDN@?$AAq?$AAu?$AAz?$AA?9?$AAe?$AAc?$AA?$AA@ 0053ade0     libucrtd:lcidtoname_downlevel.obj
 0002:0002fdf0       ??_C@_1O@GBAPEKMJ@?$AAq?$AAu?$AAz?$AA?9?$AAp?$AAe?$AA?$AA@ 0053adf0     libucrtd:lcidtoname_downlevel.obj
 0002:0002fe00       ??_C@_1M@CLGLEFBO@?$AAr?$AAo?$AA?9?$AAr?$AAo?$AA?$AA@ 0053ae00     libucrtd:lcidtoname_downlevel.obj
 0002:0002fe10       ??_C@_1M@CEEDODME@?$AAr?$AAu?$AA?9?$AAr?$AAu?$AA?$AA@ 0053ae10     libucrtd:lcidtoname_downlevel.obj
 0002:0002fe20       ??_C@_1M@HPKKKMPP@?$AAs?$AAa?$AA?9?$AAi?$AAn?$AA?$AA@ 0053ae20     libucrtd:lcidtoname_downlevel.obj
 0002:0002fe30       ??_C@_1M@BKMAIGOJ@?$AAs?$AAe?$AA?9?$AAf?$AAi?$AA?$AA@ 0053ae30     libucrtd:lcidtoname_downlevel.obj
 0002:0002fe40       ??_C@_1M@NDPIFLFI@?$AAs?$AAe?$AA?9?$AAn?$AAo?$AA?$AA@ 0053ae40     libucrtd:lcidtoname_downlevel.obj
 0002:0002fe50       ??_C@_1M@DANKKHJ@?$AAs?$AAe?$AA?9?$AAs?$AAe?$AA?$AA@ 0053ae50     libucrtd:lcidtoname_downlevel.obj
 0002:0002fe60       ??_C@_1M@PNBLONPJ@?$AAs?$AAk?$AA?9?$AAs?$AAk?$AA?$AA@ 0053ae60     libucrtd:lcidtoname_downlevel.obj
 0002:0002fe70       ??_C@_1M@LFMODOAL@?$AAs?$AAl?$AA?9?$AAs?$AAi?$AA?$AA@ 0053ae70     libucrtd:lcidtoname_downlevel.obj
 0002:0002fe80       ??_C@_1O@DFKOMPG@?$AAs?$AAm?$AAa?$AA?9?$AAn?$AAo?$AA?$AA@ 0053ae80     libucrtd:lcidtoname_downlevel.obj
 0002:0002fe90       ??_C@_1O@NDKPBNNH@?$AAs?$AAm?$AAa?$AA?9?$AAs?$AAe?$AA?$AA@ 0053ae90     libucrtd:lcidtoname_downlevel.obj
 0002:0002fea0       ??_C@_1O@PLLKBHAB@?$AAs?$AAm?$AAj?$AA?9?$AAn?$AAo?$AA?$AA@ 0053aea0     libucrtd:lcidtoname_downlevel.obj
 0002:0002feb0       ??_C@_1O@CLEPOGCA@?$AAs?$AAm?$AAj?$AA?9?$AAs?$AAe?$AA?$AA@ 0053aeb0     libucrtd:lcidtoname_downlevel.obj
 0002:0002fec0       ??_C@_1O@DLGJGKMK@?$AAs?$AAm?$AAn?$AA?9?$AAf?$AAi?$AA?$AA@ 0053aec0     libucrtd:lcidtoname_downlevel.obj
 0002:0002fed0       ??_C@_1O@OJDJGAJC@?$AAs?$AAm?$AAs?$AA?9?$AAf?$AAi?$AA?$AA@ 0053aed0     libucrtd:lcidtoname_downlevel.obj
 0002:0002fee0       ??_C@_1M@BOFOGHPB@?$AAs?$AAq?$AA?9?$AAa?$AAl?$AA?$AA@ 0053aee0     libucrtd:lcidtoname_downlevel.obj
 0002:0002fef0       ??_C@_1BG@LJBBIPGB@?$AAs?$AAr?$AA?9?$AAb?$AAa?$AA?9?$AAc?$AAy?$AAr?$AAl?$AA?$AA@ 0053aef0     libucrtd:lcidtoname_downlevel.obj
 0002:0002ff0c       ??_C@_1BG@JLBENFOE@?$AAs?$AAr?$AA?9?$AAb?$AAa?$AA?9?$AAl?$AAa?$AAt?$AAn?$AA?$AA@ 0053af0c     libucrtd:lcidtoname_downlevel.obj
 0002:0002ff28       ??_C@_1BG@KODPNHE@?$AAs?$AAr?$AA?9?$AAs?$AAp?$AA?9?$AAc?$AAy?$AAr?$AAl?$AA?$AA@ 0053af28     libucrtd:lcidtoname_downlevel.obj
 0002:0002ff44       ??_C@_1BG@CIOGKHPB@?$AAs?$AAr?$AA?9?$AAs?$AAp?$AA?9?$AAl?$AAa?$AAt?$AAn?$AA?$AA@ 0053af44     libucrtd:lcidtoname_downlevel.obj
 0002:0002ff60       ??_C@_1M@NGFJLMAC@?$AAs?$AAv?$AA?9?$AAf?$AAi?$AA?$AA@ 0053af60     libucrtd:lcidtoname_downlevel.obj
 0002:0002ff70       ??_C@_1M@MPJEJAJC@?$AAs?$AAv?$AA?9?$AAs?$AAe?$AA?$AA@ 0053af70     libucrtd:lcidtoname_downlevel.obj
 0002:0002ff80       ??_C@_1M@MPNDHLFK@?$AAs?$AAw?$AA?9?$AAk?$AAe?$AA?$AA@ 0053af80     libucrtd:lcidtoname_downlevel.obj
 0002:0002ff90       ??_C@_1O@KOHBJJI@?$AAs?$AAy?$AAr?$AA?9?$AAs?$AAy?$AA?$AA@ 0053af90     libucrtd:lcidtoname_downlevel.obj
 0002:0002ffa0       ??_C@_1M@LDCEFHA@?$AAt?$AAa?$AA?9?$AAi?$AAn?$AA?$AA@ 0053afa0     libucrtd:lcidtoname_downlevel.obj
 0002:0002ffb0       ??_C@_1M@CNJOFAK@?$AAt?$AAe?$AA?9?$AAi?$AAn?$AA?$AA@ 0053afb0     libucrtd:lcidtoname_downlevel.obj
 0002:0002ffc0       ??_C@_1M@GNAECACD@?$AAt?$AAh?$AA?9?$AAt?$AAh?$AA?$AA@ 0053afc0     libucrtd:lcidtoname_downlevel.obj
 0002:0002ffd0       ??_C@_1M@CHBIHOJO@?$AAt?$AAn?$AA?9?$AAz?$AAa?$AA?$AA@ 0053afd0     libucrtd:lcidtoname_downlevel.obj
 0002:0002ffe0       ??_C@_1M@GCCMIGPJ@?$AAt?$AAr?$AA?9?$AAt?$AAr?$AA?$AA@ 0053afe0     libucrtd:lcidtoname_downlevel.obj
 0002:0002fff0       ??_C@_1M@CELMCNBK@?$AAt?$AAt?$AA?9?$AAr?$AAu?$AA?$AA@ 0053aff0     libucrtd:lcidtoname_downlevel.obj
 0002:00030000       ??_C@_1M@KLMCELGA@?$AAu?$AAk?$AA?9?$AAu?$AAa?$AA?$AA@ 0053b000     libucrtd:lcidtoname_downlevel.obj
 0002:00030010       ??_C@_1M@EPAJJAJF@?$AAu?$AAr?$AA?9?$AAp?$AAk?$AA?$AA@ 0053b010     libucrtd:lcidtoname_downlevel.obj
 0002:00030020       ??_C@_1BG@GEGPMCDJ@?$AAu?$AAz?$AA?9?$AAu?$AAz?$AA?9?$AAc?$AAy?$AAr?$AAl?$AA?$AA@ 0053b020     libucrtd:lcidtoname_downlevel.obj
 0002:0003003c       ??_C@_1BG@EGGKJILM@?$AAu?$AAz?$AA?9?$AAu?$AAz?$AA?9?$AAl?$AAa?$AAt?$AAn?$AA?$AA@ 0053b03c     libucrtd:lcidtoname_downlevel.obj
 0002:00030058       ??_C@_1M@GFOCLFF@?$AAv?$AAi?$AA?9?$AAv?$AAn?$AA?$AA@ 0053b058     libucrtd:lcidtoname_downlevel.obj
 0002:00030068       ??_C@_1M@CPAMEDFI@?$AAx?$AAh?$AA?9?$AAz?$AAa?$AA?$AA@ 0053b068     libucrtd:lcidtoname_downlevel.obj
 0002:00030078       ??_C@_1O@EBKIFIGN@?$AAz?$AAh?$AA?9?$AAc?$AAh?$AAs?$AA?$AA@ 0053b078     libucrtd:lcidtoname_downlevel.obj
 0002:00030088       ??_C@_1O@NMHPGANE@?$AAz?$AAh?$AA?9?$AAc?$AAh?$AAt?$AA?$AA@ 0053b088     libucrtd:lcidtoname_downlevel.obj
 0002:00030098       ??_C@_1M@LPINJOMC@?$AAz?$AAh?$AA?9?$AAc?$AAn?$AA?$AA@ 0053b098     libucrtd:lcidtoname_downlevel.obj
 0002:000300a8       ??_C@_1M@OCJEJODD@?$AAz?$AAh?$AA?9?$AAh?$AAk?$AA?$AA@ 0053b0a8     libucrtd:lcidtoname_downlevel.obj
 0002:000300b8       ??_C@_1M@DNDLJINH@?$AAz?$AAh?$AA?9?$AAm?$AAo?$AA?$AA@ 0053b0b8     libucrtd:lcidtoname_downlevel.obj
 0002:000300c8       ??_C@_1M@MBFDNDND@?$AAz?$AAh?$AA?9?$AAs?$AAg?$AA?$AA@ 0053b0c8     libucrtd:lcidtoname_downlevel.obj
 0002:000300d8       ??_C@_1M@IMEPLEPE@?$AAz?$AAh?$AA?9?$AAt?$AAw?$AA?$AA@ 0053b0d8     libucrtd:lcidtoname_downlevel.obj
 0002:000300e8       ??_C@_1M@BBGHNHJP@?$AAz?$AAu?$AA?9?$AAz?$AAa?$AA?$AA@ 0053b0e8     libucrtd:lcidtoname_downlevel.obj
 0002:000300f8       ??_C@_1HO@KHHMOCBO@?$AAm?$AAi?$AAn?$AAk?$AAe?$AAr?$AAn?$AAe?$AAl?$AA?2?$AAc?$AAr?$AAt?$AAs?$AA?2?$AAu?$AAc?$AAr?$AAt?$AA?2?$AAs?$AAr?$AAc?$AA?2?$AAa?$AAp?$AAp?$AAc?$AAr?$AAt?$AA?2?$AAl@ 0053b0f8     libucrtd:lcidtoname_downlevel.obj
 0002:00030190       ??_C@_1EC@MDFDCHIL@?$AA_?$AA_?$AAa?$AAc?$AAr?$AAt?$AA_?$AAD?$AAo?$AAw?$AAn?$AAl?$AAe?$AAv?$AAe?$AAl?$AAL?$AAC?$AAI?$AAD?$AAT?$AAo?$AAL?$AAo?$AAc?$AAa?$AAl?$AAe?$AAN?$AAa?$AAm?$AAe@ 0053b190     libucrtd:lcidtoname_downlevel.obj
 0002:000301e0       ??_C@_1FO@LFACCMJH@?$AAw?$AAc?$AAs?$AAc?$AAp?$AAy?$AA_?$AAs?$AA?$CI?$AAo?$AAu?$AAt?$AAL?$AAo?$AAc?$AAa?$AAl?$AAe?$AAN?$AAa?$AAm?$AAe?$AA?0?$AA?5?$AAc?$AAc?$AAh?$AAL?$AAo?$AAc?$AAa?$AAl@ 0053b1e0     libucrtd:lcidtoname_downlevel.obj
 0002:00030250       ??_C@_1GA@DKNOMDCL@?$AAm?$AAi?$AAn?$AAk?$AAe?$AAr?$AAn?$AAe?$AAl?$AA?2?$AAc?$AAr?$AAt?$AAs?$AA?2?$AAu?$AAc?$AAr?$AAt?$AA?2?$AAs?$AAr?$AAc?$AA?2?$AAa?$AAp?$AAp?$AAc?$AAr?$AAt?$AA?2?$AAs@ 0053b250     libucrtd:fclose.obj
 0002:000302c4       ??_C@_1O@EGMJNCOI@?$AAf?$AAc?$AAl?$AAo?$AAs?$AAe?$AA?$AA@ 0053b2c4     libucrtd:fclose.obj
 0002:000302d4       ??_C@_1BO@JINCABEC@?$AA_?$AAf?$AAc?$AAl?$AAo?$AAs?$AAe?$AA_?$AAn?$AAo?$AAl?$AAo?$AAc?$AAk?$AA?$AA@ 0053b2d4     libucrtd:fclose.obj
 0002:000302f8       ??_C@_1GA@MPOOLHCO@?$AAm?$AAi?$AAn?$AAk?$AAe?$AAr?$AAn?$AAe?$AAl?$AA?2?$AAc?$AAr?$AAt?$AAs?$AA?2?$AAu?$AAc?$AAr?$AAt?$AA?2?$AAs?$AAr?$AAc?$AA?2?$AAa?$AAp?$AAp?$AAc?$AAr?$AAt?$AA?2?$AAl@ 0053b2f8     libucrtd:commit.obj
 0002:0003036c       ??_C@_1BA@FLNMBBIM@?$AA_?$AAc?$AAo?$AAm?$AAm?$AAi?$AAt?$AA?$AA@ 0053b36c     libucrtd:commit.obj
 0002:00030380       ??_C@_1FO@CAMPMGCN@?$AAm?$AAi?$AAn?$AAk?$AAe?$AAr?$AAn?$AAe?$AAl?$AA?2?$AAc?$AAr?$AAt?$AAs?$AA?2?$AAu?$AAc?$AAr?$AAt?$AA?2?$AAs?$AAr?$AAc?$AA?2?$AAa?$AAp?$AAp?$AAc?$AAr?$AAt?$AA?2?$AAl@ 0053b380     libucrtd:write.obj
 0002:000303f0       ??_C@_1O@KOFKDHPL@?$AA_?$AAw?$AAr?$AAi?$AAt?$AAe?$AA?$AA@ 0053b3f0     libucrtd:write.obj
 0002:00030400       ??_C@_1DI@CNMHHHLG@?$AAi?$AAs?$AAl?$AAe?$AAa?$AAd?$AAb?$AAy?$AAt?$AAe?$AA?$CI?$AA_?$AAd?$AAb?$AAc?$AAs?$AAB?$AAu?$AAf?$AAf?$AAe?$AAr?$AA?$CI?$AAf?$AAh?$AA?$CJ?$AA?$CJ?$AA?$AA@ 0053b400     libucrtd:write.obj
 0002:00030444       ??_C@_1BM@NCANHCIP@?$AA_?$AAw?$AAr?$AAi?$AAt?$AAe?$AA_?$AAn?$AAo?$AAl?$AAo?$AAc?$AAk?$AA?$AA@ 0053b444     libucrtd:write.obj
 0002:00030468       ??_C@_1CK@CPEAGIIP@?$AAb?$AAu?$AAf?$AAf?$AAe?$AAr?$AA_?$AAs?$AAi?$AAz?$AAe?$AA?5?$AA?$CF?$AA?5?$AA2?$AA?5?$AA?$DN?$AA?$DN?$AA?5?$AA0?$AA?$AA@ 0053b468     libucrtd:write.obj
 0002:000304a0       ??_C@_1GC@MGNADOPH@?$AAm?$AAi?$AAn?$AAk?$AAe?$AAr?$AAn?$AAe?$AAl?$AA?2?$AAc?$AAr?$AAt?$AAs?$AA?2?$AAu?$AAc?$AAr?$AAt?$AA?2?$AAs?$AAr?$AAc?$AA?2?$AAa?$AAp?$AAp?$AAc?$AAr?$AAt?$AA?2?$AAs@ 0053b4a0     libucrtd:_filbuf.obj
 0002:00030518       ??_C@_1DM@MPDNIFLF@?$AAc?$AAo?$AAm?$AAm?$AAo?$AAn?$AA_?$AAr?$AAe?$AAf?$AAi?$AAl?$AAl?$AA_?$AAa?$AAn?$AAd?$AA_?$AAr?$AAe?$AAa?$AAd?$AA_?$AAn?$AAo?$AAl?$AAo?$AAc?$AAk?$AA?$AA@ 0053b518     libucrtd:_filbuf.obj
 0002:00030560       ??_C@_1GC@DFIGBGJI@?$AAm?$AAi?$AAn?$AAk?$AAe?$AAr?$AAn?$AAe?$AAl?$AA?2?$AAc?$AAr?$AAt?$AAs?$AA?2?$AAu?$AAc?$AAr?$AAt?$AA?2?$AAs?$AAr?$AAc?$AA?2?$AAa?$AAp?$AAp?$AAc?$AAr?$AAt?$AA?2?$AAs@ 0053b560     libucrtd:_flsbuf.obj
 0002:000305d8       ??_C@_1HO@MLMGPAFH@?$AA?$CI?$AA?$CC?$AAi?$AAn?$AAc?$AAo?$AAn?$AAs?$AAi?$AAs?$AAt?$AAe?$AAn?$AAt?$AA?5?$AAI?$AAO?$AAB?$AA?5?$AAf?$AAi?$AAe?$AAl?$AAd?$AAs?$AA?$CC?$AA?0?$AA?5?$AAs?$AAt?$AAr?$AAe@ 0053b5d8     libucrtd:_flsbuf.obj
 0002:00030670       ??_C@_1GA@DEPMKPD@?$AAm?$AAi?$AAn?$AAk?$AAe?$AAr?$AAn?$AAe?$AAl?$AA?2?$AAc?$AAr?$AAt?$AAs?$AA?2?$AAu?$AAc?$AAr?$AAt?$AA?2?$AAs?$AAr?$AAc?$AA?2?$AAa?$AAp?$AAp?$AAc?$AAr?$AAt?$AA?2?$AAl@ 0053b670     libucrtd:isatty.obj
 0002:000306e4       ??_C@_1BA@LEBDGIHM@?$AA_?$AAi?$AAs?$AAa?$AAt?$AAt?$AAy?$AA?$AA@ 0053b6e4     libucrtd:isatty.obj
 0002:000306f8       ??_C@_0DH@IKPCBLP@minkernel?2crts?2ucrt?2src?2appcrt?2l@ 0053b6f8     libucrtd:lcmapstringa.obj
 0002:00030740       ??_C@_1GI@IMEEHIAK@?$AAm?$AAi?$AAn?$AAk?$AAe?$AAr?$AAn?$AAe?$AAl?$AA?2?$AAc?$AAr?$AAt?$AAs?$AA?2?$AAu?$AAc?$AAr?$AAt?$AA?2?$AAs?$AAr?$AAc?$AA?2?$AAa?$AAp?$AAp?$AAc?$AAr?$AAt?$AA?2?$AAc@ 0053b740     libucrtd:_fptostr.obj
 0002:000307bc       ??_C@_1DG@NMGBKPMI@?$AA_?$AA_?$AAa?$AAc?$AAr?$AAt?$AA_?$AAf?$AAp?$AA_?$AAs?$AAt?$AAr?$AAf?$AAl?$AAt?$AA_?$AAt?$AAo?$AA_?$AAs?$AAt?$AAr?$AAi?$AAn?$AAg?$AA?$AA@ 0053b7bc     libucrtd:_fptostr.obj
 0002:00030800       ??_C@_1IE@EAOKIIFP@?$AAb?$AAu?$AAf?$AAf?$AAe?$AAr?$AA_?$AAc?$AAo?$AAu?$AAn?$AAt?$AA?5?$AA?$DO?$AA?5?$AAs?$AAt?$AAa?$AAt?$AAi?$AAc?$AA_?$AAc?$AAa?$AAs?$AAt?$AA?$DM?$AAs?$AAi?$AAz?$AAe?$AA_@ 0053b800     libucrtd:_fptostr.obj
 0002:000308a0       ??_C@_1CA@EDEEBMBB@?$AAp?$AAf?$AAl?$AAt?$AA?5?$AA?$CB?$AA?$DN?$AA?5?$AAn?$AAu?$AAl?$AAl?$AAp?$AAt?$AAr?$AA?$AA@ 0053b8a0     libucrtd:_fptostr.obj
 0002:000308c8       ??_C@_1GC@DDAKNBNC@?$AAm?$AAi?$AAn?$AAk?$AAe?$AAr?$AAn?$AAe?$AAl?$AA?2?$AAc?$AAr?$AAt?$AAs?$AA?2?$AAu?$AAc?$AAr?$AAt?$AA?2?$AAs?$AAr?$AAc?$AA?2?$AAa?$AAp?$AAp?$AAc?$AAr?$AAt?$AA?2?$AAc@ 0053b8c8     libucrtd:cfout.obj
 0002:00030940       ??_C@_1BM@FAAOAKKO@?$AA_?$AA_?$AAa?$AAc?$AAr?$AAt?$AA_?$AAf?$AAl?$AAt?$AAo?$AAu?$AAt?$AA?$AA@ 0053b940     libucrtd:cfout.obj
 0002:00030968       ??_C@_1EI@OACEJKEP@?$AAs?$AAt?$AAr?$AAc?$AAp?$AAy?$AA_?$AAs?$AA?$CI?$AAr?$AAe?$AAs?$AAu?$AAl?$AAt?$AA?0?$AA?5?$AAr?$AAe?$AAs?$AAu?$AAl?$AAt?$AA_?$AAc?$AAo?$AAu?$AAn?$AAt?$AA?0?$AA?5?$AA?$CC@ 0053b968     libucrtd:cfout.obj
 0002:000309c0       ??_C@_01GBGANLPD@0?$AA@    0053b9c0     libucrtd:cfout.obj
 0002:000309c8       ??_C@_1FC@KIECGFMP@?$AAs?$AAt?$AAr?$AAc?$AAp?$AAy?$AA_?$AAs?$AA?$CI?$AAr?$AAe?$AAs?$AAu?$AAl?$AAt?$AA?0?$AA?5?$AAr?$AAe?$AAs?$AAu?$AAl?$AAt?$AA_?$AAc?$AAo?$AAu?$AAn?$AAt?$AA?0?$AA?5?$AA?$CC@ 0053b9c8     libucrtd:cfout.obj
 0002:00030a2c       ??_C@_05DNEBIAHO@1?$CDINF?$AA@ 0053ba2c     libucrtd:cfout.obj
 0002:00030a38       ??_C@_1FC@NFPJEIBD@?$AAs?$AAt?$AAr?$AAc?$AAp?$AAy?$AA_?$AAs?$AA?$CI?$AAr?$AAe?$AAs?$AAu?$AAl?$AAt?$AA?0?$AA?5?$AAr?$AAe?$AAs?$AAu?$AAl?$AAt?$AA_?$AAc?$AAo?$AAu?$AAn?$AAt?$AA?0?$AA?5?$AA?$CC@ 0053ba38     libucrtd:cfout.obj
 0002:00030a9c       ??_C@_06IMKFLFPG@1?$CDQNAN?$AA@ 0053ba9c     libucrtd:cfout.obj
 0002:00030aa8       ??_C@_1FC@DEJHIMLO@?$AAs?$AAt?$AAr?$AAc?$AAp?$AAy?$AA_?$AAs?$AA?$CI?$AAr?$AAe?$AAs?$AAu?$AAl?$AAt?$AA?0?$AA?5?$AAr?$AAe?$AAs?$AAu?$AAl?$AAt?$AA_?$AAc?$AAo?$AAu?$AAn?$AAt?$AA?0?$AA?5?$AA?$CC@ 0053baa8     libucrtd:cfout.obj
 0002:00030b0c       ??_C@_06PGGFOGJG@1?$CDSNAN?$AA@ 0053bb0c     libucrtd:cfout.obj
 0002:00030b18       ??_C@_1FC@KMLHLFPC@?$AAs?$AAt?$AAr?$AAc?$AAp?$AAy?$AA_?$AAs?$AA?$CI?$AAr?$AAe?$AAs?$AAu?$AAl?$AAt?$AA?0?$AA?5?$AAr?$AAe?$AAs?$AAu?$AAl?$AAt?$AA_?$AAc?$AAo?$AAu?$AAn?$AAt?$AA?0?$AA?5?$AA?$CC@ 0053bb18     libucrtd:cfout.obj
 0002:00030b7c       ??_C@_05PHHOCPM@1?$CDIND?$AA@ 0053bb7c     libucrtd:cfout.obj
 0002:00030b84       ??_C@_1DE@KHKADFOO@?$AAm?$AAa?$AAn?$AAt?$AAi?$AAs?$AAs?$AAa?$AA_?$AAb?$AAu?$AAf?$AAf?$AAe?$AAr?$AA_?$AAc?$AAo?$AAu?$AAn?$AAt?$AA?5?$AA?$DO?$AA?5?$AA0?$AA?$AA@ 0053bb84     libucrtd:cfout.obj
 0002:00030bc8       ??_C@_1FI@LFKLOPAC@?$AA?$CI?$AA?$CC?$AAu?$AAn?$AAe?$AAx?$AAp?$AAe?$AAc?$AAt?$AAe?$AAd?$AA?5?$AAi?$AAn?$AAp?$AAu?$AAt?$AA?5?$AAv?$AAa?$AAl?$AAu?$AAe?$AA?$DL?$AA?5?$AAl?$AAo?$AAg?$AA1?$AA0?$AA?5@ 0053bbc8     libucrtd:cfout.obj
 0002:00030c38       ??_C@_1FG@MLHBDPBG@?$AAq?$AAu?$AAo?$AAt?$AAi?$AAe?$AAn?$AAt?$AA?5?$AA?$DM?$AA?5?$AAd?$AAi?$AAg?$AAi?$AAt?$AAs?$AA_?$AAp?$AAe?$AAr?$AA_?$AAi?$AAt?$AAe?$AAr?$AAa?$AAt?$AAi?$AAo?$AAn?$AA_@ 0053bc38     libucrtd:cfout.obj
 0002:00030ca0       ___acrt_cos_sin_ctable     0053bca0     libucrtd:cos_sin_ctable.obj
 0002:00031640       ___acrt_exp_tbl_addr       0053c640     libucrtd:exp_tables.obj
 0002:00031b10       ___acrt_pow_rcp_t1         0053cb10     libucrtd:pow_tables.obj
 0002:00031ff0       ___acrt_pow_log2_t1        0053cff0     libucrtd:pow_tables.obj
 0002:000329a0       ___acrt_pow_rcp_t2         0053d9a0     libucrtd:pow_tables.obj
 0002:00032e80       ___acrt_pow_log2_t2        0053de80     libucrtd:pow_tables.obj
 0002:00033830       ___acrt_pow_rcp_t3         0053e830     libucrtd:pow_tables.obj
 0002:000341e0       ___acrt_pow_log2_t3        0053f1e0     libucrtd:pow_tables.obj
 0002:00035530       ___acrt_pow_clv            00540530     libucrtd:pow_tables.obj
 0002:00035560       ___acrt_pow_exp2_tbl       00540560     libucrtd:pow_tables.obj
 0002:00035f00       ___acrt_log_table_b        00540f00     libucrtd:log_tables.obj
 0002:000363e0       ___acrt_log_table_t        005413e0     libucrtd:log_tables.obj
 0002:000368c0       __atan_table               005418c0     libucrtd:atan_table.obj
 0002:000385a0       ??_C@_1GC@DLDMJFMI@?$AAm?$AAi?$AAn?$AAk?$AAe?$AAr?$AAn?$AAe?$AAl?$AA?2?$AAc?$AAr?$AAt?$AAs?$AA?2?$AAu?$AAc?$AAr?$AAt?$AA?2?$AAs?$AAr?$AAc?$AA?2?$AAa?$AAp?$AAp?$AAc?$AAr?$AAt?$AA?2?$AAs@ 005435a0     libucrtd:_getbuf.obj
 0002:00038618       ??_C@_0DB@LKJPMJPL@minkernel?2crts?2ucrt?2src?2appcrt?2s@ 00543618     libucrtd:_getbuf.obj
 0002:00038654       ??_C@_1DI@OOEEHOBJ@?$AAb?$AAa?$AAs?$AAe?$AA?5?$AA?$CB?$AA?$DN?$AA?5?$AAn?$AAu?$AAl?$AAl?$AAp?$AAt?$AAr?$AA?5?$AA?$HM?$AA?$HM?$AA?5?$AAn?$AAu?$AAm?$AA?5?$AA?$DN?$AA?$DN?$AA?5?$AA0?$AA?$AA@ 00543654     libucrtd:qsort.obj
 0002:00038698       ??_C@_1GA@KPPCKKGE@?$AAm?$AAi?$AAn?$AAk?$AAe?$AAr?$AAn?$AAe?$AAl?$AA?2?$AAc?$AAr?$AAt?$AAs?$AA?2?$AAu?$AAc?$AAr?$AAt?$AA?2?$AAs?$AAr?$AAc?$AA?2?$AAa?$AAp?$AAp?$AAc?$AAr?$AAt?$AA?2?$AAs@ 00543698     libucrtd:qsort.obj
 0002:0003870c       ??_C@_1M@INMHODIG@?$AAq?$AAs?$AAo?$AAr?$AAt?$AA?$AA@ 0054370c     libucrtd:qsort.obj
 0002:0003871c       ??_C@_1BE@NJBEBBME@?$AAw?$AAi?$AAd?$AAt?$AAh?$AA?5?$AA?$DO?$AA?5?$AA0?$AA?$AA@ 0054371c     libucrtd:qsort.obj
 0002:00038734       ??_C@_1CA@LIDFOMIN@?$AAc?$AAo?$AAm?$AAp?$AA?5?$AA?$CB?$AA?$DN?$AA?5?$AAn?$AAu?$AAl?$AAl?$AAp?$AAt?$AAr?$AA?$AA@ 00543734     libucrtd:qsort.obj
 0002:00038760       ??_C@_1GO@DDOMFNGF@?$AAm?$AAi?$AAn?$AAk?$AAe?$AAr?$AAn?$AAe?$AAl?$AA?2?$AAc?$AAr?$AAt?$AAs?$AA?2?$AAu?$AAc?$AAr?$AAt?$AA?2?$AAs?$AAr?$AAc?$AA?2?$AAd?$AAe?$AAs?$AAk?$AAt?$AAo?$AAp?$AAc@ 00543760     libucrtd:mbsdec.obj
 0002:000387e4       ??_C@_1BE@KLNCOLCD@?$AA_?$AAm?$AAb?$AAs?$AAd?$AAe?$AAc?$AA_?$AAl?$AA?$AA@ 005437e4     libucrtd:mbsdec.obj
 0002:000387fc       ??_C@_1CG@CMGPGAOD@?$AAc?$AAu?$AAr?$AAr?$AAe?$AAn?$AAt?$AA?5?$AA?$CB?$AA?$DN?$AA?5?$AAn?$AAu?$AAl?$AAl?$AAp?$AAt?$AAr?$AA?$AA@ 005437fc     libucrtd:mbsdec.obj
 0002:0003882c       ??_C@_1CI@CCKDLILB@?$AA_?$AAs?$AAt?$AAr?$AAi?$AAn?$AAg?$AA1?$AA?5?$AA?$CB?$AA?$DN?$AA?5?$AAn?$AAu?$AAl?$AAl?$AAp?$AAt?$AAr?$AA?$AA@ 0054382c     libucrtd:wcsnicol.obj
 0002:00038860       ??_C@_1GG@MDOKJCAE@?$AAm?$AAi?$AAn?$AAk?$AAe?$AAr?$AAn?$AAe?$AAl?$AA?2?$AAc?$AAr?$AAt?$AAs?$AA?2?$AAu?$AAc?$AAr?$AAt?$AA?2?$AAs?$AAr?$AAc?$AA?2?$AAa?$AAp?$AAp?$AAc?$AAr?$AAt?$AA?2?$AAs@ 00543860     libucrtd:wcsnicol.obj
 0002:000388dc       ??_C@_1BK@EONLMOKH@?$AA_?$AAw?$AAc?$AAs?$AAn?$AAi?$AAc?$AAo?$AAl?$AAl?$AA_?$AAl?$AA?$AA@ 005438dc     libucrtd:wcsnicol.obj
 0002:000388fc       ??_C@_1CI@NAPEFFEJ@?$AA_?$AAs?$AAt?$AAr?$AAi?$AAn?$AAg?$AA2?$AA?5?$AA?$CB?$AA?$DN?$AA?5?$AAn?$AAu?$AAl?$AAl?$AAp?$AAt?$AAr?$AA?$AA@ 005438fc     libucrtd:wcsnicol.obj
 0002:0003892c       ??_C@_1BG@PCPANGGF@?$AA_?$AAw?$AAc?$AAs?$AAn?$AAi?$AAc?$AAo?$AAl?$AAl?$AA?$AA@ 0054392c     libucrtd:wcsnicol.obj
 0002:00038948       ??_C@_1GG@LACFCIFA@?$AAm?$AAi?$AAn?$AAk?$AAe?$AAr?$AAn?$AAe?$AAl?$AA?2?$AAc?$AAr?$AAt?$AAs?$AA?2?$AAu?$AAc?$AAr?$AAt?$AA?2?$AAs?$AAr?$AAc?$AA?2?$AAa?$AAp?$AAp?$AAc?$AAr?$AAt?$AA?2?$AAs@ 00543948     libucrtd:strnicol.obj
 0002:000389c4       ??_C@_1BK@IOJEBPLP@?$AA_?$AAs?$AAt?$AAr?$AAn?$AAi?$AAc?$AAo?$AAl?$AAl?$AA_?$AAl?$AA?$AA@ 005439c4     libucrtd:strnicol.obj
 0002:000389e4       ??_C@_0DJ@JBBOOIAE@minkernel?2crts?2ucrt?2src?2appcrt?2l@ 005439e4     libucrtd:getlocaleinfoa.obj
 0002:00038a28       ??_C@_1HC@KAIIOBKJ@?$AAm?$AAi?$AAn?$AAk?$AAe?$AAr?$AAn?$AAe?$AAl?$AA?2?$AAc?$AAr?$AAt?$AAs?$AA?2?$AAu?$AAc?$AAr?$AAt?$AA?2?$AAs?$AAr?$AAc?$AA?2?$AAa?$AAp?$AAp?$AAc?$AAr?$AAt?$AA?2?$AAl@ 00543a28     libucrtd:getlocaleinfoa.obj
 0002:00038ab0       ??_C@_1CM@LGLMFNOK@?$AA_?$AA_?$AAa?$AAc?$AAr?$AAt?$AA_?$AAG?$AAe?$AAt?$AAL?$AAo?$AAc?$AAa?$AAl?$AAe?$AAI?$AAn?$AAf?$AAo?$AAA?$AA?$AA@ 00543ab0     libucrtd:getlocaleinfoa.obj
 0002:00038ae8       ??_C@_1IM@HJPPDDKJ@?$AAs?$AAt?$AAr?$AAn?$AAc?$AAp?$AAy?$AA_?$AAs?$AA?$CI?$AA?$CK?$AAc?$AAh?$AAa?$AAr?$AA_?$AAr?$AAe?$AAs?$AAu?$AAl?$AAt?$AA?0?$AA?5?$AAl?$AAo?$AAc?$AAa?$AAl?$AA_?$AAl?$AAe@ 00543ae8     libucrtd:getlocaleinfoa.obj
 0002:00038b90       ??_C@_1GE@FNNJGCGI@?$AAm?$AAi?$AAn?$AAk?$AAe?$AAr?$AAn?$AAe?$AAl?$AA?2?$AAc?$AAr?$AAt?$AAs?$AA?2?$AAu?$AAc?$AAr?$AAt?$AA?2?$AAs?$AAr?$AAc?$AA?2?$AAa?$AAp?$AAp?$AAc?$AAr?$AAt?$AA?2?$AAs@ 00543b90     libucrtd:wcsicmp.obj
 0002:00038c08       ??_C@_1BG@EELGPCPD@?$AA_?$AAw?$AAc?$AAs?$AAi?$AAc?$AAm?$AAp?$AA_?$AAl?$AA?$AA@ 00543c08     libucrtd:wcsicmp.obj
 0002:00038c24       ??_C@_1BC@NHIBDOMC@?$AA_?$AAw?$AAc?$AAs?$AAi?$AAc?$AAm?$AAp?$AA?$AA@ 00543c24     libucrtd:wcsicmp.obj
 0002:00038c3c       ??_C@_1CC@IBIHLDLG@?$AAf?$AAi?$AAr?$AAs?$AAt?$AA?5?$AA?$CB?$AA?$DN?$AA?5?$AAn?$AAu?$AAl?$AAl?$AAp?$AAt?$AAr?$AA?$AA@ 00543c3c     libucrtd:wcsnicmp.obj
 0002:00038c68       ??_C@_1GG@CLJGPGNE@?$AAm?$AAi?$AAn?$AAk?$AAe?$AAr?$AAn?$AAe?$AAl?$AA?2?$AAc?$AAr?$AAt?$AAs?$AA?2?$AAu?$AAc?$AAr?$AAt?$AA?2?$AAs?$AAr?$AAc?$AA?2?$AAa?$AAp?$AAp?$AAc?$AAr?$AAt?$AA?2?$AAs@ 00543c68     libucrtd:wcsnicmp.obj
 0002:00038ce4       ??_C@_1BI@KLMFNDBC@?$AA_?$AAw?$AAc?$AAs?$AAn?$AAi?$AAc?$AAm?$AAp?$AA_?$AAl?$AA?$AA@ 00543ce4     libucrtd:wcsnicmp.obj
 0002:00038d00       ??_C@_1CA@GLFIDPNF@?$AAl?$AAa?$AAs?$AAt?$AA?5?$AA?$CB?$AA?$DN?$AA?5?$AAn?$AAu?$AAl?$AAl?$AAp?$AAt?$AAr?$AA?$AA@ 00543d00     libucrtd:wcsnicmp.obj
 0002:00038d28       ??_C@_1BE@JKOKKFEL@?$AA_?$AAw?$AAc?$AAs?$AAn?$AAi?$AAc?$AAm?$AAp?$AA?$AA@ 00543d28     libucrtd:wcsnicmp.obj
 0002:00038d40       ??_C@_1BK@FPAMLIDG@?$AAs?$AA?5?$AA?$CB?$AA?$DN?$AA?5?$AAn?$AAu?$AAl?$AAl?$AAp?$AAt?$AAr?$AA?$AA@ 00543d40     libucrtd:mbstowcs.obj
 0002:00038d60       ??_C@_1GI@KABMHNPH@?$AAm?$AAi?$AAn?$AAk?$AAe?$AAr?$AAn?$AAe?$AAl?$AA?2?$AAc?$AAr?$AAt?$AAs?$AA?2?$AAu?$AAc?$AAr?$AAt?$AA?2?$AAs?$AAr?$AAc?$AA?2?$AAa?$AAp?$AAp?$AAc?$AAr?$AAt?$AA?2?$AAc@ 00543d60     libucrtd:mbstowcs.obj
 0002:00038ddc       ??_C@_1CG@JEHFHLNG@?$AA_?$AAm?$AAb?$AAs?$AAt?$AAo?$AAw?$AAc?$AAs?$AA_?$AAl?$AA_?$AAh?$AAe?$AAl?$AAp?$AAe?$AAr?$AA?$AA@ 00543ddc     libucrtd:mbstowcs.obj
 0002:00038e10       ??_C@_1JM@MEKBACIG@?$AA?$CI?$AAp?$AAw?$AAc?$AAs?$AA?5?$AA?$DN?$AA?$DN?$AA?5?$AAn?$AAu?$AAl?$AAl?$AAp?$AAt?$AAr?$AA?5?$AA?$CG?$AA?$CG?$AA?5?$AAs?$AAi?$AAz?$AAe?$AAI?$AAn?$AAW?$AAo?$AAr?$AAd?$AAs?$AA?5@ 00543e10     libucrtd:mbstowcs.obj
 0002:00038ecc       ??_C@_1BM@PHENIGHD@?$AA_?$AAm?$AAb?$AAs?$AAt?$AAo?$AAw?$AAc?$AAs?$AA_?$AAs?$AA_?$AAl?$AA?$AA@ 00543ecc     libucrtd:mbstowcs.obj
 0002:00038ef0       ??_C@_1CM@LLECFMFH@?$AAb?$AAu?$AAf?$AAf?$AAe?$AAr?$AAS?$AAi?$AAz?$AAe?$AA?5?$AA?$DM?$AA?$DN?$AA?5?$AAI?$AAN?$AAT?$AA_?$AAM?$AAA?$AAX?$AA?$AA@ 00543ef0     libucrtd:mbstowcs.obj
 0002:00038f24       ??_C@_1CO@JNPEPJAL@?$AAr?$AAe?$AAt?$AAs?$AAi?$AAz?$AAe?$AA?5?$AA?$DM?$AA?$DN?$AA?5?$AAs?$AAi?$AAz?$AAe?$AAI?$AAn?$AAW?$AAo?$AAr?$AAd?$AAs?$AA?$AA@ 00543f24     libucrtd:mbstowcs.obj
 0002:00038f5c       ??_C@_1CA@NOKNKDIG@?$AAp?$AAw?$AAc?$AAs?$AA?5?$AA?$CB?$AA?$DN?$AA?5?$AAn?$AAu?$AAl?$AAl?$AAp?$AAt?$AAr?$AA?$AA@ 00543f5c     libucrtd:wcstombs.obj
 0002:00038f88       ??_C@_1GI@EEJDEALP@?$AAm?$AAi?$AAn?$AAk?$AAe?$AAr?$AAn?$AAe?$AAl?$AA?2?$AAc?$AAr?$AAt?$AAs?$AA?2?$AAu?$AAc?$AAr?$AAt?$AA?2?$AAs?$AAr?$AAc?$AA?2?$AAa?$AAp?$AAp?$AAc?$AAr?$AAt?$AA?2?$AAc@ 00543f88     libucrtd:wcstombs.obj
 0002:00039004       ??_C@_1CG@LLJCAOHF@?$AA_?$AAw?$AAc?$AAs?$AAt?$AAo?$AAm?$AAb?$AAs?$AA_?$AAl?$AA_?$AAh?$AAe?$AAl?$AAp?$AAe?$AAr?$AA?$AA@ 00544004     libucrtd:wcstombs.obj
 0002:00039038       ??_C@_1JI@DFNKFCLG@?$AA?$CI?$AAd?$AAs?$AAt?$AA?5?$AA?$CB?$AA?$DN?$AA?5?$AAn?$AAu?$AAl?$AAl?$AAp?$AAt?$AAr?$AA?5?$AA?$CG?$AA?$CG?$AA?5?$AAs?$AAi?$AAz?$AAe?$AAI?$AAn?$AAB?$AAy?$AAt?$AAe?$AAs?$AA?5?$AA?$DO@ 00544038     libucrtd:wcstombs.obj
 0002:000390f0       ??_C@_1BM@BDMCLLDL@?$AA_?$AAw?$AAc?$AAs?$AAt?$AAo?$AAm?$AAb?$AAs?$AA_?$AAs?$AA_?$AAl?$AA?$AA@ 005440f0     libucrtd:wcstombs.obj
 0002:00039114       ??_C@_1CM@KEOGBFLI@?$AAs?$AAi?$AAz?$AAe?$AAI?$AAn?$AAB?$AAy?$AAt?$AAe?$AAs?$AA?5?$AA?$DO?$AA?5?$AAr?$AAe?$AAt?$AAs?$AAi?$AAz?$AAe?$AA?$AA@ 00544114     libucrtd:wcstombs.obj
 0002:00039148       ??_C@_1FO@IPDGALOE@?$AAm?$AAi?$AAn?$AAk?$AAe?$AAr?$AAn?$AAe?$AAl?$AA?2?$AAc?$AAr?$AAt?$AAs?$AA?2?$AAu?$AAc?$AAr?$AAt?$AA?2?$AAs?$AAr?$AAc?$AA?2?$AAa?$AAp?$AAp?$AAc?$AAr?$AAt?$AA?2?$AAl@ 00544148     libucrtd:close.obj
 0002:000391b8       ??_C@_1O@EDEJGJBM@?$AA_?$AAc?$AAl?$AAo?$AAs?$AAe?$AA?$AA@ 005441b8     libucrtd:close.obj
 0002:000391c8       ??_C@_0DA@OGKFKCBE@minkernel?2crts?2ucrt?2src?2appcrt?2s@ 005441c8     libucrtd:stream.obj
 0002:00039208       ??_C@_1FO@KIIHJNFN@?$AAm?$AAi?$AAn?$AAk?$AAe?$AAr?$AAn?$AAe?$AAl?$AA?2?$AAc?$AAr?$AAt?$AAs?$AA?2?$AAu?$AAc?$AAr?$AAt?$AA?2?$AAs?$AAr?$AAc?$AA?2?$AAa?$AAp?$AAp?$AAc?$AAr?$AAt?$AA?2?$AAl@ 00544208     libucrtd:lseek.obj
 0002:00039278       ??_C@_1BK@JOMBNFIM@?$AAc?$AAo?$AAm?$AAm?$AAo?$AAn?$AA_?$AAl?$AAs?$AAe?$AAe?$AAk?$AA?$AA@ 00544278     libucrtd:lseek.obj
 0002:00039298       ??_C@_1DM@LMLOLGJ@?$AA?$CI?$AA?$CC?$AAI?$AAn?$AAv?$AAa?$AAl?$AAi?$AAd?$AA?5?$AAf?$AAi?$AAl?$AAe?$AA?5?$AAd?$AAe?$AAs?$AAc?$AAr?$AAi?$AAp?$AAt?$AAo?$AAr?$AA?$CC?$AA?0?$AA0?$AA?$CJ?$AA?$AA@ 00544298     libucrtd:lseek.obj
 0002:000392e0       ??_C@_1KG@LJECICMN@?$AAs?$AAt?$AAa?$AAt?$AAi?$AAc?$AA_?$AAc?$AAa?$AAs?$AAt?$AA?$DM?$AAv?$AAo?$AAi?$AAd?$AA?5?$AAc?$AAo?$AAn?$AAs?$AAt?$AA?$CK?$AA?$DO?$AA?$CI?$AAs?$AAo?$AAu?$AAr?$AAc?$AAe?$AA_@ 005442e0     libucrtd:read.obj
 0002:000393a8       ??_C@_1FM@PHKGHLIO@?$AAm?$AAi?$AAn?$AAk?$AAe?$AAr?$AAn?$AAe?$AAl?$AA?2?$AAc?$AAr?$AAt?$AAs?$AA?2?$AAu?$AAc?$AAr?$AAt?$AA?2?$AAs?$AAr?$AAc?$AA?2?$AAa?$AAp?$AAp?$AAc?$AAr?$AAt?$AA?2?$AAl@ 005443a8     libucrtd:read.obj
 0002:00039418       ??_C@_1M@NHJOLLDM@?$AA_?$AAr?$AAe?$AAa?$AAd?$AA?$AA@ 00544418     libucrtd:read.obj
 0002:00039428       ??_C@_1CO@OPEPDLLF@?$AAb?$AAu?$AAf?$AAf?$AAe?$AAr?$AA_?$AAs?$AAi?$AAz?$AAe?$AA?5?$AA?$DM?$AA?$DN?$AA?5?$AAI?$AAN?$AAT?$AA_?$AAM?$AAA?$AAX?$AA?$AA@ 00544428     libucrtd:read.obj
 0002:00039460       ??_C@_1BK@JJBHNDKJ@?$AA_?$AAr?$AAe?$AAa?$AAd?$AA_?$AAn?$AAo?$AAl?$AAo?$AAc?$AAk?$AA?$AA@ 00544460     libucrtd:read.obj
 0002:00039480       ??_C@_1DM@JEAHBMKI@?$AAr?$AAe?$AAs?$AAu?$AAl?$AAt?$AA_?$AAb?$AAu?$AAf?$AAf?$AAe?$AAr?$AA_?$AAs?$AAi?$AAz?$AAe?$AA?5?$AA?$DM?$AA?$DN?$AA?5?$AAI?$AAN?$AAT?$AA_?$AAM?$AAA?$AAX?$AA?$AA@ 00544480     libucrtd:read.obj
 0002:000394c8       ??_C@_1DI@CDGOMPDO@?$AAr?$AAe?$AAs?$AAu?$AAl?$AAt?$AA_?$AAb?$AAu?$AAf?$AAf?$AAe?$AAr?$AA_?$AAs?$AAi?$AAz?$AAe?$AA?5?$AA?$CF?$AA?5?$AA2?$AA?5?$AA?$DN?$AA?$DN?$AA?5?$AA0?$AA?$AA@ 005444c8     libucrtd:read.obj
 0002:0003950c       ??_C@_0CO@JFNFJHLC@minkernel?2crts?2ucrt?2src?2appcrt?2l@ 0054450c     libucrtd:read.obj
 0002:00039544       ??_C@_1DM@HGBOAKPP@?$AA?$CI?$AAr?$AAe?$AAs?$AAu?$AAl?$AAt?$AA_?$AAb?$AAu?$AAf?$AAf?$AAe?$AAr?$AA_?$AAs?$AAi?$AAz?$AAe?$AA?5?$AA?$CF?$AA?5?$AA2?$AA?$CJ?$AA?5?$AA?$DN?$AA?$DN?$AA?5?$AA0?$AA?$AA@ 00544544     libucrtd:read.obj
 0002:000395f8       ??_C@_1HK@ELDMAMK@?$AAc?$AAc?$AAh?$AAC?$AAo?$AAu?$AAn?$AAt?$AA1?$AA?$DN?$AA?$DN?$AA0?$AA?5?$AA?$CG?$AA?$CG?$AA?5?$AAc?$AAc?$AAh?$AAC?$AAo?$AAu?$AAn?$AAt?$AA2?$AA?$DN?$AA?$DN?$AA1?$AA?5?$AA?$HM?$AA?$HM?$AA?5@ 005445f8     libucrtd:comparestringa.obj
 0002:00039690       ??_C@_1HC@NLKDIKED@?$AAm?$AAi?$AAn?$AAk?$AAe?$AAr?$AAn?$AAe?$AAl?$AA?2?$AAc?$AAr?$AAt?$AAs?$AA?2?$AAu?$AAc?$AAr?$AAt?$AA?2?$AAs?$AAr?$AAc?$AA?2?$AAa?$AAp?$AAp?$AAc?$AAr?$AAt?$AA?2?$AAl@ 00544690     libucrtd:comparestringa.obj
 0002:00039718       ??_C@_0DJ@MBLHFEOE@minkernel?2crts?2ucrt?2src?2appcrt?2l@ 00544718     libucrtd:comparestringa.obj
 0002:0003975c       ??_C@_1BA@BALFACEM@?$AAC?$AAO?$AAN?$AAO?$AAU?$AAT?$AA$?$AA?$AA@ 0054475c     libucrtd:initcon.obj
 0002:000398b0       ___acrt_log10_table_t      005448b0     libucrtd:log10_tables.obj
 0002:00039d90       ___acrt_log10_table_cb     00544d90     libucrtd:log10_tables.obj
 0002:0003a2e4       ??_7type_info@@6B@         005452e4     LIBCMTD:std_type_info_static.obj
 0002:0003a2ec       __pDestructExceptionObject 005452ec     libvcruntimed:frame.obj
 0002:0003a2f4       ??_7exception@std@@6B@     005452f4     libvcruntimed:frame.obj
 0002:0003a300       ??_C@_0BC@EOODALEL@Unknown?5exception?$AA@ 00545300     libvcruntimed:frame.obj
 0002:0003a31c       ??_7bad_exception@std@@6B@ 0054531c     libvcruntimed:frame.obj
 0002:0003a328       ??_C@_0O@DPKOEFFH@bad?5exception?$AA@ 00545328     libvcruntimed:frame.obj
 0002:0003a338       ??_C@_1FK@OACNEHHA@?$AAt?$AAo?$AA?9?$AA?$DO?$AA_?$AAW?$AAh?$AAa?$AAt?$AA?5?$AA?$DN?$AA?$DN?$AA?5?$AAn?$AAu?$AAl?$AAl?$AAp?$AAt?$AAr?$AA?5?$AA?$CG?$AA?$CG?$AA?5?$AAt?$AAo?$AA?9?$AA?$DO?$AA_?$AAD?$AAo?$AAF@ 00545338     libvcruntimed:std_exception.obj
 0002:0003a3a8       ??_C@_1GK@GJEBHBCE@?$AAf?$AA?3?$AA?2?$AAd?$AAd?$AA?2?$AAv?$AAc?$AAt?$AAo?$AAo?$AAl?$AAs?$AA?2?$AAc?$AAr?$AAt?$AA?2?$AAv?$AAc?$AAr?$AAu?$AAn?$AAt?$AAi?$AAm?$AAe?$AA?2?$AAs?$AAr?$AAc?$AA?2@ 005453a8     libvcruntimed:std_exception.obj
 0002:0003a488       __load_config_used         00545488     LIBCMTD:loadcfg.obj
 0002:0003ac28       ??_R4DNameNode@@6B@        00545c28     libvcruntimed:undname.obj
 0002:0003ac40       ??_R3DNameNode@@8          00545c40     libvcruntimed:undname.obj
 0002:0003ac54       ??_R2DNameNode@@8          00545c54     libvcruntimed:undname.obj
 0002:0003ac5c       ??_R1A@?0A@EA@DNameNode@@8 00545c5c     libvcruntimed:undname.obj
 0002:0003ac80       ??_R4charNode@@6B@         00545c80     libvcruntimed:undname.obj
 0002:0003ac98       ??_R3charNode@@8           00545c98     libvcruntimed:undname.obj
 0002:0003acac       ??_R2charNode@@8           00545cac     libvcruntimed:undname.obj
 0002:0003acb8       ??_R1A@?0A@EA@charNode@@8  00545cb8     libvcruntimed:undname.obj
 0002:0003acdc       ??_R4pcharNode@@6B@        00545cdc     libvcruntimed:undname.obj
 0002:0003acf4       ??_R3pcharNode@@8          00545cf4     libvcruntimed:undname.obj
 0002:0003ad08       ??_R2pcharNode@@8          00545d08     libvcruntimed:undname.obj
 0002:0003ad14       ??_R1A@?0A@EA@pcharNode@@8 00545d14     libvcruntimed:undname.obj
 0002:0003ad38       ??_R4pDNameNode@@6B@       00545d38     libvcruntimed:undname.obj
 0002:0003ad50       ??_R3pDNameNode@@8         00545d50     libvcruntimed:undname.obj
 0002:0003ad64       ??_R2pDNameNode@@8         00545d64     libvcruntimed:undname.obj
 0002:0003ad70       ??_R1A@?0A@EA@pDNameNode@@8 00545d70     libvcruntimed:undname.obj
 0002:0003ad94       ??_R4DNameStatusNode@@6B@  00545d94     libvcruntimed:undname.obj
 0002:0003adac       ??_R3DNameStatusNode@@8    00545dac     libvcruntimed:undname.obj
 0002:0003adc0       ??_R2DNameStatusNode@@8    00545dc0     libvcruntimed:undname.obj
 0002:0003adcc       ??_R1A@?0A@EA@DNameStatusNode@@8 00545dcc     libvcruntimed:undname.obj
 0002:0003adf0       ??_R4pairNode@@6B@         00545df0     libvcruntimed:undname.obj
 0002:0003ae08       ??_R3pairNode@@8           00545e08     libvcruntimed:undname.obj
 0002:0003ae1c       ??_R2pairNode@@8           00545e1c     libvcruntimed:undname.obj
 0002:0003ae28       ??_R1A@?0A@EA@pairNode@@8  00545e28     libvcruntimed:undname.obj
 0002:0003ae4c       ??_R4type_info@@6B@        00545e4c     LIBCMTD:std_type_info_static.obj
 0002:0003ae64       ??_R3type_info@@8          00545e64     LIBCMTD:std_type_info_static.obj
 0002:0003ae78       ??_R2type_info@@8          00545e78     LIBCMTD:std_type_info_static.obj
 0002:0003ae80       ??_R1A@?0A@EA@type_info@@8 00545e80     LIBCMTD:std_type_info_static.obj
 0002:0003aea4       ??_R4exception@std@@6B@    00545ea4     libvcruntimed:frame.obj
 0002:0003aebc       ??_R3exception@std@@8      00545ebc     libvcruntimed:frame.obj
 0002:0003aed0       ??_R2exception@std@@8      00545ed0     libvcruntimed:frame.obj
 0002:0003aed8       ??_R1A@?0A@EA@exception@std@@8 00545ed8     libvcruntimed:frame.obj
 0002:0003aefc       ??_R4bad_exception@std@@6B@ 00545efc     libvcruntimed:frame.obj
 0002:0003af14       ??_R3bad_exception@std@@8  00545f14     libvcruntimed:frame.obj
 0002:0003af28       ??_R2bad_exception@std@@8  00545f28     libvcruntimed:frame.obj
 0002:0003af34       ??_R1A@?0A@EA@bad_exception@std@@8 00545f34     libvcruntimed:frame.obj
 0002:0003b070       ___safe_se_handler_table   00546070     <linker-defined>
 0002:0003b354       ___rtc_iaa                 00546354     LIBCMTD:_initsect_.obj
 0002:0003b458       ___rtc_izz                 00546458     LIBCMTD:_initsect_.obj
 0002:0003b55c       ___rtc_taa                 0054655c     LIBCMTD:_initsect_.obj
 0002:0003b660       ___rtc_tzz                 00546660     LIBCMTD:_initsect_.obj
 0002:0003c408       __TI2?AVbad_exception@std@@ 00547408     libvcruntimed:frame.obj
 0002:0003c41c       __CTA2?AVbad_exception@std@@ 0054741c     libvcruntimed:frame.obj
 0002:0003c42c       __CT??_R0?AVbad_exception@std@@@8??0bad_exception@std@@QAE@ABV01@@Z12 0054742c     libvcruntimed:frame.obj
 0002:0003c44c       __CT??_R0?AVexception@std@@@8??0exception@std@@QAE@ABV01@@Z12 0054744c     libvcruntimed:frame.obj
 0003:00003eb8       _pjmedia_add_rtpmap_for_static_pt 0054beb8     pjmedia-i386-win32-vc14-debug:endpoint.obj
 0003:00003ebc       _pjmedia_add_bandwidth_tias_in_sdp 0054bebc     pjmedia-i386-win32-vc14-debug:endpoint.obj
 0003:00012364       _pj_optind                 0055a364     pjlib-util-i386-win32-vc14-debug:getopt.obj
 0003:00012368       _pj_optopt                 0055a368     pjlib-util-i386-win32-vc14-debug:getopt.obj
 0003:000155f8       _pj_pool_factory_default_policy 0055d5f8     pjlib-i386-win32-vc14-debug:pool_policy_malloc.obj
 0003:0001a748       _PJ_VERSION                00562748     pjlib-i386-win32-vc14-debug:config.obj
 0003:0001b908       _mod_srtp                  00563908     libsrtp-i386-win32-vc14-debug:srtp.obj
 0003:0001bc00       _mod_alloc                 00563c00     libsrtp-i386-win32-vc14-debug:alloc.obj
 0003:0001bc98       _octet_weight              00563c98     libsrtp-i386-win32-vc14-debug:datatypes.obj
 0003:0001c170       _srtp_mod_cipher           00564170     libsrtp-i386-win32-vc14-debug:cipher.obj
 0003:0001c470       _srtp_mod_auth             00564470     libsrtp-i386-win32-vc14-debug:auth.obj
 0003:0001c564       _srtp_mod_crypto_kernel    00564564     libsrtp-i386-win32-vc14-debug:crypto_kernel.obj
 0003:0001c814       _mod_stat                  00564814     libsrtp-i386-win32-vc14-debug:stat.obj
 0003:0001c8d4       _srtp_mod_aes_icm          005648d4     libsrtp-i386-win32-vc14-debug:aes_icm.obj
 0003:0001ca30       _srtp_mod_hmac             00564a30     libsrtp-i386-win32-vc14-debug:hmac.obj
 0003:0001cbc0       _srtp_mod_sha1             00564bc0     libsrtp-i386-win32-vc14-debug:sha1.obj
 0003:0001cbd0       _SHA_K0                    00564bd0     libsrtp-i386-win32-vc14-debug:sha1.obj
 0003:0001cbd4       _SHA_K1                    00564bd4     libsrtp-i386-win32-vc14-debug:sha1.obj
 0003:0001cbd8       _SHA_K2                    00564bd8     libsrtp-i386-win32-vc14-debug:sha1.obj
 0003:0001cbdc       _SHA_K3                    00564bdc     libsrtp-i386-win32-vc14-debug:sha1.obj
 0003:0001cc10       ___security_cookie_complement 00564c10     LIBCMTD:gs_cookie.obj
 0003:0001cc14       ___security_cookie         00564c14     LIBCMTD:gs_cookie.obj
 0003:0001cc20       __fltused                  00564c20     LIBCMTD:fltused.obj
 0003:0001cc30       ___scrt_native_dllmain_reason 00564c30     LIBCMTD:utility.obj
 0003:0001cc34       ___scrt_default_matherr    00564c34     LIBCMTD:matherr.obj
 0003:0001cc38       ___isa_enabled             00564c38     LIBCMTD:_cpu_disp_.obj
 0003:0001cc40       __NLG_Destination          00564c40     libvcruntimed:_exsup_.obj
 0003:0001cc68       __iob                      00564c68     libucrtd:_file.obj
 0003:0001cd48       __crtDbgFlag               00564d48     libucrtd:debug_heap.obj
 0003:0001cd4c       __crtBreakAlloc            00564d4c     libucrtd:debug_heap.obj
 0003:0001cd50       ___abort_behavior          00564d50     libucrtd:abort.obj
 0003:0001cd60       ___badioinfo               00564d60     libucrtd:ioinit.obj
 0003:0001cda4       ___mb_cur_max              00564da4     libucrtd:nlsdata.obj
 0003:0001cda8       ___acrt_initial_locale_data 00564da8     libucrtd:nlsdata.obj
 0003:0001ce84       ___acrt_initial_locale_pointers 00564e84     libucrtd:nlsdata.obj
 0003:0001ce90       ___acrt_wide_c_locale_string 00564e90     libucrtd:nlsdata.obj
 0003:0001ceb0       __pctype                   00564eb0     libucrtd:ctype.obj
 0003:0001ceb4       __pwctype                  00564eb4     libucrtd:ctype.obj
 0003:0001cfe0       __mbctype                  00564fe0     libucrtd:mbctype.obj
 0003:0001d118       __mbcasemap                00565118     libucrtd:mbctype.obj
 0003:0001d250       ___acrt_initial_multibyte_data 00565250     libucrtd:mbctype.obj
 0003:0001d4dc       ___acrt_current_multibyte_data 005654dc     libucrtd:mbctype.obj
 0003:0001d4e0       ___acrt_lconv_static_decimal 005654e0     libucrtd:localeconv.obj
 0003:0001d4e4       ___acrt_lconv_static_W_decimal 005654e4     libucrtd:localeconv.obj
 0003:0001d4e8       ___acrt_lconv_c            005654e8     libucrtd:localeconv.obj
 0003:0001d548       ___acrt_lconv              00565548     libucrtd:localeconv.obj
 0003:0001d54c       ___globallocalestatus      0056554c     libucrtd:glstatus.obj
 0003:0001d554       __pfnAllocHook             00565554     libucrtd:debug_heap_hook.obj
 0003:0001d558       __CrtDbgMode               00565558     libucrtd:dbgrptt.obj
 0003:0001d568       __CrtDbgFile               00565568     libucrtd:dbgrptt.obj
 0003:0001d578       __crtAssertBusy            00565578     libucrtd:dbgrptt.obj
 0003:0001d580       __lookuptrailbytes         00565580     libucrtd:read.obj
 0003:0001d6c0       ___dcrt_lowio_console_output_handle 005656c0     libucrtd:initcon.obj
 0003:0001d84c       ??_R0?AVDNameNode@@@8      0056584c     libvcruntimed:undname.obj
 0003:0001d868       ??_R0?AVcharNode@@@8       00565868     libvcruntimed:undname.obj
 0003:0001d884       ??_R0?AVpcharNode@@@8      00565884     libvcruntimed:undname.obj
 0003:0001d8a0       ??_R0?AVpDNameNode@@@8     005658a0     libvcruntimed:undname.obj
 0003:0001d8c0       ??_R0?AVDNameStatusNode@@@8 005658c0     libvcruntimed:undname.obj
 0003:0001d8e4       ??_R0?AVpairNode@@@8       005658e4     libvcruntimed:undname.obj
 0003:0001d900       ??_R0?AVtype_info@@@8      00565900     LIBCMTD:std_type_info_static.obj
 0003:0001d91c       ??_R0?AVbad_exception@std@@@8 0056591c     libvcruntimed:frame.obj
 0003:0001d944       ??_R0?AVexception@std@@@8  00565944     libvcruntimed:frame.obj
 0003:0001d968       ??_R0?AVbad_alloc@std@@@8  00565968     libvcruntimed:frame.obj
 0003:0001eb44       _pj_optarg                 00566b44     pjlib-util-i386-win32-vc14-debug:getopt.obj
 0003:0001efc0       _err_level                 00566fc0     libsrtp-i386-win32-vc14-debug:srtp_err.obj
 0003:0001efc4       _crypto_kernel             00566fc4     libsrtp-i386-win32-vc14-debug:crypto_kernel.obj
 0003:0001f3bc       ___scrt_current_native_startup_state 005673bc     LIBCMTD:utility.obj
 0003:0001f3c0       ___scrt_native_startup_lock 005673c0     LIBCMTD:utility.obj
 0003:0001f3e8       ?__type_info_root_node@@3U__type_info_node@@A 005673e8     LIBCMTD:tncleanup.obj
 0003:0001f3f8       ?_OptionsStorage@?1??__local_stdio_printf_options@@9@4_KA 005673f8     LIBCMTD:default_local_stdio_options.obj
 0003:0001f408       ?_OptionsStorage@?1??__local_stdio_scanf_options@@9@4_KA 00567408     LIBCMTD:default_local_stdio_options.obj
 0003:0001f414       ___scrt_debugger_hook_flag 00567414     LIBCMTD:utility_desktop.obj
 0003:0001f418       ___isa_available           00567418     LIBCMTD:_cpu_disp_.obj
 0003:0001f41c       ___favor                   0056741c     LIBCMTD:_cpu_disp_.obj
 0003:0001f4b8       ___pPurecall               005674b8     libvcruntimed:purevirt_data.obj
 0003:0001f4bc       ?pArgList@UnDecorator@@0PAVReplicator@@A 005674bc     libvcruntimed:undname.obj
 0003:0001f4c0       ?pZNameList@UnDecorator@@0PAVReplicator@@A 005674c0     libvcruntimed:undname.obj
 0003:0001f4c4       ?pTemplateArgList@UnDecorator@@0PAVReplicator@@A 005674c4     libvcruntimed:undname.obj
 0003:0001f4c8       ?gName@UnDecorator@@0PBDB  005674c8     libvcruntimed:undname.obj
 0003:0001f4cc       ?name@UnDecorator@@0PBDB   005674cc     libvcruntimed:undname.obj
 0003:0001f4d0       ?outputString@UnDecorator@@0PADA 005674d0     libvcruntimed:undname.obj
 0003:0001f4d4       ?maxStringLength@UnDecorator@@0HA 005674d4     libvcruntimed:undname.obj
 0003:0001f4d8       ?disableFlags@UnDecorator@@0KA 005674d8     libvcruntimed:undname.obj
 0003:0001f4dc       ?fExplicitTemplateParams@UnDecorator@@0_NA 005674dc     libvcruntimed:undname.obj
 0003:0001f4dd       ?fGetTemplateArgumentList@UnDecorator@@0_NA 005674dd     libvcruntimed:undname.obj
 0003:0001f4e0       ?m_pGetParameter@UnDecorator@@0P6APADJ@ZA 005674e0     libvcruntimed:undname.obj
 0003:0001f568       ?nodes@?1??make@DNameStatusNode@@SAPAV2@W4DNameStatus@@@Z@4PAV2@A 00567568     libvcruntimed:undname.obj
 0003:0001f5a4       ??_B?1??make@DNameStatusNode@@SAPAV1@W4DNameStatus@@@Z@51 005675a4     libvcruntimed:undname.obj
 0003:0001f5a8       __nstream                  005675a8     libucrtd:_file.obj
 0003:0001f5ac       ___piob                    005675ac     libucrtd:_file.obj
 0003:0001f5b4       __cflush                   005675b4     libucrtd:_file.obj
 0003:000200fc       __environ_table            005680fc     libucrtd:environment_initialization.obj
 0003:00020100       __wenviron_table           00568100     libucrtd:environment_initialization.obj
 0003:00020108       ___dcrt_initial_wide_environment 00568108     libucrtd:environment_initialization.obj
 0003:0002010c       ___dcrt_initial_narrow_environment 0056810c     libucrtd:environment_initialization.obj
 0003:00020110       ___argc                    00568110     libucrtd:argv_data.obj
 0003:00020114       ___argv                    00568114     libucrtd:argv_data.obj
 0003:00020118       ___wargv                   00568118     libucrtd:argv_data.obj
 0003:0002011c       __acmdln                   0056811c     libucrtd:argv_data.obj
 0003:00020120       __wcmdln                   00568120     libucrtd:argv_data.obj
 0003:00020124       __pgmptr                   00568124     libucrtd:argv_data.obj
 0003:00020128       __wpgmptr                  00568128     libucrtd:argv_data.obj
 0003:0002012c       ___acrt_locale_changed_data 0056812c     libucrtd:wsetlocale.obj
 0003:00020134       __commode                  00568134     libucrtd:ncommode.obj
 0003:00020138       ___acrt_atexit_table       00568138     libucrtd:onexit.obj
 0003:00020148       ___acrt_at_quick_exit_table 00568148     libucrtd:onexit.obj
 0003:00020174       __pfnDumpClient            00568174     libucrtd:debug_heap.obj
 0003:00020288       ___pioinfo                 00568288     libucrtd:ioinit.obj
 0003:000204f0       __nhandle                  005684f0     libucrtd:ioinit.obj
 0003:000204f4       ___acrt_stdout_buffer      005684f4     libucrtd:_sftbuf.obj
 0003:000204f8       ___acrt_stderr_buffer      005684f8     libucrtd:_sftbuf.obj
 0003:00020500       ___acrt_current_locale_data 00568500     libucrtd:nlsdata.obj
 0003:00020520       ___fastflag                00568520     libucrtd:fp_flags.obj
 0003:000206a4       ___mbcodepage              005686a4     libucrtd:mbctype.obj
 0003:000206a8       ___ismbcodepage            005686a8     libucrtd:mbctype.obj
 0003:000206ac       ___mbulinfo                005686ac     libucrtd:mbctype.obj
 0003:000206c0       ___mblocalename            005686c0     libucrtd:mbctype.obj
 0003:000206c8       __fmode                    005686c8     libucrtd:txtmode.obj
 0003:000206cc       ___acrt_lconv_static_null  005686cc     libucrtd:localeconv.obj
 0003:000206d0       ___acrt_lconv_static_W_null 005686d0     libucrtd:localeconv.obj
 0003:000206d4       ___acrt_heap               005686d4     libucrtd:heap_handle.obj
 0003:000206dc       __pReportHookListW         005686dc     libucrtd:dbgrptt.obj
 0003:000206e0       __pfnReportHook            005686e0     libucrtd:dbgrptt.obj
 0003:000206e4       __pReportHookList          005686e4     libucrtd:dbgrptt.obj
 0003:000206ec       ?g_OutOfMemoryExceptionCallback@@3P6GPAXXZA 005686ec     libvcruntimed:frame.obj
 0003:000206f0       ?_OptionsStorage@?1??__local_stdio_printf_options@@9@9 005686f0     <common>
 0003:00020704       _PJ_NO_MEMORY_EXCEPTION    00568704     <common>
 0003:00020720       _bit_string                00568720     <common>
 0003:00020bf8       ?_OptionsStorage@?1??__local_stdio_scanf_options@@9@9 00568bf8     <common>
 0003:00020c0c       ___scrt_ucrt_dll_is_in_use 00568c0c     <common>
 0003:00020c18       ___dyn_tls_dtor_callback   00568c18     <common>
 0003:00020c24       ___dyn_tls_init_callback   00568c24     <common>
 0003:00020c30       __setjmpexused             00568c30     <common>
 0003:00020c3c       __pmatherr                 00568c3c     <common>
 0003:00020c48       ___use_sse2_mathfcns       00568c48     <common>
 0004:00000000       __imp__SetConsoleTextAttribute@8 00569000     kernel32:KERNEL32.dll
 0004:00000004       __imp__ReadConsoleW@20     00569004     kernel32:KERNEL32.dll
 0004:00000008       __imp__SetFilePointerEx@20 00569008     kernel32:KERNEL32.dll
 0004:0000000c       __imp__GetConsoleMode@8    0056900c     kernel32:KERNEL32.dll
 0004:00000010       __imp__GetConsoleCP@0      00569010     kernel32:KERNEL32.dll
 0004:00000014       __imp__HeapQueryInformation@20 00569014     kernel32:KERNEL32.dll
 0004:00000018       __imp__HeapSize@12         00569018     kernel32:KERNEL32.dll
 0004:0000001c       __imp__HeapReAlloc@16      0056901c     kernel32:KERNEL32.dll
 0004:00000020       __imp__HeapFree@12         00569020     kernel32:KERNEL32.dll
 0004:00000024       __imp__GetProcessHeap@0    00569024     kernel32:KERNEL32.dll
 0004:00000028       __imp__SetStdHandle@8      00569028     kernel32:KERNEL32.dll
 0004:0000002c       __imp__SetEnvironmentVariableW@8 0056902c     kernel32:KERNEL32.dll
 0004:00000030       __imp__SetEnvironmentVariableA@8 00569030     kernel32:KERNEL32.dll
 0004:00000034       __imp__FreeEnvironmentStringsW@4 00569034     kernel32:KERNEL32.dll
 0004:00000038       __imp__GetEnvironmentStringsW@0 00569038     kernel32:KERNEL32.dll
 0004:0000003c       __imp__GetCPInfo@8         0056903c     kernel32:KERNEL32.dll
 0004:00000040       __imp__GetOEMCP@0          00569040     kernel32:KERNEL32.dll
 0004:00000044       __imp__IsValidCodePage@4   00569044     kernel32:KERNEL32.dll
 0004:00000048       __imp__FindNextFileW@8     00569048     kernel32:KERNEL32.dll
 0004:0000004c       __imp__FindNextFileA@8     0056904c     kernel32:KERNEL32.dll
 0004:00000050       __imp__FindFirstFileExW@24 00569050     kernel32:KERNEL32.dll
 0004:00000054       __imp__FindFirstFileExA@24 00569054     kernel32:KERNEL32.dll
 0004:00000058       __imp__FindClose@4         00569058     kernel32:KERNEL32.dll
 0004:0000005c       __imp__DecodePointer@4     0056905c     kernel32:KERNEL32.dll
 0004:00000060       __imp__EncodePointer@4     00569060     kernel32:KERNEL32.dll
 0004:00000064       __imp__SetConsoleCtrlHandler@8 00569064     kernel32:KERNEL32.dll
 0004:00000068       __imp__WaitForSingleObjectEx@12 00569068     kernel32:KERNEL32.dll
 0004:0000006c       __imp__OutputDebugStringW@4 0056906c     kernel32:KERNEL32.dll
 0004:00000070       __imp__OutputDebugStringA@4 00569070     kernel32:KERNEL32.dll
 0004:00000074       __imp__GetStringTypeW@16   00569074     kernel32:KERNEL32.dll
 0004:00000078       __imp__EnumSystemLocalesW@8 00569078     kernel32:KERNEL32.dll
 0004:0000007c       __imp__GetUserDefaultLCID@0 0056907c     kernel32:KERNEL32.dll
 0004:00000080       __imp__IsValidLocale@8     00569080     kernel32:KERNEL32.dll
 0004:00000084       __imp__GetLocaleInfoW@16   00569084     kernel32:KERNEL32.dll
 0004:00000088       __imp__LCMapStringW@24     00569088     kernel32:KERNEL32.dll
 0004:0000008c       __imp__CompareStringW@24   0056908c     kernel32:KERNEL32.dll
 0004:00000090       __imp__GetTimeFormatW@24   00569090     kernel32:KERNEL32.dll
 0004:00000094       __imp__GetDateFormatW@24   00569094     kernel32:KERNEL32.dll
 0004:00000098       __imp__GetSystemInfo@4     00569098     kernel32:KERNEL32.dll
 0004:0000009c       __imp__HeapValidate@12     0056909c     kernel32:KERNEL32.dll
 0004:000000a0       __imp__HeapAlloc@12        005690a0     kernel32:KERNEL32.dll
 0004:000000a4       __imp__RaiseException@16   005690a4     kernel32:KERNEL32.dll
 0004:000000a8       __imp__GetACP@0            005690a8     kernel32:KERNEL32.dll
 0004:000000ac       __imp__GetCommandLineW@0   005690ac     kernel32:KERNEL32.dll
 0004:000000b0       __imp__GetCommandLineA@0   005690b0     kernel32:KERNEL32.dll
 0004:000000b4       __imp__WideCharToMultiByte@32 005690b4     kernel32:KERNEL32.dll
 0004:000000b8       __imp__MultiByteToWideChar@24 005690b8     kernel32:KERNEL32.dll
 0004:000000bc       __imp__ExitProcess@4       005690bc     kernel32:KERNEL32.dll
 0004:000000c0       __imp__WriteConsoleW@20    005690c0     kernel32:KERNEL32.dll
 0004:000000c4       __imp__GetModuleHandleExW@12 005690c4     kernel32:KERNEL32.dll
 0004:000000c8       __imp__GetModuleFileNameW@12 005690c8     kernel32:KERNEL32.dll
 0004:000000cc       __imp__GetModuleFileNameA@12 005690cc     kernel32:KERNEL32.dll
 0004:000000d0       __imp__GetFileType@4       005690d0     kernel32:KERNEL32.dll
 0004:000000d4       __imp__LoadLibraryExW@12   005690d4     kernel32:KERNEL32.dll
 0004:000000d8       __imp__InitializeCriticalSectionAndSpinCount@8 005690d8     kernel32:KERNEL32.dll
 0004:000000dc       __imp__RtlUnwind@16        005690dc     kernel32:KERNEL32.dll
 0004:000000e0       __imp__InterlockedFlushSList@4 005690e0     kernel32:KERNEL32.dll
 0004:000000e4       __imp__InterlockedPushEntrySList@8 005690e4     kernel32:KERNEL32.dll
 0004:000000e8       __imp__GetModuleHandleW@4  005690e8     kernel32:KERNEL32.dll
 0004:000000ec       __imp__GetStartupInfoW@4   005690ec     kernel32:KERNEL32.dll
 0004:000000f0       __imp__CloseHandle@4       005690f0     kernel32:KERNEL32.dll
 0004:000000f4       __imp__SetEvent@4          005690f4     kernel32:KERNEL32.dll
 0004:000000f8       __imp__CreateEventA@16     005690f8     kernel32:KERNEL32.dll
 0004:000000fc       __imp__GetCurrentThread@0  005690fc     kernel32:KERNEL32.dll
 0004:00000100       __imp__SetThreadPriority@8 00569100     kernel32:KERNEL32.dll
 0004:00000104       __imp__WaitForMultipleObjects@16 00569104     kernel32:KERNEL32.dll
 0004:00000108       __imp__GetStdHandle@4      00569108     kernel32:KERNEL32.dll
 0004:0000010c       __imp__GetLastError@0      0056910c     kernel32:KERNEL32.dll
 0004:00000110       __imp__InitializeCriticalSection@4 00569110     kernel32:KERNEL32.dll
 0004:00000114       __imp__EnterCriticalSection@4 00569114     kernel32:KERNEL32.dll
 0004:00000118       __imp__LeaveCriticalSection@4 00569118     kernel32:KERNEL32.dll
 0004:0000011c       __imp__TryEnterCriticalSection@4 0056911c     kernel32:KERNEL32.dll
 0004:00000120       __imp__DeleteCriticalSection@4 00569120     kernel32:KERNEL32.dll
 0004:00000124       __imp__ResetEvent@4        00569124     kernel32:KERNEL32.dll
 0004:00000128       __imp__ReleaseSemaphore@12 00569128     kernel32:KERNEL32.dll
 0004:0000012c       __imp__WaitForSingleObject@8 0056912c     kernel32:KERNEL32.dll
 0004:00000130       __imp__Sleep@4             00569130     kernel32:KERNEL32.dll
 0004:00000134       __imp__GetCurrentProcessId@0 00569134     kernel32:KERNEL32.dll
 0004:00000138       __imp__CreateThread@24     00569138     kernel32:KERNEL32.dll
 0004:0000013c       __imp__GetCurrentThreadId@0 0056913c     kernel32:KERNEL32.dll
 0004:00000140       __imp__GetThreadPriority@4 00569140     kernel32:KERNEL32.dll
 0004:00000144       __imp__ResumeThread@4      00569144     kernel32:KERNEL32.dll
 0004:00000148       __imp__TlsAlloc@0          00569148     kernel32:KERNEL32.dll
 0004:0000014c       __imp__TlsGetValue@4       0056914c     kernel32:KERNEL32.dll
 0004:00000150       __imp__TlsSetValue@8       00569150     kernel32:KERNEL32.dll
 0004:00000154       __imp__TlsFree@4           00569154     kernel32:KERNEL32.dll
 0004:00000158       __imp__PulseEvent@4        00569158     kernel32:KERNEL32.dll
 0004:0000015c       __imp__CreateSemaphoreA@16 0056915c     kernel32:KERNEL32.dll
 0004:00000160       __imp__GetConsoleScreenBufferInfo@8 00569160     kernel32:KERNEL32.dll
 0004:00000164       __imp__CreateFileW@28      00569164     kernel32:KERNEL32.dll
 0004:00000168       __imp__SetLastError@4      00569168     kernel32:KERNEL32.dll
 0004:0000016c       __imp__FormatMessageA@28   0056916c     kernel32:KERNEL32.dll
 0004:00000170       __imp__GetLocalTime@4      00569170     kernel32:KERNEL32.dll
 0004:00000174       __imp__FileTimeToSystemTime@8 00569174     kernel32:KERNEL32.dll
 0004:00000178       __imp__SystemTimeToFileTime@8 00569178     kernel32:KERNEL32.dll
 0004:0000017c       __imp__CreateFileA@28      0056917c     kernel32:KERNEL32.dll
 0004:00000180       __imp__DeleteFileA@4       00569180     kernel32:KERNEL32.dll
 0004:00000184       __imp__FileTimeToLocalFileTime@8 00569184     kernel32:KERNEL32.dll
 0004:00000188       __imp__GetFileSize@8       00569188     kernel32:KERNEL32.dll
 0004:0000018c       __imp__GetFileTime@16      0056918c     kernel32:KERNEL32.dll
 0004:00000190       __imp__MoveFileExA@12      00569190     kernel32:KERNEL32.dll
 0004:00000194       __imp__FlushFileBuffers@4  00569194     kernel32:KERNEL32.dll
 0004:00000198       __imp__ReadFile@20         00569198     kernel32:KERNEL32.dll
 0004:0000019c       __imp__SetFilePointer@16   0056919c     kernel32:KERNEL32.dll
 0004:000001a0       __imp__WriteFile@20        005691a0     kernel32:KERNEL32.dll
 0004:000001a4       __imp__QueryPerformanceCounter@4 005691a4     kernel32:KERNEL32.dll
 0004:000001a8       __imp__QueryPerformanceFrequency@4 005691a8     kernel32:KERNEL32.dll
 0004:000001ac       __imp__FreeLibrary@4       005691ac     kernel32:KERNEL32.dll
 0004:000001b0       __imp__GetProcAddress@8    005691b0     kernel32:KERNEL32.dll
 0004:000001b4       __imp__LoadLibraryA@4      005691b4     kernel32:KERNEL32.dll
 0004:000001b8       __imp__UnhandledExceptionFilter@4 005691b8     kernel32:KERNEL32.dll
 0004:000001bc       __imp__SetUnhandledExceptionFilter@4 005691bc     kernel32:KERNEL32.dll
 0004:000001c0       __imp__GetCurrentProcess@0 005691c0     kernel32:KERNEL32.dll
 0004:000001c4       __imp__TerminateProcess@8  005691c4     kernel32:KERNEL32.dll
 0004:000001c8       __imp__IsProcessorFeaturePresent@4 005691c8     kernel32:KERNEL32.dll
 0004:000001cc       __imp__GetSystemTimeAsFileTime@4 005691cc     kernel32:KERNEL32.dll
 0004:000001d0       __imp__InitializeSListHead@4 005691d0     kernel32:KERNEL32.dll
 0004:000001d4       __imp__IsDebuggerPresent@0 005691d4     kernel32:KERNEL32.dll
 0004:000001d8       \177KERNEL32_NULL_THUNK_DATA 005691d8     kernel32:KERNEL32.dll
 0004:00000260       __imp__waveInReset@4       00569260     winmm:WINMM.dll
 0004:00000264       __imp__waveInStop@4        00569264     winmm:WINMM.dll
 0004:00000268       __imp__waveInStart@4       00569268     winmm:WINMM.dll
 0004:0000026c       __imp__waveInAddBuffer@12  0056926c     winmm:WINMM.dll
 0004:00000270       __imp__waveInUnprepareHeader@12 00569270     winmm:WINMM.dll
 0004:00000274       __imp__waveInPrepareHeader@12 00569274     winmm:WINMM.dll
 0004:00000278       __imp__waveInClose@4       00569278     winmm:WINMM.dll
 0004:0000027c       __imp__waveInOpen@24       0056927c     winmm:WINMM.dll
 0004:00000280       __imp__waveInGetDevCapsA@12 00569280     winmm:WINMM.dll
 0004:00000284       __imp__waveInGetNumDevs@0  00569284     winmm:WINMM.dll
 0004:00000288       __imp__waveOutReset@4      00569288     winmm:WINMM.dll
 0004:0000028c       __imp__waveOutRestart@4    0056928c     winmm:WINMM.dll
 0004:00000290       __imp__waveOutPause@4      00569290     winmm:WINMM.dll
 0004:00000294       __imp__waveOutWrite@12     00569294     winmm:WINMM.dll
 0004:00000298       __imp__waveOutUnprepareHeader@12 00569298     winmm:WINMM.dll
 0004:0000029c       __imp__waveOutPrepareHeader@12 0056929c     winmm:WINMM.dll
 0004:000002a0       __imp__waveOutClose@4      005692a0     winmm:WINMM.dll
 0004:000002a4       __imp__waveOutOpen@24      005692a4     winmm:WINMM.dll
 0004:000002a8       __imp__waveOutSetVolume@8  005692a8     winmm:WINMM.dll
 0004:000002ac       __imp__waveOutGetVolume@8  005692ac     winmm:WINMM.dll
 0004:000002b0       __imp__waveOutGetDevCapsA@12 005692b0     winmm:WINMM.dll
 0004:000002b4       __imp__waveOutGetNumDevs@0 005692b4     winmm:WINMM.dll
 0004:000002b8       __imp__waveInGetErrorTextA@12 005692b8     winmm:WINMM.dll
 0004:000002bc       __imp__waveOutGetErrorTextA@12 005692bc     winmm:WINMM.dll
 0004:000002c0       \177WINMM_NULL_THUNK_DATA  005692c0     winmm:WINMM.dll
 0004:000002fc       __imp__select@20           005692fc     ws2_32:WS2_32.dll
 0004:00000300       __imp____WSAFDIsSet@8      00569300     ws2_32:WS2_32.dll
 0004:00000304       __imp__gethostbyname@4     00569304     ws2_32:WS2_32.dll
 0004:00000308       __imp__WSAStringToAddressA@20 00569308     ws2_32:WS2_32.dll
 0004:0000030c       __imp__WSAAddressToStringA@20 0056930c     ws2_32:WS2_32.dll
 0004:00000310       __imp__WSASocketA@24       00569310     ws2_32:WS2_32.dll
 0004:00000314       __imp__WSAIoctl@36         00569314     ws2_32:WS2_32.dll
 0004:00000318       __imp__gethostname@8       00569318     ws2_32:WS2_32.dll
 0004:0000031c       __imp__shutdown@8          0056931c     ws2_32:WS2_32.dll
 0004:00000320       __imp__setsockopt@20       00569320     ws2_32:WS2_32.dll
 0004:00000324       __imp__sendto@24           00569324     ws2_32:WS2_32.dll
 0004:00000328       __imp__send@16             00569328     ws2_32:WS2_32.dll
 0004:0000032c       __imp__recvfrom@24         0056932c     ws2_32:WS2_32.dll
 0004:00000330       __imp__recv@16             00569330     ws2_32:WS2_32.dll
 0004:00000334       __imp__ntohs@4             00569334     ws2_32:WS2_32.dll
 0004:00000338       __imp__ntohl@4             00569338     ws2_32:WS2_32.dll
 0004:0000033c       __imp__listen@8            0056933c     ws2_32:WS2_32.dll
 0004:00000340       __imp__inet_ntoa@4         00569340     ws2_32:WS2_32.dll
 0004:00000344       __imp__inet_addr@4         00569344     ws2_32:WS2_32.dll
 0004:00000348       __imp__htons@4             00569348     ws2_32:WS2_32.dll
 0004:0000034c       __imp__htonl@4             0056934c     ws2_32:WS2_32.dll
 0004:00000350       __imp__getsockopt@20       00569350     ws2_32:WS2_32.dll
 0004:00000354       __imp__getsockname@12      00569354     ws2_32:WS2_32.dll
 0004:00000358       __imp__getpeername@12      00569358     ws2_32:WS2_32.dll
 0004:0000035c       __imp__connect@12          0056935c     ws2_32:WS2_32.dll
 0004:00000360       __imp__closesocket@4       00569360     ws2_32:WS2_32.dll
 0004:00000364       __imp__bind@12             00569364     ws2_32:WS2_32.dll
 0004:00000368       __imp__accept@12           00569368     ws2_32:WS2_32.dll
 0004:0000036c       __imp__ioctlsocket@12      0056936c     ws2_32:WS2_32.dll
 0004:00000370       __imp__WSASetLastError@4   00569370     ws2_32:WS2_32.dll
 0004:00000374       __imp__WSAGetLastError@0   00569374     ws2_32:WS2_32.dll
 0004:00000378       __imp__WSACleanup@0        00569378     ws2_32:WS2_32.dll
 0004:0000037c       __imp__WSAStartup@8        0056937c     ws2_32:WS2_32.dll
 0004:00000380       \177WS2_32_NULL_THUNK_DATA 00569380     ws2_32:WS2_32.dll
 0004:000003c4       __imp__CoCreateGuid@4      005693c4     ole32:ole32.dll
 0004:000003c8       \177ole32_NULL_THUNK_DATA  005693c8     ole32:ole32.dll
 0004:000003f4       __IMPORT_DESCRIPTOR_ole32  005693f4     ole32:ole32.dll
 0004:00000408       __IMPORT_DESCRIPTOR_WS2_32 00569408     ws2_32:WS2_32.dll
 0004:0000041c       __IMPORT_DESCRIPTOR_WINMM  0056941c     winmm:WINMM.dll
 0004:00000430       __IMPORT_DESCRIPTOR_KERNEL32 00569430     kernel32:KERNEL32.dll
 0004:00000444       __NULL_IMPORT_DESCRIPTOR   00569444     ole32:ole32.dll
 0006:00000000       ___guard_check_icall_fptr  0056c000     LIBCMTD:guard_support.obj
