 confsample

 Timestamp is 5e5eb1aa (Tue Mar  3 15:36:10 2020)

 Preferred load address is 00400000

 Start         Length     Name                   Class
 0001:00000000 00027d7dH .text$mn                CODE
 0002:00000000 00000268H .idata$5                DATA
 0002:00000268 00000004H .00cfg                  DATA
 0002:0000026c 00000004H .CRT$XCA                DATA
 0002:00000270 00000004H .CRT$XCAA               DATA
 0002:00000274 00000004H .CRT$XCZ                DATA
 0002:00000278 00000004H .CRT$XIA                DATA
 0002:0000027c 00000004H .CRT$XIAA               DATA
 0002:00000280 00000004H .CRT$XIAC               DATA
 0002:00000284 00000004H .CRT$XIZ                DATA
 0002:00000288 00000004H .CRT$XPA                DATA
 0002:0000028c 00000004H .CRT$XPZ                DATA
 0002:00000290 00000004H .CRT$XTA                DATA
 0002:00000294 0000000cH .CRT$XTZ                DATA
 0002:000002a0 0001a420H .rdata                  DATA
 0002:0001a6c0 00000004H .rdata$sxdata           DATA
 0002:0001a6c4 00000250H .rdata$zzzdbg           DATA
 0002:0001a914 00000004H .rtc$IAA                DATA
 0002:0001a918 00000004H .rtc$IZZ                DATA
 0002:0001a91c 00000004H .rtc$TAA                DATA
 0002:0001a920 00000008H .rtc$TZZ                DATA
 0002:0001a928 0000003cH .xdata$x                DATA
 0002:0001a964 00000000H .edata                  DATA
 0002:0001a964 00000104H .idata$2                DATA
 0002:0001aa68 00000014H .idata$3                DATA
 0002:0001aa7c 00000268H .idata$4                DATA
 0002:0001ace4 00000a28H .idata$6                DATA
 0003:00000000 00001700H .data                   DATA
 0003:00001700 00001910H .bss                    DATA
 0004:00000000 00000020H .gfids$y                DATA
 0005:00000000 000007e0H _RDATA                  DATA

  Address         Publics by Value              Rva+Base       Lib:Object

 0000:00000000       ___guard_longjmp_count     00000000     <absolute>
 0000:00000000       ___guard_fids_count        00000000     <absolute>
 0000:00000000       ___guard_longjmp_table     00000000     <absolute>
 0000:00000000       ___guard_iat_table         00000000     <absolute>
 0000:00000000       ___guard_iat_count         00000000     <absolute>
 0000:00000000       ___dynamic_value_reloc_table 00000000     <absolute>
 0000:00000000       ___guard_fids_table        00000000     <absolute>
 0000:00000001       ___safe_se_handler_count   00000001     <absolute>
 0000:00000100       ___guard_flags             00000100     <absolute>
 0000:00000000       ___ImageBase               00400000     <linker-defined>
 0001:000000d0       _get_snd_options           004010d0 f   confsample.obj
 0001:000004c0       _dump_pool_usage           004014c0 f   confsample.obj
 0001:000008f0       _main                      004018f0 f   confsample.obj
 0001:000012a0       ___local_stdio_printf_options 004022a0 f i confsample.obj
 0001:000012b0       _printf                    004022b0 f i confsample.obj
 0001:000012e0       _sprintf                   004022e0 f i confsample.obj
 0001:00001320       _pjmedia_aud_subsys_init   00402320 f   pjmedia-audiodev-i386-win32-vc14-release-dynamic:audiodev.obj
 0001:000013c0       _pjmedia_aud_subsys_shutdown 004023c0 f   pjmedia-audiodev-i386-win32-vc14-release-dynamic:audiodev.obj
 0001:00001400       __snprintf                 00402400 f i pjmedia-audiodev-i386-win32-vc14-release-dynamic:errno.obj
 0001:00001440       _pjmedia_audiodev_strerror 00402440 f   pjmedia-audiodev-i386-win32-vc14-release-dynamic:errno.obj
 0001:00002850       _pjmedia_wmme_factory      00403850 f   pjmedia-audiodev-i386-win32-vc14-release-dynamic:wmme_dev.obj
 0001:00002e00       _pjmedia_port_destroy      00403e00 f   pjmedia-i386-win32-vc14-release-dynamic:port.obj
 0001:00002e30       _pjmedia_port_get_frame    00403e30 f   pjmedia-i386-win32-vc14-release-dynamic:port.obj
 0001:00002e70       _pjmedia_port_info_init    00403e70 f   pjmedia-i386-win32-vc14-release-dynamic:port.obj
 0001:00002f20       _pjmedia_port_put_frame    00403f20 f   pjmedia-i386-win32-vc14-release-dynamic:port.obj
 0001:00003800       _pjmedia_conf_add_port     00404800 f   pjmedia-i386-win32-vc14-release-dynamic:conference.obj
 0001:00003900       _pjmedia_conf_adjust_rx_level 00404900 f   pjmedia-i386-win32-vc14-release-dynamic:conference.obj
 0001:00003970       _pjmedia_conf_adjust_tx_level 00404970 f   pjmedia-i386-win32-vc14-release-dynamic:conference.obj
 0001:000039e0       _pjmedia_conf_connect_port 004049e0 f   pjmedia-i386-win32-vc14-release-dynamic:conference.obj
 0001:00003ad0       _pjmedia_conf_create       00404ad0 f   pjmedia-i386-win32-vc14-release-dynamic:conference.obj
 0001:00003c50       _pjmedia_conf_destroy      00404c50 f   pjmedia-i386-win32-vc14-release-dynamic:conference.obj
 0001:00003d00       _pjmedia_conf_disconnect_port 00404d00 f   pjmedia-i386-win32-vc14-release-dynamic:conference.obj
 0001:00003e00       _pjmedia_conf_get_port_info 00404e00 f   pjmedia-i386-win32-vc14-release-dynamic:conference.obj
 0001:00003eb0       _pjmedia_conf_get_ports_info 00404eb0 f   pjmedia-i386-win32-vc14-release-dynamic:conference.obj
 0001:00003f30       _pjmedia_conf_get_signal_level 00404f30 f   pjmedia-i386-win32-vc14-release-dynamic:conference.obj
 0001:00004730       _pjmedia_endpt_create2     00405730 f   pjmedia-i386-win32-vc14-release-dynamic:endpoint.obj
 0001:00004900       _pjmedia_endpt_destroy2    00405900 f   pjmedia-i386-win32-vc14-release-dynamic:endpoint.obj
 0001:00004990       _pjmedia_endpt_stop_threads 00405990 f   pjmedia-i386-win32-vc14-release-dynamic:endpoint.obj
 0001:00004f80       _pjmedia_wav_player_port_create 00405f80 f   pjmedia-i386-win32-vc14-release-dynamic:wav_player.obj
 0001:000057b0       _pjmedia_wav_writer_port_create 004067b0 f   pjmedia-i386-win32-vc14-release-dynamic:wav_writer.obj
 0001:00005bf0       _pjmedia_aud_dev_default_param 00406bf0 f   pjmedia-i386-win32-vc14-release-dynamic:audiodev.obj
 0001:00005c70       _pjmedia_aud_dev_get_info  00406c70 f   pjmedia-i386-win32-vc14-release-dynamic:audiodev.obj
 0001:00005cd0       _pjmedia_aud_driver_deinit 00406cd0 f   pjmedia-i386-win32-vc14-release-dynamic:audiodev.obj
 0001:00005d30       _pjmedia_aud_driver_init   00406d30 f   pjmedia-i386-win32-vc14-release-dynamic:audiodev.obj
 0001:00005fb0       _pjmedia_aud_stream_create 00406fb0 f   pjmedia-i386-win32-vc14-release-dynamic:audiodev.obj
 0001:00006160       _pjmedia_aud_stream_destroy 00407160 f   pjmedia-i386-win32-vc14-release-dynamic:audiodev.obj
 0001:00006180       _pjmedia_aud_stream_get_cap 00407180 f   pjmedia-i386-win32-vc14-release-dynamic:audiodev.obj
 0001:000061a0       _pjmedia_aud_stream_get_param 004071a0 f   pjmedia-i386-win32-vc14-release-dynamic:audiodev.obj
 0001:00006200       _pjmedia_aud_stream_set_cap 00407200 f   pjmedia-i386-win32-vc14-release-dynamic:audiodev.obj
 0001:00006220       _pjmedia_aud_stream_start  00407220 f   pjmedia-i386-win32-vc14-release-dynamic:audiodev.obj
 0001:00006240       _pjmedia_aud_stream_stop   00407240 f   pjmedia-i386-win32-vc14-release-dynamic:audiodev.obj
 0001:00006260       _pjmedia_get_aud_subsys    00407260 f   pjmedia-i386-win32-vc14-release-dynamic:audiodev.obj
 0001:00006410       _pjmedia_event_init        00407410 f   pjmedia-i386-win32-vc14-release-dynamic:event.obj
 0001:00006450       _pjmedia_event_publish     00407450 f   pjmedia-i386-win32-vc14-release-dynamic:event.obj
 0001:00006580       _pjmedia_event_subscribe   00407580 f   pjmedia-i386-win32-vc14-release-dynamic:event.obj
 0001:00006660       _pjmedia_event_unsubscribe 00407660 f   pjmedia-i386-win32-vc14-release-dynamic:event.obj
 0001:00006740       _pjmedia_format_get_audio_format_detail 00407740 f   pjmedia-i386-win32-vc14-release-dynamic:format.obj
 0001:00006880       _pjmedia_delay_buf_create  00407880 f   pjmedia-i386-win32-vc14-release-dynamic:delaybuf.obj
 0001:000069b0       _pjmedia_delay_buf_destroy 004079b0 f   pjmedia-i386-win32-vc14-release-dynamic:delaybuf.obj
 0001:00006a10       _pjmedia_delay_buf_get     00407a10 f   pjmedia-i386-win32-vc14-release-dynamic:delaybuf.obj
 0001:00006b50       _pjmedia_delay_buf_put     00407b50 f   pjmedia-i386-win32-vc14-release-dynamic:delaybuf.obj
 0001:00006c50       _pjmedia_delay_buf_reset   00407c50 f   pjmedia-i386-win32-vc14-release-dynamic:delaybuf.obj
 0001:00006e30       _pjmedia_resample_create   00407e30 f   pjmedia-i386-win32-vc14-release-dynamic:resample_resample.obj
 0001:00007060       _pjmedia_resample_run      00408060 f   pjmedia-i386-win32-vc14-release-dynamic:resample_resample.obj
 0001:00007250       _pjmedia_snd_port_connect  00408250 f   pjmedia-i386-win32-vc14-release-dynamic:sound_port.obj
 0001:00007310       _pjmedia_snd_port_create   00408310 f   pjmedia-i386-win32-vc14-release-dynamic:sound_port.obj
 0001:000073d0       _pjmedia_snd_port_create2  004083d0 f   pjmedia-i386-win32-vc14-release-dynamic:sound_port.obj
 0001:00007500       _pjmedia_snd_port_create_player 00408500 f   pjmedia-i386-win32-vc14-release-dynamic:sound_port.obj
 0001:000075b0       _pjmedia_snd_port_destroy  004085b0 f   pjmedia-i386-win32-vc14-release-dynamic:sound_port.obj
 0001:00007610       _pjmedia_snd_port_get_snd_stream 00408610 f   pjmedia-i386-win32-vc14-release-dynamic:sound_port.obj
 0001:00007630       _pjmedia_snd_port_set_ec   00408630 f   pjmedia-i386-win32-vc14-release-dynamic:sound_port.obj
 0001:00007ca0       _pjmedia_sdp_attr_create   00408ca0 f   pjmedia-i386-win32-vc14-release-dynamic:sdp.obj
 0001:00007d00       _pjmedia_sdp_attr_find     00408d00 f   pjmedia-i386-win32-vc14-release-dynamic:sdp.obj
 0001:00007d90       _pjmedia_sdp_media_deactivate 00408d90 f   pjmedia-i386-win32-vc14-release-dynamic:sdp.obj
 0001:00007dc0       _pjmedia_sdp_media_find_attr 00408dc0 f   pjmedia-i386-win32-vc14-release-dynamic:sdp.obj
 0001:00007df0       _pjmedia_sdp_transport_get_proto 00408df0 f   pjmedia-i386-win32-vc14-release-dynamic:sdp.obj
 0001:00007f40       _pjmedia_codec_mgr_destroy 00408f40 f   pjmedia-i386-win32-vc14-release-dynamic:codec.obj
 0001:00007fd0       _pjmedia_codec_mgr_init    00408fd0 f   pjmedia-i386-win32-vc14-release-dynamic:codec.obj
 0001:00008040       _pjmedia_strerror          00409040 f   pjmedia-i386-win32-vc14-release-dynamic:errno.obj
 0001:00008d40       _pjmedia_wsola_create      00409d40 f   pjmedia-i386-win32-vc14-release-dynamic:wsola.obj
 0001:00008f00       _pjmedia_wsola_discard     00409f00 f   pjmedia-i386-win32-vc14-release-dynamic:wsola.obj
 0001:00009160       _pjmedia_wsola_generate    0040a160 f   pjmedia-i386-win32-vc14-release-dynamic:wsola.obj
 0001:00009220       _pjmedia_wsola_reset       0040a220 f   pjmedia-i386-win32-vc14-release-dynamic:wsola.obj
 0001:00009280       _pjmedia_wsola_save        0040a280 f   pjmedia-i386-win32-vc14-release-dynamic:wsola.obj
 0001:00009650       _pjmedia_clock_src_init    0040a650 f   pjmedia-i386-win32-vc14-release-dynamic:clock_thread.obj
 0001:00009690       _pjmedia_clock_src_update  0040a690 f   pjmedia-i386-win32-vc14-release-dynamic:clock_thread.obj
 0001:000096d0       _pjmedia_echo_capture      0040a6d0 f   pjmedia-i386-win32-vc14-release-dynamic:echo_common.obj
 0001:00009780       _pjmedia_echo_create2      0040a780 f   pjmedia-i386-win32-vc14-release-dynamic:echo_common.obj
 0001:00009960       _pjmedia_echo_destroy      0040a960 f   pjmedia-i386-win32-vc14-release-dynamic:echo_common.obj
 0001:000099a0       _pjmedia_echo_playback     0040a9a0 f   pjmedia-i386-win32-vc14-release-dynamic:echo_common.obj
 0001:00009a50       _pjmedia_echo_stat_default 0040aa50 f   pjmedia-i386-win32-vc14-release-dynamic:echo_common.obj
 0001:0000b650       _get_libsrtp_errstr        0040c650 f   pjmedia-i386-win32-vc14-release-dynamic:transport_srtp.obj
 0001:0000b900       _pjmedia_transport_srtp_start 0040c900 f   pjmedia-i386-win32-vc14-release-dynamic:transport_srtp.obj
 0001:0000bfb0       _pjmedia_transport_srtp_stop 0040cfb0 f   pjmedia-i386-win32-vc14-release-dynamic:transport_srtp.obj
 0001:0000c670       _echo_supp_cancel_echo     0040d670 f   pjmedia-i386-win32-vc14-release-dynamic:echo_suppress.obj
 0001:0000c960       _echo_supp_create          0040d960 f   pjmedia-i386-win32-vc14-release-dynamic:echo_suppress.obj
 0001:0000ca90       _echo_supp_get_stat        0040da90 f   pjmedia-i386-win32-vc14-release-dynamic:echo_suppress.obj
 0001:0000cb60       _echo_supp_reset           0040db60 f   pjmedia-i386-win32-vc14-release-dynamic:echo_suppress.obj
 0001:0000cc20       _echo_supp_soft_reset      0040dc20 f   pjmedia-i386-win32-vc14-release-dynamic:echo_suppress.obj
 0001:0000d320       _speex_aec_cancel_echo     0040e320 f   pjmedia-i386-win32-vc14-release-dynamic:echo_speex.obj
 0001:0000d410       _speex_aec_capture         0040e410 f   pjmedia-i386-win32-vc14-release-dynamic:echo_speex.obj
 0001:0000d4e0       _speex_aec_create          0040e4e0 f   pjmedia-i386-win32-vc14-release-dynamic:echo_speex.obj
 0001:0000d640       _speex_aec_destroy         0040e640 f   pjmedia-i386-win32-vc14-release-dynamic:echo_speex.obj
 0001:0000d6c0       _speex_aec_playback        0040e6c0 f   pjmedia-i386-win32-vc14-release-dynamic:echo_speex.obj
 0001:0000d720       _speex_aec_reset           0040e720 f   pjmedia-i386-win32-vc14-release-dynamic:echo_speex.obj
 0001:0000d740       _pjmedia_calc_avg_signal   0040e740 f   pjmedia-i386-win32-vc14-release-dynamic:silencedet.obj
 0001:0000e050       _pj_getopt_long            0040f050 f   pjlib-util-i386-win32-vc14-release-dynamic:getopt.obj
 0001:0000e070       _pj_base64_decode          0040f070 f   pjlib-util-i386-win32-vc14-release-dynamic:base64.obj
 0001:0000e260       _pj_base64_encode          0040f260 f   pjlib-util-i386-win32-vc14-release-dynamic:base64.obj
 0001:0000e4a0       _pj_atexit                 0040f4a0 f   pjlib-i386-win32-vc14-release-dynamic:os_core_win32.obj
 0001:0000e4d0       _pj_atomic_dec_and_get     0040f4d0 f   pjlib-i386-win32-vc14-release-dynamic:os_core_win32.obj
 0001:0000e520       _pj_atomic_destroy         0040f520 f   pjlib-i386-win32-vc14-release-dynamic:os_core_win32.obj
 0001:0000e540       _pj_atomic_inc             0040f540 f   pjlib-i386-win32-vc14-release-dynamic:os_core_win32.obj
 0001:0000e590       _pj_enter_critical_section 0040f590 f   pjlib-i386-win32-vc14-release-dynamic:os_core_win32.obj
 0001:0000e5a0       _pj_init                   0040f5a0 f   pjlib-i386-win32-vc14-release-dynamic:os_core_win32.obj
 0001:0000e6e0       _pj_leave_critical_section 0040f6e0 f   pjlib-i386-win32-vc14-release-dynamic:os_core_win32.obj
 0001:0000e730       _pj_mutex_create           0040f730 f   pjlib-i386-win32-vc14-release-dynamic:os_core_win32.obj
 0001:0000e780       _pj_mutex_create_simple    0040f780 f   pjlib-i386-win32-vc14-release-dynamic:os_core_win32.obj
 0001:0000e780       _pj_mutex_create_recursive 0040f780 f   pjlib-i386-win32-vc14-release-dynamic:os_core_win32.obj
 0001:0000e7d0       _pj_mutex_destroy          0040f7d0 f   pjlib-i386-win32-vc14-release-dynamic:os_core_win32.obj
 0001:0000e830       _pj_mutex_lock             0040f830 f   pjlib-i386-win32-vc14-release-dynamic:os_core_win32.obj
 0001:0000e8a0       _pj_mutex_trylock          0040f8a0 f   pjlib-i386-win32-vc14-release-dynamic:os_core_win32.obj
 0001:0000e920       _pj_mutex_unlock           0040f920 f   pjlib-i386-win32-vc14-release-dynamic:os_core_win32.obj
 0001:0000e980       _pj_sem_destroy            0040f980 f   pjlib-i386-win32-vc14-release-dynamic:os_core_win32.obj
 0001:0000ea10       _pj_sem_post               0040fa10 f   pjlib-i386-win32-vc14-release-dynamic:os_core_win32.obj
 0001:0000eaa0       _pj_sem_trywait            0040faa0 f   pjlib-i386-win32-vc14-release-dynamic:os_core_win32.obj
 0001:0000eb00       _pj_sem_wait               0040fb00 f   pjlib-i386-win32-vc14-release-dynamic:os_core_win32.obj
 0001:0000ec10       _pj_shutdown               0040fc10 f   pjlib-i386-win32-vc14-release-dynamic:os_core_win32.obj
 0001:0000ed50       _pj_term_set_color         0040fd50 f   pjlib-i386-win32-vc14-release-dynamic:os_core_win32.obj
 0001:0000ee20       _pj_thread_check_stack     0040fe20 f   pjlib-i386-win32-vc14-release-dynamic:os_core_win32.obj
 0001:0000ee60       _pj_thread_create          0040fe60 f   pjlib-i386-win32-vc14-release-dynamic:os_core_win32.obj
 0001:0000efa0       _pj_thread_destroy         0040ffa0 f   pjlib-i386-win32-vc14-release-dynamic:os_core_win32.obj
 0001:0000f030       _pj_thread_get_name        00410030 f   pjlib-i386-win32-vc14-release-dynamic:os_core_win32.obj
 0001:0000f080       _pj_thread_init            00410080 f   pjlib-i386-win32-vc14-release-dynamic:os_core_win32.obj
 0001:0000f0e0       _pj_thread_join            004100e0 f   pjlib-i386-win32-vc14-release-dynamic:os_core_win32.obj
 0001:0000f1a0       _pj_thread_local_alloc     004101a0 f   pjlib-i386-win32-vc14-release-dynamic:os_core_win32.obj
 0001:0000f1f0       _pj_thread_local_free      004101f0 f   pjlib-i386-win32-vc14-release-dynamic:os_core_win32.obj
 0001:0000f240       _pj_thread_local_get       00410240 f   pjlib-i386-win32-vc14-release-dynamic:os_core_win32.obj
 0001:0000f250       _pj_thread_local_set       00410250 f   pjlib-i386-win32-vc14-release-dynamic:os_core_win32.obj
 0001:0000f290       _pj_thread_register        00410290 f   pjlib-i386-win32-vc14-release-dynamic:os_core_win32.obj
 0001:0000f350       _pj_thread_sleep           00410350 f   pjlib-i386-win32-vc14-release-dynamic:os_core_win32.obj
 0001:0000f3a0       _pj_thread_this            004103a0 f   pjlib-i386-win32-vc14-release-dynamic:os_core_win32.obj
 0001:0000f430       _pj_pool_alloc             00410430 f   pjlib-i386-win32-vc14-release-dynamic:pool.obj
 0001:0000f480       _pj_pool_allocate_find     00410480 f   pjlib-i386-win32-vc14-release-dynamic:pool.obj
 0001:0000f560       _pj_pool_calloc            00410560 f   pjlib-i386-win32-vc14-release-dynamic:pool.obj
 0001:0000f5c0       _pj_pool_create            004105c0 f   pjlib-i386-win32-vc14-release-dynamic:pool.obj
 0001:0000f650       _pj_pool_create_int        00410650 f   pjlib-i386-win32-vc14-release-dynamic:pool.obj
 0001:0000f700       _pj_pool_destroy_int       00410700 f   pjlib-i386-win32-vc14-release-dynamic:pool.obj
 0001:0000f740       _pj_pool_get_capacity      00410740 f   pjlib-i386-win32-vc14-release-dynamic:pool.obj
 0001:0000f750       _pj_pool_get_used_size     00410750 f   pjlib-i386-win32-vc14-release-dynamic:pool.obj
 0001:0000f780       _pj_pool_getobjname        00410780 f   pjlib-i386-win32-vc14-release-dynamic:pool.obj
 0001:0000f790       _pj_pool_init_int          00410790 f   pjlib-i386-win32-vc14-release-dynamic:pool.obj
 0001:0000f800       _pj_pool_release           00410800 f   pjlib-i386-win32-vc14-release-dynamic:pool.obj
 0001:0000f820       _pj_pool_reset             00410820 f   pjlib-i386-win32-vc14-release-dynamic:pool.obj
 0001:0000fc30       _pj_caching_pool_destroy   00410c30 f   pjlib-i386-win32-vc14-release-dynamic:pool_caching.obj
 0001:0000fd10       _pj_caching_pool_init      00410d10 f   pjlib-i386-win32-vc14-release-dynamic:pool_caching.obj
 0001:0000fdf0       _pj_errno_clear_handlers   00410df0 f   pjlib-i386-win32-vc14-release-dynamic:errno.obj
 0001:0000fe10       _pj_perror_3               00410e10 f   pjlib-i386-win32-vc14-release-dynamic:errno.obj
 0001:0000fe30       _pj_perror_4               00410e30 f   pjlib-i386-win32-vc14-release-dynamic:errno.obj
 0001:0000fe50       _pj_perror_5               00410e50 f   pjlib-i386-win32-vc14-release-dynamic:errno.obj
 0001:0000ff10       _pj_register_strerror      00410f10 f   pjlib-i386-win32-vc14-release-dynamic:errno.obj
 0001:0000fff0       _pj_strerror               00410ff0 f   pjlib-i386-win32-vc14-release-dynamic:errno.obj
 0001:00010180       _pj_log                    00411180 f   pjlib-i386-win32-vc14-release-dynamic:log.obj
 0001:00010680       _pj_log_1                  00411680 f   pjlib-i386-win32-vc14-release-dynamic:log.obj
 0001:000106a0       _pj_log_3                  004116a0 f   pjlib-i386-win32-vc14-release-dynamic:log.obj
 0001:000106c0       _pj_log_4                  004116c0 f   pjlib-i386-win32-vc14-release-dynamic:log.obj
 0001:000106e0       _pj_log_5                  004116e0 f   pjlib-i386-win32-vc14-release-dynamic:log.obj
 0001:00010700       _pj_log_get_color          00411700 f   pjlib-i386-win32-vc14-release-dynamic:log.obj
 0001:00010770       _pj_log_get_decor          00411770 f   pjlib-i386-win32-vc14-release-dynamic:log.obj
 0001:00010780       _pj_log_get_level          00411780 f   pjlib-i386-win32-vc14-release-dynamic:log.obj
 0001:00010790       _pj_log_init               00411790 f   pjlib-i386-win32-vc14-release-dynamic:log.obj
 0001:000108c0       _pj_str                    004118c0 f   pjlib-i386-win32-vc14-release-dynamic:string.obj
 0001:000108e0       _pj_strcmp                 004118e0 f   pjlib-i386-win32-vc14-release-dynamic:string.obj
 0001:00010940       _pj_strcspn                00411940 f   pjlib-i386-win32-vc14-release-dynamic:string.obj
 0001:00010990       _pj_strcspn2               00411990 f   pjlib-i386-win32-vc14-release-dynamic:string.obj
 0001:000109d0       _pj_strdup                 004119d0 f   pjlib-i386-win32-vc14-release-dynamic:string.obj
 0001:00010a10       _pj_strdup2                00411a10 f   pjlib-i386-win32-vc14-release-dynamic:string.obj
 0001:00010a70       _pj_strdup2_with_null      00411a70 f   pjlib-i386-win32-vc14-release-dynamic:string.obj
 0001:00010ad0       _pj_strdup_with_null       00411ad0 f   pjlib-i386-win32-vc14-release-dynamic:string.obj
 0001:00010b20       _pj_stricmp                00411b20 f   pjlib-i386-win32-vc14-release-dynamic:string.obj
 0001:00010b90       _pj_stricmp2               00411b90 f   pjlib-i386-win32-vc14-release-dynamic:string.obj
 0001:00010bf0       _pj_strncpy_with_null      00411bf0 f   pjlib-i386-win32-vc14-release-dynamic:string.obj
 0001:00010c30       _pj_strspn                 00411c30 f   pjlib-i386-win32-vc14-release-dynamic:string.obj
 0001:00010cb0       _pj_strspn2                00411cb0 f   pjlib-i386-win32-vc14-release-dynamic:string.obj
 0001:00010d10       _pj_strtok                 00411d10 f   pjlib-i386-win32-vc14-release-dynamic:string.obj
 0001:00010d80       _pj_strtok2                00411d80 f   pjlib-i386-win32-vc14-release-dynamic:string.obj
 0001:00010df0       _pj_strtoul                00411df0 f   pjlib-i386-win32-vc14-release-dynamic:string.obj
 0001:00010e50       _pj_strtoul2               00411e50 f   pjlib-i386-win32-vc14-release-dynamic:string.obj
 0001:00010f00       _pj_utoa                   00411f00 f   pjlib-i386-win32-vc14-release-dynamic:string.obj
 0001:00010f20       _pj_utoa_pad               00411f20 f   pjlib-i386-win32-vc14-release-dynamic:string.obj
 0001:00010fc0       _pj_get_netos_error        00411fc0 f   pjlib-i386-win32-vc14-release-dynamic:os_error_win32.obj
 0001:00010fe0       _pj_get_os_error           00411fe0 f   pjlib-i386-win32-vc14-release-dynamic:os_error_win32.obj
 0001:00011000       _platform_strerror         00412000 f   pjlib-i386-win32-vc14-release-dynamic:os_error_win32.obj
 0001:000110e0       _pj_array_erase            004120e0 f   pjlib-i386-win32-vc14-release-dynamic:array.obj
 0001:00011190       _pj_sockaddr_cmp           00412190 f   pjlib-i386-win32-vc14-release-dynamic:sock_common.obj
 0001:000112b0       _pj_sockaddr_has_addr      004122b0 f   pjlib-i386-win32-vc14-release-dynamic:sock_common.obj
 0001:00011360       _pj_list_erase             00412360 f   pjlib-i386-win32-vc14-release-dynamic:list.obj
 0001:00011380       _pj_list_insert_after      00412380 f   pjlib-i386-win32-vc14-release-dynamic:list.obj
 0001:000113a0       _pj_list_insert_before     004123a0 f   pjlib-i386-win32-vc14-release-dynamic:list.obj
 0001:000113c0       _pj_gettimeofday           004123c0 f   pjlib-i386-win32-vc14-release-dynamic:os_time_win32.obj
 0001:00011470       _pj_time_decode            00412470 f   pjlib-i386-win32-vc14-release-dynamic:os_time_win32.obj
 0001:000115e0       _ioqueue_dispatch_exception_event 004125e0 f   pjlib-i386-win32-vc14-release-dynamic:ioqueue_select.obj
 0001:00011720       _ioqueue_dispatch_read_event 00412720 f   pjlib-i386-win32-vc14-release-dynamic:ioqueue_select.obj
 0001:00011940       _ioqueue_dispatch_write_event 00412940 f   pjlib-i386-win32-vc14-release-dynamic:ioqueue_select.obj
 0001:00011c00       _pj_ioqueue_create         00412c00 f   pjlib-i386-win32-vc14-release-dynamic:ioqueue_select.obj
 0001:00011da0       _pj_ioqueue_destroy        00412da0 f   pjlib-i386-win32-vc14-release-dynamic:ioqueue_select.obj
 0001:00011e60       _pj_ioqueue_poll           00412e60 f   pjlib-i386-win32-vc14-release-dynamic:ioqueue_select.obj
 0001:000121b0       _pj_ioqueue_set_lock       004131b0 f   pjlib-i386-win32-vc14-release-dynamic:ioqueue_select.obj
 0001:000121f0       _pj_ioqueue_unlock_key     004131f0 f   pjlib-i386-win32-vc14-release-dynamic:ioqueue_select.obj
 0001:000122b0       _pj_ntohl                  004132b0 f   pjlib-i386-win32-vc14-release-dynamic:sock_bsd.obj
 0001:000122c0       _pj_ntohs                  004132c0 f   pjlib-i386-win32-vc14-release-dynamic:sock_bsd.obj
 0001:000122d0       _pj_sock_accept            004132d0 f   pjlib-i386-win32-vc14-release-dynamic:sock_bsd.obj
 0001:00012340       _pj_sock_getsockname       00413340 f   pjlib-i386-win32-vc14-release-dynamic:sock_bsd.obj
 0001:000123a0       _pj_sock_getsockopt        004133a0 f   pjlib-i386-win32-vc14-release-dynamic:sock_bsd.obj
 0001:00012410       _pj_sock_recv              00413410 f   pjlib-i386-win32-vc14-release-dynamic:sock_bsd.obj
 0001:00012480       _pj_sock_recvfrom          00413480 f   pjlib-i386-win32-vc14-release-dynamic:sock_bsd.obj
 0001:000124f0       _pj_sock_send              004134f0 f   pjlib-i386-win32-vc14-release-dynamic:sock_bsd.obj
 0001:00012560       _pj_sock_sendto            00413560 f   pjlib-i386-win32-vc14-release-dynamic:sock_bsd.obj
 0001:00012630       _pj_file_exists            00413630 f   pjlib-i386-win32-vc14-release-dynamic:file_access_win32.obj
 0001:00012670       _pj_file_size              00413670 f   pjlib-i386-win32-vc14-release-dynamic:file_access_win32.obj
 0001:000126d0       _pj_file_close             004136d0 f   pjlib-i386-win32-vc14-release-dynamic:file_io_win32.obj
 0001:00012710       _pj_file_getpos            00413710 f   pjlib-i386-win32-vc14-release-dynamic:file_io_win32.obj
 0001:00012790       _pj_file_open              00413790 f   pjlib-i386-win32-vc14-release-dynamic:file_io_win32.obj
 0001:000128c0       _pj_file_read              004138c0 f   pjlib-i386-win32-vc14-release-dynamic:file_io_win32.obj
 0001:00012920       _pj_file_setpos            00413920 f   pjlib-i386-win32-vc14-release-dynamic:file_io_win32.obj
 0001:000129b0       _pj_file_write             004139b0 f   pjlib-i386-win32-vc14-release-dynamic:file_io_win32.obj
 0001:00012a10       _pjmedia_wsola_destroy     00413a10 f   pjmedia-i386-win32-vc14-release-dynamic:wsola.obj
 0001:00012a10       __get_startup_new_mode     00413a10 f   MSVCRT:new_mode.obj
 0001:00012a10       _echo_supp_destroy         00413a10 f   pjmedia-i386-win32-vc14-release-dynamic:echo_suppress.obj
 0001:00012a10       __matherr                  00413a10 f   MSVCRT:matherr.obj
 0001:00012a10       _srtp_ekt_stream_init_from_policy 00413a10 f   libsrtp-i386-win32-vc14-release-dynamic:ekt.obj
 0001:00012a10       __get_startup_thread_locale_mode 00413a10 f   MSVCRT:thread_locale.obj
 0001:00012a10       __get_startup_commit_mode  00413a10 f   MSVCRT:commit_mode.obj
 0001:00012a10       ___scrt_initialize_winrt   00413a10 f   MSVCRT:utility_desktop.obj
 0001:00012c60       _pj_grp_lock_add_ref       00413c60 f   pjlib-i386-win32-vc14-release-dynamic:lock.obj
 0001:00012c80       _pj_grp_lock_dec_ref       00413c80 f   pjlib-i386-win32-vc14-release-dynamic:lock.obj
 0001:00012cb0       _pj_grp_lock_release       00413cb0 f   pjlib-i386-win32-vc14-release-dynamic:lock.obj
 0001:00012cc0       _pj_grp_lock_tryacquire    00413cc0 f   pjlib-i386-win32-vc14-release-dynamic:lock.obj
 0001:00012cd0       _pj_lock_acquire           00413cd0 f   pjlib-i386-win32-vc14-release-dynamic:lock.obj
 0001:00012cf0       _pj_lock_create_null_mutex 00413cf0 f   pjlib-i386-win32-vc14-release-dynamic:lock.obj
 0001:00012d10       _pj_lock_create_recursive_mutex 00413d10 f   pjlib-i386-win32-vc14-release-dynamic:lock.obj
 0001:00012d30       _pj_lock_create_simple_mutex 00413d30 f   pjlib-i386-win32-vc14-release-dynamic:lock.obj
 0001:00012d50       _pj_lock_destroy           00413d50 f   pjlib-i386-win32-vc14-release-dynamic:lock.obj
 0001:00012d70       _pj_lock_release           00413d70 f   pjlib-i386-win32-vc14-release-dynamic:lock.obj
 0001:00012d90       _pj_lock_tryacquire        00413d90 f   pjlib-i386-win32-vc14-release-dynamic:lock.obj
 0001:00012db0       _pj_exception_id_alloc     00413db0 f   pjlib-i386-win32-vc14-release-dynamic:except.obj
 0001:00012e00       _pj_exception_id_free      00413e00 f   pjlib-i386-win32-vc14-release-dynamic:except.obj
 0001:00012e40       _pj_throw_exception_       00413e40 f   pjlib-i386-win32-vc14-release-dynamic:except.obj
 0001:00012ee0       _pj_get_timestamp          00413ee0 f   pjlib-i386-win32-vc14-release-dynamic:os_timestamp_win32.obj
 0001:00012f40       _pj_get_timestamp_freq     00413f40 f   pjlib-i386-win32-vc14-release-dynamic:os_timestamp_win32.obj
 0001:00012fb0       _pj_elapsed_time           00413fb0 f   pjlib-i386-win32-vc14-release-dynamic:os_timestamp_common.obj
 0001:00013060       _pj_gettickcount           00414060 f   pjlib-i386-win32-vc14-release-dynamic:os_timestamp_common.obj
 0001:000130a0       _pj_rand                   004140a0 f   pjlib-i386-win32-vc14-release-dynamic:rand.obj
 0001:00013150       _pj_generate_unique_string 00414150 f   pjlib-i386-win32-vc14-release-dynamic:guid_win32.obj
 0001:000131a0       _pj_pool_create_on_buf     004141a0 f   pjlib-i386-win32-vc14-release-dynamic:pool_buf.obj
 0001:000132b0       _pj_log_write              004142b0 f   pjlib-i386-win32-vc14-release-dynamic:log_writer_stdout.obj
 0001:00013310       _pj_time_val_normalize     00414310 f   pjlib-i386-win32-vc14-release-dynamic:types.obj
 0001:000133a0       _PJ_FD_CLR                 004143a0 f   pjlib-i386-win32-vc14-release-dynamic:sock_select.obj
 0001:00013420       _PJ_FD_ISSET               00414420 f   pjlib-i386-win32-vc14-release-dynamic:sock_select.obj
 0001:00013450       _PJ_FD_ZERO                00414450 f   pjlib-i386-win32-vc14-release-dynamic:sock_select.obj
 0001:00013480       _pj_sock_select            00414480 f   pjlib-i386-win32-vc14-release-dynamic:sock_select.obj
 0001:00013a90       _res_GetXOFF               00414a90 f   libresample-i386-win32-vc14-release-dynamic:resamplesubs.obj
 0001:00013ad0       _res_Resample              00414ad0 f   libresample-i386-win32-vc14-release-dynamic:resamplesubs.obj
 0001:00013bb0       _res_SrcLinear             00414bb0 f   libresample-i386-win32-vc14-release-dynamic:resamplesubs.obj
 0001:00014000       _speex_echo_cancellation   00415000 f   libspeex-i386-win32-vc14-release-dynamic:mdf.obj
 0001:00015ae0       _speex_echo_capture        00416ae0 f   libspeex-i386-win32-vc14-release-dynamic:mdf.obj
 0001:00015bd0       _speex_echo_ctl            00416bd0 f   libspeex-i386-win32-vc14-release-dynamic:mdf.obj
 0001:00015e70       _speex_echo_get_residual   00416e70 f   libspeex-i386-win32-vc14-release-dynamic:mdf.obj
 0001:000160c0       _speex_echo_playback       004170c0 f   libspeex-i386-win32-vc14-release-dynamic:mdf.obj
 0001:000161b0       _speex_echo_state_destroy  004171b0 f   libspeex-i386-win32-vc14-release-dynamic:mdf.obj
 0001:00016280       _speex_echo_state_init_mc  00417280 f   libspeex-i386-win32-vc14-release-dynamic:mdf.obj
 0001:00016830       _speex_echo_state_reset    00417830 f   libspeex-i386-win32-vc14-release-dynamic:mdf.obj
 0001:00017160       _speex_decorrelate         00418160 f   libspeex-i386-win32-vc14-release-dynamic:scal.obj
 0001:00017650       _speex_decorrelate_destroy 00418650 f   libspeex-i386-win32-vc14-release-dynamic:scal.obj
 0001:00017690       _speex_decorrelate_new     00418690 f   libspeex-i386-win32-vc14-release-dynamic:scal.obj
 0001:000182e0       _speex_preprocess_ctl      004192e0 f   libspeex-i386-win32-vc14-release-dynamic:preprocess.obj
 0001:00018970       _speex_preprocess_run      00419970 f   libspeex-i386-win32-vc14-release-dynamic:preprocess.obj
 0001:0001a200       _speex_preprocess_state_destroy 0041b200 f   libspeex-i386-win32-vc14-release-dynamic:preprocess.obj
 0001:0001a2c0       _speex_preprocess_state_init 0041b2c0 f   libspeex-i386-win32-vc14-release-dynamic:preprocess.obj
 0001:0001b210       _spx_fft                   0041c210 f   libspeex-i386-win32-vc14-release-dynamic:fftwrap.obj
 0001:0001b2e0       _spx_fft_destroy           0041c2e0 f   libspeex-i386-win32-vc14-release-dynamic:fftwrap.obj
 0001:0001b300       _spx_fft_init              0041c300 f   libspeex-i386-win32-vc14-release-dynamic:fftwrap.obj
 0001:0001b330       _spx_ifft                  0041c330 f   libspeex-i386-win32-vc14-release-dynamic:fftwrap.obj
 0001:0001b3a0       _filterbank_compute_bank32 0041c3a0 f   libspeex-i386-win32-vc14-release-dynamic:filterbank.obj
 0001:0001b420       _filterbank_compute_psd16  0041c420 f   libspeex-i386-win32-vc14-release-dynamic:filterbank.obj
 0001:0001b470       _filterbank_destroy        0041c470 f   libspeex-i386-win32-vc14-release-dynamic:filterbank.obj
 0001:0001b4a0       _filterbank_new            0041c4a0 f   libspeex-i386-win32-vc14-release-dynamic:filterbank.obj
 0001:0001eaf0       _spx_drft_backward         0041faf0 f   libspeex-i386-win32-vc14-release-dynamic:smallft.obj
 0001:0001eb20       _spx_drft_clear            0041fb20 f   libspeex-i386-win32-vc14-release-dynamic:smallft.obj
 0001:0001eb60       _spx_drft_forward          0041fb60 f   libspeex-i386-win32-vc14-release-dynamic:smallft.obj
 0001:0001eb90       _spx_drft_init             0041fb90 f   libspeex-i386-win32-vc14-release-dynamic:smallft.obj
 0001:0001ebe0       ___local_stdio_scanf_options 0041fbe0 f i libsrtp-i386-win32-vc14-release-dynamic:srtp.obj
 0001:0001ec70       _srtp_add_stream           0041fc70 f   libsrtp-i386-win32-vc14-release-dynamic:srtp.obj
 0001:0001ef30       _srtp_create               0041ff30 f   libsrtp-i386-win32-vc14-release-dynamic:srtp.obj
 0001:0001efb0       _srtp_crypto_policy_set_aes_cm_256_hmac_sha1_32 0041ffb0 f   libsrtp-i386-win32-vc14-release-dynamic:srtp.obj
 0001:0001eff0       _srtp_crypto_policy_set_aes_cm_256_hmac_sha1_80 0041fff0 f   libsrtp-i386-win32-vc14-release-dynamic:srtp.obj
 0001:0001f030       _srtp_dealloc              00420030 f   libsrtp-i386-win32-vc14-release-dynamic:srtp.obj
 0001:0001f2b0       _srtp_event_reporter       004202b0 f   libsrtp-i386-win32-vc14-release-dynamic:srtp.obj
 0001:0001f3d0       _srtp_get_session_keys     004203d0 f   libsrtp-i386-win32-vc14-release-dynamic:srtp.obj
 0001:0001f4d0       _srtp_inject_mki           004204d0 f   libsrtp-i386-win32-vc14-release-dynamic:srtp.obj
 0001:0001f820       _srtp_protect              00420820 f   libsrtp-i386-win32-vc14-release-dynamic:srtp.obj
 0001:0001fb50       _srtp_protect_mki          00420b50 f   libsrtp-i386-win32-vc14-release-dynamic:srtp.obj
 0001:00020100       _srtp_protect_rtcp         00421100 f   libsrtp-i386-win32-vc14-release-dynamic:srtp.obj
 0001:00020300       _srtp_protect_rtcp_mki     00421300 f   libsrtp-i386-win32-vc14-release-dynamic:srtp.obj
 0001:000206a0       _srtp_stream_alloc         004216a0 f   libsrtp-i386-win32-vc14-release-dynamic:srtp.obj
 0001:00020940       _srtp_stream_clone         00421940 f   libsrtp-i386-win32-vc14-release-dynamic:srtp.obj
 0001:00020b60       _srtp_stream_dealloc       00421b60 f   libsrtp-i386-win32-vc14-release-dynamic:srtp.obj
 0001:00020de0       _srtp_stream_init          00421de0 f   libsrtp-i386-win32-vc14-release-dynamic:srtp.obj
 0001:00020ef0       _srtp_stream_init_all_master_keys 00421ef0 f   libsrtp-i386-win32-vc14-release-dynamic:srtp.obj
 0001:00020f70       _srtp_stream_init_keys     00421f70 f   libsrtp-i386-win32-vc14-release-dynamic:srtp.obj
 0001:00021770       _srtp_unprotect            00422770 f   libsrtp-i386-win32-vc14-release-dynamic:srtp.obj
 0001:00021a90       _srtp_unprotect_mki        00422a90 f   libsrtp-i386-win32-vc14-release-dynamic:srtp.obj
 0001:000220e0       _srtp_unprotect_rtcp       004230e0 f   libsrtp-i386-win32-vc14-release-dynamic:srtp.obj
 0001:00022360       _srtp_unprotect_rtcp_mki   00423360 f   libsrtp-i386-win32-vc14-release-dynamic:srtp.obj
 0001:00022840       _srtp_validate_policy_master_keys 00423840 f   libsrtp-i386-win32-vc14-release-dynamic:srtp.obj
 0001:00022900       _srtp_crypto_alloc         00423900 f   libsrtp-i386-win32-vc14-release-dynamic:alloc.obj
 0001:00022960       _srtp_crypto_free          00423960 f   libsrtp-i386-win32-vc14-release-dynamic:alloc.obj
 0001:00022990       _bitvector_alloc           00423990 f   libsrtp-i386-win32-vc14-release-dynamic:datatypes.obj
 0001:000229f0       _bitvector_dealloc         004239f0 f   libsrtp-i386-win32-vc14-release-dynamic:datatypes.obj
 0001:00022a20       _bitvector_left_shift      00423a20 f   libsrtp-i386-win32-vc14-release-dynamic:datatypes.obj
 0001:00022b90       _bitvector_set_to_zero     00423b90 f   libsrtp-i386-win32-vc14-release-dynamic:datatypes.obj
 0001:00022bb0       _octet_string_is_eq        00423bb0 f   libsrtp-i386-win32-vc14-release-dynamic:datatypes.obj
 0001:00022c80       _octet_string_set_to_zero  00423c80 f   libsrtp-i386-win32-vc14-release-dynamic:datatypes.obj
 0001:00022ca0       _srtp_octet_string_hex_string 00423ca0 f   libsrtp-i386-win32-vc14-release-dynamic:datatypes.obj
 0001:00022d40       _v128_copy_octet_string    00423d40 f   libsrtp-i386-win32-vc14-release-dynamic:datatypes.obj
 0001:00022dc0       _v128_hex_string           00423dc0 f   libsrtp-i386-win32-vc14-release-dynamic:datatypes.obj
 0001:00022e50       _v128_left_shift           00423e50 f   libsrtp-i386-win32-vc14-release-dynamic:datatypes.obj
 0001:00022f30       _srtp_err_report           00423f30 f   libsrtp-i386-win32-vc14-release-dynamic:srtp_err.obj
 0001:00022f60       _srtp_index_guess          00423f60 f   libsrtp-i386-win32-vc14-release-dynamic:rdbx.obj
 0001:00022fe0       _srtp_rdbx_add_index       00423fe0 f   libsrtp-i386-win32-vc14-release-dynamic:rdbx.obj
 0001:00023050       _srtp_rdbx_check           00424050 f   libsrtp-i386-win32-vc14-release-dynamic:rdbx.obj
 0001:000230a0       _srtp_rdbx_dealloc         004240a0 f   libsrtp-i386-win32-vc14-release-dynamic:rdbx.obj
 0001:000230c0       _srtp_rdbx_estimate_index  004240c0 f   libsrtp-i386-win32-vc14-release-dynamic:rdbx.obj
 0001:00023100       _srtp_rdbx_get_packet_index 00424100 f   libsrtp-i386-win32-vc14-release-dynamic:rdbx.obj
 0001:00023110       _srtp_rdbx_init            00424110 f   libsrtp-i386-win32-vc14-release-dynamic:rdbx.obj
 0001:00023150       _srtp_rdbx_set_roc         00424150 f   libsrtp-i386-win32-vc14-release-dynamic:rdbx.obj
 0001:000231b0       _srtp_rdbx_set_roc_seq     004241b0 f   libsrtp-i386-win32-vc14-release-dynamic:rdbx.obj
 0001:00023210       _srtp_rdb_add_index        00424210 f   libsrtp-i386-win32-vc14-release-dynamic:rdb.obj
 0001:00023260       _srtp_rdb_check            00424260 f   libsrtp-i386-win32-vc14-release-dynamic:rdb.obj
 0001:000232b0       _PJ_FD_COUNT               004242b0 f   pjlib-i386-win32-vc14-release-dynamic:sock_select.obj
 0001:000232b0       _srtp_rdb_get_value        004242b0 f   libsrtp-i386-win32-vc14-release-dynamic:rdb.obj
 0001:000232c0       _srtp_rdb_increment        004242c0 f   libsrtp-i386-win32-vc14-release-dynamic:rdb.obj
 0001:000232e0       _srtp_rdb_init             004242e0 f   libsrtp-i386-win32-vc14-release-dynamic:rdb.obj
 0001:00023310       _srtp_cipher_dealloc       00424310 f   libsrtp-i386-win32-vc14-release-dynamic:cipher.obj
 0001:00023330       _srtp_cipher_decrypt       00424330 f   libsrtp-i386-win32-vc14-release-dynamic:cipher.obj
 0001:00023360       _srtp_cipher_encrypt       00424360 f   libsrtp-i386-win32-vc14-release-dynamic:cipher.obj
 0001:00023390       _srtp_cipher_get_tag       00424390 f   libsrtp-i386-win32-vc14-release-dynamic:cipher.obj
 0001:000233d0       _srtp_cipher_init          004243d0 f   libsrtp-i386-win32-vc14-release-dynamic:cipher.obj
 0001:00023400       _srtp_cipher_output        00424400 f   libsrtp-i386-win32-vc14-release-dynamic:cipher.obj
 0001:00023430       _srtp_cipher_set_aad       00424430 f   libsrtp-i386-win32-vc14-release-dynamic:cipher.obj
 0001:00023470       _srtp_cipher_set_iv        00424470 f   libsrtp-i386-win32-vc14-release-dynamic:cipher.obj
 0001:000234a0       _srtp_auth_get_key_length  004244a0 f   libsrtp-i386-win32-vc14-release-dynamic:auth.obj
 0001:000234b0       _srtp_auth_get_prefix_length 004244b0 f   libsrtp-i386-win32-vc14-release-dynamic:auth.obj
 0001:000234c0       _srtp_rdbx_get_window_size 004244c0 f   libsrtp-i386-win32-vc14-release-dynamic:rdbx.obj
 0001:000234c0       _srtp_cipher_get_key_length 004244c0 f   libsrtp-i386-win32-vc14-release-dynamic:cipher.obj
 0001:000234c0       _srtp_auth_get_tag_length  004244c0 f   libsrtp-i386-win32-vc14-release-dynamic:auth.obj
 0001:000234d0       _srtp_key_limit_clone      004244d0 f   libsrtp-i386-win32-vc14-release-dynamic:key.obj
 0001:000234f0       _srtp_key_limit_set        004244f0 f   libsrtp-i386-win32-vc14-release-dynamic:key.obj
 0001:00023530       _srtp_key_limit_update     00424530 f   libsrtp-i386-win32-vc14-release-dynamic:key.obj
 0001:00023580       _srtp_crypto_kernel_alloc_auth 00424580 f   libsrtp-i386-win32-vc14-release-dynamic:crypto_kernel.obj
 0001:000235d0       _srtp_crypto_kernel_alloc_cipher 004245d0 f   libsrtp-i386-win32-vc14-release-dynamic:crypto_kernel.obj
 0001:00023620       _srtp_ekt_alloc            00424620 f   libsrtp-i386-win32-vc14-release-dynamic:ekt.obj
 0001:00023630       _srtp_ekt_octets_after_base_tag 00424630 f   libsrtp-i386-win32-vc14-release-dynamic:ekt.obj
 0001:00023650       _srtp_ekt_write_data       00424650 f   libsrtp-i386-win32-vc14-release-dynamic:ekt.obj
 0001:000237a0       _srtp_stream_init_from_ekt 004247a0 f   libsrtp-i386-win32-vc14-release-dynamic:ekt.obj
 0001:00024d20       _srtp_aes_decrypt          00425d20 f   libsrtp-i386-win32-vc14-release-dynamic:aes.obj
 0001:00024e50       _srtp_aes_encrypt          00425e50 f   libsrtp-i386-win32-vc14-release-dynamic:aes.obj
 0001:00024f80       _srtp_aes_expand_decryption_key 00425f80 f   libsrtp-i386-win32-vc14-release-dynamic:aes.obj
 0001:00025190       _srtp_aes_expand_encryption_key 00426190 f   libsrtp-i386-win32-vc14-release-dynamic:aes.obj
 0001:000251d0       _srtp_sha1_core            004261d0 f   libsrtp-i386-win32-vc14-release-dynamic:sha1.obj
 0001:000256e0       _srtp_sha1_final           004266e0 f   libsrtp-i386-win32-vc14-release-dynamic:sha1.obj
 0001:00025cf0       _srtp_sha1_init            00426cf0 f   libsrtp-i386-win32-vc14-release-dynamic:sha1.obj
 0001:00025d30       _srtp_sha1_update          00426d30 f   libsrtp-i386-win32-vc14-release-dynamic:sha1.obj
 0001:00025e00       ___WSAFDIsSet@8            00426e00 f   ws2_32:WS2_32.dll
 0001:00025e06       @__security_check_cookie@4 00426e06 f   MSVCRT:_secchk_.obj
 0001:00026043       _mainCRTStartup            00427043 f   MSVCRT:exe_main.obj
 0001:00026050       __aulldiv                  00427050 f   MSVCRT:ulldiv.obj
 0001:000260c0       __allmul                   004270c0 f   MSVCRT:llmul.obj
 0001:00026100       __ftoui3                   00427100 f   MSVCRT:_ftol3_.obj
 0001:0002610f       __ftoul3                   0042710f f   MSVCRT:_ftol3_.obj
 0001:0002611e       __ftol3                    0042711e f   MSVCRT:_ftol3_.obj
 0001:0002612b       __ftol3_NaN                0042712b f   MSVCRT:_ftol3_.obj
 0001:00026143       __ftol3_work               00427143 f   MSVCRT:_ftol3_.obj
 0001:000261c9       __ftol3_common             004271c9 f   MSVCRT:_ftol3_.obj
 0001:0002628b       __ftol3_arg_error          0042728b f   MSVCRT:_ftol3_.obj
 0001:0002629d       __ftol3_except             0042729d f   MSVCRT:_ftol3_.obj
 0001:000262e1       __dtoui3                   004272e1 f   MSVCRT:_ftol3_.obj
 0001:000262f0       __dtoul3                   004272f0 f   MSVCRT:_ftol3_.obj
 0001:000262ff       __dtol3                    004272ff f   MSVCRT:_ftol3_.obj
 0001:0002630c       __dtol3_NaN                0042730c f   MSVCRT:_ftol3_.obj
 0001:00026329       __dtol3_work               00427329 f   MSVCRT:_ftol3_.obj
 0001:00026410       __ultod3                   00427410 f   MSVCRT:_ftol3_.obj
 0001:00026450       __ltod3                    00427450 f   MSVCRT:_ftol3_.obj
 0001:00026477       ___isa_available_init      00427477 f   MSVCRT:_cpu_disp_.obj
 0001:00026620       __alldiv                   00427620 f   MSVCRT:lldiv.obj
 0001:000266d0       ___vdecl_cos2              004276d0 f   MSVCRT:_svml_dcos2_dispatch_.obj
 0001:000266d5       ___raise_securityfailure   004276d5 f   MSVCRT:gs_report.obj
 0001:000266fd       ___report_gsfailure        004276fd f   MSVCRT:gs_report.obj
 0001:000267f8       ___report_rangecheckfailure 004277f8 f   MSVCRT:gs_report.obj
 0001:00026804       ___report_securityfailure  00427804 f   MSVCRT:gs_report.obj
 0001:000268e0       __allshl                   004278e0 f   MSVCRT:llshl.obj
 0001:00026900       ___vdecl_sin2              00427900 f   MSVCRT:_svml_dsin2_dispatch_.obj
 0001:00026910       __ftol2_sse                00427910 f   MSVCRT:_ftol2_.obj
 0001:00026919       __ftol2_pentium4           00427919 f   MSVCRT:_ftol2_.obj
 0001:0002692c       __ftol2_sse_excpt          0042792c f   MSVCRT:_ftol2_.obj
 0001:00026950       __ftol2                    00427950 f   MSVCRT:_ftol2_.obj
 0001:00026a09       ___scrt_acquire_startup_lock 00427a09 f   MSVCRT:utility.obj
 0001:00026a3e       ___scrt_initialize_crt     00427a3e f   MSVCRT:utility.obj
 0001:00026a77       ___scrt_initialize_onexit_tables 00427a77 f   MSVCRT:utility.obj
 0001:00026b0e       ___scrt_is_nonwritable_in_current_image 00427b0e f   MSVCRT:utility.obj
 0001:00026b98       ___scrt_release_startup_lock 00427b98 f   MSVCRT:utility.obj
 0001:00026bb5       ___scrt_uninitialize_crt   00427bb5 f   MSVCRT:utility.obj
 0001:00026bdd       __onexit                   00427bdd f   MSVCRT:utility.obj
 0001:00026c18       _atexit                    00427c18 f   MSVCRT:utility.obj
 0001:00026c2d       ___security_init_cookie    00427c2d f   MSVCRT:gs_support.obj
 0001:00026cc9       __get_startup_argv_mode    00427cc9 f   MSVCRT:argv_mode.obj
 0001:00026ccd       __get_startup_file_mode    00427ccd f   MSVCRT:file_mode.obj
 0001:00026cd3       ?__scrt_initialize_type_info@@YAXXZ 00427cd3 f   MSVCRT:tncleanup.obj
 0001:00026cdf       __initialize_default_precision 00427cdf f   MSVCRT:default_precision.obj
 0001:00026d00       ___scrt_initialize_default_local_stdio_options 00427d00 f   MSVCRT:default_local_stdio_options.obj
 0001:00026d1d       ___scrt_is_user_matherr_present 00427d1d f   MSVCRT:matherr_detection.obj
 0001:00026d29       ___scrt_get_dyn_tls_init_callback 00427d29 f   MSVCRT:dyn_tls_init.obj
 0001:00026d2f       ___scrt_get_dyn_tls_dtor_callback 00427d2f f   MSVCRT:dyn_tls_dtor.obj
 0001:00026d35       ___scrt_fastfail           00427d35 f   MSVCRT:utility_desktop.obj
 0001:00026e50       ___scrt_is_managed_app     00427e50 f   MSVCRT:utility_desktop.obj
 0001:00026e94       ___scrt_set_unhandled_exception_filter 00427e94 f   MSVCRT:utility_desktop.obj
 0001:00026ea0       ___scrt_unhandled_exception_filter@4 00427ea0 f   MSVCRT:utility_desktop.obj
 0001:00026ee1       __RTC_Initialize           00427ee1 f   MSVCRT:_initsect_.obj
 0001:00026f0c       __RTC_Terminate            00427f0c f   MSVCRT:_initsect_.obj
 0001:00026f37       @_guard_check_icall@4      00427f37 f i MSVCRT:checkcfg.obj
 0001:00026f40       __SEH_prolog4              00427f40 f   MSVCRT:_sehprolg4_.obj
 0001:00026f86       __SEH_epilog4              00427f86 f   MSVCRT:_sehprolg4_.obj
 0001:00026f9b       __except_handler4          00427f9b f   MSVCRT:_chandler4gs_.obj
 0001:00026fc0       ___sse2_cos2               00427fc0 f   MSVCRT:_svml_dcos2_sse2_.obj
 0001:00027160       ___sse2_sin2               00428160 f   MSVCRT:_svml_dsin2_sse2_.obj
 0001:00027320       ___scrt_is_ucrt_dll_in_use 00428320 f   MSVCRT:ucrt_detection.obj
 0001:00027330       __initialize_invalid_parameter_handler 00428330 f i MSVCRT:invalid_parameter_handler.obj
 0001:00027330       __initialize_denormal_control 00428330 f i MSVCRT:denormal_control.obj
 0001:00027330       _pjmedia_wave_hdr_file_to_host 00428330 f i pjmedia-i386-win32-vc14-release-dynamic:wave.obj
 0001:00027330       _pjmedia_resample_destroy  00428330 f i pjmedia-i386-win32-vc14-release-dynamic:resample_resample.obj
 0001:00027330       @_guard_check_icall_nop@4  00428330 f i MSVCRT:guard_support.obj
 0001:00027330       _pjmedia_wave_hdr_host_to_file 00428330 f i pjmedia-i386-win32-vc14-release-dynamic:wave.obj
 0001:00027340       ___common_sin_reduction_LA 00428340 f   MSVCRT:_svml_dtrig_.obj
 0001:00027690       ___common_cos_reduction_LA 00428690 f   MSVCRT:_svml_dtrig_.obj
 0001:00027980       ___common_pi04_reduction_LA 00428980 f   MSVCRT:_svml_dtrig_.obj
 0001:00027c90       _IsProcessorFeaturePresent@4 00428c90 f   kernel32:KERNEL32.dll
 0001:00027c96       _memcpy                    00428c96 f   vcruntime:VCRUNTIME140.dll
 0001:00027c9c       _memset                    00428c9c f   vcruntime:VCRUNTIME140.dll
 0001:00027ca2       _longjmp                   00428ca2 f   vcruntime:VCRUNTIME140.dll
 0001:00027ca8       __except_handler4_common   00428ca8 f   vcruntime:VCRUNTIME140.dll
 0001:00027cae       __libm_sse2_cos_precise    00428cae f   ucrt:api-ms-win-crt-math-l1-1-0.dll
 0001:00027cb4       __CIfmod                   00428cb4 f   ucrt:api-ms-win-crt-math-l1-1-0.dll
 0001:00027cba       __libm_sse2_exp_precise    00428cba f   ucrt:api-ms-win-crt-math-l1-1-0.dll
 0001:00027cc0       __libm_sse2_sqrt_precise   00428cc0 f   ucrt:api-ms-win-crt-math-l1-1-0.dll
 0001:00027cc6       _floor                     00428cc6 f   ucrt:api-ms-win-crt-math-l1-1-0.dll
 0001:00027ccc       __libm_sse2_pow_precise    00428ccc f   ucrt:api-ms-win-crt-math-l1-1-0.dll
 0001:00027cd2       __libm_sse2_sin_precise    00428cd2 f   ucrt:api-ms-win-crt-math-l1-1-0.dll
 0001:00027cd8       __libm_sse2_log_precise    00428cd8 f   ucrt:api-ms-win-crt-math-l1-1-0.dll
 0001:00027cde       __libm_sse2_atan_precise   00428cde f   ucrt:api-ms-win-crt-math-l1-1-0.dll
 0001:00027ce4       _exit                      00428ce4 f   ucrt:api-ms-win-crt-runtime-l1-1-0.dll
 0001:00027cea       __seh_filter_exe           00428cea f   ucrt:api-ms-win-crt-runtime-l1-1-0.dll
 0001:00027cf0       __set_app_type             00428cf0 f   ucrt:api-ms-win-crt-runtime-l1-1-0.dll
 0001:00027cf6       ___setusermatherr          00428cf6 f   ucrt:api-ms-win-crt-math-l1-1-0.dll
 0001:00027cfc       __configure_narrow_argv    00428cfc f   ucrt:api-ms-win-crt-runtime-l1-1-0.dll
 0001:00027d02       __initialize_narrow_environment 00428d02 f   ucrt:api-ms-win-crt-runtime-l1-1-0.dll
 0001:00027d08       __get_initial_narrow_environment 00428d08 f   ucrt:api-ms-win-crt-runtime-l1-1-0.dll
 0001:00027d0e       __initterm                 00428d0e f   ucrt:api-ms-win-crt-runtime-l1-1-0.dll
 0001:00027d14       __initterm_e               00428d14 f   ucrt:api-ms-win-crt-runtime-l1-1-0.dll
 0001:00027d1a       __exit                     00428d1a f   ucrt:api-ms-win-crt-runtime-l1-1-0.dll
 0001:00027d20       __set_fmode                00428d20 f   ucrt:api-ms-win-crt-stdio-l1-1-0.dll
 0001:00027d26       ___p___argc                00428d26 f   ucrt:api-ms-win-crt-runtime-l1-1-0.dll
 0001:00027d2c       ___p___argv                00428d2c f   ucrt:api-ms-win-crt-runtime-l1-1-0.dll
 0001:00027d32       __cexit                    00428d32 f   ucrt:api-ms-win-crt-runtime-l1-1-0.dll
 0001:00027d38       __c_exit                   00428d38 f   ucrt:api-ms-win-crt-runtime-l1-1-0.dll
 0001:00027d3e       __register_thread_local_exe_atexit_callback 00428d3e f   ucrt:api-ms-win-crt-runtime-l1-1-0.dll
 0001:00027d44       __configthreadlocale       00428d44 f   ucrt:api-ms-win-crt-locale-l1-1-0.dll
 0001:00027d4a       __set_new_mode             00428d4a f   ucrt:api-ms-win-crt-heap-l1-1-0.dll
 0001:00027d50       ___p__commode              00428d50 f   ucrt:api-ms-win-crt-stdio-l1-1-0.dll
 0001:00027d56       __except1                  00428d56 f   ucrt:api-ms-win-crt-math-l1-1-0.dll
 0001:00027d5c       __initialize_onexit_table  00428d5c f   ucrt:api-ms-win-crt-runtime-l1-1-0.dll
 0001:00027d62       __register_onexit_function 00428d62 f   ucrt:api-ms-win-crt-runtime-l1-1-0.dll
 0001:00027d68       __crt_atexit               00428d68 f   ucrt:api-ms-win-crt-runtime-l1-1-0.dll
 0001:00027d6e       __controlfp_s              00428d6e f   ucrt:api-ms-win-crt-runtime-l1-1-0.dll
 0001:00027d74       _terminate                 00428d74 f   ucrt:api-ms-win-crt-runtime-l1-1-0.dll
 0001:00027d7a       ___vcrt_uninitialize       00428d7a f   MSVCRT:ucrt_stubs.obj
 0001:00027d7a       ___scrt_stub_for_acrt_initialize 00428d7a f   MSVCRT:ucrt_stubs.obj
 0001:00027d7a       ___vcrt_initialize         00428d7a f   MSVCRT:ucrt_stubs.obj
 0001:00027d7a       ___scrt_stub_for_acrt_uninitialize 00428d7a f   MSVCRT:ucrt_stubs.obj
 0001:00027d7a       ___acrt_initialize         00428d7a f   MSVCRT:ucrt_stubs.obj
 0001:00027d7a       __should_initialize_environment 00428d7a f   MSVCRT:env_mode.obj
 0001:00027d7a       ___acrt_uninitialize       00428d7a f   MSVCRT:ucrt_stubs.obj
 0002:00000000       __imp__GetFileSize@8       00429000     kernel32:KERNEL32.dll
 0002:00000004       __imp__GetModuleHandleW@4  00429004     kernel32:KERNEL32.dll
 0002:00000008       __imp__IsDebuggerPresent@0 00429008     kernel32:KERNEL32.dll
 0002:0000000c       __imp__InitializeSListHead@4 0042900c     kernel32:KERNEL32.dll
 0002:00000010       __imp__GetSystemTimeAsFileTime@4 00429010     kernel32:KERNEL32.dll
 0002:00000014       __imp__TerminateProcess@8  00429014     kernel32:KERNEL32.dll
 0002:00000018       __imp__GetCurrentProcess@0 00429018     kernel32:KERNEL32.dll
 0002:0000001c       __imp__SetUnhandledExceptionFilter@4 0042901c     kernel32:KERNEL32.dll
 0002:00000020       __imp__UnhandledExceptionFilter@4 00429020     kernel32:KERNEL32.dll
 0002:00000024       __imp__IsProcessorFeaturePresent@4 00429024     kernel32:KERNEL32.dll
 0002:00000028       __imp__QueryPerformanceFrequency@4 00429028     kernel32:KERNEL32.dll
 0002:0000002c       __imp__QueryPerformanceCounter@4 0042902c     kernel32:KERNEL32.dll
 0002:00000030       __imp__WriteFile@20        00429030     kernel32:KERNEL32.dll
 0002:00000034       __imp__SetFilePointer@16   00429034     kernel32:KERNEL32.dll
 0002:00000038       __imp__ReadFile@20         00429038     kernel32:KERNEL32.dll
 0002:0000003c       __imp__CreateFileA@28      0042903c     kernel32:KERNEL32.dll
 0002:00000040       __imp__SystemTimeToFileTime@8 00429040     kernel32:KERNEL32.dll
 0002:00000044       __imp__FileTimeToSystemTime@8 00429044     kernel32:KERNEL32.dll
 0002:00000048       __imp__GetLocalTime@4      00429048     kernel32:KERNEL32.dll
 0002:0000004c       __imp__FormatMessageA@28   0042904c     kernel32:KERNEL32.dll
 0002:00000050       __imp__SetConsoleTextAttribute@8 00429050     kernel32:KERNEL32.dll
 0002:00000054       __imp__TlsFree@4           00429054     kernel32:KERNEL32.dll
 0002:00000058       __imp__TlsSetValue@8       00429058     kernel32:KERNEL32.dll
 0002:0000005c       __imp__TlsGetValue@4       0042905c     kernel32:KERNEL32.dll
 0002:00000060       __imp__TlsAlloc@0          00429060     kernel32:KERNEL32.dll
 0002:00000064       __imp__GetCurrentThreadId@0 00429064     kernel32:KERNEL32.dll
 0002:00000068       __imp__CreateThread@24     00429068     kernel32:KERNEL32.dll
 0002:0000006c       __imp__GetCurrentProcessId@0 0042906c     kernel32:KERNEL32.dll
 0002:00000070       __imp__Sleep@4             00429070     kernel32:KERNEL32.dll
 0002:00000074       __imp__WaitForSingleObject@8 00429074     kernel32:KERNEL32.dll
 0002:00000078       __imp__ReleaseSemaphore@12 00429078     kernel32:KERNEL32.dll
 0002:0000007c       __imp__DeleteCriticalSection@4 0042907c     kernel32:KERNEL32.dll
 0002:00000080       __imp__TryEnterCriticalSection@4 00429080     kernel32:KERNEL32.dll
 0002:00000084       __imp__LeaveCriticalSection@4 00429084     kernel32:KERNEL32.dll
 0002:00000088       __imp__EnterCriticalSection@4 00429088     kernel32:KERNEL32.dll
 0002:0000008c       __imp__InitializeCriticalSection@4 0042908c     kernel32:KERNEL32.dll
 0002:00000090       __imp__GetLastError@0      00429090     kernel32:KERNEL32.dll
 0002:00000094       __imp__GetStdHandle@4      00429094     kernel32:KERNEL32.dll
 0002:00000098       __imp__WaitForMultipleObjects@16 00429098     kernel32:KERNEL32.dll
 0002:0000009c       __imp__SetThreadPriority@8 0042909c     kernel32:KERNEL32.dll
 0002:000000a0       __imp__GetCurrentThread@0  004290a0     kernel32:KERNEL32.dll
 0002:000000a4       __imp__CreateEventA@16     004290a4     kernel32:KERNEL32.dll
 0002:000000a8       __imp__SetEvent@4          004290a8     kernel32:KERNEL32.dll
 0002:000000ac       __imp__CloseHandle@4       004290ac     kernel32:KERNEL32.dll
 0002:000000b0       \177KERNEL32_NULL_THUNK_DATA 004290b0     kernel32:KERNEL32.dll
 0002:000000b4       __imp___except_handler4_common 004290b4     vcruntime:VCRUNTIME140.dll
 0002:000000b8       __imp__memcpy              004290b8     vcruntime:VCRUNTIME140.dll
 0002:000000bc       __imp__memset              004290bc     vcruntime:VCRUNTIME140.dll
 0002:000000c0       __imp__memmove             004290c0     vcruntime:VCRUNTIME140.dll
 0002:000000c4       __imp__strchr              004290c4     vcruntime:VCRUNTIME140.dll
 0002:000000c8       __imp__longjmp             004290c8     vcruntime:VCRUNTIME140.dll
 0002:000000cc       \177VCRUNTIME140_NULL_THUNK_DATA 004290cc     vcruntime:VCRUNTIME140.dll
 0002:000000d0       __imp__waveInGetNumDevs@0  004290d0     winmm:WINMM.dll
 0002:000000d4       __imp__waveOutReset@4      004290d4     winmm:WINMM.dll
 0002:000000d8       __imp__waveOutRestart@4    004290d8     winmm:WINMM.dll
 0002:000000dc       __imp__waveOutPause@4      004290dc     winmm:WINMM.dll
 0002:000000e0       __imp__waveOutWrite@12     004290e0     winmm:WINMM.dll
 0002:000000e4       __imp__waveOutUnprepareHeader@12 004290e4     winmm:WINMM.dll
 0002:000000e8       __imp__waveOutPrepareHeader@12 004290e8     winmm:WINMM.dll
 0002:000000ec       __imp__waveInGetDevCapsA@12 004290ec     winmm:WINMM.dll
 0002:000000f0       __imp__waveOutOpen@24      004290f0     winmm:WINMM.dll
 0002:000000f4       __imp__waveOutSetVolume@8  004290f4     winmm:WINMM.dll
 0002:000000f8       __imp__waveOutGetVolume@8  004290f8     winmm:WINMM.dll
 0002:000000fc       __imp__waveOutGetDevCapsA@12 004290fc     winmm:WINMM.dll
 0002:00000100       __imp__waveOutGetNumDevs@0 00429100     winmm:WINMM.dll
 0002:00000104       __imp__waveInGetErrorTextA@12 00429104     winmm:WINMM.dll
 0002:00000108       __imp__waveOutGetErrorTextA@12 00429108     winmm:WINMM.dll
 0002:0000010c       __imp__waveInOpen@24       0042910c     winmm:WINMM.dll
 0002:00000110       __imp__waveInClose@4       00429110     winmm:WINMM.dll
 0002:00000114       __imp__waveInPrepareHeader@12 00429114     winmm:WINMM.dll
 0002:00000118       __imp__waveInUnprepareHeader@12 00429118     winmm:WINMM.dll
 0002:0000011c       __imp__waveInAddBuffer@12  0042911c     winmm:WINMM.dll
 0002:00000120       __imp__waveInStart@4       00429120     winmm:WINMM.dll
 0002:00000124       __imp__waveInStop@4        00429124     winmm:WINMM.dll
 0002:00000128       __imp__waveInReset@4       00429128     winmm:WINMM.dll
 0002:0000012c       __imp__waveOutClose@4      0042912c     winmm:WINMM.dll
 0002:00000130       \177WINMM_NULL_THUNK_DATA  00429130     winmm:WINMM.dll
 0002:00000134       __imp__sendto@24           00429134     ws2_32:WS2_32.dll
 0002:00000138       __imp__send@16             00429138     ws2_32:WS2_32.dll
 0002:0000013c       __imp__recvfrom@24         0042913c     ws2_32:WS2_32.dll
 0002:00000140       __imp__recv@16             00429140     ws2_32:WS2_32.dll
 0002:00000144       __imp__ntohs@4             00429144     ws2_32:WS2_32.dll
 0002:00000148       __imp__ntohl@4             00429148     ws2_32:WS2_32.dll
 0002:0000014c       __imp__htons@4             0042914c     ws2_32:WS2_32.dll
 0002:00000150       __imp__htonl@4             00429150     ws2_32:WS2_32.dll
 0002:00000154       __imp__getsockopt@20       00429154     ws2_32:WS2_32.dll
 0002:00000158       __imp__getsockname@12      00429158     ws2_32:WS2_32.dll
 0002:0000015c       __imp__accept@12           0042915c     ws2_32:WS2_32.dll
 0002:00000160       __imp__WSAGetLastError@0   00429160     ws2_32:WS2_32.dll
 0002:00000164       __imp__WSACleanup@0        00429164     ws2_32:WS2_32.dll
 0002:00000168       __imp__WSAStartup@8        00429168     ws2_32:WS2_32.dll
 0002:0000016c       __imp____WSAFDIsSet@8      0042916c     ws2_32:WS2_32.dll
 0002:00000170       __imp__select@20           00429170     ws2_32:WS2_32.dll
 0002:00000174       \177WS2_32_NULL_THUNK_DATA 00429174     ws2_32:WS2_32.dll
 0002:00000178       __imp__strtol              00429178     ucrt:api-ms-win-crt-convert-l1-1-0.dll
 0002:0000017c       \177api-ms-win-crt-convert-l1-1-0_NULL_THUNK_DATA 0042917c     ucrt:api-ms-win-crt-convert-l1-1-0.dll
 0002:00000180       __imp__free                00429180     ucrt:api-ms-win-crt-heap-l1-1-0.dll
 0002:00000184       __imp___set_new_mode       00429184     ucrt:api-ms-win-crt-heap-l1-1-0.dll
 0002:00000188       __imp__calloc              00429188     ucrt:api-ms-win-crt-heap-l1-1-0.dll
 0002:0000018c       __imp__malloc              0042918c     ucrt:api-ms-win-crt-heap-l1-1-0.dll
 0002:00000190       \177api-ms-win-crt-heap-l1-1-0_NULL_THUNK_DATA 00429190     ucrt:api-ms-win-crt-heap-l1-1-0.dll
 0002:00000194       __imp___configthreadlocale 00429194     ucrt:api-ms-win-crt-locale-l1-1-0.dll
 0002:00000198       \177api-ms-win-crt-locale-l1-1-0_NULL_THUNK_DATA 00429198     ucrt:api-ms-win-crt-locale-l1-1-0.dll
 0002:0000019c       __imp____setusermatherr    0042919c     ucrt:api-ms-win-crt-math-l1-1-0.dll
 0002:000001a0       __imp___libm_sse2_log_precise 004291a0     ucrt:api-ms-win-crt-math-l1-1-0.dll
 0002:000001a4       __imp___libm_sse2_sin_precise 004291a4     ucrt:api-ms-win-crt-math-l1-1-0.dll
 0002:000001a8       __imp___libm_sse2_cos_precise 004291a8     ucrt:api-ms-win-crt-math-l1-1-0.dll
 0002:000001ac       __imp___libm_sse2_pow_precise 004291ac     ucrt:api-ms-win-crt-math-l1-1-0.dll
 0002:000001b0       __imp__floor               004291b0     ucrt:api-ms-win-crt-math-l1-1-0.dll
 0002:000001b4       __imp___libm_sse2_sqrt_precise 004291b4     ucrt:api-ms-win-crt-math-l1-1-0.dll
 0002:000001b8       __imp___libm_sse2_exp_precise 004291b8     ucrt:api-ms-win-crt-math-l1-1-0.dll
 0002:000001bc       __imp___except1            004291bc     ucrt:api-ms-win-crt-math-l1-1-0.dll
 0002:000001c0       __imp___CIfmod             004291c0     ucrt:api-ms-win-crt-math-l1-1-0.dll
 0002:000001c4       __imp___libm_sse2_atan_precise 004291c4     ucrt:api-ms-win-crt-math-l1-1-0.dll
 0002:000001c8       \177api-ms-win-crt-math-l1-1-0_NULL_THUNK_DATA 004291c8     ucrt:api-ms-win-crt-math-l1-1-0.dll
 0002:000001cc       __imp___initialize_onexit_table 004291cc     ucrt:api-ms-win-crt-runtime-l1-1-0.dll
 0002:000001d0       __imp___register_onexit_function 004291d0     ucrt:api-ms-win-crt-runtime-l1-1-0.dll
 0002:000001d4       __imp___crt_atexit         004291d4     ucrt:api-ms-win-crt-runtime-l1-1-0.dll
 0002:000001d8       __imp___controlfp_s        004291d8     ucrt:api-ms-win-crt-runtime-l1-1-0.dll
 0002:000001dc       __imp__terminate           004291dc     ucrt:api-ms-win-crt-runtime-l1-1-0.dll
 0002:000001e0       __imp___register_thread_local_exe_atexit_callback 004291e0     ucrt:api-ms-win-crt-runtime-l1-1-0.dll
 0002:000001e4       __imp___c_exit             004291e4     ucrt:api-ms-win-crt-runtime-l1-1-0.dll
 0002:000001e8       __imp__exit                004291e8     ucrt:api-ms-win-crt-runtime-l1-1-0.dll
 0002:000001ec       __imp___seh_filter_exe     004291ec     ucrt:api-ms-win-crt-runtime-l1-1-0.dll
 0002:000001f0       __imp___set_app_type       004291f0     ucrt:api-ms-win-crt-runtime-l1-1-0.dll
 0002:000001f4       __imp___initterm           004291f4     ucrt:api-ms-win-crt-runtime-l1-1-0.dll
 0002:000001f8       __imp___configure_narrow_argv 004291f8     ucrt:api-ms-win-crt-runtime-l1-1-0.dll
 0002:000001fc       __imp___initialize_narrow_environment 004291fc     ucrt:api-ms-win-crt-runtime-l1-1-0.dll
 0002:00000200       __imp___get_initial_narrow_environment 00429200     ucrt:api-ms-win-crt-runtime-l1-1-0.dll
 0002:00000204       __imp___cexit              00429204     ucrt:api-ms-win-crt-runtime-l1-1-0.dll
 0002:00000208       __imp___initterm_e         00429208     ucrt:api-ms-win-crt-runtime-l1-1-0.dll
 0002:0000020c       __imp___exit               0042920c     ucrt:api-ms-win-crt-runtime-l1-1-0.dll
 0002:00000210       __imp____p___argv          00429210     ucrt:api-ms-win-crt-runtime-l1-1-0.dll
 0002:00000214       __imp____p___argc          00429214     ucrt:api-ms-win-crt-runtime-l1-1-0.dll
 0002:00000218       \177api-ms-win-crt-runtime-l1-1-0_NULL_THUNK_DATA 00429218     ucrt:api-ms-win-crt-runtime-l1-1-0.dll
 0002:0000021c       __imp___set_fmode          0042921c     ucrt:api-ms-win-crt-stdio-l1-1-0.dll
 0002:00000220       __imp____stdio_common_vsprintf 00429220     ucrt:api-ms-win-crt-stdio-l1-1-0.dll
 0002:00000224       __imp__fgets               00429224     ucrt:api-ms-win-crt-stdio-l1-1-0.dll
 0002:00000228       __imp__fflush              00429228     ucrt:api-ms-win-crt-stdio-l1-1-0.dll
 0002:0000022c       __imp____p__commode        0042922c     ucrt:api-ms-win-crt-stdio-l1-1-0.dll
 0002:00000230       __imp__puts                00429230     ucrt:api-ms-win-crt-stdio-l1-1-0.dll
 0002:00000234       __imp____stdio_common_vfprintf 00429234     ucrt:api-ms-win-crt-stdio-l1-1-0.dll
 0002:00000238       __imp____acrt_iob_func     00429238     ucrt:api-ms-win-crt-stdio-l1-1-0.dll
 0002:0000023c       \177api-ms-win-crt-stdio-l1-1-0_NULL_THUNK_DATA 0042923c     ucrt:api-ms-win-crt-stdio-l1-1-0.dll
 0002:00000240       __imp___strnicmp           00429240     ucrt:api-ms-win-crt-string-l1-1-0.dll
 0002:00000244       __imp__isxdigit            00429244     ucrt:api-ms-win-crt-string-l1-1-0.dll
 0002:00000248       __imp__strncmp             00429248     ucrt:api-ms-win-crt-string-l1-1-0.dll
 0002:0000024c       __imp__isdigit             0042924c     ucrt:api-ms-win-crt-string-l1-1-0.dll
 0002:00000250       __imp__strncpy             00429250     ucrt:api-ms-win-crt-string-l1-1-0.dll
 0002:00000254       \177api-ms-win-crt-string-l1-1-0_NULL_THUNK_DATA 00429254     ucrt:api-ms-win-crt-string-l1-1-0.dll
 0002:00000258       __imp__rand                00429258     ucrt:api-ms-win-crt-utility-l1-1-0.dll
 0002:0000025c       \177api-ms-win-crt-utility-l1-1-0_NULL_THUNK_DATA 0042925c     ucrt:api-ms-win-crt-utility-l1-1-0.dll
 0002:00000260       __imp__CoCreateGuid@4      00429260     ole32:ole32.dll
 0002:00000264       \177ole32_NULL_THUNK_DATA  00429264     ole32:ole32.dll
 0002:00000268       ___guard_check_icall_fptr  00429268     MSVCRT:guard_support.obj
 0002:0000026c       ___xc_a                    0042926c     MSVCRT:initializers.obj
 0002:00000274       ___xc_z                    00429274     MSVCRT:initializers.obj
 0002:00000278       ___xi_a                    00429278     MSVCRT:initializers.obj
 0002:00000284       ___xi_z                    00429284     MSVCRT:initializers.obj
 0002:00000288       ___xp_a                    00429288     MSVCRT:initializers.obj
 0002:0000028c       ___xp_z                    0042928c     MSVCRT:initializers.obj
 0002:00000290       ___xt_a                    00429290     MSVCRT:initializers.obj
 0002:00000294       ___xt_z                    00429294     MSVCRT:initializers.obj
 0002:000002a0       __xmm@00000000000000620000000000000001 004292a0     confsample.obj
 0002:00000310       ??_C@_0DC@MHBBCDGM@Unspecified?5audio?5device?5error?5?$CI@ 00429310     pjmedia-audiodev-i386-win32-vc14-release-dynamic:errno.obj
 0002:00000344       ??_C@_0DG@FEDKLOFB@Unknown?5error?5from?5audio?5driver?5@ 00429344     pjmedia-audiodev-i386-win32-vc14-release-dynamic:errno.obj
 0002:0000037c       ??_C@_0DE@DOHCBKFK@Audio?5subsystem?5not?5initialized?5@ 0042937c     pjmedia-audiodev-i386-win32-vc14-release-dynamic:errno.obj
 0002:000003b0       ??_C@_0CL@NCBJPCNF@Invalid?5audio?5device?5?$CIPJMEDIA_EA@ 004293b0     pjmedia-audiodev-i386-win32-vc14-release-dynamic:errno.obj
 0002:000003dc       ??_C@_0CM@LOPLLMHO@Found?5no?5audio?5devices?5?$CIPJMEDIA_@ 004293dc     pjmedia-audiodev-i386-win32-vc14-release-dynamic:errno.obj
 0002:00000408       ??_C@_0DM@DPDKGMIE@Unable?5to?5find?5default?5audio?5dev@ 00429408     pjmedia-audiodev-i386-win32-vc14-release-dynamic:errno.obj
 0002:00000444       ??_C@_0CP@JIPJOIMB@Audio?5device?5not?5ready?5?$CIPJMEDIA_@ 00429444     pjmedia-audiodev-i386-win32-vc14-release-dynamic:errno.obj
 0002:00000474       ??_C@_0DO@NMIGLFFA@Invalid?5or?5unsupported?5audio?5cap@ 00429474     pjmedia-audiodev-i386-win32-vc14-release-dynamic:errno.obj
 0002:000004b8       ??_C@_0ED@PLJALPOA@Invalid?5or?5unsupported?5audio?5dev@ 004294b8     pjmedia-audiodev-i386-win32-vc14-release-dynamic:errno.obj
 0002:000004fc       ??_C@_0DM@JKDJGBNG@Bad?5or?5invalid?5audio?5device?5form@ 004294fc     pjmedia-audiodev-i386-win32-vc14-release-dynamic:errno.obj
 0002:00000538       ??_C@_0DN@BLAJILEA@Invalid?5audio?5device?5sample?5form@ 00429538     pjmedia-audiodev-i386-win32-vc14-release-dynamic:errno.obj
 0002:00000578       ??_C@_0DE@LJJGJIEF@Bad?5audio?5latency?5setting?5?$CIPJMED@ 00429578     pjmedia-audiodev-i386-win32-vc14-release-dynamic:errno.obj
 0002:000005ac       ??_C@_0BJ@GMHLEOAL@MMSYSTEM?5native?5error?5?$CFd?$AA@ 004295ac     pjmedia-audiodev-i386-win32-vc14-release-dynamic:errno.obj
 0002:000005c8       ??_C@_0CC@MFOJNIAN@Unknown?5pjmedia?9audiodev?5error?5?$CF@ 004295c8     pjmedia-audiodev-i386-win32-vc14-release-dynamic:errno.obj
 0002:000005ec       ??_C@_0M@KBHHDDLP@Wave?5mapper?$AA@ 004295ec     pjmedia-audiodev-i386-win32-vc14-release-dynamic:wmme_dev.obj
 0002:000005f8       ??_C@_04CPNMDOAK@WMME?$AA@ 004295f8     pjmedia-audiodev-i386-win32-vc14-release-dynamic:wmme_dev.obj
 0002:00000600       ??_C@_0BB@EOKKHGLD@WMME?5initialized?$AA@ 00429600     pjmedia-audiodev-i386-win32-vc14-release-dynamic:wmme_dev.obj
 0002:00000614       ??_C@_0L@HHCCMOGO@wmme_dev?4c?$AA@ 00429614     pjmedia-audiodev-i386-win32-vc14-release-dynamic:wmme_dev.obj
 0002:00000620       ??_C@_0BM@OMJMEAMB@WMME?5found?5no?5sound?5devices?$AA@ 00429620     pjmedia-audiodev-i386-win32-vc14-release-dynamic:wmme_dev.obj
 0002:0000063c       ??_C@_11LOCGONAA@?$AA?$AA@ 0042963c     pjmedia-audiodev-i386-win32-vc14-release-dynamic:wmme_dev.obj
 0002:00000640       ??_C@_0BH@GEMAAOCL@WMME?5found?5?$CFd?5devices?3?$AA@ 00429640     pjmedia-audiodev-i386-win32-vc14-release-dynamic:wmme_dev.obj
 0002:00000658       ??_C@_0CA@NLJGEGOG@?5dev_id?5?$CFd?3?5?$CFs?5?5?$CIin?$DN?$CFd?0?5out?$DN?$CFd?$CJ?$AA@ 00429658     pjmedia-audiodev-i386-win32-vc14-release-dynamic:wmme_dev.obj
 0002:00000678       ??_C@_03CCLNCNJA@PCM?$AA@  00429678     pjmedia-audiodev-i386-win32-vc14-release-dynamic:wmme_dev.obj
 0002:00000680       ??_C@_0HB@MKIBCFPJ@?5WaveAPI?5Sound?5player?5?$CC?$CFs?$CC?5initi@ 00429680     pjmedia-audiodev-i386-win32-vc14-release-dynamic:wmme_dev.obj
 0002:000006f8       ??_C@_0HD@PIICIPL@?5WaveAPI?5Sound?5recorder?5?$CC?$CFs?$CC?5ini@ 004296f8     pjmedia-audiodev-i386-win32-vc14-release-dynamic:wmme_dev.obj
 0002:0000076c       ??_C@_0CJ@BMOAEONK@Failed?5to?5write?5audio?5frame?5for?5@ 0042976c     pjmedia-audiodev-i386-win32-vc14-release-dynamic:wmme_dev.obj
 0002:00000798       ??_C@_0BP@EAOBDJJO@Failed?5to?5add?5recording?5buffer?$AA@ 00429798     pjmedia-audiodev-i386-win32-vc14-release-dynamic:wmme_dev.obj
 0002:000007b8       ??_C@_0BI@BEJPJEBJ@WMME?3?5thread?5stopping?4?4?$AA@ 004297b8     pjmedia-audiodev-i386-win32-vc14-release-dynamic:wmme_dev.obj
 0002:000007d0       ??_C@_0CB@JKFANBEJ@WMME?5thread?5stopped?5due?5to?5error@ 004297d0     pjmedia-audiodev-i386-win32-vc14-release-dynamic:wmme_dev.obj
 0002:000007f4       ??_C@_08MOOOBPLB@wmme?9dev?$AA@ 004297f4     pjmedia-audiodev-i386-win32-vc14-release-dynamic:wmme_dev.obj
 0002:00000800       ??_C@_04ODOGNMHC@wmme?$AA@ 00429800     pjmedia-audiodev-i386-win32-vc14-release-dynamic:wmme_dev.obj
 0002:00000808       ??_C@_0BN@MNACKNIN@WMME?5playback?5stream?5started?$AA@ 00429808     pjmedia-audiodev-i386-win32-vc14-release-dynamic:wmme_dev.obj
 0002:00000828       ??_C@_0BM@NKDLICNM@WMME?5capture?5stream?5started?$AA@ 00429828     pjmedia-audiodev-i386-win32-vc14-release-dynamic:wmme_dev.obj
 0002:00000844       ??_C@_0BN@FMJNHCPG@Stopped?5WMME?5playback?5stream?$AA@ 00429844     pjmedia-audiodev-i386-win32-vc14-release-dynamic:wmme_dev.obj
 0002:00000864       ??_C@_0BM@KCHDOGNE@Stopped?5WMME?5capture?5stream?$AA@ 00429864     pjmedia-audiodev-i386-win32-vc14-release-dynamic:wmme_dev.obj
 0002:00000880       ??_C@_09OFDCJLJM@WMME?5base?$AA@ 00429880     pjmedia-audiodev-i386-win32-vc14-release-dynamic:wmme_dev.obj
 0002:0000088c       ??_C@_0N@GJCGOFHI@Master?1sound?$AA@ 0042988c     pjmedia-i386-win32-vc14-release-dynamic:conference.obj
 0002:0000089c       ??_C@_0CN@NGHGIGLE@Sound?5device?5successfully?5create@ 0042989c     pjmedia-i386-win32-vc14-release-dynamic:conference.obj
 0002:000008cc       ??_C@_0N@HKLHDDNB@conference?4c?$AA@ 004298cc     pjmedia-i386-win32-vc14-release-dynamic:conference.obj
 0002:000008dc       ??_C@_04DECFOHCF@Conf?$AA@ 004298dc     pjmedia-i386-win32-vc14-release-dynamic:conference.obj
 0002:000008e4       ??_C@_0CJ@CCNOOKCI@Creating?5conference?5bridge?5with?5@ 004298e4     pjmedia-i386-win32-vc14-release-dynamic:conference.obj
 0002:00000910       ??_C@_04PFOEMICB@conf?$AA@ 00429910     pjmedia-i386-win32-vc14-release-dynamic:conference.obj
 0002:00000918       ??_C@_0CO@BCCAEBCC@Port?5?$CFd?5?$CI?$CF?4?$CKs?$CJ?5transmitting?5to?5p@ 00429918     pjmedia-i386-win32-vc14-release-dynamic:conference.obj
 0002:00000948       ??_C@_0DD@HEHPDBFJ@Port?5?$CFd?5?$CI?$CF?4?$CKs?$CJ?5stop?5transmitting@ 00429948     pjmedia-i386-win32-vc14-release-dynamic:conference.obj
 0002:00000980       __real@3fe0000000000000    00429980     pjmedia-i386-win32-vc14-release-dynamic:conference.obj
 0002:00000990       __xmm@41f00000000000000000000000000000 00429990     pjmedia-i386-win32-vc14-release-dynamic:conference.obj
 0002:000009d0       ??_C@_07OEHJJJKF@RTP?1AVP?$AA@ 004299d0     pjmedia-i386-win32-vc14-release-dynamic:endpoint.obj
 0002:000009d8       ??_C@_02BBAPPCCJ@IN?$AA@   004299d8     pjmedia-i386-win32-vc14-release-dynamic:endpoint.obj
 0002:000009dc       ??_C@_03OPDBOKBD@IP4?$AA@  004299dc     pjmedia-i386-win32-vc14-release-dynamic:endpoint.obj
 0002:000009e0       ??_C@_03NNAHIIJB@IP6?$AA@  004299e0     pjmedia-i386-win32-vc14-release-dynamic:endpoint.obj
 0002:000009e4       ??_C@_07HDFHIMAJ@pjmedia?$AA@ 004299e4     pjmedia-i386-win32-vc14-release-dynamic:endpoint.obj
 0002:000009ec       ??_C@_08LMCBNPPN@sendrecv?$AA@ 004299ec     pjmedia-i386-win32-vc14-release-dynamic:endpoint.obj
 0002:000009f8       ??_C@_07LBNDIDNE@med?9ept?$AA@ 004299f8     pjmedia-i386-win32-vc14-release-dynamic:endpoint.obj
 0002:00000a00       ??_C@_0EL@BIFHLACC@Warning?3?5no?5worker?5thread?5is?5cre@ 00429a00     pjmedia-i386-win32-vc14-release-dynamic:endpoint.obj
 0002:00000a4c       ??_C@_0L@DLFDMOGF@endpoint?4c?$AA@ 00429a4c     pjmedia-i386-win32-vc14-release-dynamic:endpoint.obj
 0002:00000a58       ??_C@_05CECBHAPI@media?$AA@ 00429a58     pjmedia-i386-win32-vc14-release-dynamic:endpoint.obj
 0002:00000a5e       ??_C@_00CNPNBAHC@?$AA@     00429a5e     pjmedia-i386-win32-vc14-release-dynamic:endpoint.obj
 0002:00000a60       ??_C@_01CLKCMJKC@?5?$AA@   00429a60     pjmedia-i386-win32-vc14-release-dynamic:endpoint.obj
 0002:00000a64       ??_C@_04DAMGJPCA@file?$AA@ 00429a64     pjmedia-i386-win32-vc14-release-dynamic:wav_player.obj
 0002:00000a6c       ??_C@_0DH@CJCCJAOK@actual?5value?$HMexpected?5riff?$DN?$CFx?$HM?$CFx@ 00429a6c     pjmedia-i386-win32-vc14-release-dynamic:wav_player.obj
 0002:00000aa4       ??_C@_0N@EAJPAIGO@wav_player?4c?$AA@ 00429aa4     pjmedia-i386-win32-vc14-release-dynamic:wav_player.obj
 0002:00000ab8       ??_C@_0EO@KJDBHFL@File?5player?5?8?$CF?4?$CKs?8?5created?3?5samp@ 00429ab8     pjmedia-i386-win32-vc14-release-dynamic:wav_player.obj
 0002:00000b08       ??_C@_0BD@LPPPNKOC@File?5port?5?$CF?4?$CKs?5EOF?$AA@ 00429b08     pjmedia-i386-win32-vc14-release-dynamic:wav_player.obj
 0002:00000b1c       ??_C@_0BL@OHCCHMIC@File?5port?5?$CF?4?$CKs?5rewinding?4?4?$AA@ 00429b1c     pjmedia-i386-win32-vc14-release-dynamic:wav_player.obj
 0002:00000b38       ??_C@_0DH@EDIEAILI@File?5writer?5?8?$CF?4?$CKs?8?5created?3?5samp@ 00429b38     pjmedia-i386-win32-vc14-release-dynamic:wav_writer.obj
 0002:00000b70       ??_C@_0N@MCLOBLAH@wav_writer?4c?$AA@ 00429b70     pjmedia-i386-win32-vc14-release-dynamic:wav_writer.obj
 0002:00000b80       ??_C@_07GBKCPIDJ@ext?9fmt?$AA@ 00429b80     pjmedia-i386-win32-vc14-release-dynamic:audiodev.obj
 0002:00000b88       ??_C@_0BI@GGHCECPI@Extended?1non?9PCM?5format?$AA@ 00429b88     pjmedia-i386-win32-vc14-release-dynamic:audiodev.obj
 0002:00000ba0       ??_C@_0L@IKNMBADD@latency?9in?$AA@ 00429ba0     pjmedia-i386-win32-vc14-release-dynamic:audiodev.obj
 0002:00000bac       ??_C@_0CC@LIGOHOJN@Input?5latency?1buffer?5size?5settin@ 00429bac     pjmedia-i386-win32-vc14-release-dynamic:audiodev.obj
 0002:00000bd0       ??_C@_0M@MBBBBCLJ@latency?9out?$AA@ 00429bd0     pjmedia-i386-win32-vc14-release-dynamic:audiodev.obj
 0002:00000bdc       ??_C@_0CD@GAINMBC@Output?5latency?1buffer?5size?5setti@ 00429bdc     pjmedia-i386-win32-vc14-release-dynamic:audiodev.obj
 0002:00000c00       ??_C@_06KGGLCDDG@vol?9in?$AA@ 00429c00     pjmedia-i386-win32-vc14-release-dynamic:audiodev.obj
 0002:00000c08       ??_C@_0BF@CCEKOJAN@Input?5volume?5setting?$AA@ 00429c08     pjmedia-i386-win32-vc14-release-dynamic:audiodev.obj
 0002:00000c20       ??_C@_07LBFHFBAF@vol?9out?$AA@ 00429c20     pjmedia-i386-win32-vc14-release-dynamic:audiodev.obj
 0002:00000c28       ??_C@_0BG@IBEHJHAD@Output?5volume?5setting?$AA@ 00429c28     pjmedia-i386-win32-vc14-release-dynamic:audiodev.obj
 0002:00000c40       ??_C@_08BPNDLGG@meter?9in?$AA@ 00429c40     pjmedia-i386-win32-vc14-release-dynamic:audiodev.obj
 0002:00000c4c       ??_C@_0M@NCGIGNPG@Input?5meter?$AA@ 00429c4c     pjmedia-i386-win32-vc14-release-dynamic:audiodev.obj
 0002:00000c58       ??_C@_09NKJLJGOJ@meter?9out?$AA@ 00429c58     pjmedia-i386-win32-vc14-release-dynamic:audiodev.obj
 0002:00000c64       ??_C@_0N@GBEOEOEP@Output?5meter?$AA@ 00429c64     pjmedia-i386-win32-vc14-release-dynamic:audiodev.obj
 0002:00000c74       ??_C@_08FPHJDLBG@route?9in?$AA@ 00429c74     pjmedia-i386-win32-vc14-release-dynamic:audiodev.obj
 0002:00000c80       ??_C@_0O@JDPFDDM@Input?5routing?$AA@ 00429c80     pjmedia-i386-win32-vc14-release-dynamic:audiodev.obj
 0002:00000c90       ??_C@_09IKMAGDNF@route?9out?$AA@ 00429c90     pjmedia-i386-win32-vc14-release-dynamic:audiodev.obj
 0002:00000c9c       ??_C@_0P@JOFPIEJJ@Output?5routing?$AA@ 00429c9c     pjmedia-i386-win32-vc14-release-dynamic:audiodev.obj
 0002:00000cac       ??_C@_03FNONIBCK@aec?$AA@  00429cac     pjmedia-i386-win32-vc14-release-dynamic:audiodev.obj
 0002:00000cb0       ??_C@_0BM@HPDLGLFJ@Accoustic?5echo?5cancellation?$AA@ 00429cb0     pjmedia-i386-win32-vc14-release-dynamic:audiodev.obj
 0002:00000ccc       ??_C@_08MKAPJCJE@aec?9tail?$AA@ 00429ccc     pjmedia-i386-win32-vc14-release-dynamic:audiodev.obj
 0002:00000cd8       ??_C@_0BM@PBLLADJD@Tail?5length?5setting?5for?5AEC?$AA@ 00429cd8     pjmedia-i386-win32-vc14-release-dynamic:audiodev.obj
 0002:00000cf4       ??_C@_03NIGLNABH@vad?$AA@  00429cf4     pjmedia-i386-win32-vc14-release-dynamic:audiodev.obj
 0002:00000cf8       ??_C@_0BJ@PEELNNPF@Voice?5activity?5detection?$AA@ 00429cf8     pjmedia-i386-win32-vc14-release-dynamic:audiodev.obj
 0002:00000d14       ??_C@_03JPNNGDEE@cng?$AA@  00429d14     pjmedia-i386-win32-vc14-release-dynamic:audiodev.obj
 0002:00000d18       ??_C@_0BJ@MNDOFJGN@Comfort?5noise?5generation?$AA@ 00429d18     pjmedia-i386-win32-vc14-release-dynamic:audiodev.obj
 0002:00000d34       ??_C@_03NOPFEPFL@plg?$AA@  00429d34     pjmedia-i386-win32-vc14-release-dynamic:audiodev.obj
 0002:00000d38       ??_C@_0BI@OMEMKBHH@Packet?5loss?5concealment?$AA@ 00429d38     pjmedia-i386-win32-vc14-release-dynamic:audiodev.obj
 0002:00000d50       ??_C@_0EF@NLCNMHAD@?$CFd?5device?$CIs?$CJ?5cannot?5be?5registere@ 00429d50     pjmedia-i386-win32-vc14-release-dynamic:audiodev.obj
 0002:00000d98       ??_C@_0L@FGHHAHLM@audiodev?4c?$AA@ 00429d98     pjmedia-i386-win32-vc14-release-dynamic:audiodev.obj
 0002:00000da4       ??_C@_0DH@LLDEKPNG@Lost?5event?5?$CFs?5from?5publisher?5?$FL0x@ 00429da4     pjmedia-i386-win32-vc14-release-dynamic:event.obj
 0002:00000ddc       ??_C@_07GLALFINI@event?4c?$AA@ 00429ddc     pjmedia-i386-win32-vc14-release-dynamic:event.obj
 0002:00000de4       ??_C@_08LLMLEOE@delaybuf?$AA@ 00429de4     pjmedia-i386-win32-vc14-release-dynamic:delaybuf.obj
 0002:00000df0       ??_C@_0BP@CKANIKAH@Using?5delay?5buffer?5with?5WSOLA?4?$AA@ 00429df0     pjmedia-i386-win32-vc14-release-dynamic:delaybuf.obj
 0002:00000e10       ??_C@_0CA@BKBNPCON@Using?5simple?5FIFO?5delay?5buffer?4?$AA@ 00429e10     pjmedia-i386-win32-vc14-release-dynamic:delaybuf.obj
 0002:00000e30       ??_C@_0BP@JJBHJNOO@?$CFd?5samples?5reduced?0?5buf_cnt?$DN?$CFd?$AA@ 00429e30     pjmedia-i386-win32-vc14-release-dynamic:delaybuf.obj
 0002:00000e50       ??_C@_0DA@FPCBOFHC@Buffer?5size?5adjusted?5from?5?$CFd?5to?5@ 00429e50     pjmedia-i386-win32-vc14-release-dynamic:delaybuf.obj
 0002:00000e80       ??_C@_0CD@DJOCKALK@Shrinking?5failed?5or?5insufficient@ 00429e80     pjmedia-i386-win32-vc14-release-dynamic:delaybuf.obj
 0002:00000ea4       ??_C@_0CJ@KJHKGIAO@?$CFsDropping?5?$CFd?5eldest?5samples?0?5bu@ 00429ea4     pjmedia-i386-win32-vc14-release-dynamic:delaybuf.obj
 0002:00000ed0       ??_C@_0CN@FEOJBHHF@Underflow?0?5buf_cnt?$DN?$CFd?0?5will?5gene@ 00429ed0     pjmedia-i386-win32-vc14-release-dynamic:delaybuf.obj
 0002:00000f00       ??_C@_0BH@KCPKLNAI@Error?5generating?5frame?$AA@ 00429f00     pjmedia-i386-win32-vc14-release-dynamic:delaybuf.obj
 0002:00000f18       ??_C@_0BG@OCJPAJA@Delay?5buffer?5is?5reset?$AA@ 00429f18     pjmedia-i386-win32-vc14-release-dynamic:delaybuf.obj
 0002:00000f30       ??_C@_05BHNOFNA@large?$AA@ 00429f30     pjmedia-i386-win32-vc14-release-dynamic:resample_resample.obj
 0002:00000f38       ??_C@_05KJDGBEEG@small?$AA@ 00429f38     pjmedia-i386-win32-vc14-release-dynamic:resample_resample.obj
 0002:00000f40       ??_C@_04DGANLAON@high?$AA@ 00429f40     pjmedia-i386-win32-vc14-release-dynamic:resample_resample.obj
 0002:00000f48       ??_C@_03IMLOALHE@low?$AA@  00429f48     pjmedia-i386-win32-vc14-release-dynamic:resample_resample.obj
 0002:00000f4c       ??_C@_0DK@LBFHIBFM@resample?5created?3?5?$CFs?5qualiy?0?5?$CFs?5@ 00429f4c     pjmedia-i386-win32-vc14-release-dynamic:resample_resample.obj
 0002:00000f88       ??_C@_0L@BNONNLDH@resample?4c?$AA@ 00429f88     pjmedia-i386-win32-vc14-release-dynamic:resample_resample.obj
 0002:00000f94       ??_C@_0N@COEOBFOD@EC?5activated?$AA@ 00429f94     pjmedia-i386-win32-vc14-release-dynamic:sound_port.obj
 0002:00000fa4       ??_C@_0N@GOCHBLLA@sound_port?4c?$AA@ 00429fa4     pjmedia-i386-win32-vc14-release-dynamic:sound_port.obj
 0002:00000fb4       ??_C@_0CD@IGHBIGGN@EC?5suspended?5because?5of?5inactivi@ 00429fb4     pjmedia-i386-win32-vc14-release-dynamic:sound_port.obj
 0002:00000fd8       ??_C@_0CB@KICGINBD@AEC?5tail?5is?5set?5to?5default?5?$CFu?5ms@ 00429fd8     pjmedia-i386-win32-vc14-release-dynamic:sound_port.obj
 0002:00000ffc       ??_C@_0DJ@PNINHBGM@pjmedia_snd_port_set_ec?$CI?$CJ?5ignore@ 00429ffc     pjmedia-i386-win32-vc14-release-dynamic:sound_port.obj
 0002:00001038       ??_C@_0DB@KDEIEFDK@Echo?5canceller?5is?5now?5disabled?5i@ 0042a038     pjmedia-i386-win32-vc14-release-dynamic:sound_port.obj
 0002:00001070       _pjmedia_linear2ulaw_tab   0042a070     pjmedia-i386-win32-vc14-release-dynamic:alaw_ulaw_table.obj
 0002:00005070       _pjmedia_linear2alaw_tab   0042e070     pjmedia-i386-win32-vc14-release-dynamic:alaw_ulaw_table.obj
 0002:00009070       _pjmedia_ulaw2linear_tab   00432070     pjmedia-i386-win32-vc14-release-dynamic:alaw_ulaw_table.obj
 0002:00009270       _pjmedia_alaw2linear_tab   00432270     pjmedia-i386-win32-vc14-release-dynamic:alaw_ulaw_table.obj
 0002:00009470       ??_C@_01KMDKNFGN@?1?$AA@   00432470     pjmedia-i386-win32-vc14-release-dynamic:sdp.obj
 0002:00009474       ??_C@_03GOLBDMPC@RTP?$AA@  00432474     pjmedia-i386-win32-vc14-release-dynamic:sdp.obj
 0002:00009478       ??_C@_03CPJJBAON@AVP?$AA@  00432478     pjmedia-i386-win32-vc14-release-dynamic:sdp.obj
 0002:0000947c       ??_C@_04LHEMINPH@SAVP?$AA@ 0043247c     pjmedia-i386-win32-vc14-release-dynamic:sdp.obj
 0002:00009484       ??_C@_04HILHOPFG@AVPF?$AA@ 00432484     pjmedia-i386-win32-vc14-release-dynamic:sdp.obj
 0002:0000948c       ??_C@_05IFENMDLB@SAVPF?$AA@ 0043248c     pjmedia-i386-win32-vc14-release-dynamic:sdp.obj
 0002:00009494       ??_C@_03OPEAKHDL@UDP?$AA@  00432494     pjmedia-i386-win32-vc14-release-dynamic:sdp.obj
 0002:00009498       ??_C@_0N@IFKNLCBO@TLS?1RTP?1SAVP?$AA@ 00432498     pjmedia-i386-win32-vc14-release-dynamic:sdp.obj
 0002:000094a8       ??_C@_0O@FMKJHIFC@TLS?1RTP?1SAVPF?$AA@ 004324a8     pjmedia-i386-win32-vc14-release-dynamic:sdp.obj
 0002:000094b8       ??_C@_09GLMNEMC@codec?9mgr?$AA@ 004324b8     pjmedia-i386-win32-vc14-release-dynamic:codec.obj
 0002:00009818       ??_C@_0CK@HBHLALIF@Unspecified?5PJMEDIA?5error?5?$CIPJMED@ 00432818     pjmedia-i386-win32-vc14-release-dynamic:errno.obj
 0002:00009844       ??_C@_0CM@KFAONKNJ@Invalid?5SDP?5descriptor?5?$CIPJMEDIA_@ 00432844     pjmedia-i386-win32-vc14-release-dynamic:errno.obj
 0002:00009870       ??_C@_0CO@ONPCFICA@Invalid?5SDP?5version?5line?5?$CIPJMEDI@ 00432870     pjmedia-i386-win32-vc14-release-dynamic:errno.obj
 0002:000098a0       ??_C@_0DA@DIKNJOEJ@Invalid?5SDP?5origin?5line?5?$CIPJMEDIA@ 004328a0     pjmedia-i386-win32-vc14-release-dynamic:errno.obj
 0002:000098d0       ??_C@_0CM@DLEAGODI@Invalid?5SDP?5time?5line?5?$CIPJMEDIA_S@ 004328d0     pjmedia-i386-win32-vc14-release-dynamic:errno.obj
 0002:000098fc       ??_C@_0DF@HNDCDPJF@SDP?5name?1subject?5line?5is?5empty?5?$CI@ 004328fc     pjmedia-i386-win32-vc14-release-dynamic:errno.obj
 0002:00009934       ??_C@_0DC@KNNPDHKA@Invalid?5SDP?5connection?5line?5?$CIPJM@ 00432934     pjmedia-i386-win32-vc14-release-dynamic:errno.obj
 0002:00009968       ??_C@_0DM@NEDHCJGL@Missing?5SDP?5connection?5info?5line@ 00432968     pjmedia-i386-win32-vc14-release-dynamic:errno.obj
 0002:000099a4       ??_C@_0CN@JHLMEODJ@Invalid?5SDP?5attributes?5?$CIPJMEDIA_@ 004329a4     pjmedia-i386-win32-vc14-release-dynamic:errno.obj
 0002:000099d4       ??_C@_0DF@BJAALDOM@Invalid?5SDP?5rtpmap?5attribute?5?$CIPJ@ 004329d4     pjmedia-i386-win32-vc14-release-dynamic:errno.obj
 0002:00009a0c       ??_C@_0DL@HCOGNPAF@SDP?5rtpmap?5attribute?5too?5long?5?$CIP@ 00432a0c     pjmedia-i386-win32-vc14-release-dynamic:errno.obj
 0002:00009a48       ??_C@_0EJ@IDNJACOO@Missing?5SDP?5rtpmap?5for?5dynamic?5p@ 00432a48     pjmedia-i386-win32-vc14-release-dynamic:errno.obj
 0002:00009a94       ??_C@_0CO@DIKFNJOF@Invalid?5SDP?5media?5line?5?$CIPJMEDIA_@ 00432a94     pjmedia-i386-win32-vc14-release-dynamic:errno.obj
 0002:00009ac4       ??_C@_0DN@GADAENKO@No?5SDP?5payload?5format?5in?5the?5med@ 00432ac4     pjmedia-i386-win32-vc14-release-dynamic:errno.obj
 0002:00009b04       ??_C@_0DL@KAILPDC@Invalid?5SDP?5payload?5type?5in?5medi@ 00432b04     pjmedia-i386-win32-vc14-release-dynamic:errno.obj
 0002:00009b40       ??_C@_0DB@BJCACDID@Invalid?5SDP?5fmtp?5attribute?5?$CIPJME@ 00432b40     pjmedia-i386-win32-vc14-release-dynamic:errno.obj
 0002:00009b74       ??_C@_0DB@GFBENNMO@Invalid?5SDP?5rtcp?5attribute?5?$CIPJME@ 00432b74     pjmedia-i386-win32-vc14-release-dynamic:errno.obj
 0002:00009ba8       ??_C@_0DM@JFGCNJLM@Invalid?5SDP?5media?5transport?5prot@ 00432ba8     pjmedia-i386-win32-vc14-release-dynamic:errno.obj
 0002:00009be4       ??_C@_0DH@PCNCDMKM@Invalid?5SDP?5bandwidth?5info?5line?5@ 00432be4     pjmedia-i386-win32-vc14-release-dynamic:errno.obj
 0002:00009c1c       ??_C@_0DB@POLJHCKE@Invalid?5SDP?5ssrc?5attribute?5?$CIPJME@ 00432c1c     pjmedia-i386-win32-vc14-release-dynamic:errno.obj
 0002:00009c50       ??_C@_0EF@CJNFLCEL@Invalid?5SDP?5negotiator?5state?5for@ 00432c50     pjmedia-i386-win32-vc14-release-dynamic:errno.obj
 0002:00009c98       ??_C@_0ED@IFOJJHNO@No?5initial?5local?5SDP?5in?5SDP?5nego@ 00432c98     pjmedia-i386-win32-vc14-release-dynamic:errno.obj
 0002:00009cdc       ??_C@_0DL@MFMHOMBE@No?5active?5SDP?5in?5SDP?5negotiator?5@ 00432cdc     pjmedia-i386-win32-vc14-release-dynamic:errno.obj
 0002:00009d18       ??_C@_0DN@JGPGLEOH@No?5current?5local?1remote?5offer?1an@ 00432d18     pjmedia-i386-win32-vc14-release-dynamic:errno.obj
 0002:00009d58       ??_C@_0EE@BLNHOMNC@SDP?5media?5count?5mismatch?5in?5offe@ 00432d58     pjmedia-i386-win32-vc14-release-dynamic:errno.obj
 0002:00009da0       ??_C@_0EG@MJOIPNIH@SDP?5media?5type?5mismatch?5in?5offer@ 00432da0     pjmedia-i386-win32-vc14-release-dynamic:errno.obj
 0002:00009de8       ??_C@_0EN@OPFCIOMP@SDP?5media?5transport?5type?5mismatc@ 00432de8     pjmedia-i386-win32-vc14-release-dynamic:errno.obj
 0002:00009e38       ??_C@_0ED@NGHPALDD@No?5common?5SDP?5media?5payload?5in?5a@ 00432e38     pjmedia-i386-win32-vc14-release-dynamic:errno.obj
 0002:00009e80       ??_C@_0ED@HELGJJGO@No?5active?5media?5stream?5after?5neg@ 00432e80     pjmedia-i386-win32-vc14-release-dynamic:errno.obj
 0002:00009ec4       ??_C@_0DP@KIMEPBPF@No?5suitable?5codec?5for?5remote?5off@ 00432ec4     pjmedia-i386-win32-vc14-release-dynamic:errno.obj
 0002:00009f08       ??_C@_0EM@LLMPLGCO@No?5suitable?5telephone?9event?5for?5@ 00432f08     pjmedia-i386-win32-vc14-release-dynamic:errno.obj
 0002:00009f58       ??_C@_0EK@LPNBCGHG@No?5suitable?5answer?5for?5unknown?5r@ 00432f58     pjmedia-i386-win32-vc14-release-dynamic:errno.obj
 0002:00009fa4       ??_C@_0DM@JMBBJEKO@SDP?5media?5descriptor?5not?5equal?5?$CI@ 00432fa4     pjmedia-i386-win32-vc14-release-dynamic:errno.obj
 0002:00009fe0       ??_C@_0ED@KAALGBMF@Port?5in?5SDP?5media?5descriptor?5not@ 00432fe0     pjmedia-i386-win32-vc14-release-dynamic:errno.obj
 0002:0000a028       ??_C@_0EJ@FJOJLJDF@Transport?5in?5SDP?5media?5descripto@ 00433028     pjmedia-i386-win32-vc14-release-dynamic:errno.obj
 0002:0000a078       ??_C@_0EH@FMIFCFBA@Format?5in?5SDP?5media?5descriptor?5n@ 00433078     pjmedia-i386-win32-vc14-release-dynamic:errno.obj
 0002:0000a0c0       ??_C@_0DK@MAHAOAHF@SDP?5connection?5line?5not?5equal?5?$CIP@ 004330c0     pjmedia-i386-win32-vc14-release-dynamic:errno.obj
 0002:0000a0fc       ??_C@_0DF@HHCJAGLJ@SDP?5attributes?5not?5equal?5?$CIPJMEDI@ 004330fc     pjmedia-i386-win32-vc14-release-dynamic:errno.obj
 0002:0000a134       ??_C@_0DJ@GGABIHGL@SDP?5media?5direction?5not?5equal?5?$CIP@ 00433134     pjmedia-i386-win32-vc14-release-dynamic:errno.obj
 0002:0000a170       ??_C@_0DJ@FFGHKCEG@SDP?5fmtp?5attribute?5not?5equal?5?$CIPJ@ 00433170     pjmedia-i386-win32-vc14-release-dynamic:errno.obj
 0002:0000a1ac       ??_C@_0DN@HLKACHFN@SDP?5rtpmap?5attribute?5not?5equal?5?$CI@ 004331ac     pjmedia-i386-win32-vc14-release-dynamic:errno.obj
 0002:0000a1ec       ??_C@_0DN@EALGPLFN@SDP?5session?5descriptor?5not?5equal@ 004331ec     pjmedia-i386-win32-vc14-release-dynamic:errno.obj
 0002:0000a22c       ??_C@_0DI@BLKBMMGO@SDP?5origin?5line?5not?5equal?5?$CIPJMED@ 0043322c     pjmedia-i386-win32-vc14-release-dynamic:errno.obj
 0002:0000a264       ??_C@_0DM@HCOBINN@SDP?5name?1subject?5line?5not?5equal?5@ 00433264     pjmedia-i386-win32-vc14-release-dynamic:errno.obj
 0002:0000a2a0       ??_C@_0DE@PFJJJNGL@SDP?5time?5line?5not?5equal?5?$CIPJMEDIA@ 004332a0     pjmedia-i386-win32-vc14-release-dynamic:errno.obj
 0002:0000a2d4       ??_C@_0CP@ODMIIAEN@Unsupported?5media?5codec?5?$CIPJMEDIA@ 004332d4     pjmedia-i386-win32-vc14-release-dynamic:errno.obj
 0002:0000a304       ??_C@_0DG@KJBEJCIE@Codec?5internal?5creation?5error?5?$CIP@ 00433304     pjmedia-i386-win32-vc14-release-dynamic:errno.obj
 0002:0000a33c       ??_C@_0DG@FOGENKNL@Codec?5frame?5is?5too?5short?5?$CIPJMEDI@ 0043333c     pjmedia-i386-win32-vc14-release-dynamic:errno.obj
 0002:0000a374       ??_C@_0DE@OLKJHMCL@PCM?5frame?5is?5too?5short?5?$CIPJMEDIA_@ 00433374     pjmedia-i386-win32-vc14-release-dynamic:errno.obj
 0002:0000a3a8       ??_C@_0DF@JDAOLAOM@Invalid?5codec?5frame?5length?5?$CIPJME@ 004333a8     pjmedia-i386-win32-vc14-release-dynamic:errno.obj
 0002:0000a3e0       ??_C@_0DG@LLBBCNCG@Invalid?5PCM?5frame?5length?5?$CIPJMEDI@ 004333e0     pjmedia-i386-win32-vc14-release-dynamic:errno.obj
 0002:0000a418       ??_C@_0DG@EKMGLMFL@Invalid?5codec?5mode?5?$CIno?5fmtp?$DP?$CJ?5?$CIP@ 00433418     pjmedia-i386-win32-vc14-release-dynamic:errno.obj
 0002:0000a450       ??_C@_0DJ@NJFBGAOC@Bad?5or?5corrupted?5bitstream?5?$CIPJME@ 00433450     pjmedia-i386-win32-vc14-release-dynamic:errno.obj
 0002:0000a48c       ??_C@_0DH@KOBKDDJI@Invalid?5remote?5media?5?$CIIP?$CJ?5addres@ 0043348c     pjmedia-i386-win32-vc14-release-dynamic:errno.obj
 0002:0000a4c4       ??_C@_0DM@GBJMMNCF@Asymetric?5media?5codec?5is?5not?5sup@ 004334c4     pjmedia-i386-win32-vc14-release-dynamic:errno.obj
 0002:0000a500       ??_C@_0DA@DKJJFGPE@Invalid?5media?5payload?5type?5?$CIPJME@ 00433500     pjmedia-i386-win32-vc14-release-dynamic:errno.obj
 0002:0000a530       ??_C@_0DN@IGGOEBDI@Missing?5rtpmap?5in?5media?5descript@ 00433530     pjmedia-i386-win32-vc14-release-dynamic:errno.obj
 0002:0000a570       ??_C@_0CO@MJBLNMMI@Invalid?5media?5type?5?$CIPJMEDIA_EINV@ 00433570     pjmedia-i386-win32-vc14-release-dynamic:errno.obj
 0002:0000a5a0       ??_C@_0DF@NNKPPHHC@Remote?5does?5not?5support?5DTMF?5?$CIPJ@ 004335a0     pjmedia-i386-win32-vc14-release-dynamic:errno.obj
 0002:0000a5d8       ??_C@_0CJ@ECIKMCPH@Invalid?5DTMF?5digit?5?$CIPJMEDIA_RTP_@ 004335d8     pjmedia-i386-win32-vc14-release-dynamic:errno.obj
 0002:0000a604       ??_C@_0DN@EHCPFJJN@Remote?5does?5not?5support?5RFC?52833@ 00433604     pjmedia-i386-win32-vc14-release-dynamic:errno.obj
 0002:0000a644       ??_C@_0BN@LMCOIKH@Bad?5format?5?$CIPJMEDIA_EBADFMT?$CJ?$AA@ 00433644     pjmedia-i386-win32-vc14-release-dynamic:errno.obj
 0002:0000a664       ??_C@_0DB@GBKLBGPK@Unsupported?5media?5type?5?$CIPJMEDIA_@ 00433664     pjmedia-i386-win32-vc14-release-dynamic:errno.obj
 0002:0000a698       ??_C@_0CI@KDAMKHEL@Invalid?5RTP?5packet?5?$CIPJMEDIA_RTP_@ 00433698     pjmedia-i386-win32-vc14-release-dynamic:errno.obj
 0002:0000a6c0       ??_C@_0DL@KLDJIJLI@Invalid?5RTP?5packing?5?$CIinternal?5er@ 004336c0     pjmedia-i386-win32-vc14-release-dynamic:errno.obj
 0002:0000a6fc       ??_C@_0CJ@NGKNCMFA@Invalid?5RTP?5version?5?$CIPJMEDIA_RTP@ 004336fc     pjmedia-i386-win32-vc14-release-dynamic:errno.obj
 0002:0000a728       ??_C@_0DC@PFPAEINL@RTP?5packet?5SSRC?5id?5mismatch?5?$CIPJM@ 00433728     pjmedia-i386-win32-vc14-release-dynamic:errno.obj
 0002:0000a75c       ??_C@_0DF@KDOADJLK@RTP?5packet?5payload?5type?5mismatch@ 0043375c     pjmedia-i386-win32-vc14-release-dynamic:errno.obj
 0002:0000a794       ??_C@_0CP@OBFABIAL@Invalid?5RTP?5packet?5length?5?$CIPJMED@ 00433794     pjmedia-i386-win32-vc14-release-dynamic:errno.obj
 0002:0000a7c4       ??_C@_0DB@HLHLKEBJ@RTP?5session?5restarted?5?$CIPJMEDIA_R@ 004337c4     pjmedia-i386-win32-vc14-release-dynamic:errno.obj
 0002:0000a7f8       ??_C@_0DG@OPPFJBGL@RTP?5session?5in?5probation?5?$CIPJMEDI@ 004337f8     pjmedia-i386-win32-vc14-release-dynamic:errno.obj
 0002:0000a830       ??_C@_0DI@LFLLIJCB@Bad?5sequence?5number?5in?5RTP?5packe@ 00433830     pjmedia-i386-win32-vc14-release-dynamic:errno.obj
 0002:0000a868       ??_C@_0EE@PHAAOPAG@RTP?5media?5port?5destination?5is?5no@ 00433868     pjmedia-i386-win32-vc14-release-dynamic:errno.obj
 0002:0000a8ac       ??_C@_0CO@BFKJOFNE@RTP?5is?5not?5configured?5?$CIPJMEDIA_R@ 004338ac     pjmedia-i386-win32-vc14-release-dynamic:errno.obj
 0002:0000a8dc       ??_C@_0DI@MEKDIPIO@Media?5ports?5are?5not?5compatible?5?$CI@ 004338dc     pjmedia-i386-win32-vc14-release-dynamic:errno.obj
 0002:0000a918       ??_C@_0EA@EJPEOGMK@Media?5ports?5have?5incompatible?5cl@ 00433918     pjmedia-i386-win32-vc14-release-dynamic:errno.obj
 0002:0000a958       ??_C@_0EL@KOIIKBFP@Media?5ports?5have?5incompatible?5sa@ 00433958     pjmedia-i386-win32-vc14-release-dynamic:errno.obj
 0002:0000a9a4       ??_C@_0DL@FLCJCEPI@Media?5ports?5have?5incompatible?5me@ 004339a4     pjmedia-i386-win32-vc14-release-dynamic:errno.obj
 0002:0000a9e0       ??_C@_0EA@CDICINEI@Media?5ports?5have?5incompatible?5bi@ 004339e0     pjmedia-i386-win32-vc14-release-dynamic:errno.obj
 0002:0000aa20       ??_C@_0EB@DHIDGGBD@Media?5ports?5have?5incompatible?5by@ 00433a20     pjmedia-i386-win32-vc14-release-dynamic:errno.obj
 0002:0000aa68       ??_C@_0EG@FBPNENMF@Media?5ports?5have?5incompatible?5nu@ 00433a68     pjmedia-i386-win32-vc14-release-dynamic:errno.obj
 0002:0000aab0       ??_C@_0CO@CKCFJDML@Not?5a?5valid?5WAVE?5file?5?$CIPJMEDIA_E@ 00433ab0     pjmedia-i386-win32-vc14-release-dynamic:errno.obj
 0002:0000aae0       ??_C@_0DD@FKNCKLNB@Unsupported?5WAVE?5file?5format?5?$CIPJ@ 00433ae0     pjmedia-i386-win32-vc14-release-dynamic:errno.obj
 0002:0000ab14       ??_C@_0CM@HKHLDPDN@WAVE?5file?5too?5short?5?$CIPJMEDIA_EWA@ 00433b14     pjmedia-i386-win32-vc14-release-dynamic:errno.obj
 0002:0000ab40       ??_C@_0DP@HHAKLPGE@Sound?5frame?5too?5large?5for?5file?5b@ 00433b40     pjmedia-i386-win32-vc14-release-dynamic:errno.obj
 0002:0000ab80       ??_C@_0CK@EMOCNCPF@Unsupported?5AVI?5file?5?$CIPJMEDIA_EA@ 00433b80     pjmedia-i386-win32-vc14-release-dynamic:errno.obj
 0002:0000abac       ??_C@_0DF@PKIKHNPA@No?5suitable?5sound?5capture?5device@ 00433bac     pjmedia-i386-win32-vc14-release-dynamic:errno.obj
 0002:0000abe4       ??_C@_0DH@NACBPKOD@No?5suitable?5sound?5playback?5devic@ 00433be4     pjmedia-i386-win32-vc14-release-dynamic:errno.obj
 0002:0000ac1c       ??_C@_0CO@FCJGKBG@Invalid?5sound?5device?5ID?5?$CIPJMEDIA@ 00433c1c     pjmedia-i386-win32-vc14-release-dynamic:errno.obj
 0002:0000ac50       ??_C@_0EB@GAMOPGD@Invalid?5sample?5format?5for?5sound?5@ 00433c50     pjmedia-i386-win32-vc14-release-dynamic:errno.obj
 0002:0000ac98       ??_C@_0FA@HAKEALMK@SRTP?5crypto?9suite?5name?5not?5match@ 00433c98     pjmedia-i386-win32-vc14-release-dynamic:errno.obj
 0002:0000ace8       ??_C@_0EF@DCMAHBDI@Invalid?5SRTP?5key?5length?5for?5spec@ 00433ce8     pjmedia-i386-win32-vc14-release-dynamic:errno.obj
 0002:0000ad30       ??_C@_0DL@BINEGGLM@Unsupported?5SRTP?5crypto?9suite?5?$CIP@ 00433d30     pjmedia-i386-win32-vc14-release-dynamic:errno.obj
 0002:0000ad6c       ??_C@_0DP@DNDEFJI@SRTP?5SDP?5contains?5ambigue?5answer@ 00433d6c     pjmedia-i386-win32-vc14-release-dynamic:errno.obj
 0002:0000adac       ??_C@_0DL@PPDCJAFI@Duplicated?5SRTP?5crypto?5tag?5?$CIPJME@ 00433dac     pjmedia-i386-win32-vc14-release-dynamic:errno.obj
 0002:0000ade8       ??_C@_0DK@EIEPDNB@Invalid?5SRTP?5crypto?5attribute?5?$CIP@ 00433de8     pjmedia-i386-win32-vc14-release-dynamic:errno.obj
 0002:0000ae24       ??_C@_0DH@JABOECDK@Invalid?5SRTP?5crypto?5tag?5?$CIPJMEDIA@ 00433e24     pjmedia-i386-win32-vc14-release-dynamic:errno.obj
 0002:0000ae60       ??_C@_0EE@HKDIFKLN@Invalid?5SDP?5media?5transport?5for?5@ 00433e60     pjmedia-i386-win32-vc14-release-dynamic:errno.obj
 0002:0000aea4       ??_C@_0DM@OPHJDJCK@SRTP?5crypto?5attribute?5required?5?$CI@ 00433ea4     pjmedia-i386-win32-vc14-release-dynamic:errno.obj
 0002:0000aee0       ??_C@_0EO@MOMMHEEA@Secure?5transport?5required?5in?5SDP@ 00433ee0     pjmedia-i386-win32-vc14-release-dynamic:errno.obj
 0002:0000af30       ??_C@_0EK@HIIDIBOJ@SRTP?5parameters?5negotiation?5stil@ 00433f30     pjmedia-i386-win32-vc14-release-dynamic:errno.obj
 0002:0000af80       ??_C@_0EM@HBHPHIDH@No?5matching?5SRTP?5crypto?9suite?5af@ 00433f80     pjmedia-i386-win32-vc14-release-dynamic:errno.obj
 0002:0000afd0       ??_C@_0EN@OKMMPCBN@No?5certificate?5supplied?5by?5peer?5@ 00433fd0     pjmedia-i386-win32-vc14-release-dynamic:errno.obj
 0002:0000b020       ??_C@_0FM@DHHDFBCG@Fingerprint?5from?5signalling?5not?5@ 00434020     pjmedia-i386-win32-vc14-release-dynamic:errno.obj
 0002:0000b07c       ??_C@_0DE@BIABFNHJ@Fingerprint?5not?5found?5?$CIPJMEDIA_S@ 0043407c     pjmedia-i386-win32-vc14-release-dynamic:errno.obj
 0002:0000b0b0       ??_C@_0EG@NFPDPACI@No?5valid?5SRTP?5protection?5profile@ 004340b0     pjmedia-i386-win32-vc14-release-dynamic:errno.obj
 0002:0000b0f8       ??_C@_0BJ@JGEGOKIK@Unknown?5pjmedia?5error?5?$CFd?$AA@ 004340f8     pjmedia-i386-win32-vc14-release-dynamic:errno.obj
 0002:0000b114       ??_C@_0BO@PBEKEGBF@Failed?5to?5create?5circular?5buf?$AA@ 00434114     pjmedia-i386-win32-vc14-release-dynamic:wsola.obj
 0002:0000b134       ??_C@_07LLDBJGIC@wsola?4c?$AA@ 00434134     pjmedia-i386-win32-vc14-release-dynamic:wsola.obj
 0002:0000b13c       __real@3f800000            0043413c     pjmedia-i386-win32-vc14-release-dynamic:wsola.obj
 0002:0000b140       __real@3ff0000000000000    00434140     pjmedia-i386-win32-vc14-release-dynamic:wsola.obj
 0002:0000b148       __real@3ff8000000000000    00434148     pjmedia-i386-win32-vc14-release-dynamic:wsola.obj
 0002:0000b150       __real@401921fb54442d18    00434150     pjmedia-i386-win32-vc14-release-dynamic:wsola.obj
 0002:0000b160       __xmm@00000001000000010000000100000001 00434160     pjmedia-i386-win32-vc14-release-dynamic:wsola.obj
 0002:0000b170       __xmm@00000003000000020000000100000000 00434170     pjmedia-i386-win32-vc14-release-dynamic:wsola.obj
 0002:0000b180       __xmm@3fe00000000000003fe0000000000000 00434180     pjmedia-i386-win32-vc14-release-dynamic:wsola.obj
 0002:0000b190       __xmm@401921fb54442d18401921fb54442d18 00434190     pjmedia-i386-win32-vc14-release-dynamic:wsola.obj
 0002:0000b1a0       __xmm@41f000000000000041f0000000000000 004341a0     pjmedia-i386-win32-vc14-release-dynamic:wsola.obj
 0002:0000b1b0       ??_C@_0BA@LPBIANE@Echo?5suppressor?$AA@ 004341b0     pjmedia-i386-win32-vc14-release-dynamic:echo_common.obj
 0002:0000b1c0       ??_C@_09FHGNGIJH@Speex?5AEC?$AA@ 004341c0     pjmedia-i386-win32-vc14-release-dynamic:echo_common.obj
 0002:0000b1cc       ??_C@_04FACFFFMP@ec?$CFp?$AA@ 004341cc     pjmedia-i386-win32-vc14-release-dynamic:echo_common.obj
 0002:0000b1d4       ??_C@_0M@KMDBLPFK@Creating?5?$CFs?$AA@ 004341d4     pjmedia-i386-win32-vc14-release-dynamic:echo_common.obj
 0002:0000b1e0       ??_C@_0FO@FCNNBEFH@?$CFs?5created?0?5clock_rate?$DN?$CFd?0?5chann@ 004341e0     pjmedia-i386-win32-vc14-release-dynamic:echo_common.obj
 0002:0000b240       ??_C@_0BM@HOHFIKPJ@Latency?5bufferring?5complete?$AA@ 00434240     pjmedia-i386-win32-vc14-release-dynamic:echo_common.obj
 0002:0000b25c       ??_C@_0O@DBBHABPM@Prefetching?4?4?$AA@ 0043425c     pjmedia-i386-win32-vc14-release-dynamic:echo_common.obj
 0002:0000b26c       ??_C@_0DG@GACEANMB@No?5frame?5from?5delay?5buffer?5?$CIthis@ 0043426c     pjmedia-i386-win32-vc14-release-dynamic:echo_common.obj
 0002:0000b2a4       ??_C@_0BA@CMIKGIPP@SRTP?5not?5active?$AA@ 004342a4     pjmedia-i386-win32-vc14-release-dynamic:transport_srtp.obj
 0002:0000b2b4       ??_C@_04LFNPDDCP@SDES?$AA@ 004342b4     pjmedia-i386-win32-vc14-release-dynamic:transport_srtp.obj
 0002:0000b2bc       ??_C@_09LMBOLLED@DTLS?9SRTP?$AA@ 004342bc     pjmedia-i386-win32-vc14-release-dynamic:transport_srtp.obj
 0002:0000b2c8       ??_C@_0CD@NFEKFFAL@SRTP?5started?0?5keying?$DN?$CFs?0?5crypto?$DN@ 004342c8     pjmedia-i386-win32-vc14-release-dynamic:transport_srtp.obj
 0002:0000b304       ??_C@_08MPIAKENM@RTP?1SAVP?$AA@ 00434304     pjmedia-i386-win32-vc14-release-dynamic:transport_srtp.obj
 0002:0000b310       ??_C@_06LAEHEPPF@crypto?$AA@ 00434310     pjmedia-i386-win32-vc14-release-dynamic:transport_srtp.obj
 0002:0000b318       ??_C@_04HIBGFPH@NULL?$AA@  00434318     pjmedia-i386-win32-vc14-release-dynamic:transport_srtp.obj
 0002:0000b320       ??_C@_0BI@FCCBBIDC@AES_256_CM_HMAC_SHA1_80?$AA@ 00434320     pjmedia-i386-win32-vc14-release-dynamic:transport_srtp.obj
 0002:0000b338       ??_C@_0BI@GMECJFFB@AES_256_CM_HMAC_SHA1_32?$AA@ 00434338     pjmedia-i386-win32-vc14-release-dynamic:transport_srtp.obj
 0002:0000b350       ??_C@_0BI@OADHPNHF@AES_CM_128_HMAC_SHA1_80?$AA@ 00434350     pjmedia-i386-win32-vc14-release-dynamic:transport_srtp.obj
 0002:0000b368       ??_C@_0BI@NOFEHABG@AES_CM_128_HMAC_SHA1_32?$AA@ 00434368     pjmedia-i386-win32-vc14-release-dynamic:transport_srtp.obj
 0002:0000b380       ??_C@_0BP@CAGNCNCA@Failed?5to?5restart?5SRTP?0?5err?$DN?$CFs?$AA@ 00434380     pjmedia-i386-win32-vc14-release-dynamic:transport_srtp.obj
 0002:0000b3a0       ??_C@_0CO@EDHKLEPP@Failed?5to?5unprotect?5SRTP?0?5pkt?5si@ 004343a0     pjmedia-i386-win32-vc14-release-dynamic:transport_srtp.obj
 0002:0000b3d0       ??_C@_0CP@OAIPELPD@Failed?5to?5unprotect?5SRTCP?0?5pkt?5s@ 004343d0     pjmedia-i386-win32-vc14-release-dynamic:transport_srtp.obj
 0002:0000b400       ??_C@_0BL@LHHEAKNJ@SRTP?5uses?5keying?5method?5?$CFs?$AA@ 00434400     pjmedia-i386-win32-vc14-release-dynamic:transport_srtp.obj
 0002:0000b41c       ??_C@_0CN@IMPBKLBH@SRTP?5failed?5stop?5underlying?5medi@ 0043441c     pjmedia-i386-win32-vc14-release-dynamic:transport_srtp.obj
 0002:0000b450       ??_C@_0EB@EJGHAKCH@Warning?3?5simple?5random?5generator@ 00434450     pjmedia-i386-win32-vc14-release-dynamic:transport_srtp.obj
 0002:0000b494       ??_C@_0BB@HGEADDBB@transport_srtp?4c?$AA@ 00434494     pjmedia-i386-win32-vc14-release-dynamic:transport_srtp.obj
 0002:0000b4a8       ??_C@_0CE@BAIPFCEP@Failed?5encoding?5plain?5key?5to?5bas@ 004344a8     pjmedia-i386-win32-vc14-release-dynamic:transport_srtp.obj
 0002:0000b4cc       ??_C@_0BA@OGAKIHAO@?$CFd?5?$CFs?5inline?3?$CFs?$AA@ 004344cc     pjmedia-i386-win32-vc14-release-dynamic:transport_srtp.obj
 0002:0000b4dc       ??_C@_0BP@IBJNGPHO@Attribute?5crypto?5expecting?5tag?$AA@ 004344dc     pjmedia-i386-win32-vc14-release-dynamic:transport_srtp.obj
 0002:0000b4fc       ??_C@_0CI@IIDGBGP@Attribute?5crypto?5expecting?5crypt@ 004344fc     pjmedia-i386-win32-vc14-release-dynamic:transport_srtp.obj
 0002:0000b524       ??_C@_02LMMGGCAJ@?3?5?$AA@ 00434524     pjmedia-i386-win32-vc14-release-dynamic:transport_srtp.obj
 0002:0000b528       ??_C@_0CG@JCJFEHFF@Attribute?5crypto?5expecting?5key?5m@ 00434528     pjmedia-i386-win32-vc14-release-dynamic:transport_srtp.obj
 0002:0000b550       ??_C@_06OGMBMJA@inline?$AA@ 00434550     pjmedia-i386-win32-vc14-release-dynamic:transport_srtp.obj
 0002:0000b558       ??_C@_0DC@FIGAPMKM@Attribute?5crypto?5key?5method?5?8?$CF?4?$CK@ 00434558     pjmedia-i386-win32-vc14-release-dynamic:transport_srtp.obj
 0002:0000b58c       ??_C@_02MINBJDHL@?$HM?5?$AA@ 0043458c     pjmedia-i386-win32-vc14-release-dynamic:transport_srtp.obj
 0002:0000b590       ??_C@_0BP@FKKPLPLE@Attribute?5crypto?5expecting?5key?$AA@ 00434590     pjmedia-i386-win32-vc14-release-dynamic:transport_srtp.obj
 0002:0000b5b0       ??_C@_0N@FJKIJMGM@Key?5too?5long?$AA@ 004345b0     pjmedia-i386-win32-vc14-release-dynamic:transport_srtp.obj
 0002:0000b5c0       ??_C@_0CH@PPONEAL@Failed?5decoding?5crypto?5key?5from?5@ 004345c0     pjmedia-i386-win32-vc14-release-dynamic:transport_srtp.obj
 0002:0000b5e8       ??_C@_02MFDMBIJM@ok?$AA@   004345e8     pjmedia-i386-win32-vc14-release-dynamic:transport_srtp.obj
 0002:0000b5ec       ??_C@_0BE@KFOIPNMM@unspecified?5failure?$AA@ 004345ec     pjmedia-i386-win32-vc14-release-dynamic:transport_srtp.obj
 0002:0000b600       ??_C@_0BG@LENPEKHL@unsupported?5parameter?$AA@ 00434600     pjmedia-i386-win32-vc14-release-dynamic:transport_srtp.obj
 0002:0000b618       ??_C@_0BJ@DGLNBGGB@couldn?8t?5allocate?5memory?$AA@ 00434618     pjmedia-i386-win32-vc14-release-dynamic:transport_srtp.obj
 0002:0000b634       ??_C@_0BN@LJIJFBAJ@couldn?8t?5deallocate?5properly?$AA@ 00434634     pjmedia-i386-win32-vc14-release-dynamic:transport_srtp.obj
 0002:0000b654       ??_C@_0BE@KBPICNEA@couldn?8t?5initialize?$AA@ 00434654     pjmedia-i386-win32-vc14-release-dynamic:transport_srtp.obj
 0002:0000b668       ??_C@_0CI@FEPPFOBO@can?8t?5process?5as?5much?5data?5as?5re@ 00434668     pjmedia-i386-win32-vc14-release-dynamic:transport_srtp.obj
 0002:0000b690       ??_C@_0BH@DJJHFLDI@authentication?5failure?$AA@ 00434690     pjmedia-i386-win32-vc14-release-dynamic:transport_srtp.obj
 0002:0000b6a8       ??_C@_0P@MHOCHBCE@cipher?5failure?$AA@ 004346a8     pjmedia-i386-win32-vc14-release-dynamic:transport_srtp.obj
 0002:0000b6b8       ??_C@_0CA@LIFPFHJ@replay?5check?5failed?5?$CIbad?5index?$CJ?$AA@ 004346b8     pjmedia-i386-win32-vc14-release-dynamic:transport_srtp.obj
 0002:0000b6d8       ??_C@_0CE@GCMJOMFK@replay?5check?5failed?5?$CIindex?5too?5o@ 004346d8     pjmedia-i386-win32-vc14-release-dynamic:transport_srtp.obj
 0002:0000b6fc       ??_C@_0BO@KLFALCF@algorithm?5failed?5test?5routine?$AA@ 004346fc     pjmedia-i386-win32-vc14-release-dynamic:transport_srtp.obj
 0002:0000b71c       ??_C@_0BG@JKFIFBMN@unsupported?5operation?$AA@ 0043471c     pjmedia-i386-win32-vc14-release-dynamic:transport_srtp.obj
 0002:0000b734       ??_C@_0BN@PDJKDLOF@no?5appropriate?5context?5found?$AA@ 00434734     pjmedia-i386-win32-vc14-release-dynamic:transport_srtp.obj
 0002:0000b754       ??_C@_0CF@DOHHPHGD@unable?5to?5perform?5desired?5valida@ 00434754     pjmedia-i386-win32-vc14-release-dynamic:transport_srtp.obj
 0002:0000b77c       ??_C@_0BH@NKHPNDDN@can?8t?5use?5key?5any?5more?$AA@ 0043477c     pjmedia-i386-win32-vc14-release-dynamic:transport_srtp.obj
 0002:0000b794       ??_C@_0BH@CDHGOGDE@error?5in?5use?5of?5socket?$AA@ 00434794     pjmedia-i386-win32-vc14-release-dynamic:transport_srtp.obj
 0002:0000b7ac       ??_C@_0BL@DJFHEKEC@error?5in?5use?5POSIX?5signals?$AA@ 004347ac     pjmedia-i386-win32-vc14-release-dynamic:transport_srtp.obj
 0002:0000b7c8       ??_C@_0BD@HFMCMINA@nonce?5check?5failed?$AA@ 004347c8     pjmedia-i386-win32-vc14-release-dynamic:transport_srtp.obj
 0002:0000b7dc       ??_C@_0BD@FCFDDPHP@couldn?8t?5read?5data?$AA@ 004347dc     pjmedia-i386-win32-vc14-release-dynamic:transport_srtp.obj
 0002:0000b7f0       ??_C@_0BE@PIHIJLHG@couldn?8t?5write?5data?$AA@ 004347f0     pjmedia-i386-win32-vc14-release-dynamic:transport_srtp.obj
 0002:0000b804       ??_C@_0BD@PIIFGNCP@error?5pasring?5data?$AA@ 00434804     pjmedia-i386-win32-vc14-release-dynamic:transport_srtp.obj
 0002:0000b818       ??_C@_0BE@FFKLLGEP@error?5encoding?5data?$AA@ 00434818     pjmedia-i386-win32-vc14-release-dynamic:transport_srtp.obj
 0002:0000b82c       ??_C@_0BN@OEPMNKMP@error?5while?5using?5semaphores?$AA@ 0043482c     pjmedia-i386-win32-vc14-release-dynamic:transport_srtp.obj
 0002:0000b84c       ??_C@_0BI@JNCDFEKK@error?5while?5using?5pfkey?$AA@ 0043484c     pjmedia-i386-win32-vc14-release-dynamic:transport_srtp.obj
 0002:0000b864       ??_C@_0BJ@BOBCJFAN@Unknown?5libsrtp?5error?5?$CFd?$AA@ 00434864     pjmedia-i386-win32-vc14-release-dynamic:transport_srtp.obj
 0002:0000b880       ??_C@_0BB@JENPEJDI@?9?9key?5too?5long?9?9?$AA@ 00434880     pjmedia-i386-win32-vc14-release-dynamic:transport_srtp.obj
 0002:0000b894       ??_C@_0O@LPFLKIMI@TX?3?5?$CFs?5key?$DN?$CFs?$AA@ 00434894     pjmedia-i386-win32-vc14-release-dynamic:transport_srtp.obj
 0002:0000b8a4       ??_C@_05EPPOHEBK@?5auth?$AA@ 004348a4     pjmedia-i386-win32-vc14-release-dynamic:transport_srtp.obj
 0002:0000b8ac       ??_C@_04PIHNPOJJ@?5enc?$AA@ 004348ac     pjmedia-i386-win32-vc14-release-dynamic:transport_srtp.obj
 0002:0000b8b4       ??_C@_0BA@BONGIHBG@TX?3?5disable?$CFs?$CFs?$AA@ 004348b4     pjmedia-i386-win32-vc14-release-dynamic:transport_srtp.obj
 0002:0000b8c4       ??_C@_0O@EHJJODHO@RX?3?5?$CFs?5key?$DN?$CFs?$AA@ 004348c4     pjmedia-i386-win32-vc14-release-dynamic:transport_srtp.obj
 0002:0000b8d4       ??_C@_0BA@ENEHOOPC@RX?3?5disable?$CFs?$CFs?$AA@ 004348d4     pjmedia-i386-win32-vc14-release-dynamic:transport_srtp.obj
 0002:0000b8e4       ??_C@_0CG@KDAPJFOB@Failed?5to?5dealloc?5RX?5SRTP?5contex@ 004348e4     pjmedia-i386-win32-vc14-release-dynamic:transport_srtp.obj
 0002:0000b90c       ??_C@_0CG@CHCMAIDE@Failed?5to?5dealloc?5TX?5SRTP?5contex@ 0043490c     pjmedia-i386-win32-vc14-release-dynamic:transport_srtp.obj
 0002:0000b934       ??_C@_0CK@GILFEPIK@Echo?5suppressor?5soft?5reset?4?5Re?9l@ 00434934     pjmedia-i386-win32-vc14-release-dynamic:echo_suppress.obj
 0002:0000b960       ??_C@_0BA@GIJBCBML@echo_suppress?4c?$AA@ 00434960     pjmedia-i386-win32-vc14-release-dynamic:echo_suppress.obj
 0002:0000b970       ??_C@_0FL@JMGHEEIK@Echo?5suppressor?5updated?5at?5t?$DN?$CF03@ 00434970     pjmedia-i386-win32-vc14-release-dynamic:echo_suppress.obj
 0002:0000b9d0       ??_C@_0FK@NODMKGEL@Echo?5suppressor?5learning?5done?5at@ 004349d0     pjmedia-i386-win32-vc14-release-dynamic:echo_suppress.obj
 0002:0000ba2c       ??_C@_0CC@OBLDMFND@Echo?5suppressor?5residue?5?$DN?5?$CFd?4?$CF03@ 00434a2c     pjmedia-i386-win32-vc14-release-dynamic:echo_suppress.obj
 0002:0000ba50       ??_C@_0M@NHLIMPJD@in?5progress?$AA@ 00434a50     pjmedia-i386-win32-vc14-release-dynamic:echo_suppress.obj
 0002:0000ba5c       ??_C@_04GMOJEHPC@done?$AA@ 00434a5c     pjmedia-i386-win32-vc14-release-dynamic:echo_suppress.obj
 0002:0000ba68       ??_C@_0GC@GDBJBODO@Echo?5suppressor?5learning?5?$CFs?5at?5t@ 00434a68     pjmedia-i386-win32-vc14-release-dynamic:echo_suppress.obj
 0002:0000bacc       __real@3f000000            00434acc     pjmedia-i386-win32-vc14-release-dynamic:echo_suppress.obj
 0002:0000bad0       __real@40200000            00434ad0     pjmedia-i386-win32-vc14-release-dynamic:echo_suppress.obj
 0002:0000bad4       __real@40400000            00434ad4     pjmedia-i386-win32-vc14-release-dynamic:echo_suppress.obj
 0002:0000bad8       __real@41980000            00434ad8     pjmedia-i386-win32-vc14-release-dynamic:echo_suppress.obj
 0002:0000badc       __real@41a00000            00434adc     pjmedia-i386-win32-vc14-release-dynamic:echo_suppress.obj
 0002:0000bae0       __real@447a0000            00434ae0     pjmedia-i386-win32-vc14-release-dynamic:echo_suppress.obj
 0002:0000baf0       __xmm@80000000800000008000000080000000 00434af0     pjmedia-i386-win32-vc14-release-dynamic:echo_suppress.obj
 0002:0000bb00       ??_C@_02BAABKJLB@?9?9?$AA@ 00434b00     pjlib-util-i386-win32-vc14-release-dynamic:getopt.obj
 0002:0000bb48       ??_C@_04IFCNACLH@pj?$CFp?$AA@ 00434b48     pjlib-i386-win32-vc14-release-dynamic:os_core_win32.obj
 0002:0000bb50       ??_C@_0BA@NGJFHJA@PJLIB?1No?5memory?$AA@ 00434b50     pjlib-i386-win32-vc14-release-dynamic:os_core_win32.obj
 0002:0000bb60       ??_C@_0BP@NGEKBPIB@pjlib?5?$CFs?5for?5win32?5initialized?$AA@ 00434b60     pjlib-i386-win32-vc14-release-dynamic:os_core_win32.obj
 0002:0000bb80       ??_C@_0BA@FNCACAIG@os_core_win32?4c?$AA@ 00434b80     pjlib-i386-win32-vc14-release-dynamic:os_core_win32.obj
 0002:0000bb90       ??_C@_0CI@EAKIIBBA@Main?5thread?5stack?5max?5usage?$DN?$CFu?5b@ 00434b90     pjlib-i386-win32-vc14-release-dynamic:os_core_win32.obj
 0002:0000bbb8       ??_C@_0BK@BHGJHPMG@?4?4?2src?2pj?2os_core_win32?4c?$AA@ 00434bb8     pjlib-i386-win32-vc14-release-dynamic:os_core_win32.obj
 0002:0000bbd4       ??_C@_05KHEDLION@thr?$CFp?$AA@ 00434bd4     pjlib-i386-win32-vc14-release-dynamic:os_core_win32.obj
 0002:0000bbdc       ??_C@_0CD@GPHECFNA@Thread?5stack?5max?5usage?$DN?$CFu?5by?5?$CFs?3@ 00434bdc     pjlib-i386-win32-vc14-release-dynamic:os_core_win32.obj
 0002:0000bc00       ??_C@_05EJDHHBFJ@mtx?$CFp?$AA@ 00434c00     pjlib-i386-win32-vc14-release-dynamic:os_core_win32.obj
 0002:0000bc08       ??_C@_0BB@PKFOFEEC@?4?4?2src?2pj?2pool?4c?$AA@ 00434c08     pjlib-i386-win32-vc14-release-dynamic:pool.obj
 0002:0000bc1c       ??_C@_0BJ@MJKAJPML@?4?4?2src?2pj?2pool_caching?4c?$AA@ 00434c1c     pjlib-i386-win32-vc14-release-dynamic:pool_caching.obj
 0002:0000bc38       ??_C@_0M@IGFPEOLJ@cachingpool?$AA@ 00434c38     pjlib-i386-win32-vc14-release-dynamic:pool_caching.obj
 0002:0000bc44       ??_C@_0DD@ECGDPCBA@Pool?5is?5not?5released?5by?5applicat@ 00434c44     pjlib-i386-win32-vc14-release-dynamic:pool_caching.obj
 0002:0000bc78       ??_C@_0BH@BBPHJKOA@?5Dumping?5caching?5pool?3?$AA@ 00434c78     pjlib-i386-win32-vc14-release-dynamic:pool_caching.obj
 0002:0000bc90       ??_C@_08COPEICHG@cachpool?$AA@ 00434c90     pjlib-i386-win32-vc14-release-dynamic:pool_caching.obj
 0002:0000bc9c       ??_C@_0CN@DOKPIIOH@?5?5?5Capacity?$DN?$CFu?0?5max_capacity?$DN?$CFu?0@ 00434c9c     pjlib-i386-win32-vc14-release-dynamic:pool_caching.obj
 0002:0000bccc       ??_C@_0BM@IDLDGCC@?5?5Dumping?5all?5active?5pools?3?$AA@ 00434ccc     pjlib-i386-win32-vc14-release-dynamic:pool_caching.obj
 0002:0000bce8       ??_C@_0CA@MMLIKIEG@?5?5?5?$CF16s?3?5?$CF8d?5of?5?$CF8d?5?$CI?$CFd?$CF?$CF?$CJ?5used?$AA@ 00434ce8     pjlib-i386-win32-vc14-release-dynamic:pool_caching.obj
 0002:0000bd08       ??_C@_0CB@GKBJPDKG@?5?5Total?5?$CF9d?5of?5?$CF9d?5?$CI?$CFd?5?$CF?$CF?$CJ?5used?$CB@ 00434d08     pjlib-i386-win32-vc14-release-dynamic:pool_caching.obj
 0002:0000bdf0       ??_C@_0BM@FLPPOGAG@Unknown?5Error?5?$CIPJ_EUNKNOWN?$CJ?$AA@ 00434df0     pjlib-i386-win32-vc14-release-dynamic:errno.obj
 0002:0000be0c       ??_C@_0CA@DCLOOJGD@Pending?5operation?5?$CIPJ_EPENDING?$CJ?$AA@ 00434e0c     pjlib-i386-win32-vc14-release-dynamic:errno.obj
 0002:0000be2c       ??_C@_0CO@GABEOAFF@Too?5many?5connecting?5sockets?5?$CIPJ_@ 00434e2c     pjlib-i386-win32-vc14-release-dynamic:errno.obj
 0002:0000be5c       ??_C@_0CG@CBCJBJGD@Invalid?5value?5or?5argument?5?$CIPJ_EI@ 00434e5c     pjlib-i386-win32-vc14-release-dynamic:errno.obj
 0002:0000be84       ??_C@_0CA@GJABNEKD@Name?5too?5long?5?$CIPJ_ENAMETOOLONG?$CJ?$AA@ 00434e84     pjlib-i386-win32-vc14-release-dynamic:errno.obj
 0002:0000bea4       ??_C@_0BJ@JNKLPII@Not?5found?5?$CIPJ_ENOTFOUND?$CJ?$AA@ 00434ea4     pjlib-i386-win32-vc14-release-dynamic:errno.obj
 0002:0000bec0       ??_C@_0BO@GOLCMJKK@Not?5enough?5memory?5?$CIPJ_ENOMEM?$CJ?$AA@ 00434ec0     pjlib-i386-win32-vc14-release-dynamic:errno.obj
 0002:0000bee0       ??_C@_0BI@HHGDCAID@BUG?5DETECTED?$CB?5?$CIPJ_EBUG?$CJ?$AA@ 00434ee0     pjlib-i386-win32-vc14-release-dynamic:errno.obj
 0002:0000bef8       ??_C@_0CD@JOGIDHPJ@Operation?5timed?5out?5?$CIPJ_ETIMEDOU@ 00434ef8     pjlib-i386-win32-vc14-release-dynamic:errno.obj
 0002:0000bf1c       ??_C@_0DF@MIFNAIHL@Too?5many?5objects?5of?5the?5specifie@ 00434f1c     pjlib-i386-win32-vc14-release-dynamic:errno.obj
 0002:0000bf54       ??_C@_0BK@OMPILOH@Object?5is?5busy?5?$CIPJ_EBUSY?$CJ?$AA@ 00434f54     pjlib-i386-win32-vc14-release-dynamic:errno.obj
 0002:0000bf70       ??_C@_0CP@BAIBJOJE@Option?1operation?5is?5not?5supporte@ 00434f70     pjlib-i386-win32-vc14-release-dynamic:errno.obj
 0002:0000bfa0       ??_C@_0CC@OEEEEEML@Invalid?5operation?5?$CIPJ_EINVALIDOP@ 00434fa0     pjlib-i386-win32-vc14-release-dynamic:errno.obj
 0002:0000bfc4       ??_C@_0CE@KDDMJLGF@Operation?5cancelled?5?$CIPJ_ECANCELL@ 00434fc4     pjlib-i386-win32-vc14-release-dynamic:errno.obj
 0002:0000bfe8       ??_C@_0CD@LODOFNLC@Object?5already?5exists?5?$CIPJ_EEXIST@ 00434fe8     pjlib-i386-win32-vc14-release-dynamic:errno.obj
 0002:0000c00c       ??_C@_0BG@GMBDFNLN@End?5of?5file?5?$CIPJ_EEOF?$CJ?$AA@ 0043500c     pjlib-i386-win32-vc14-release-dynamic:errno.obj
 0002:0000c024       ??_C@_0BN@PCCNBFLN@Size?5is?5too?5big?5?$CIPJ_ETOOBIG?$CJ?$AA@ 00435024     pjlib-i386-win32-vc14-release-dynamic:errno.obj
 0002:0000c044       ??_C@_0DB@FDCHLEID@gethostbyname?$CI?$CJ?5has?5returned?5err@ 00435044     pjlib-i386-win32-vc14-release-dynamic:errno.obj
 0002:0000c078       ??_C@_0CB@MGGLJMNO@Size?5is?5too?5short?5?$CIPJ_ETOOSMALL?$CJ@ 00435078     pjlib-i386-win32-vc14-release-dynamic:errno.obj
 0002:0000c09c       ??_C@_0BG@NBDJGAFI@Ignored?5?$CIPJ_EIGNORED?$CJ?$AA@ 0043509c     pjlib-i386-win32-vc14-release-dynamic:errno.obj
 0002:0000c0b4       ??_C@_0CH@OGOOBJBE@IPv6?5is?5not?5supported?5?$CIPJ_EIPV6N@ 004350b4     pjlib-i386-win32-vc14-release-dynamic:errno.obj
 0002:0000c0dc       ??_C@_0CK@DJAHHNOI@Unsupported?5address?5family?5?$CIPJ_E@ 004350dc     pjlib-i386-win32-vc14-release-dynamic:errno.obj
 0002:0000c108       ??_C@_0CD@PDGCJOJH@Object?5no?5longer?5exists?5?$CIPJ_EGON@ 00435108     pjlib-i386-win32-vc14-release-dynamic:errno.obj
 0002:0000c12c       ??_C@_0CI@LBHALONI@Socket?5is?5in?5bad?5state?5?$CIPJ_ESOCK@ 0043512c     pjlib-i386-win32-vc14-release-dynamic:errno.obj
 0002:0000c154       ??_C@_0BH@ONDLFCEA@Unknown?5pjlib?5error?5?$CFd?$AA@ 00435154     pjlib-i386-win32-vc14-release-dynamic:errno.obj
 0002:0000c16c       ??_C@_07PBILKAFL@Success?$AA@ 0043516c     pjlib-i386-win32-vc14-release-dynamic:errno.obj
 0002:0000c174       ??_C@_0BB@BIKLJNJD@Unknown?5error?5?$CFd?$AA@ 00435174     pjlib-i386-win32-vc14-release-dynamic:errno.obj
 0002:0000c188       ??_C@_05NAOIJFC@Error?$AA@ 00435188     pjlib-i386-win32-vc14-release-dynamic:errno.obj
 0002:0000c190       ??_C@_06DJHOIPC@?$CFs?3?5?$CFs?$AA@ 00435190     pjlib-i386-win32-vc14-release-dynamic:errno.obj
 0002:0000c198       ??_C@_0BA@CLLJDBF@?4?4?2src?2pj?2log?4c?$AA@ 00435198     pjlib-i386-win32-vc14-release-dynamic:log.obj
 0002:0000c1a8       ??_C@_06DDFOEFIF@FATAL?3?$AA@ 004351a8     pjlib-i386-win32-vc14-release-dynamic:log.obj
 0002:0000c1b0       ??_C@_06PONDCDME@ERROR?3?$AA@ 004351b0     pjlib-i386-win32-vc14-release-dynamic:log.obj
 0002:0000c1b8       ??_C@_06OHJPOJDB@?5WARN?3?$AA@ 004351b8     pjlib-i386-win32-vc14-release-dynamic:log.obj
 0002:0000c1c0       ??_C@_06ICKKLHPE@?5INFO?3?$AA@ 004351c0     pjlib-i386-win32-vc14-release-dynamic:log.obj
 0002:0000c1c8       ??_C@_06DNOFLLB@DEBUG?3?$AA@ 004351c8     pjlib-i386-win32-vc14-release-dynamic:log.obj
 0002:0000c1d0       ??_C@_06ELIFFDKB@TRACE?3?$AA@ 004351d0     pjlib-i386-win32-vc14-release-dynamic:log.obj
 0002:0000c1d8       ??_C@_06HGKAKJPG@DETRC?3?$AA@ 004351d8     pjlib-i386-win32-vc14-release-dynamic:log.obj
 0002:0000c1e0       ??_C@_03KOEHGMDN@Sun?$AA@  004351e0     pjlib-i386-win32-vc14-release-dynamic:log.obj
 0002:0000c1e4       ??_C@_03PDAGKDH@Mon?$AA@   004351e4     pjlib-i386-win32-vc14-release-dynamic:log.obj
 0002:0000c1e8       ??_C@_03NAGEINEP@Tue?$AA@  004351e8     pjlib-i386-win32-vc14-release-dynamic:log.obj
 0002:0000c1ec       ??_C@_03MHOMLAJA@Wed?$AA@  004351ec     pjlib-i386-win32-vc14-release-dynamic:log.obj
 0002:0000c1f0       ??_C@_03IOFIKPDN@Thu?$AA@  004351f0     pjlib-i386-win32-vc14-release-dynamic:log.obj
 0002:0000c1f4       ??_C@_03IDIOELNC@Fri?$AA@  004351f4     pjlib-i386-win32-vc14-release-dynamic:log.obj
 0002:0000c1f8       ??_C@_03FEFJNEK@Sat?$AA@   004351f8     pjlib-i386-win32-vc14-release-dynamic:log.obj
 0002:0000c1fc       ??_C@_0BO@BGMDCDKP@?$DMlogging?5error?3?5msg?5too?5long?$DO?$AA@ 004351fc     pjlib-i386-win32-vc14-release-dynamic:log.obj
 0002:0000c21c       ??_C@_0BP@JMMENEAD@?4?4?2src?2pj?2pool_policy_malloc?4c?$AA@ 0043521c     pjlib-i386-win32-vc14-release-dynamic:pool_policy_malloc.obj
 0002:0000c23c       ??_C@_0BD@ELEDKDKB@?4?4?2src?2pj?2string?4c?$AA@ 0043523c     pjlib-i386-win32-vc14-release-dynamic:string.obj
 0002:0000c250       __real@00000000            00435250     pjlib-i386-win32-vc14-release-dynamic:string.obj
 0002:0000c254       __real@41200000            00435254     pjlib-i386-win32-vc14-release-dynamic:string.obj
 0002:0000c3e8       ??_C@_0CD@FNMHLHMI@Interrupted?5system?5call?5?$CIWSAEINT@ 004353e8     pjlib-i386-win32-vc14-release-dynamic:os_error_win32.obj
 0002:0000c40c       ??_C@_0BL@OKPDNKLH@Bad?5file?5number?5?$CIWSAEBADF?$CJ?$AA@ 0043540c     pjlib-i386-win32-vc14-release-dynamic:os_error_win32.obj
 0002:0000c428       ??_C@_0BO@BMBEEPBP@Permission?5denied?5?$CIWSAEACCES?$CJ?$AA@ 00435428     pjlib-i386-win32-vc14-release-dynamic:os_error_win32.obj
 0002:0000c448       ??_C@_0BI@LAKHPJJ@Bad?5address?5?$CIWSAEFAULT?$CJ?$AA@ 00435448     pjlib-i386-win32-vc14-release-dynamic:os_error_win32.obj
 0002:0000c460       ??_C@_0BN@FEIDINKH@Invalid?5argument?5?$CIWSAEINVAL?$CJ?$AA@ 00435460     pjlib-i386-win32-vc14-release-dynamic:os_error_win32.obj
 0002:0000c480       ??_C@_0CC@HMKKNDGL@Too?5many?5open?5sockets?5?$CIWSAEMFILE@ 00435480     pjlib-i386-win32-vc14-release-dynamic:os_error_win32.obj
 0002:0000c4a4       ??_C@_0CH@GCPPFMGM@Operation?5would?5block?5?$CIWSAEWOULD@ 004354a4     pjlib-i386-win32-vc14-release-dynamic:os_error_win32.obj
 0002:0000c4cc       ??_C@_0CL@DKGHEPCD@Operation?5now?5in?5progress?5?$CIWSAEI@ 004354cc     pjlib-i386-win32-vc14-release-dynamic:os_error_win32.obj
 0002:0000c4f8       ??_C@_0CM@BEMCBKDH@Operation?5already?5in?5progress?5?$CIW@ 004354f8     pjlib-i386-win32-vc14-release-dynamic:os_error_win32.obj
 0002:0000c524       ??_C@_0CN@PAFKDEBN@Socket?5operation?5on?5non?9socket?5?$CI@ 00435524     pjlib-i386-win32-vc14-release-dynamic:os_error_win32.obj
 0002:0000c554       ??_C@_0CP@HCDICECK@Destination?5address?5required?5?$CIWS@ 00435554     pjlib-i386-win32-vc14-release-dynamic:os_error_win32.obj
 0002:0000c584       ??_C@_0BP@LNFPBFEK@Message?5too?5long?5?$CIWSAEMSGSIZE?$CJ?$AA@ 00435584     pjlib-i386-win32-vc14-release-dynamic:os_error_win32.obj
 0002:0000c5a4       ??_C@_0CP@MMIMIEMF@Protocol?5wrong?5type?5for?5socket?5?$CI@ 004355a4     pjlib-i386-win32-vc14-release-dynamic:os_error_win32.obj
 0002:0000c5d4       ??_C@_0CF@HNFLHOHA@Bad?5protocol?5option?5?$CIWSAENOPROTO@ 004355d4     pjlib-i386-win32-vc14-release-dynamic:os_error_win32.obj
 0002:0000c5fc       ??_C@_0CM@HPGHEHCE@Protocol?5not?5supported?5?$CIWSAEPROT@ 004355fc     pjlib-i386-win32-vc14-release-dynamic:os_error_win32.obj
 0002:0000c628       ??_C@_0CP@JLBNHCOL@Socket?5type?5not?5supported?5?$CIWSAES@ 00435628     pjlib-i386-win32-vc14-release-dynamic:os_error_win32.obj
 0002:0000c658       ??_C@_0DC@GJMFANID@Operation?5not?5supported?5on?5socke@ 00435658     pjlib-i386-win32-vc14-release-dynamic:os_error_win32.obj
 0002:0000c68c       ??_C@_0DA@GFNBENIG@Protocol?5family?5not?5supported?5?$CIW@ 0043568c     pjlib-i386-win32-vc14-release-dynamic:os_error_win32.obj
 0002:0000c6bc       ??_C@_0CP@MMKHGIFC@Address?5family?5not?5supported?5?$CIWS@ 004356bc     pjlib-i386-win32-vc14-release-dynamic:os_error_win32.obj
 0002:0000c6ec       ??_C@_0CH@OCKNFBKE@Address?5already?5in?5use?5?$CIWSAEADDR@ 004356ec     pjlib-i386-win32-vc14-release-dynamic:os_error_win32.obj
 0002:0000c714       ??_C@_0DC@FJJPJPOD@Can?8t?5assign?5requested?5address?5?$CI@ 00435714     pjlib-i386-win32-vc14-release-dynamic:os_error_win32.obj
 0002:0000c748       ??_C@_0BO@IICKDHLJ@Network?5is?5down?5?$CIWSAENETDOWN?$CJ?$AA@ 00435748     pjlib-i386-win32-vc14-release-dynamic:os_error_win32.obj
 0002:0000c768       ??_C@_0CI@NKJAACME@Network?5is?5unreachable?5?$CIWSAENETU@ 00435768     pjlib-i386-win32-vc14-release-dynamic:os_error_win32.obj
 0002:0000c790       ??_C@_0CE@LJEEEFEC@Net?5connection?5reset?5?$CIWSAENETRES@ 00435790     pjlib-i386-win32-vc14-release-dynamic:os_error_win32.obj
 0002:0000c7b4       ??_C@_0DD@PGDIHOBG@Software?5caused?5connection?5abort@ 004357b4     pjlib-i386-win32-vc14-release-dynamic:os_error_win32.obj
 0002:0000c7e8       ??_C@_0CJ@PJHCFAAN@Connection?5reset?5by?5peer?5?$CIWSAECO@ 004357e8     pjlib-i386-win32-vc14-release-dynamic:os_error_win32.obj
 0002:0000c814       ??_C@_0CH@EKNGIMKN@No?5buffer?5space?5available?5?$CIWSAEN@ 00435814     pjlib-i386-win32-vc14-release-dynamic:os_error_win32.obj
 0002:0000c83c       ??_C@_0CJ@JOPBNNOD@Socket?5is?5already?5connected?5?$CIWSA@ 0043583c     pjlib-i386-win32-vc14-release-dynamic:os_error_win32.obj
 0002:0000c868       ??_C@_0CG@CECDMHLL@Socket?5is?5not?5connected?5?$CIWSAENOT@ 00435868     pjlib-i386-win32-vc14-release-dynamic:os_error_win32.obj
 0002:0000c890       ??_C@_0DA@JGJMJPNM@Can?8t?5send?5after?5socket?5shutdown@ 00435890     pjlib-i386-win32-vc14-release-dynamic:os_error_win32.obj
 0002:0000c8c0       ??_C@_0DE@CAILNFFE@Too?5many?5references?0?5can?8t?5splic@ 004358c0     pjlib-i386-win32-vc14-release-dynamic:os_error_win32.obj
 0002:0000c8f4       ??_C@_0CE@IIKHBGF@Connection?5timed?5out?5?$CIWSAETIMEDO@ 004358f4     pjlib-i386-win32-vc14-release-dynamic:os_error_win32.obj
 0002:0000c918       ??_C@_0CF@JMKFBJH@Connection?5refused?5?$CIWSAECONNREFU@ 00435918     pjlib-i386-win32-vc14-release-dynamic:os_error_win32.obj
 0002:0000c940       ??_C@_0CN@FCKBNFMB@Too?5many?5levels?5of?5symbolic?5link@ 00435940     pjlib-i386-win32-vc14-release-dynamic:os_error_win32.obj
 0002:0000c970       ??_C@_0CF@MOFKOMBB@File?5name?5too?5long?5?$CIWSAENAMETOOL@ 00435970     pjlib-i386-win32-vc14-release-dynamic:os_error_win32.obj
 0002:0000c998       ??_C@_0BM@NCJCEEDP@Host?5is?5down?5?$CIWSAEHOSTDOWN?$CJ?$AA@ 00435998     pjlib-i386-win32-vc14-release-dynamic:os_error_win32.obj
 0002:0000c9b4       ??_C@_0CD@ECJOJHBH@No?5route?5to?5host?5?$CIWSAEHOSTUNREAC@ 004359b4     pjlib-i386-win32-vc14-release-dynamic:os_error_win32.obj
 0002:0000c9d8       ??_C@_0CD@NEFLEHEG@Directory?5not?5empty?5?$CIWSAENOTEMPT@ 004359d8     pjlib-i386-win32-vc14-release-dynamic:os_error_win32.obj
 0002:0000c9fc       ??_C@_0CB@GPCGLHOJ@Too?5many?5processes?5?$CIWSAEPROCLIM?$CJ@ 004359fc     pjlib-i386-win32-vc14-release-dynamic:os_error_win32.obj
 0002:0000ca20       ??_C@_0BL@IGHJMJKO@Too?5many?5users?5?$CIWSAEUSERS?$CJ?$AA@ 00435a20     pjlib-i386-win32-vc14-release-dynamic:os_error_win32.obj
 0002:0000ca3c       ??_C@_0CA@MIOFDKMA@Disc?5quota?5exceeded?5?$CIWSAEDQUOT?$CJ?$AA@ 00435a3c     pjlib-i386-win32-vc14-release-dynamic:os_error_win32.obj
 0002:0000ca5c       ??_C@_0CC@IMLIDHNH@Stale?5NFS?5file?5handle?5?$CIWSAESTALE@ 00435a5c     pjlib-i386-win32-vc14-release-dynamic:os_error_win32.obj
 0002:0000ca80       ??_C@_0CP@MLAFGPOA@Too?5many?5levels?5of?5remote?5in?5pat@ 00435a80     pjlib-i386-win32-vc14-release-dynamic:os_error_win32.obj
 0002:0000cab0       ??_C@_0CP@IBAEMKGH@Network?5system?5is?5unavailable?5?$CIW@ 00435ab0     pjlib-i386-win32-vc14-release-dynamic:os_error_win32.obj
 0002:0000cae0       ??_C@_0DC@BLAKHMMJ@Winsock?5version?5out?5of?5range?5?$CIWS@ 00435ae0     pjlib-i386-win32-vc14-release-dynamic:os_error_win32.obj
 0002:0000cb14       ??_C@_0CO@HPDHHDHA@WSAStartup?5not?5yet?5called?5?$CIWSANO@ 00435b14     pjlib-i386-win32-vc14-release-dynamic:os_error_win32.obj
 0002:0000cb44       ??_C@_0CL@GFDHEKLB@Graceful?5shutdown?5in?5progress?5?$CIW@ 00435b44     pjlib-i386-win32-vc14-release-dynamic:os_error_win32.obj
 0002:0000cb70       ??_C@_0CD@OEALOMDH@Host?5not?5found?5?$CIWSAHOST_NOT_FOUN@ 00435b70     pjlib-i386-win32-vc14-release-dynamic:os_error_win32.obj
 0002:0000cb94       ??_C@_0DB@KFPHELLI@No?5host?5data?5of?5that?5type?5was?5fo@ 00435b94     pjlib-i386-win32-vc14-release-dynamic:os_error_win32.obj
 0002:0000cbc8       ??_C@_0BE@JPHLLAEM@Win32?5error?5code?5?$CFu?$AA@ 00435bc8     pjlib-i386-win32-vc14-release-dynamic:os_error_win32.obj
 0002:0000cbdc       ??_C@_05LIJONKFG@ioq?$CFp?$AA@ 00435bdc     pjlib-i386-win32-vc14-release-dynamic:ioqueue_select.obj
 0002:0000cbe4       ??_C@_0CA@IMDCINDN@select?$CI?$CJ?5I?1O?5Queue?5created?5?$CI?$CFp?$CJ?$AA@ 00435be4     pjlib-i386-win32-vc14-release-dynamic:ioqueue_select.obj
 0002:0000cc04       ??_C@_05PHKAINEA@pjlib?$AA@ 00435c04     pjlib-i386-win32-vc14-release-dynamic:ioqueue_select.obj
 0002:0000cc0c       _PJ_MSG_OOB                00435c0c     pjlib-i386-win32-vc14-release-dynamic:sock_bsd.obj
 0002:0000cc10       _PJ_MSG_PEEK               00435c10     pjlib-i386-win32-vc14-release-dynamic:sock_bsd.obj
 0002:0000cc14       _PJ_MSG_DONTROUTE          00435c14     pjlib-i386-win32-vc14-release-dynamic:sock_bsd.obj
 0002:0000cc18       _PJ_AF_UNSPEC              00435c18     pjlib-i386-win32-vc14-release-dynamic:sock_bsd.obj
 0002:0000cc1c       _PJ_AF_UNIX                00435c1c     pjlib-i386-win32-vc14-release-dynamic:sock_bsd.obj
 0002:0000cc20       _PJ_AF_INET                00435c20     pjlib-i386-win32-vc14-release-dynamic:sock_bsd.obj
 0002:0000cc24       _PJ_AF_INET6               00435c24     pjlib-i386-win32-vc14-release-dynamic:sock_bsd.obj
 0002:0000cc28       _PJ_AF_PACKET              00435c28     pjlib-i386-win32-vc14-release-dynamic:sock_bsd.obj
 0002:0000cc2c       _PJ_AF_IRDA                00435c2c     pjlib-i386-win32-vc14-release-dynamic:sock_bsd.obj
 0002:0000cc30       _PJ_SOCK_STREAM            00435c30     pjlib-i386-win32-vc14-release-dynamic:sock_bsd.obj
 0002:0000cc34       _PJ_SOCK_DGRAM             00435c34     pjlib-i386-win32-vc14-release-dynamic:sock_bsd.obj
 0002:0000cc38       _PJ_SOCK_RAW               00435c38     pjlib-i386-win32-vc14-release-dynamic:sock_bsd.obj
 0002:0000cc3c       _PJ_SOCK_RDM               00435c3c     pjlib-i386-win32-vc14-release-dynamic:sock_bsd.obj
 0002:0000cc40       _PJ_SOL_SOCKET             00435c40     pjlib-i386-win32-vc14-release-dynamic:sock_bsd.obj
 0002:0000cc44       _PJ_SOL_IP                 00435c44     pjlib-i386-win32-vc14-release-dynamic:sock_bsd.obj
 0002:0000cc48       _PJ_SOL_TCP                00435c48     pjlib-i386-win32-vc14-release-dynamic:sock_bsd.obj
 0002:0000cc4c       _PJ_SOL_UDP                00435c4c     pjlib-i386-win32-vc14-release-dynamic:sock_bsd.obj
 0002:0000cc50       _PJ_SOL_IPV6               00435c50     pjlib-i386-win32-vc14-release-dynamic:sock_bsd.obj
 0002:0000cc54       _PJ_IP_TOS                 00435c54     pjlib-i386-win32-vc14-release-dynamic:sock_bsd.obj
 0002:0000cc58       _PJ_IPTOS_LOWDELAY         00435c58     pjlib-i386-win32-vc14-release-dynamic:sock_bsd.obj
 0002:0000cc5c       _PJ_IPTOS_THROUGHPUT       00435c5c     pjlib-i386-win32-vc14-release-dynamic:sock_bsd.obj
 0002:0000cc60       _PJ_IPTOS_RELIABILITY      00435c60     pjlib-i386-win32-vc14-release-dynamic:sock_bsd.obj
 0002:0000cc64       _PJ_IPTOS_MINCOST          00435c64     pjlib-i386-win32-vc14-release-dynamic:sock_bsd.obj
 0002:0000cc68       _PJ_IPV6_TCLASS            00435c68     pjlib-i386-win32-vc14-release-dynamic:sock_bsd.obj
 0002:0000cc6c       _PJ_SO_TYPE                00435c6c     pjlib-i386-win32-vc14-release-dynamic:sock_bsd.obj
 0002:0000cc70       _PJ_SO_RCVBUF              00435c70     pjlib-i386-win32-vc14-release-dynamic:sock_bsd.obj
 0002:0000cc74       _PJ_SO_SNDBUF              00435c74     pjlib-i386-win32-vc14-release-dynamic:sock_bsd.obj
 0002:0000cc78       _PJ_TCP_NODELAY            00435c78     pjlib-i386-win32-vc14-release-dynamic:sock_bsd.obj
 0002:0000cc7c       _PJ_SO_REUSEADDR           00435c7c     pjlib-i386-win32-vc14-release-dynamic:sock_bsd.obj
 0002:0000cc80       _PJ_SO_NOSIGPIPE           00435c80     pjlib-i386-win32-vc14-release-dynamic:sock_bsd.obj
 0002:0000cc84       _PJ_SO_PRIORITY            00435c84     pjlib-i386-win32-vc14-release-dynamic:sock_bsd.obj
 0002:0000cc88       _PJ_IP_MULTICAST_IF        00435c88     pjlib-i386-win32-vc14-release-dynamic:sock_bsd.obj
 0002:0000cc8c       _PJ_IP_MULTICAST_TTL       00435c8c     pjlib-i386-win32-vc14-release-dynamic:sock_bsd.obj
 0002:0000cc90       _PJ_IP_MULTICAST_LOOP      00435c90     pjlib-i386-win32-vc14-release-dynamic:sock_bsd.obj
 0002:0000cc94       _PJ_IP_ADD_MEMBERSHIP      00435c94     pjlib-i386-win32-vc14-release-dynamic:sock_bsd.obj
 0002:0000cc98       _PJ_IP_DROP_MEMBERSHIP     00435c98     pjlib-i386-win32-vc14-release-dynamic:sock_bsd.obj
 0002:0000cc9c       ??_C@_0BF@KBJNEAPB@?4?4?2src?2pj?2sock_bsd?4c?$AA@ 00435c9c     pjlib-i386-win32-vc14-release-dynamic:sock_bsd.obj
 0002:0000ccb4       ??_C@_0CD@KFHCCJFN@?$CB?$CB?$CBFATAL?3?5unhandled?5exception?5?$CFs@ 00435cb4     pjlib-i386-win32-vc14-release-dynamic:except.obj
 0002:0000ccd8       ??_C@_08PDFMOJIE@except?4c?$AA@ 00435cd8     pjlib-i386-win32-vc14-release-dynamic:except.obj
 0002:0000cce4       ??_C@_0N@GJOLEKJC@?$DMInvalid?5ID?$DO?$AA@ 00435ce4     pjlib-i386-win32-vc14-release-dynamic:except.obj
 0002:0000ccf4       ??_C@_0N@LJPLLMIL@exception?5?$CFd?$AA@ 00435cf4     pjlib-i386-win32-vc14-release-dynamic:except.obj
 0002:0000cd08       __real@408f400000000000    00435d08     pjlib-i386-win32-vc14-release-dynamic:os_timestamp_common.obj
 0002:0000cd10       __real@41cdcd6500000000    00435d10     pjlib-i386-win32-vc14-release-dynamic:os_timestamp_common.obj
 0002:0000cd18       ??_C@_0BB@KPBPCFEE@?4?4?2src?2pj?2rand?4c?$AA@ 00435d18     pjlib-i386-win32-vc14-release-dynamic:rand.obj
 0002:0000cd2c       _PJ_GUID_STRING_LENGTH     00435d2c     pjlib-i386-win32-vc14-release-dynamic:guid_win32.obj
 0002:0000cd30       ??_C@_0BH@DLOCENPK@?4?4?2src?2pj?2guid_win32?4c?$AA@ 00435d30     pjlib-i386-win32-vc14-release-dynamic:guid_win32.obj
 0002:0000cd48       ??_C@_04FIDOICFN@2?410?$AA@ 00435d48     pjlib-i386-win32-vc14-release-dynamic:config.obj
 0002:0000cd50       ??_C@_08DOCHLGNA@config?4c?$AA@ 00435d50     pjlib-i386-win32-vc14-release-dynamic:config.obj
 0002:0000cd5c       ??_C@_0BO@KBBNBAFA@?4?4?2src?2pj?2log_writer_stdout?4c?$AA@ 00435d5c     pjlib-i386-win32-vc14-release-dynamic:log_writer_stdout.obj
 0002:0000cd7c       ??_C@_02DKCKIIND@?$CFs?$AA@ 00435d7c     pjlib-i386-win32-vc14-release-dynamic:log_writer_stdout.obj
 0002:0000cd80       ??_C@_0BC@OIAJPKFB@?4?4?2src?2pj?2types?4c?$AA@ 00435d80     pjlib-i386-win32-vc14-release-dynamic:types.obj
 0002:0000cd94       ??_C@_0BI@FIAAHKJ@?4?4?2src?2pj?2sock_select?4c?$AA@ 00435d94     pjlib-i386-win32-vc14-release-dynamic:sock_select.obj
 0002:000171b0       __real@401c000000000000    004401b0     libresample-i386-win32-vc14-release-dynamic:resamplesubs.obj
 0002:000171b8       __real@4040800000000000    004401b8     libresample-i386-win32-vc14-release-dynamic:resamplesubs.obj
 0002:000171c0       __real@4060000000000000    004401c0     libresample-i386-win32-vc14-release-dynamic:resamplesubs.obj
 0002:000171c8       __real@4070000000000000    004401c8     libresample-i386-win32-vc14-release-dynamic:resamplesubs.obj
 0002:000171d0       __real@40c9a40000000000    004401d0     libresample-i386-win32-vc14-release-dynamic:resamplesubs.obj
 0002:000171d8       __real@40cccd0000000000    004401d8     libresample-i386-win32-vc14-release-dynamic:resamplesubs.obj
 0002:000171e0       __real@40e0000000000000    004401e0     libresample-i386-win32-vc14-release-dynamic:resamplesubs.obj
 0002:000171e8       ??_C@_0EJ@GHABDNKB@No?5playback?5frame?5available?5?$CIyou@ 004401e8     libspeex-i386-win32-vc14-release-dynamic:mdf.obj
 0002:00017234       ??_C@_0M@FDFEAFGN@warning?3?5?$CFs?$AA@ 00440234     libspeex-i386-win32-vc14-release-dynamic:mdf.obj
 0002:00017240       ??_C@_05JPFLDMPI@speex?$AA@ 00440240     libspeex-i386-win32-vc14-release-dynamic:mdf.obj
 0002:00017248       ??_C@_0CF@JGKBANKE@internal?5playback?5buffer?5corrupt@ 00440248     libspeex-i386-win32-vc14-release-dynamic:mdf.obj
 0002:00017270       ??_C@_0BP@HJHBOHLA@discarded?5first?5playback?5frame?$AA@ 00440270     libspeex-i386-win32-vc14-release-dynamic:mdf.obj
 0002:00017290       ??_C@_0EF@JCPCCFEP@Auto?9filling?5the?5buffer?5?$CIyour?5ap@ 00440290     libspeex-i386-win32-vc14-release-dynamic:mdf.obj
 0002:000172d8       ??_C@_0EN@KMLFENGK@Had?5to?5discard?5a?5playback?5frame?5@ 004402d8     libspeex-i386-win32-vc14-release-dynamic:mdf.obj
 0002:00017328       ??_C@_0FP@LGAMLFHE@The?5echo?5canceller?5started?5actin@ 00440328     libspeex-i386-win32-vc14-release-dynamic:mdf.obj
 0002:00017388       ??_C@_0CB@DEGFPNC@Unknown?5speex_echo_ctl?5request?3?5@ 00440388     libspeex-i386-win32-vc14-release-dynamic:mdf.obj
 0002:000173ac       ??_C@_0BA@JHIGFAJK@warning?3?5?$CFs?3?5?$CFd?$AA@ 004403ac     libspeex-i386-win32-vc14-release-dynamic:mdf.obj
 0002:000173bc       __real@3ba3d70a            004403bc     libspeex-i386-win32-vc14-release-dynamic:mdf.obj
 0002:000173c0       __real@3cf5c28f            004403c0     libspeex-i386-win32-vc14-release-dynamic:mdf.obj
 0002:000173c4       __real@3dcccccd            004403c4     libspeex-i386-win32-vc14-release-dynamic:mdf.obj
 0002:000173c8       __real@3e19999a            004403c8     libspeex-i386-win32-vc14-release-dynamic:mdf.obj
 0002:000173cc       __real@3e800000            004403cc     libspeex-i386-win32-vc14-release-dynamic:mdf.obj
 0002:000173d0       __real@3eb851ec            004403d0     libspeex-i386-win32-vc14-release-dynamic:mdf.obj
 0002:000173d4       __real@3ecccccd            004403d4     libspeex-i386-win32-vc14-release-dynamic:mdf.obj
 0002:000173d8       __real@3f19999a            004403d8     libspeex-i386-win32-vc14-release-dynamic:mdf.obj
 0002:000173e0       __real@3f1a36e2eb1c432d    004403e0     libspeex-i386-win32-vc14-release-dynamic:mdf.obj
 0002:000173e8       __real@3f333333            004403e8     libspeex-i386-win32-vc14-release-dynamic:mdf.obj
 0002:000173ec       __real@3f38f5c3            004403ec     libspeex-i386-win32-vc14-release-dynamic:mdf.obj
 0002:000173f0       __real@3f59999a            004403f0     libspeex-i386-win32-vc14-release-dynamic:mdf.obj
 0002:000173f8       __real@3fd0000000000000    004403f8     libspeex-i386-win32-vc14-release-dynamic:mdf.obj
 0002:00017400       __real@3fd3333333333333    00440400     libspeex-i386-win32-vc14-release-dynamic:mdf.obj
 0002:00017408       __real@3fd6666666666666    00440408     libspeex-i386-win32-vc14-release-dynamic:mdf.obj
 0002:00017410       __real@3fe6666666666666    00440410     libspeex-i386-win32-vc14-release-dynamic:mdf.obj
 0002:00017418       __real@4008000000000000    00440418     libspeex-i386-win32-vc14-release-dynamic:mdf.obj
 0002:00017420       __real@4019999a            00440420     libspeex-i386-win32-vc14-release-dynamic:mdf.obj
 0002:00017424       __real@40800000            00440424     libspeex-i386-win32-vc14-release-dynamic:mdf.obj
 0002:00017428       __real@42c80000            00440428     libspeex-i386-win32-vc14-release-dynamic:mdf.obj
 0002:0001742c       __real@45fa0000            0044042c     libspeex-i386-win32-vc14-release-dynamic:mdf.obj
 0002:00017430       __real@461c4000            00440430     libspeex-i386-win32-vc14-release-dynamic:mdf.obj
 0002:00017434       __real@467ffc00            00440434     libspeex-i386-win32-vc14-release-dynamic:mdf.obj
 0002:00017438       __real@46fffd00            00440438     libspeex-i386-win32-vc14-release-dynamic:mdf.obj
 0002:0001743c       __real@46fffe00            0044043c     libspeex-i386-win32-vc14-release-dynamic:mdf.obj
 0002:00017440       __real@c6ffff00            00440440     libspeex-i386-win32-vc14-release-dynamic:mdf.obj
 0002:00017450       __xmm@3f4ccccd3f4ccccd3f4ccccd3f4ccccd 00440450     libspeex-i386-win32-vc14-release-dynamic:mdf.obj
 0002:00017460       __xmm@3f7d70a43f7d70a43f7d70a43f7d70a4 00440460     libspeex-i386-win32-vc14-release-dynamic:mdf.obj
 0002:00017470       __xmm@46fffe0046fffe0046fffe0046fffe00 00440470     libspeex-i386-win32-vc14-release-dynamic:mdf.obj
 0002:00017480       __real@3f847ae147ae147b    00440480     libspeex-i386-win32-vc14-release-dynamic:scal.obj
 0002:00017488       __real@3fa47ae147ae147b    00440488     libspeex-i386-win32-vc14-release-dynamic:scal.obj
 0002:00017490       __real@3fd999999999999a    00440490     libspeex-i386-win32-vc14-release-dynamic:scal.obj
 0002:00017498       __real@3fe43d1cc100e6b0    00440498     libspeex-i386-win32-vc14-release-dynamic:scal.obj
 0002:000174a0       __real@3feeb851eb851eb8    004404a0     libspeex-i386-win32-vc14-release-dynamic:scal.obj
 0002:000174a8       __real@3fef5c28f5c28f5c    004404a8     libspeex-i386-win32-vc14-release-dynamic:scal.obj
 0002:000174b0       __real@3ff921fb54442d18    004404b0     libspeex-i386-win32-vc14-release-dynamic:scal.obj
 0002:000174b8       __real@400921fb54442d18    004404b8     libspeex-i386-win32-vc14-release-dynamic:scal.obj
 0002:000174c0       __real@c6fffe00            004404c0     libspeex-i386-win32-vc14-release-dynamic:scal.obj
 0002:000174d0       __xmm@3ff921fb54442d183ff921fb54442d18 004404d0     libspeex-i386-win32-vc14-release-dynamic:scal.obj
 0002:000174e0       __xmm@400921fb54442d18400921fb54442d18 004404e0     libspeex-i386-win32-vc14-release-dynamic:scal.obj
 0002:00017544       ??_C@_0DP@GLHJBLIP@The?5VAD?5has?5been?5replaced?5by?5a?5h@ 00440544     libspeex-i386-win32-vc14-release-dynamic:preprocess.obj
 0002:00017584       ??_C@_0CH@BPNBAON@Unknown?5speex_preprocess_ctl?5req@ 00440584     libspeex-i386-win32-vc14-release-dynamic:preprocess.obj
 0002:000175ac       __real@38d1b717            004405ac     libspeex-i386-win32-vc14-release-dynamic:preprocess.obj
 0002:000175b0       __real@3a83126f            004405b0     libspeex-i386-win32-vc14-release-dynamic:preprocess.obj
 0002:000175b4       __real@3c23d70a            004405b4     libspeex-i386-win32-vc14-release-dynamic:preprocess.obj
 0002:000175b8       __real@3d4ccccd            004405b8     libspeex-i386-win32-vc14-release-dynamic:preprocess.obj
 0002:000175bc       __real@3d99999a            004405bc     libspeex-i386-win32-vc14-release-dynamic:preprocess.obj
 0002:000175c0       __real@3debc947            004405c0     libspeex-i386-win32-vc14-release-dynamic:preprocess.obj
 0002:000175c4       __real@3e4bc6a8            004405c4     libspeex-i386-win32-vc14-release-dynamic:preprocess.obj
 0002:000175c8       __real@3e4ccccd            004405c8     libspeex-i386-win32-vc14-release-dynamic:preprocess.obj
 0002:000175cc       __real@3e6bc8e2            004405cc     libspeex-i386-win32-vc14-release-dynamic:preprocess.obj
 0002:000175d0       __real@3e99999a            004405d0     libspeex-i386-win32-vc14-release-dynamic:preprocess.obj
 0002:000175d4       __real@3eaa7efa            004405d4     libspeex-i386-win32-vc14-release-dynamic:preprocess.obj
 0002:000175d8       __real@3eb33333            004405d8     libspeex-i386-win32-vc14-release-dynamic:preprocess.obj
 0002:000175dc       __real@3f4ccccd            004405dc     libspeex-i386-win32-vc14-release-dynamic:preprocess.obj
 0002:000175e0       __real@3f63d70a            004405e0     libspeex-i386-win32-vc14-release-dynamic:preprocess.obj
 0002:000175e4       __real@3f6624dd            004405e4     libspeex-i386-win32-vc14-release-dynamic:preprocess.obj
 0002:000175e8       __real@3f9eb851eb851eb8    004405e8     libspeex-i386-win32-vc14-release-dynamic:preprocess.obj
 0002:000175f0       __real@3fa2cdb8            004405f0     libspeex-i386-win32-vc14-release-dynamic:preprocess.obj
 0002:000175f8       __real@3fc096bb98c7e282    004405f8     libspeex-i386-win32-vc14-release-dynamic:preprocess.obj
 0002:00017600       __real@3fc999999999999a    00440600     libspeex-i386-win32-vc14-release-dynamic:preprocess.obj
 0002:00017608       __real@3fe75c2900000000    00440608     libspeex-i386-win32-vc14-release-dynamic:preprocess.obj
 0002:00017610       __real@3ff61adea8000000    00440610     libspeex-i386-win32-vc14-release-dynamic:preprocess.obj
 0002:00017618       __real@40000000            00440618     libspeex-i386-win32-vc14-release-dynamic:preprocess.obj
 0002:00017620       __real@4014000000000000    00440620     libspeex-i386-win32-vc14-release-dynamic:preprocess.obj
 0002:00017628       __real@40215f212d773190    00440628     libspeex-i386-win32-vc14-release-dynamic:preprocess.obj
 0002:00017630       __real@456d8000            00440630     libspeex-i386-win32-vc14-release-dynamic:preprocess.obj
 0002:00017634       __real@467a0000            00440634     libspeex-i386-win32-vc14-release-dynamic:preprocess.obj
 0002:00017638       __real@46dac000            00440638     libspeex-i386-win32-vc14-release-dynamic:preprocess.obj
 0002:0001763c       __real@47000000            0044063c     libspeex-i386-win32-vc14-release-dynamic:preprocess.obj
 0002:00017640       __real@495bba00            00440640     libspeex-i386-win32-vc14-release-dynamic:preprocess.obj
 0002:00017644       __real@4e6e6b28            00440644     libspeex-i386-win32-vc14-release-dynamic:preprocess.obj
 0002:00017648       __real@bf000000            00440648     libspeex-i386-win32-vc14-release-dynamic:preprocess.obj
 0002:00017650       __real@bfc99999a0000000    00440650     libspeex-i386-win32-vc14-release-dynamic:preprocess.obj
 0002:00017658       __real@c0126bb98c000000    00440658     libspeex-i386-win32-vc14-release-dynamic:preprocess.obj
 0002:00017660       __xmm@3d4ccccd3d4ccccd3d4ccccd3d4ccccd 00440660     libspeex-i386-win32-vc14-release-dynamic:preprocess.obj
 0002:00017670       __xmm@3d99999a3d99999a3d99999a3d99999a 00440670     libspeex-i386-win32-vc14-release-dynamic:preprocess.obj
 0002:00017680       __xmm@3dcccccd3dcccccd3dcccccd3dcccccd 00440680     libspeex-i386-win32-vc14-release-dynamic:preprocess.obj
 0002:00017690       __xmm@3e19999a3e19999a3e19999a3e19999a 00440690     libspeex-i386-win32-vc14-release-dynamic:preprocess.obj
 0002:000176a0       __xmm@3e99999a3e99999a3e99999a3e99999a 004406a0     libspeex-i386-win32-vc14-release-dynamic:preprocess.obj
 0002:000176b0       __xmm@3f19999a3f19999a3f19999a3f19999a 004406b0     libspeex-i386-win32-vc14-release-dynamic:preprocess.obj
 0002:000176c0       __xmm@3f3333333f3333333f3333333f333333 004406c0     libspeex-i386-win32-vc14-release-dynamic:preprocess.obj
 0002:000176d0       __xmm@3f63d70a3f63d70a3f63d70a3f63d70a 004406d0     libspeex-i386-win32-vc14-release-dynamic:preprocess.obj
 0002:000176e0       __xmm@3f8000003f8000003f8000003f800000 004406e0     libspeex-i386-win32-vc14-release-dynamic:preprocess.obj
 0002:000176f0       __xmm@42c8000042c8000042c8000042c80000 004406f0     libspeex-i386-win32-vc14-release-dynamic:preprocess.obj
 0002:00017700       __xmm@7fffffffffffffff7fffffffffffffff 00440700     libspeex-i386-win32-vc14-release-dynamic:preprocess.obj
 0002:00017710       ??_C@_0CA@EIAGMGLH@FFT?5should?5not?5be?5done?5in?9place?$AA@ 00440710     libspeex-i386-win32-vc14-release-dynamic:fftwrap.obj
 0002:00017730       __real@329ee9ee            00440730     libspeex-i386-win32-vc14-release-dynamic:filterbank.obj
 0002:00017734       __real@3a41fc8f            00440734     libspeex-i386-win32-vc14-release-dynamic:filterbank.obj
 0002:00017738       __real@4001eb8520000000    00440738     libspeex-i386-win32-vc14-release-dynamic:filterbank.obj
 0002:00017740       __real@402a333340000000    00440740     libspeex-i386-win32-vc14-release-dynamic:filterbank.obj
 0002:00017748       ??_C@_04DKFOEDJA@srtp?$AA@ 00440748     libsrtp-i386-win32-vc14-release-dynamic:srtp.obj
 0002:00017750       ??_C@_0CD@KFGKPJOG@?$CFs?3?5cloning?5stream?5?$CISSRC?3?50x?$CF08x@ 00440750     libsrtp-i386-win32-vc14-release-dynamic:srtp.obj
 0002:00017774       ??_C@_0BG@DDGAJBGL@?$CFs?3?5srtp?5key?5len?3?5?$CFd?6?$AA@ 00440774     libsrtp-i386-win32-vc14-release-dynamic:srtp.obj
 0002:0001778c       ??_C@_0BH@DGNFCKJN@?$CFs?3?5srtcp?5key?5len?3?5?$CFd?6?$AA@ 0044078c     libsrtp-i386-win32-vc14-release-dynamic:srtp.obj
 0002:000177a4       ??_C@_0BG@DMEGGANK@?$CFs?3?5base?5key?5len?3?5?$CFd?6?$AA@ 004407a4     libsrtp-i386-win32-vc14-release-dynamic:srtp.obj
 0002:000177bc       ??_C@_0BF@HLIACONN@?$CFs?3?5kdf?5key?5len?3?5?$CFd?6?$AA@ 004407bc     libsrtp-i386-win32-vc14-release-dynamic:srtp.obj
 0002:000177d4       ??_C@_0BG@BGKGMHMB@?$CFs?3?5rtp?5salt?5len?3?5?$CFd?6?$AA@ 004407d4     libsrtp-i386-win32-vc14-release-dynamic:srtp.obj
 0002:000177ec       ??_C@_0BE@PGOGLMMP@?$CFs?3?5cipher?5key?3?5?$CFs?6?$AA@ 004407ec     libsrtp-i386-win32-vc14-release-dynamic:srtp.obj
 0002:00017800       ??_C@_0CN@BDCDAMHJ@?$CFs?3?5found?5rtp_salt_len?5?$DO?50?0?5gene@ 00440800     libsrtp-i386-win32-vc14-release-dynamic:srtp.obj
 0002:00017830       ??_C@_0BF@GHNDNNEA@?$CFs?3?5cipher?5salt?3?5?$CFs?6?$AA@ 00440830     libsrtp-i386-win32-vc14-release-dynamic:srtp.obj
 0002:00017848       ??_C@_0BP@LJKEDGBP@?$CFs?3?5extensions?5cipher?5key?3?5?$CFs?6?$AA@ 00440848     libsrtp-i386-win32-vc14-release-dynamic:srtp.obj
 0002:00017868       ??_C@_0DF@NJKDAIDN@?$CFs?3?5found?5rtp_xtn_hdr_salt_len?5?$DO@ 00440868     libsrtp-i386-win32-vc14-release-dynamic:srtp.obj
 0002:000178a0       ??_C@_0CA@OBEPENBO@?$CFs?3?5extensions?5cipher?5salt?3?5?$CFs?6?$AA@ 004408a0     libsrtp-i386-win32-vc14-release-dynamic:srtp.obj
 0002:000178c0       ??_C@_0BE@HGKFNAFC@?$CFs?3?5auth?5key?3?5?5?5?$CFs?6?$AA@ 004408c0     libsrtp-i386-win32-vc14-release-dynamic:srtp.obj
 0002:000178d4       ??_C@_0BH@KOPGGCNO@?$CFs?3?5rtcp?5salt?5len?3?5?$CFd?6?$AA@ 004408d4     libsrtp-i386-win32-vc14-release-dynamic:srtp.obj
 0002:000178ec       ??_C@_0DD@DNDBGLG@?$CFs?3?5found?5rtcp_salt_len?5?$DO?50?0?5gen@ 004408ec     libsrtp-i386-win32-vc14-release-dynamic:srtp.obj
 0002:00017920       ??_C@_0BJ@KAKGCCMO@?$CFs?3?5rtcp?5cipher?5key?3?5?$CFs?6?$AA@ 00440920     libsrtp-i386-win32-vc14-release-dynamic:srtp.obj
 0002:0001793c       ??_C@_0BK@BAICKNEI@?$CFs?3?5rtcp?5cipher?5salt?3?5?$CFs?6?$AA@ 0044093c     libsrtp-i386-win32-vc14-release-dynamic:srtp.obj
 0002:00017958       ??_C@_0BJ@CAOFEOFD@?$CFs?3?5rtcp?5auth?5key?3?5?5?5?$CFs?6?$AA@ 00440958     libsrtp-i386-win32-vc14-release-dynamic:srtp.obj
 0002:00017974       ??_C@_0CI@PDNDGOMA@?$CFs?3?5initializing?5stream?5?$CISSRC?3?50@ 00440974     libsrtp-i386-win32-vc14-release-dynamic:srtp.obj
 0002:0001799c       ??_C@_0BH@GAKJJGLB@srtp?3?5in?5stream?50x?$CFx?3?5?$AA@ 0044099c     libsrtp-i386-win32-vc14-release-dynamic:srtp.obj
 0002:000179b4       ??_C@_0BB@PPFALDPP@?7SSRC?5collision?6?$AA@ 004409b4     libsrtp-i386-win32-vc14-release-dynamic:srtp.obj
 0002:000179c8       ??_C@_0BP@HOEKLBIN@?7key?5usage?5soft?5limit?5reached?6?$AA@ 004409c8     libsrtp-i386-win32-vc14-release-dynamic:srtp.obj
 0002:000179e8       ??_C@_0BP@KNJIFCF@?7key?5usage?5hard?5limit?5reached?6?$AA@ 004409e8     libsrtp-i386-win32-vc14-release-dynamic:srtp.obj
 0002:00017a08       ??_C@_0BN@MKCGGAOP@?7packet?5index?5limit?5reached?6?$AA@ 00440a08     libsrtp-i386-win32-vc14-release-dynamic:srtp.obj
 0002:00017a28       ??_C@_0CE@FFJEPPID@?7unknown?5event?5reported?5to?5handl@ 00440a28     libsrtp-i386-win32-vc14-release-dynamic:srtp.obj
 0002:00017a4c       ??_C@_0BN@IJKEFIPG@?$CFs?3?5Pre?9salted?5RTP?5IV?5?$DN?5?$CFs?6?6?$AA@ 00440a4c     libsrtp-i386-win32-vc14-release-dynamic:srtp.obj
 0002:00017a6c       ??_C@_0BE@MNMIOELF@?$CFs?3?5RTP?5SALT?5?$DN?5?$CFs?6?6?$AA@ 00440a6c     libsrtp-i386-win32-vc14-release-dynamic:srtp.obj
 0002:00017a80       ??_C@_0CH@MOHBLIMO@?$CFs?3?5estimated?5u_packet?5index?3?5?$CF0@ 00440a80     libsrtp-i386-win32-vc14-release-dynamic:srtp.obj
 0002:00017aa8       ??_C@_0CA@OMJPHCHL@?$CFs?3?5function?5srtp_protect_aead?6?$AA@ 00440aa8     libsrtp-i386-win32-vc14-release-dynamic:srtp.obj
 0002:00017ac8       ??_C@_0CF@PEPHCKJP@?$CFs?3?5estimated?5packet?5index?3?5?$CF016@ 00440ac8     libsrtp-i386-win32-vc14-release-dynamic:srtp.obj
 0002:00017af0       ??_C@_0CC@KIGABHOG@?$CFs?3?5function?5srtp_unprotect_aead@ 00440af0     libsrtp-i386-win32-vc14-release-dynamic:srtp.obj
 0002:00017b14       ??_C@_0BL@MADNODBC@?$CFs?3?5function?5srtp_protect?6?$AA@ 00440b14     libsrtp-i386-win32-vc14-release-dynamic:srtp.obj
 0002:00017b30       ??_C@_0BK@KLBGMJPP@?$CFs?3?5keystream?5prefix?3?5?$CFs?6?$AA@ 00440b30     libsrtp-i386-win32-vc14-release-dynamic:srtp.obj
 0002:00017b4c       ??_C@_0BK@GCKOFNLP@?$CFs?3?5srtp?5auth?5tag?3?5?5?5?5?$CFs?6?$AA@ 00440b4c     libsrtp-i386-win32-vc14-release-dynamic:srtp.obj
 0002:00017b68       ??_C@_0BN@LADOAJPP@?$CFs?3?5function?5srtp_unprotect?6?$AA@ 00440b68     libsrtp-i386-win32-vc14-release-dynamic:srtp.obj
 0002:00017b88       ??_C@_0CN@PJAKIEAG@?$CFs?3?5using?5provisional?5stream?5?$CISS@ 00440b88     libsrtp-i386-win32-vc14-release-dynamic:srtp.obj
 0002:00017bb8       ??_C@_0BO@BONEKIBH@?$CFs?3?5computed?5auth?5tag?3?5?5?5?5?$CFs?6?$AA@ 00440bb8     libsrtp-i386-win32-vc14-release-dynamic:srtp.obj
 0002:00017bd8       ??_C@_0BO@KMHOFFAA@?$CFs?3?5packet?5auth?5tag?3?5?5?5?5?5?5?$CFs?6?$AA@ 00440bd8     libsrtp-i386-win32-vc14-release-dynamic:srtp.obj
 0002:00017bf8       ??_C@_0BO@ONKEAFKG@?$CFs?3?5Pre?9salted?5RTCP?5IV?5?$DN?5?$CFs?6?6?$AA@ 00440bf8     libsrtp-i386-win32-vc14-release-dynamic:srtp.obj
 0002:00017c18       ??_C@_0BF@FLPIMBMP@?$CFs?3?5RTCP?5SALT?5?$DN?5?$CFs?6?6?$AA@ 00440c18     libsrtp-i386-win32-vc14-release-dynamic:srtp.obj
 0002:00017c30       ??_C@_0BF@JBCKCIAJ@?$CFs?3?5srtcp?5index?3?5?$CFx?6?$AA@ 00440c30     libsrtp-i386-win32-vc14-release-dynamic:srtp.obj
 0002:00017c48       ??_C@_0BL@OBHAKLEH@?$CFs?3?5srtcp?5auth?5tag?3?5?5?5?5?$CFs?6?$AA@ 00440c48     libsrtp-i386-win32-vc14-release-dynamic:srtp.obj
 0002:00017c64       ??_C@_0DD@HHOLLDKC@?$CFs?3?5srtcp?5using?5provisional?5stre@ 00440c64     libsrtp-i386-win32-vc14-release-dynamic:srtp.obj
 0002:00017c98       ??_C@_0CC@IMKDPKDI@?$CFs?3?5srtcp?5computed?5tag?3?5?5?5?5?5?5?5?$CFs@ 00440c98     libsrtp-i386-win32-vc14-release-dynamic:srtp.obj
 0002:00017cbc       ??_C@_0CC@GFCANNPL@?$CFs?3?5srtcp?5tag?5from?5packet?3?5?5?5?5?$CFs@ 00440cbc     libsrtp-i386-win32-vc14-release-dynamic:srtp.obj
 0002:00017ce0       ??_C@_05KNPMOECN@alloc?$AA@ 00440ce0     libsrtp-i386-win32-vc14-release-dynamic:alloc.obj
 0002:00017ce8       ??_C@_0BO@KJOGHNGM@?$CFs?3?5?$CIlocation?3?5?$CFp?$CJ?5allocated?6?$AA@ 00440ce8     libsrtp-i386-win32-vc14-release-dynamic:alloc.obj
 0002:00017d08       ??_C@_0CN@JJLNACEJ@?$CFs?3?5allocation?5failed?5?$CIasked?5for@ 00440d08     libsrtp-i386-win32-vc14-release-dynamic:alloc.obj
 0002:00017d38       ??_C@_0BK@BNKOPMHD@?$CFs?3?5?$CIlocation?3?5?$CFp?$CJ?5freed?6?$AA@ 00440d38     libsrtp-i386-win32-vc14-release-dynamic:alloc.obj
 0002:00017d60       __xmm@66656463626139383736353433323130 00440d60     libsrtp-i386-win32-vc14-release-dynamic:datatypes.obj
 0002:00017d70       ??_C@_07EFAIHJHH@libsrtp?$AA@ 00440d70     libsrtp-i386-win32-vc14-release-dynamic:srtp_err.obj
 0002:00017d78       ??_C@_06KDGDAFPH@cipher?$AA@ 00440d78     libsrtp-i386-win32-vc14-release-dynamic:cipher.obj
 0002:00017d80       ??_C@_09EJIBOKIO@auth?5func?$AA@ 00440d80     libsrtp-i386-win32-vc14-release-dynamic:auth.obj
 0002:00017d8c       ??_C@_0O@MIKIJNFL@crypto?5kernel?$AA@ 00440d8c     libsrtp-i386-win32-vc14-release-dynamic:crypto_kernel.obj
 0002:00017d9c       ??_C@_0BE@ICAFLID@?$CFs?3?5EKT?5not?5in?5use?6?$AA@ 00440d9c     libsrtp-i386-win32-vc14-release-dynamic:ekt.obj
 0002:00017db0       ??_C@_0BK@CMOOGLJH@?$CFs?3?5writing?5EKT?5EMK?3?5?$CFs?0?6?$AA@ 00440db0     libsrtp-i386-win32-vc14-release-dynamic:ekt.obj
 0002:00017dcc       ??_C@_0BK@BEIPMCDF@?$CFs?3?5writing?5EKT?5ROC?3?5?$CFs?0?6?$AA@ 00440dcc     libsrtp-i386-win32-vc14-release-dynamic:ekt.obj
 0002:00017de8       ??_C@_0BK@BKDABMJO@?$CFs?3?5writing?5EKT?5ISN?3?5?$CFs?0?6?$AA@ 00440de8     libsrtp-i386-win32-vc14-release-dynamic:ekt.obj
 0002:00017e04       ??_C@_0BK@BJPEDIGD@?$CFs?3?5writing?5EKT?5SPI?3?5?$CFs?0?6?$AA@ 00440e04     libsrtp-i386-win32-vc14-release-dynamic:ekt.obj
 0002:00017e20       ??_C@_09LCMAEBCF@stat?5test?$AA@ 00440e20     libsrtp-i386-win32-vc14-release-dynamic:stat.obj
 0002:00017e2c       ??_C@_0CK@DAFEFAPH@?$CFs?3?5allocating?5cipher?5with?5key?5l@ 00440e2c     libsrtp-i386-win32-vc14-release-dynamic:null_cipher.obj
 0002:00017e58       ??_C@_0BO@HCJFKKEE@?$CFs?3?5initializing?5null?5cipher?6?$AA@ 00440e58     libsrtp-i386-win32-vc14-release-dynamic:null_cipher.obj
 0002:00017eb0       _srtp_null_cipher          00440eb0     libsrtp-i386-win32-vc14-release-dynamic:null_cipher.obj
 0002:00017edc       ??_C@_07MPIJGLIA@aes?5icm?$AA@ 00440edc     libsrtp-i386-win32-vc14-release-dynamic:aes_icm.obj
 0002:00017ee4       _srtp_aes_icm_128          00440ee4     libsrtp-i386-win32-vc14-release-dynamic:aes_icm.obj
 0002:00017f10       _srtp_aes_icm_256          00440f10     libsrtp-i386-win32-vc14-release-dynamic:aes_icm.obj
 0002:000180a4       ??_C@_0O@GFBJNBAD@?$CFs?3?5key?3?5?5?$CFs?6?$AA@ 004410a4     libsrtp-i386-win32-vc14-release-dynamic:aes_icm.obj
 0002:000180b4       ??_C@_0BA@ILFEGDEM@?$CFs?3?5offset?3?5?$CFs?6?$AA@ 004410b4     libsrtp-i386-win32-vc14-release-dynamic:aes_icm.obj
 0002:000180c4       ??_C@_0BE@ECIFEEKH@?$CFs?3?5setting?5iv?3?5?$CFs?6?$AA@ 004410c4     libsrtp-i386-win32-vc14-release-dynamic:aes_icm.obj
 0002:000180d8       ??_C@_0BF@OAOEHNDM@?$CFs?3?5set_counter?3?5?$CFs?6?$AA@ 004410d8     libsrtp-i386-win32-vc14-release-dynamic:aes_icm.obj
 0002:000180f0       ??_C@_0BE@ENJPOLAG@?$CFs?3?5counter?3?5?5?5?5?$CFs?6?$AA@ 004410f0     libsrtp-i386-win32-vc14-release-dynamic:aes_icm.obj
 0002:00018104       ??_C@_0BE@ILCAEFF@?$CFs?3?5ciphertext?3?5?$CFs?6?$AA@ 00441104     libsrtp-i386-win32-vc14-release-dynamic:aes_icm.obj
 0002:00018118       ??_C@_0BF@BLBMMINO@?$CFs?3?5block?5index?3?5?$CFd?6?$AA@ 00441118     libsrtp-i386-win32-vc14-release-dynamic:aes_icm.obj
 0002:00018130       ??_C@_0CN@KBEHBKDH@?$CFs?3?5allocating?5auth?5func?5with?5ke@ 00441130     libsrtp-i386-win32-vc14-release-dynamic:null_auth.obj
 0002:00018160       ??_C@_0CN@FDNDBNFI@?$CFs?3?5?5?5?5?5?5?5?5?5?5?5?5?5?5?5?5?5?5?5?5?5?5?5?5?5?5?5ta@ 00441160     libsrtp-i386-win32-vc14-release-dynamic:null_auth.obj
 0002:000181cc       _srtp_null_auth            004411cc     libsrtp-i386-win32-vc14-release-dynamic:null_auth.obj
 0002:000181f0       ??_C@_0L@NBBBLMAJ@hmac?5sha?91?$AA@ 004411f0     libsrtp-i386-win32-vc14-release-dynamic:hmac.obj
 0002:000181fc       ??_C@_0O@PJECJPIJ@?$CFs?3?5ipad?3?5?$CFs?6?$AA@ 004411fc     libsrtp-i386-win32-vc14-release-dynamic:hmac.obj
 0002:0001820c       ??_C@_0P@JHGAOEEF@?$CFs?3?5input?3?5?$CFs?6?$AA@ 0044120c     libsrtp-i386-win32-vc14-release-dynamic:hmac.obj
 0002:0001821c       ??_C@_0BM@JABNBLDM@?$CFs?3?5intermediate?5state?3?5?$CFs?6?$AA@ 0044121c     libsrtp-i386-win32-vc14-release-dynamic:hmac.obj
 0002:00018238       ??_C@_0BA@NKCNJNLN@?$CFs?3?5output?3?5?$CFs?6?$AA@ 00441238     libsrtp-i386-win32-vc14-release-dynamic:hmac.obj
 0002:000182b8       _srtp_hmac                 004412b8     libsrtp-i386-win32-vc14-release-dynamic:hmac.obj
 0002:000182e0       __xmm@36363636363636363636363636363636 004412e0     libsrtp-i386-win32-vc14-release-dynamic:hmac.obj
 0002:000182f0       __xmm@5c5c5c5c5c5c5c5c5c5c5c5c5c5c5c5c 004412f0     libsrtp-i386-win32-vc14-release-dynamic:hmac.obj
 0002:0001a500       ??_C@_05BPJLFPNI@sha?91?$AA@ 00443500     libsrtp-i386-win32-vc14-release-dynamic:sha1.obj
 0002:0001a508       ??_C@_0CH@CIFCCFOE@?$CFs?3?5?$CIupdate?$CJ?5running?5srtp_sha1_c@ 00443508     libsrtp-i386-win32-vc14-release-dynamic:sha1.obj
 0002:0001a530       ??_C@_0CL@FECLBICF@?$CFs?3?5?$CIupdate?$CJ?5not?5running?5srtp_sh@ 00443530     libsrtp-i386-win32-vc14-release-dynamic:sha1.obj
 0002:0001a55c       ??_C@_0CG@BBEKCMGE@?$CFs?3?5?$CIfinal?$CJ?5running?5srtp_sha1_co@ 0044355c     libsrtp-i386-win32-vc14-release-dynamic:sha1.obj
 0002:0001a584       ??_C@_0CM@HEEFBAKO@?$CFs?3?5?$CIfinal?$CJ?5running?5srtp_sha1_co@ 00443584     libsrtp-i386-win32-vc14-release-dynamic:sha1.obj
 0002:0001a660       __load_config_used         00443660     MSVCRT:loadcfg.obj
 0002:0001a6c0       ___safe_se_handler_table   004436c0     <linker-defined>
 0002:0001a914       ___rtc_iaa                 00443914     MSVCRT:_initsect_.obj
 0002:0001a918       ___rtc_izz                 00443918     MSVCRT:_initsect_.obj
 0002:0001a91c       ___rtc_taa                 0044391c     MSVCRT:_initsect_.obj
 0002:0001a920       ___rtc_tzz                 00443920     MSVCRT:_initsect_.obj
 0002:0001a964       __IMPORT_DESCRIPTOR_ole32  00443964     ole32:ole32.dll
 0002:0001a978       __IMPORT_DESCRIPTOR_WS2_32 00443978     ws2_32:WS2_32.dll
 0002:0001a98c       __IMPORT_DESCRIPTOR_WINMM  0044398c     winmm:WINMM.dll
 0002:0001a9a0       __IMPORT_DESCRIPTOR_KERNEL32 004439a0     kernel32:KERNEL32.dll
 0002:0001a9b4       __IMPORT_DESCRIPTOR_VCRUNTIME140 004439b4     vcruntime:VCRUNTIME140.dll
 0002:0001a9c8       __IMPORT_DESCRIPTOR_api-ms-win-crt-stdio-l1-1-0 004439c8     ucrt:api-ms-win-crt-stdio-l1-1-0.dll
 0002:0001a9dc       __IMPORT_DESCRIPTOR_api-ms-win-crt-convert-l1-1-0 004439dc     ucrt:api-ms-win-crt-convert-l1-1-0.dll
 0002:0001a9f0       __IMPORT_DESCRIPTOR_api-ms-win-crt-string-l1-1-0 004439f0     ucrt:api-ms-win-crt-string-l1-1-0.dll
 0002:0001aa04       __IMPORT_DESCRIPTOR_api-ms-win-crt-math-l1-1-0 00443a04     ucrt:api-ms-win-crt-math-l1-1-0.dll
 0002:0001aa18       __IMPORT_DESCRIPTOR_api-ms-win-crt-heap-l1-1-0 00443a18     ucrt:api-ms-win-crt-heap-l1-1-0.dll
 0002:0001aa2c       __IMPORT_DESCRIPTOR_api-ms-win-crt-utility-l1-1-0 00443a2c     ucrt:api-ms-win-crt-utility-l1-1-0.dll
 0002:0001aa40       __IMPORT_DESCRIPTOR_api-ms-win-crt-runtime-l1-1-0 00443a40     ucrt:api-ms-win-crt-runtime-l1-1-0.dll
 0002:0001aa54       __IMPORT_DESCRIPTOR_api-ms-win-crt-locale-l1-1-0 00443a54     ucrt:api-ms-win-crt-locale-l1-1-0.dll
 0002:0001aa68       __NULL_IMPORT_DESCRIPTOR   00443a68     ole32:ole32.dll
 0003:00000eb0       _pjmedia_add_rtpmap_for_static_pt 00445eb0     pjmedia-i386-win32-vc14-release-dynamic:endpoint.obj
 0003:00000eb4       _pjmedia_add_bandwidth_tias_in_sdp 00445eb4     pjmedia-i386-win32-vc14-release-dynamic:endpoint.obj
 0003:00001114       _pj_optind                 00446114     pjlib-util-i386-win32-vc14-release-dynamic:getopt.obj
 0003:00001118       _pj_optopt                 00446118     pjlib-util-i386-win32-vc14-release-dynamic:getopt.obj
 0003:000011cc       _pj_pool_factory_default_policy 004461cc     pjlib-i386-win32-vc14-release-dynamic:pool_policy_malloc.obj
 0003:0000122c       _PJ_VERSION                0044622c     pjlib-i386-win32-vc14-release-dynamic:config.obj
 0003:00001264       _mod_srtp                  00446264     libsrtp-i386-win32-vc14-release-dynamic:srtp.obj
 0003:00001270       _mod_alloc                 00446270     libsrtp-i386-win32-vc14-release-dynamic:alloc.obj
 0003:00001278       _octet_weight              00446278     libsrtp-i386-win32-vc14-release-dynamic:datatypes.obj
 0003:00001678       _srtp_mod_cipher           00446678     libsrtp-i386-win32-vc14-release-dynamic:cipher.obj
 0003:00001680       _srtp_mod_auth             00446680     libsrtp-i386-win32-vc14-release-dynamic:auth.obj
 0003:00001688       _srtp_mod_crypto_kernel    00446688     libsrtp-i386-win32-vc14-release-dynamic:crypto_kernel.obj
 0003:00001690       _mod_stat                  00446690     libsrtp-i386-win32-vc14-release-dynamic:stat.obj
 0003:00001698       _srtp_mod_aes_icm          00446698     libsrtp-i386-win32-vc14-release-dynamic:aes_icm.obj
 0003:000016a0       _srtp_mod_hmac             004466a0     libsrtp-i386-win32-vc14-release-dynamic:hmac.obj
 0003:000016a8       _srtp_mod_sha1             004466a8     libsrtp-i386-win32-vc14-release-dynamic:sha1.obj
 0003:000016b0       _SHA_K0                    004466b0     libsrtp-i386-win32-vc14-release-dynamic:sha1.obj
 0003:000016b4       _SHA_K1                    004466b4     libsrtp-i386-win32-vc14-release-dynamic:sha1.obj
 0003:000016b8       _SHA_K2                    004466b8     libsrtp-i386-win32-vc14-release-dynamic:sha1.obj
 0003:000016bc       _SHA_K3                    004466bc     libsrtp-i386-win32-vc14-release-dynamic:sha1.obj
 0003:000016c0       ___security_cookie_complement 004466c0     MSVCRT:gs_cookie.obj
 0003:000016c4       ___security_cookie         004466c4     MSVCRT:gs_cookie.obj
 0003:000016d0       ___isa_enabled             004466d0     MSVCRT:_cpu_disp_.obj
 0003:000016d4       __fltused                  004466d4     MSVCRT:fltused.obj
 0003:000016e0       ___scrt_native_dllmain_reason 004466e0     MSVCRT:utility.obj
 0003:000016e4       ___scrt_default_matherr    004466e4     MSVCRT:matherr.obj
 0003:000016f0       ___scrt_ucrt_dll_is_in_use 004466f0     MSVCRT:ucrt_stubs.obj
 0003:000024c8       _pj_optarg                 004474c8     pjlib-util-i386-win32-vc14-release-dynamic:getopt.obj
 0003:00002864       _err_level                 00447864     libsrtp-i386-win32-vc14-release-dynamic:srtp_err.obj
 0003:00002868       _crypto_kernel             00447868     libsrtp-i386-win32-vc14-release-dynamic:crypto_kernel.obj
 0003:00002898       ___isa_available           00447898     MSVCRT:_cpu_disp_.obj
 0003:0000289c       ___favor                   0044789c     MSVCRT:_cpu_disp_.obj
 0003:00002bbc       ___scrt_current_native_startup_state 00447bbc     MSVCRT:utility.obj
 0003:00002bc0       ___scrt_native_startup_lock 00447bc0     MSVCRT:utility.obj
 0003:00002be0       ?__type_info_root_node@@3U__type_info_node@@A 00447be0     MSVCRT:tncleanup.obj
 0003:00002be8       ___scrt_debugger_hook_flag 00447be8     MSVCRT:utility_desktop.obj
 0003:00002bf0       ?_OptionsStorage@?1??__local_stdio_printf_options@@9@9 00447bf0     <common>
 0003:00002bf8       _PJ_NO_MEMORY_EXCEPTION    00447bf8     <common>
 0003:00002c00       _bit_string                00447c00     <common>
 0003:00003000       ?_OptionsStorage@?1??__local_stdio_scanf_options@@9@9 00448000     <common>
 0003:00003008       ___dyn_tls_dtor_callback   00448008     <common>
 0003:0000300c       ___dyn_tls_init_callback   0044800c     <common>

 entry point at        0001:00026043

 Static symbols

 0002:fffd7000       .idata$6                   00400000     ucrt:api-ms-win-crt-time-l1-1-0.dll
 0001:00000000       _pjmedia_endpt_create      00401000 f   confsample.obj
 0001:00000040       _pjmedia_endpt_destroy     00401040 f   confsample.obj
 0001:00000060       _app_perror                00401060 f   confsample.obj
 0001:0000048c       $LN67                      0040148c     confsample.obj
 0001:000004a4       $LN64                      004014a4     confsample.obj
 0001:00000530       _conf_list                 00401530 f   confsample.obj
 0001:000006c0       _monitor_level             004016c0 f   confsample.obj
 0001:00000870       _usage                     00401870 f   confsample.obj
 0001:00000890       _input                     00401890 f   confsample.obj
 0001:00001268       $LN126                     00402268     confsample.obj
 0001:00001288       $LN107                     00402288     confsample.obj
 0001:000015a0       _factory_init              004025a0 f   pjmedia-audiodev-i386-win32-vc14-release-dynamic:wmme_dev.obj
 0001:000015e0       _factory_destroy           004025e0 f   pjmedia-audiodev-i386-win32-vc14-release-dynamic:wmme_dev.obj
 0001:00001610       _factory_refresh           00402610 f   pjmedia-audiodev-i386-win32-vc14-release-dynamic:wmme_dev.obj
 0001:000018c0       _factory_get_dev_count     004028c0 f   pjmedia-audiodev-i386-win32-vc14-release-dynamic:wmme_dev.obj
 0001:000018d0       _factory_get_dev_info      004028d0 f   pjmedia-audiodev-i386-win32-vc14-release-dynamic:wmme_dev.obj
 0001:00001910       _factory_default_param     00402910 f   pjmedia-audiodev-i386-win32-vc14-release-dynamic:wmme_dev.obj
 0001:000019f0       _factory_create_stream     004029f0 f   pjmedia-audiodev-i386-win32-vc14-release-dynamic:wmme_dev.obj
 0001:00001c50       _stream_get_param          00402c50 f   pjmedia-audiodev-i386-win32-vc14-release-dynamic:wmme_dev.obj
 0001:00001cd0       _stream_get_cap            00402cd0 f   pjmedia-audiodev-i386-win32-vc14-release-dynamic:wmme_dev.obj
 0001:00001d60       _stream_set_cap            00402d60 f   pjmedia-audiodev-i386-win32-vc14-release-dynamic:wmme_dev.obj
 0001:00001df0       _stream_start              00402df0 f   pjmedia-audiodev-i386-win32-vc14-release-dynamic:wmme_dev.obj
 0001:00001e70       _stream_stop               00402e70 f   pjmedia-audiodev-i386-win32-vc14-release-dynamic:wmme_dev.obj
 0001:00001f00       _stream_destroy            00402f00 f   pjmedia-audiodev-i386-win32-vc14-release-dynamic:wmme_dev.obj
 0001:00002070       _build_dev_info            00403070 f   pjmedia-audiodev-i386-win32-vc14-release-dynamic:wmme_dev.obj
 0001:00002220       _init_capture_stream       00403220 f   pjmedia-audiodev-i386-win32-vc14-release-dynamic:wmme_dev.obj
 0001:00002440       _init_player_stream        00403440 f   pjmedia-audiodev-i386-win32-vc14-release-dynamic:wmme_dev.obj
 0001:00002680       _init_waveformatex         00403680 f   pjmedia-audiodev-i386-win32-vc14-release-dynamic:wmme_dev.obj
 0001:00002760       _pjmedia_frame_ext_append_subframe 00403760 f   pjmedia-audiodev-i386-win32-vc14-release-dynamic:wmme_dev.obj
 0001:000027c0       _pjmedia_frame_ext_copy_payload 004037c0 f   pjmedia-audiodev-i386-win32-vc14-release-dynamic:wmme_dev.obj
 0001:00002890       _wmme_dev_thread           00403890 f   pjmedia-audiodev-i386-win32-vc14-release-dynamic:wmme_dev.obj
 0001:00002f50       _create_conf_port          00403f50 f   pjmedia-i386-win32-vc14-release-dynamic:conference.obj
 0001:000031e0       _create_pasv_port          004041e0 f   pjmedia-i386-win32-vc14-release-dynamic:conference.obj
 0001:00003250       _create_sound_port         00404250 f   pjmedia-i386-win32-vc14-release-dynamic:conference.obj
 0001:00003370       _destroy_port              00404370 f   pjmedia-i386-win32-vc14-release-dynamic:conference.obj
 0001:00003390       _get_frame                 00404390 f   pjmedia-i386-win32-vc14-release-dynamic:conference.obj
 0001:00003fa0       _pjmedia_convert_channel_1ton 00404fa0 f   pjmedia-i386-win32-vc14-release-dynamic:conference.obj
 0001:00004020       _pjmedia_convert_channel_nto1 00405020 f   pjmedia-i386-win32-vc14-release-dynamic:conference.obj
 0001:00004100       _put_frame                 00405100 f   pjmedia-i386-win32-vc14-release-dynamic:conference.obj
 0001:00004160       _read_port                 00405160 f   pjmedia-i386-win32-vc14-release-dynamic:conference.obj
 0001:00004390       _write_port                00405390 f   pjmedia-i386-win32-vc14-release-dynamic:conference.obj
 0001:000049f0       _worker_proc               004059f0 f   pjmedia-i386-win32-vc14-release-dynamic:endpoint.obj
 0001:00004a40       _create_file_port          00405a40 f   pjmedia-i386-win32-vc14-release-dynamic:wav_player.obj
 0001:00004ab0       _file_get_frame            00405ab0 f   pjmedia-i386-win32-vc14-release-dynamic:wav_player.obj
 0001:00004df0       _file_on_destroy           00405df0 f   pjmedia-i386-win32-vc14-release-dynamic:wav_player.obj
 0001:00004e30       _file_on_event             00405e30 f   pjmedia-i386-win32-vc14-release-dynamic:wav_player.obj
 0001:00004e60       _fill_buffer               00405e60 f   pjmedia-i386-win32-vc14-release-dynamic:wav_player.obj
 0001:00005460       _file_get_frame            00406460 f   pjmedia-i386-win32-vc14-release-dynamic:wav_writer.obj
 0001:00005470       _file_on_destroy           00406470 f   pjmedia-i386-win32-vc14-release-dynamic:wav_writer.obj
 0001:000055e0       _file_on_event             004065e0 f   pjmedia-i386-win32-vc14-release-dynamic:wav_writer.obj
 0001:00005610       _file_put_frame            00406610 f   pjmedia-i386-win32-vc14-release-dynamic:wav_writer.obj
 0001:00005ab0       _lookup_dev                00406ab0 f   pjmedia-i386-win32-vc14-release-dynamic:audiodev.obj
 0001:00005ba0       _make_global_index         00406ba0 f   pjmedia-i386-win32-vc14-release-dynamic:audiodev.obj
 0001:00006270       _event_mgr_distribute_events 00407270 f   pjmedia-i386-win32-vc14-release-dynamic:event.obj
 0001:00006340       _event_queue_add_event     00407340 f   pjmedia-i386-win32-vc14-release-dynamic:event.obj
 0001:00006760       _pjmedia_circ_buf_create   00407760 f   pjmedia-i386-win32-vc14-release-dynamic:delaybuf.obj
 0001:00006760       _pjmedia_circ_buf_create   00407760 f   pjmedia-i386-win32-vc14-release-dynamic:wsola.obj
 0001:000067a0       _pjmedia_circ_buf_read     004077a0 f   pjmedia-i386-win32-vc14-release-dynamic:delaybuf.obj
 0001:00006cc0       _shrink_buffer             00407cc0 f   pjmedia-i386-win32-vc14-release-dynamic:delaybuf.obj
 0001:00006d60       _update                    00407d60 f   pjmedia-i386-win32-vc14-release-dynamic:delaybuf.obj
 0001:00007880       _play_cb                   00408880 f   pjmedia-i386-win32-vc14-release-dynamic:sound_port.obj
 0001:000079a0       _play_cb_ext               004089a0 f   pjmedia-i386-win32-vc14-release-dynamic:sound_port.obj
 0001:000079f0       _rec_cb                    004089f0 f   pjmedia-i386-win32-vc14-release-dynamic:sound_port.obj
 0001:00007a70       _rec_cb_ext                00408a70 f   pjmedia-i386-win32-vc14-release-dynamic:sound_port.obj
 0001:00007ab0       _start_sound_device        00408ab0 f   pjmedia-i386-win32-vc14-release-dynamic:sound_port.obj
 0001:00008160       _compress                  00409160 f   pjmedia-i386-win32-vc14-release-dynamic:wsola.obj
 0001:00008250       _create_win                00409250 f   pjmedia-i386-win32-vc14-release-dynamic:wsola.obj
 0001:000083e0       _expand                    004093e0 f   pjmedia-i386-win32-vc14-release-dynamic:wsola.obj
 0001:00008560       _fade_in                   00409560 f   pjmedia-i386-win32-vc14-release-dynamic:wsola.obj
 0001:00008620       _find_pitch                00409620 f   pjmedia-i386-win32-vc14-release-dynamic:wsola.obj
 0001:000088d0       _overlapp_add              004098d0 f   pjmedia-i386-win32-vc14-release-dynamic:wsola.obj
 0001:00008940       _overlapp_add_simple       00409940 f   pjmedia-i386-win32-vc14-release-dynamic:wsola.obj
 0001:000089d0       _pjmedia_circ_buf_adv_read_ptr 004099d0 f   pjmedia-i386-win32-vc14-release-dynamic:wsola.obj
 0001:000089d0       _pjmedia_circ_buf_adv_read_ptr 004099d0 f   pjmedia-i386-win32-vc14-release-dynamic:delaybuf.obj
 0001:00008a20       _pjmedia_circ_buf_copy     00409a20 f   pjmedia-i386-win32-vc14-release-dynamic:wsola.obj
 0001:00008ad0       _pjmedia_circ_buf_get_read_regions 00409ad0 f   pjmedia-i386-win32-vc14-release-dynamic:wsola.obj
 0001:00008b40       _pjmedia_circ_buf_get_write_regions 00409b40 f   pjmedia-i386-win32-vc14-release-dynamic:delaybuf.obj
 0001:00008b40       _pjmedia_circ_buf_get_write_regions 00409b40 f   pjmedia-i386-win32-vc14-release-dynamic:wsola.obj
 0001:00008bc0       _pjmedia_circ_buf_pack_buffer 00409bc0 f   pjmedia-i386-win32-vc14-release-dynamic:wsola.obj
 0001:00008ca0       _pjmedia_circ_buf_write    00409ca0 f   pjmedia-i386-win32-vc14-release-dynamic:wsola.obj
 0001:00008ca0       _pjmedia_circ_buf_write    00409ca0 f   pjmedia-i386-win32-vc14-release-dynamic:delaybuf.obj
 0001:00009530       _wsola_fade_out            0040a530 f   pjmedia-i386-win32-vc14-release-dynamic:wsola.obj
 0001:00009aa0       _transport_get_info        0040aaa0 f   pjmedia-i386-win32-vc14-release-dynamic:transport_srtp.obj
 0001:00009bd0       _transport_detach          0040abd0 f   pjmedia-i386-win32-vc14-release-dynamic:transport_srtp.obj
 0001:00009c40       _transport_send_rtp        0040ac40 f   pjmedia-i386-win32-vc14-release-dynamic:transport_srtp.obj
 0001:00009d00       _transport_send_rtcp       0040ad00 f   pjmedia-i386-win32-vc14-release-dynamic:transport_srtp.obj
 0001:00009d20       _transport_send_rtcp2      0040ad20 f   pjmedia-i386-win32-vc14-release-dynamic:transport_srtp.obj
 0001:00009df0       _transport_media_create    0040adf0 f   pjmedia-i386-win32-vc14-release-dynamic:transport_srtp.obj
 0001:00009f80       _transport_encode_sdp      0040af80 f   pjmedia-i386-win32-vc14-release-dynamic:transport_srtp.obj
 0001:0000a160       _transport_media_start     0040b160 f   pjmedia-i386-win32-vc14-release-dynamic:transport_srtp.obj
 0001:0000a2a0       _transport_media_stop      0040b2a0 f   pjmedia-i386-win32-vc14-release-dynamic:transport_srtp.obj
 0001:0000a420       _transport_simulate_lost   0040b420 f   pjmedia-i386-win32-vc14-release-dynamic:transport_srtp.obj
 0001:0000a450       _transport_destroy         0040b450 f   pjmedia-i386-win32-vc14-release-dynamic:transport_srtp.obj
 0001:0000a4f0       _transport_attach2         0040b4f0 f   pjmedia-i386-win32-vc14-release-dynamic:transport_srtp.obj
 0001:0000a680       _sdes_media_create         0040b680 f   pjmedia-i386-win32-vc14-release-dynamic:transport_srtp.obj
 0001:0000a700       _sdes_encode_sdp           0040b700 f   pjmedia-i386-win32-vc14-release-dynamic:transport_srtp.obj
 0001:0000ac70       _sdes_media_start          0040bc70 f   pjmedia-i386-win32-vc14-release-dynamic:transport_srtp.obj
 0001:0000b020       _fill_local_crypto         0040c020 f   pjmedia-i386-win32-vc14-release-dynamic:transport_srtp.obj
 0001:0000b360       _generate_crypto_attr_value 0040c360 f   pjmedia-i386-win32-vc14-release-dynamic:transport_srtp.obj
 0001:0000b600       _get_crypto_idx            0040c600 f   pjmedia-i386-win32-vc14-release-dynamic:transport_srtp.obj
 0001:0000b680       _parse_attr_crypto         0040c680 f   pjmedia-i386-win32-vc14-release-dynamic:transport_srtp.obj
 0001:0000c0e0       _srtp_crypto_cmp           0040d0e0 f   pjmedia-i386-win32-vc14-release-dynamic:transport_srtp.obj
 0001:0000c120       _srtp_rtcp_cb              0040d120 f   pjmedia-i386-win32-vc14-release-dynamic:transport_srtp.obj
 0001:0000c220       _srtp_rtp_cb               0040d220 f   pjmedia-i386-win32-vc14-release-dynamic:transport_srtp.obj
 0001:0000c520       _start_srtp                0040d520 f   pjmedia-i386-win32-vc14-release-dynamic:transport_srtp.obj
 0001:0000ccb0       _echo_supp_update          0040dcb0 f   pjmedia-i386-win32-vc14-release-dynamic:echo_suppress.obj
 0001:0000d780       __getopt_initialize        0040e780 f   pjlib-util-i386-win32-vc14-release-dynamic:getopt.obj
 0001:0000d7e0       __getopt_internal          0040e7e0 f   pjlib-util-i386-win32-vc14-release-dynamic:getopt.obj
 0001:0000df30       _exchange                  0040ef30 f   pjlib-util-i386-win32-vc14-release-dynamic:getopt.obj
 0001:0000e020       _my_index                  0040f020 f   pjlib-util-i386-win32-vc14-release-dynamic:getopt.obj
 0001:0000e400       _init_mutex                0040f400 f   pjlib-i386-win32-vc14-release-dynamic:os_core_win32.obj
 0001:0000eb60       _pj_sem_wait_for           0040fb60 f   pjlib-i386-win32-vc14-release-dynamic:os_core_win32.obj
 0001:0000f3b0       _thread_main@4             004103b0 f   pjlib-i386-win32-vc14-release-dynamic:os_core_win32.obj
 0001:0000f5d0       _pj_pool_create_block      004105d0 f   pjlib-i386-win32-vc14-release-dynamic:pool.obj
 0001:0000f830       _reset_pool                00410830 f   pjlib-i386-win32-vc14-release-dynamic:pool.obj
 0001:0000f8b0       _cpool_create_pool         004108b0 f   pjlib-i386-win32-vc14-release-dynamic:pool_caching.obj
 0001:0000f9e0       _cpool_dump_status         004109e0 f   pjlib-i386-win32-vc14-release-dynamic:pool_caching.obj
 0001:0000fb30       _cpool_on_block_alloc      00410b30 f   pjlib-i386-win32-vc14-release-dynamic:pool_caching.obj
 0001:0000fb50       _cpool_on_block_free       00410b50 f   pjlib-i386-win32-vc14-release-dynamic:pool_caching.obj
 0001:0000fb60       _cpool_release_pool        00410b60 f   pjlib-i386-win32-vc14-release-dynamic:pool_caching.obj
 0001:0000fdd0       _invoke_log                00410dd0 f   pjlib-i386-win32-vc14-release-dynamic:errno.obj
 0001:0000fe70       _pj_perror_imp             00410e70 f   pjlib-i386-win32-vc14-release-dynamic:errno.obj
 0001:000100c0       _pjlib_error               004110c0 f   pjlib-i386-win32-vc14-release-dynamic:errno.obj
 0001:00010140       _logging_shutdown          00411140 f   pjlib-i386-win32-vc14-release-dynamic:log.obj
 0001:0001074c       $LN14                      0041174c     pjlib-i386-win32-vc14-release-dynamic:log.obj
 0001:00010800       _default_block_alloc       00411800 f   pjlib-i386-win32-vc14-release-dynamic:pool_policy_malloc.obj
 0001:00010860       _default_block_free        00411860 f   pjlib-i386-win32-vc14-release-dynamic:pool_policy_malloc.obj
 0001:000108a0       _default_pool_callback     004118a0 f   pjlib-i386-win32-vc14-release-dynamic:pool_policy_malloc.obj
 0001:00011120       _pj_memcmp                 00412120 f   pjlib-i386-win32-vc14-release-dynamic:sock_common.obj
 0001:00011120       _pj_memcmp                 00412120 f   pjlib-i386-win32-vc14-release-dynamic:string.obj
 0001:00011520       _decrement_counter         00412520 f   pjlib-i386-win32-vc14-release-dynamic:ioqueue_select.obj
 0001:000115b0       _increment_counter         004125b0 f   pjlib-i386-win32-vc14-release-dynamic:ioqueue_select.obj
 0001:00012220       _scan_closing_keys         00413220 f   pjlib-i386-win32-vc14-release-dynamic:ioqueue_select.obj
 0001:000125d0       _get_file_size             004135d0 f   pjlib-i386-win32-vc14-release-dynamic:file_access_win32.obj
 0001:00012a10       _srtp_null_auth_compute    00413a10 f   libsrtp-i386-win32-vc14-release-dynamic:null_auth.obj
 0001:00012a10       _srtp_null_cipher_encrypt  00413a10 f   libsrtp-i386-win32-vc14-release-dynamic:null_cipher.obj
 0001:00012a10       _null_op                   00413a10 f   pjlib-i386-win32-vc14-release-dynamic:lock.obj
 0001:00012a10       _srtp_null_auth_init       00413a10 f   libsrtp-i386-win32-vc14-release-dynamic:null_auth.obj
 0001:00012a10       _srtp_null_cipher_set_iv   00413a10 f   libsrtp-i386-win32-vc14-release-dynamic:null_cipher.obj
 0001:00012a10       _sdes_media_stop           00413a10 f   pjmedia-i386-win32-vc14-release-dynamic:transport_srtp.obj
 0001:00012a10       _srtp_null_auth_update     00413a10 f   libsrtp-i386-win32-vc14-release-dynamic:null_auth.obj
 0001:00012a10       _srtp_null_auth_start      00413a10 f   libsrtp-i386-win32-vc14-release-dynamic:null_auth.obj
 0001:00012a20       _create_mutex_lock         00413a20 f   pjlib-i386-win32-vc14-release-dynamic:lock.obj
 0001:00012a90       _grp_lock_destroy          00413a90 f   pjlib-i386-win32-vc14-release-dynamic:lock.obj
 0001:00012b40       _grp_lock_release          00413b40 f   pjlib-i386-win32-vc14-release-dynamic:lock.obj
 0001:00012bb0       _grp_lock_tryacquire       00413bb0 f   pjlib-i386-win32-vc14-release-dynamic:lock.obj
 0001:000130d0       _guid_to_str               004140d0 f   pjlib-i386-win32-vc14-release-dynamic:guid_win32.obj
 0001:00013240       _pool_buf_cleanup          00414240 f   pjlib-i386-win32-vc14-release-dynamic:pool_buf.obj
 0001:00013270       _stack_alloc               00414270 f   pjlib-i386-win32-vc14-release-dynamic:pool_buf.obj
 0001:000134f0       _FilterUD                  004144f0 f   libresample-i386-win32-vc14-release-dynamic:resamplesubs.obj
 0001:00013600       _FilterUp                  00414600 f   libresample-i386-win32-vc14-release-dynamic:resamplesubs.obj
 0001:00013710       _SrcLinear                 00414710 f   libresample-i386-win32-vc14-release-dynamic:resamplesubs.obj
 0001:00013800       _SrcUD                     00414800 f   libresample-i386-win32-vc14-release-dynamic:resamplesubs.obj
 0001:00013960       _SrcUp                     00414960 f   libresample-i386-win32-vc14-release-dynamic:resamplesubs.obj
 0001:00013be0       _mdf_adjust_prop           00414be0 f   libspeex-i386-win32-vc14-release-dynamic:mdf.obj
 0001:00013eb0       _spectral_mul_accum        00414eb0 f   libspeex-i386-win32-vc14-release-dynamic:mdf.obj
 0001:00015e38       $LN44                      00416e38     libspeex-i386-win32-vc14-release-dynamic:mdf.obj
 0001:00015e50       $LN40                      00416e50     libspeex-i386-win32-vc14-release-dynamic:mdf.obj
 0001:00017030       _weighted_spectral_mul_conj 00418030 f   libspeex-i386-win32-vc14-release-dynamic:mdf.obj
 0001:000178c0       _compute_gain_floor        004188c0 f   libspeex-i386-win32-vc14-release-dynamic:preprocess.obj
 0001:00017ad0       _conj_window               00418ad0 f   libspeex-i386-win32-vc14-release-dynamic:preprocess.obj
 0001:00017bd0       _preprocess_analysis       00418bd0 f   libspeex-i386-win32-vc14-release-dynamic:preprocess.obj
 0001:00017ef0       _speex_compute_agc         00418ef0 f   libspeex-i386-win32-vc14-release-dynamic:preprocess.obj
 0001:000188a8       $LN100                     004198a8     libspeex-i386-win32-vc14-release-dynamic:preprocess.obj
 0001:0001ab10       _update_noise_prob         0041bb10 f   libspeex-i386-win32-vc14-release-dynamic:preprocess.obj
 0001:0001b770       _dradb2                    0041c770 f   libspeex-i386-win32-vc14-release-dynamic:smallft.obj
 0001:0001b980       _dradb3                    0041c980 f   libspeex-i386-win32-vc14-release-dynamic:smallft.obj
 0001:0001bc70       _dradb4                    0041cc70 f   libspeex-i386-win32-vc14-release-dynamic:smallft.obj
 0001:0001c140       _dradbg                    0041d140 f   libspeex-i386-win32-vc14-release-dynamic:smallft.obj
 0001:0001cf30       _dradf2                    0041df30 f   libspeex-i386-win32-vc14-release-dynamic:smallft.obj
 0001:0001d160       _dradf4                    0041e160 f   libspeex-i386-win32-vc14-release-dynamic:smallft.obj
 0001:0001d5c0       _dradfg                    0041e5c0 f   libspeex-i386-win32-vc14-release-dynamic:smallft.obj
 0001:0001e4f0       _drftb1                    0041f4f0 f   libspeex-i386-win32-vc14-release-dynamic:smallft.obj
 0001:0001e6f0       _drftf1                    0041f6f0 f   libspeex-i386-win32-vc14-release-dynamic:smallft.obj
 0001:0001e8e0       _drfti1                    0041f8e0 f   libspeex-i386-win32-vc14-release-dynamic:smallft.obj
 0001:0001ebf0       _base_key_length           0041fbf0 f   libsrtp-i386-win32-vc14-release-dynamic:srtp.obj
 0001:0001ec1c       $LN10                      0041fc1c     libsrtp-i386-win32-vc14-release-dynamic:srtp.obj
 0001:0001ec40       _be64_to_cpu               0041fc40 f   libsrtp-i386-win32-vc14-release-dynamic:srtp.obj
 0001:0001ed40       _srtp_calc_aead_iv         0041fd40 f   libsrtp-i386-win32-vc14-release-dynamic:srtp.obj
 0001:0001ee30       _srtp_calc_aead_iv_srtcp   0041fe30 f   libsrtp-i386-win32-vc14-release-dynamic:srtp.obj
 0001:0001f210       _srtp_estimate_index       00420210 f   libsrtp-i386-win32-vc14-release-dynamic:srtp.obj
 0001:0001f330       $LN12                      00420330     libsrtp-i386-win32-vc14-release-dynamic:srtp.obj
 0001:0001f340       _srtp_get_est_pkt_index    00420340 f   libsrtp-i386-win32-vc14-release-dynamic:srtp.obj
 0001:0001f500       _srtp_kdf_generate         00420500 f   libsrtp-i386-win32-vc14-release-dynamic:srtp.obj
 0001:0001f580       _srtp_kdf_init             00420580 f   libsrtp-i386-win32-vc14-release-dynamic:srtp.obj
 0001:0001f5f0       _srtp_process_header_encryption 004205f0 f   libsrtp-i386-win32-vc14-release-dynamic:srtp.obj
 0001:0001f840       _srtp_protect_aead         00420840 f   libsrtp-i386-win32-vc14-release-dynamic:srtp.obj
 0001:00020120       _srtp_protect_rtcp_aead    00421120 f   libsrtp-i386-win32-vc14-release-dynamic:srtp.obj
 0001:00020d00       _srtp_stream_free          00421d00 f   libsrtp-i386-win32-vc14-release-dynamic:srtp.obj
 0001:00021754       $LN91                      00422754     libsrtp-i386-win32-vc14-release-dynamic:srtp.obj
 0001:00021790       _srtp_unprotect_aead       00422790 f   libsrtp-i386-win32-vc14-release-dynamic:srtp.obj
 0001:00022100       _srtp_unprotect_rtcp_aead  00423100 f   libsrtp-i386-win32-vc14-release-dynamic:srtp.obj
 0001:00022890       _srtp_validate_rtp_header  00423890 f   libsrtp-i386-win32-vc14-release-dynamic:srtp.obj
 0001:00023860       _srtp_null_cipher_alloc    00424860 f   libsrtp-i386-win32-vc14-release-dynamic:null_cipher.obj
 0001:000238d0       _srtp_null_cipher_dealloc  004248d0 f   libsrtp-i386-win32-vc14-release-dynamic:null_cipher.obj
 0001:000238f0       _srtp_null_cipher_init     004248f0 f   libsrtp-i386-win32-vc14-release-dynamic:null_cipher.obj
 0001:00023920       _srtp_aes_icm_alloc        00424920 f   libsrtp-i386-win32-vc14-release-dynamic:aes_icm.obj
 0001:00023a00       _srtp_aes_icm_dealloc      00424a00 f   libsrtp-i386-win32-vc14-release-dynamic:aes_icm.obj
 0001:00023a40       _srtp_aes_icm_context_init 00424a40 f   libsrtp-i386-win32-vc14-release-dynamic:aes_icm.obj
 0001:00023b80       _srtp_aes_icm_set_iv       00424b80 f   libsrtp-i386-win32-vc14-release-dynamic:aes_icm.obj
 0001:00023c30       _srtp_aes_icm_encrypt      00424c30 f   libsrtp-i386-win32-vc14-release-dynamic:aes_icm.obj
 0001:00023e10       _srtp_aes_icm_advance      00424e10 f   libsrtp-i386-win32-vc14-release-dynamic:aes_icm.obj
 0001:00023ea0       _srtp_null_auth_alloc      00424ea0 f   libsrtp-i386-win32-vc14-release-dynamic:null_auth.obj
 0001:00023f30       _srtp_null_auth_dealloc    00424f30 f   libsrtp-i386-win32-vc14-release-dynamic:null_auth.obj
 0001:00023f50       _srtp_hmac_alloc           00424f50 f   libsrtp-i386-win32-vc14-release-dynamic:hmac.obj
 0001:00024000       _srtp_hmac_dealloc         00425000 f   libsrtp-i386-win32-vc14-release-dynamic:hmac.obj
 0001:00024020       _srtp_hmac_init            00425020 f   libsrtp-i386-win32-vc14-release-dynamic:hmac.obj
 0001:00024290       _srtp_hmac_start           00425290 f   libsrtp-i386-win32-vc14-release-dynamic:hmac.obj
 0001:000242b0       _srtp_hmac_update          004252b0 f   libsrtp-i386-win32-vc14-release-dynamic:hmac.obj
 0001:00024300       _srtp_hmac_compute         00425300 f   libsrtp-i386-win32-vc14-release-dynamic:hmac.obj
 0001:00024430       _aes_128_expand_encryption_key 00425430 f   libsrtp-i386-win32-vc14-release-dynamic:aes.obj
 0001:00024840       _aes_256_expand_encryption_key 00425840 f   libsrtp-i386-win32-vc14-release-dynamic:aes.obj
 0001:00024940       _aes_final_round           00425940 f   libsrtp-i386-win32-vc14-release-dynamic:aes.obj
 0001:00024a40       _aes_inv_final_round       00425a40 f   libsrtp-i386-win32-vc14-release-dynamic:aes.obj
 0001:00024b40       _aes_inv_round             00425b40 f   libsrtp-i386-win32-vc14-release-dynamic:aes.obj
 0001:00024c30       _aes_round                 00425c30 f   libsrtp-i386-win32-vc14-release-dynamic:aes.obj
 0001:00025cdc       $LN111                     00426cdc     libsrtp-i386-win32-vc14-release-dynamic:sha1.obj
 0001:00025e17       ?pre_c_initialization@@YAHXZ 00426e17 f   MSVCRT:exe_main.obj
 0001:00025ebb       ?post_pgo_initialization@@YAHXZ 00426ebb f   MSVCRT:exe_main.obj
 0001:00025ec3       ?pre_cpp_initialization@@YAXXZ 00426ec3 f   MSVCRT:exe_main.obj
 0001:00025ed5       ?__scrt_common_main_seh@@YAHXZ 00426ed5 f   MSVCRT:exe_main.obj
 0001:00026050       $$000000                   00427050     MSVCRT:ulldiv.obj
 0001:000260c0       $$000000                   004270c0     MSVCRT:llmul.obj
 0001:00026100       $$000000                   00427100     MSVCRT:_ftol3_.obj
 0001:00026620       $$000000                   00427620     MSVCRT:lldiv.obj
 0001:000266d0       $$000000                   004276d0     MSVCRT:_svml_dcos2_dispatch_.obj
 0001:000268e0       $$000000                   004278e0     MSVCRT:llshl.obj
 0001:00026900       $$000000                   00427900     MSVCRT:_svml_dsin2_dispatch_.obj
 0001:00026910       $$000000                   00427910     MSVCRT:_ftol2_.obj
 0001:000269c5       ?find_pe_section@@YAPAU_IMAGE_SECTION_HEADER@@QAEI@Z 004279c5 f   MSVCRT:utility.obj
 0001:00026f40       $$000000                   00427f40     MSVCRT:_sehprolg4_.obj
 0001:00026fc0       $$000000                   00427fc0     MSVCRT:_svml_dcos2_sse2_.obj
 0001:00027160       $$000000                   00428160     MSVCRT:_svml_dsin2_sse2_.obj
 0001:00027340       $$000000                   00428340     MSVCRT:_svml_dtrig_.obj
 0001:00027630       ___common_srl              00428630 f   MSVCRT:_svml_dtrig_.obj
 0001:00027660       ___common_sll              00428660 f   MSVCRT:_svml_dtrig_.obj
 0002:00000270       ?pre_cpp_initializer@@3P6AXXZA 00429270     MSVCRT:exe_main.obj
 0002:0000027c       ?pre_c_initializer@@3P6AHXZA 0042927c     MSVCRT:exe_main.obj
 0002:00000280       ?post_pgo_initializer@@3P6AHXZA 00429280     MSVCRT:exe_main.obj
 0002:000002b0       _err_str                   004292b0     pjmedia-audiodev-i386-win32-vc14-release-dynamic:errno.obj
 0002:000009a0       _STR_RTP_AVP               004299a0     pjmedia-i386-win32-vc14-release-dynamic:endpoint.obj
 0002:000009a8       _STR_IN                    004299a8     pjmedia-i386-win32-vc14-release-dynamic:endpoint.obj
 0002:000009b0       _STR_IP4                   004299b0     pjmedia-i386-win32-vc14-release-dynamic:endpoint.obj
 0002:000009b8       _STR_IP6                   004299b8     pjmedia-i386-win32-vc14-release-dynamic:endpoint.obj
 0002:000009c0       _STR_SDP_NAME              004299c0     pjmedia-i386-win32-vc14-release-dynamic:endpoint.obj
 0002:000009c8       _STR_SENDRECV              004299c8     pjmedia-i386-win32-vc14-release-dynamic:endpoint.obj
 0002:000094c8       _err_str                   004324c8     pjmedia-i386-win32-vc14-release-dynamic:errno.obj
 0002:0000b2ec       _ID_RTP_AVP                004342ec     pjmedia-i386-win32-vc14-release-dynamic:transport_srtp.obj
 0002:0000b2f4       _ID_RTP_SAVP               004342f4     pjmedia-i386-win32-vc14-release-dynamic:transport_srtp.obj
 0002:0000b2fc       _ID_CRYPTO                 004342fc     pjmedia-i386-win32-vc14-release-dynamic:transport_srtp.obj
 0002:0000bb08       _base64_char               00434b08     pjlib-util-i386-win32-vc14-release-dynamic:base64.obj
 0002:0000bd30       _err_str                   00434d30     pjlib-i386-win32-vc14-release-dynamic:errno.obj
 0002:0000c258       _gaErrorList               00435258     pjlib-i386-win32-vc14-release-dynamic:os_error_win32.obj
 0002:0000cdb0       _SMALL_FILTER_IMP          00435db0     libresample-i386-win32-vc14-release-dynamic:resamplesubs.obj
 0002:0000d9b0       _SMALL_FILTER_IMPD         004369b0     libresample-i386-win32-vc14-release-dynamic:resamplesubs.obj
 0002:0000f1b0       _LARGE_FILTER_IMP          004381b0     libresample-i386-win32-vc14-release-dynamic:resamplesubs.obj
 0002:000131b0       _LARGE_FILTER_IMPD         0043c1b0     libresample-i386-win32-vc14-release-dynamic:resamplesubs.obj
 0002:000174f0       ?table@?1??hypergeom_gain@@9@9 004404f0     libspeex-i386-win32-vc14-release-dynamic:preprocess.obj
 0002:00017e78       _srtp_null_cipher_description 00440e78     libsrtp-i386-win32-vc14-release-dynamic:null_cipher.obj
 0002:00017e84       _srtp_null_cipher_test_0   00440e84     libsrtp-i386-win32-vc14-release-dynamic:null_cipher.obj
 0002:00017f3c       _srtp_aes_icm_128_description 00440f3c     libsrtp-i386-win32-vc14-release-dynamic:aes_icm.obj
 0002:00017f5c       _srtp_aes_icm_256_description 00440f5c     libsrtp-i386-win32-vc14-release-dynamic:aes_icm.obj
 0002:00017f7c       _srtp_aes_icm_128_test_case_0_key 00440f7c     libsrtp-i386-win32-vc14-release-dynamic:aes_icm.obj
 0002:00017f9c       _srtp_aes_icm_128_test_case_0_plaintext 00440f9c     libsrtp-i386-win32-vc14-release-dynamic:aes_icm.obj
 0002:00017fbc       _srtp_aes_icm_128_test_case_0_ciphertext 00440fbc     libsrtp-i386-win32-vc14-release-dynamic:aes_icm.obj
 0002:00017fdc       _srtp_aes_icm_128_test_case_0 00440fdc     libsrtp-i386-win32-vc14-release-dynamic:aes_icm.obj
 0002:00018008       _srtp_aes_icm_256_test_case_0_key 00441008     libsrtp-i386-win32-vc14-release-dynamic:aes_icm.obj
 0002:00018038       _srtp_aes_icm_256_test_case_0_plaintext 00441038     libsrtp-i386-win32-vc14-release-dynamic:aes_icm.obj
 0002:00018058       _srtp_aes_icm_256_test_case_0_ciphertext 00441058     libsrtp-i386-win32-vc14-release-dynamic:aes_icm.obj
 0002:00018078       _srtp_aes_icm_256_test_case_0 00441078     libsrtp-i386-win32-vc14-release-dynamic:aes_icm.obj
 0002:00018190       _srtp_null_auth_test_case_0 00441190     libsrtp-i386-win32-vc14-release-dynamic:null_auth.obj
 0002:000181ac       _srtp_null_auth_description 004411ac     libsrtp-i386-win32-vc14-release-dynamic:null_auth.obj
 0002:00018248       _srtp_hmac_test_case_0_key 00441248     libsrtp-i386-win32-vc14-release-dynamic:hmac.obj
 0002:0001825c       _srtp_hmac_test_case_0_data 0044125c     libsrtp-i386-win32-vc14-release-dynamic:hmac.obj
 0002:00018264       _srtp_hmac_test_case_0_tag 00441264     libsrtp-i386-win32-vc14-release-dynamic:hmac.obj
 0002:00018278       _srtp_hmac_test_case_0     00441278     libsrtp-i386-win32-vc14-release-dynamic:hmac.obj
 0002:00018294       _srtp_hmac_description     00441294     libsrtp-i386-win32-vc14-release-dynamic:hmac.obj
 0002:00018300       _T0                        00441300     libsrtp-i386-win32-vc14-release-dynamic:aes.obj
 0002:00018700       _T1                        00441700     libsrtp-i386-win32-vc14-release-dynamic:aes.obj
 0002:00018b00       _T2                        00441b00     libsrtp-i386-win32-vc14-release-dynamic:aes.obj
 0002:00018f00       _T3                        00441f00     libsrtp-i386-win32-vc14-release-dynamic:aes.obj
 0002:00019300       _U0                        00442300     libsrtp-i386-win32-vc14-release-dynamic:aes.obj
 0002:00019700       _U1                        00442700     libsrtp-i386-win32-vc14-release-dynamic:aes.obj
 0002:00019b00       _U2                        00442b00     libsrtp-i386-win32-vc14-release-dynamic:aes.obj
 0002:00019f00       _U3                        00442f00     libsrtp-i386-win32-vc14-release-dynamic:aes.obj
 0002:0001a300       _aes_sbox                  00443300     libsrtp-i386-win32-vc14-release-dynamic:aes.obj
 0002:0001a400       _aes_inv_sbox              00443400     libsrtp-i386-win32-vc14-release-dynamic:aes.obj
 0002:0001a5b0       _Int32ToUInt32             004435b0     MSVCRT:_ftol3_.obj
 0002:0001a5b8       _DP2to32                   004435b8     MSVCRT:_ftol3_.obj
 0002:0001a5c0       _MantissaMask              004435c0     MSVCRT:_ftol3_.obj
 0002:0001a5c8       _IntegerBit                004435c8     MSVCRT:_ftol3_.obj
 0002:0001a5d0       _SignBit64                 004435d0     MSVCRT:_ftol3_.obj
 0002:0001a5d8       _MinFP64                   004435d8     MSVCRT:_ftol3_.obj
 0002:0001a5e0       _MinInt64                  004435e0     MSVCRT:_ftol3_.obj
 0002:0001a5e8       _MaxInt64                  004435e8     MSVCRT:_ftol3_.obj
 0002:0001a5f0       _MaxUInt64                 004435f0     MSVCRT:_ftol3_.obj
 0002:0001a5f8       _MaxFP32                   004435f8     MSVCRT:_ftol3_.obj
 0002:0001a600       _MinFP32                   00443600     MSVCRT:_ftol3_.obj
 0002:0001a608       _MinSubInexact             00443608     MSVCRT:_ftol3_.obj
 0002:0001a610       _FpExcptTable              00443610     MSVCRT:_ftol3_.obj
 0002:0001a620       _i1075                     00443620     MSVCRT:_ftol3_.obj
 0002:0001a624       _i1087                     00443624     MSVCRT:_ftol3_.obj
 0002:0001a628       _x0800                     00443628     MSVCRT:_ftol3_.obj
 0002:0001a62c       _x17FF                     0044362c     MSVCRT:_ftol3_.obj
 0002:0001a630       _CWMask                    00443630     MSVCRT:_ftol3_.obj
 0002:0001a634       _GS_ExceptionPointers      00443634     MSVCRT:gs_report.obj
 0002:0001a928       __sehtable$?__scrt_common_main_seh@@YAHXZ 00443928     MSVCRT:exe_main.obj
 0002:0001a948       __sehtable$___scrt_is_nonwritable_in_current_image 00443948     MSVCRT:utility.obj
 0002:0001acf4       .idata$6                   00443cf4     ole32:ole32.dll
 0002:0001acfe       .idata$6                   00443cfe     ws2_32:WS2_32.dll
 0002:0001aeca       .idata$6                   00443eca     winmm:WINMM.dll
 0002:0001b23c       .idata$6                   0044423c     kernel32:KERNEL32.dll
 0002:0001b296       .idata$6                   00444296     vcruntime:VCRUNTIME140.dll
 0002:0001b602       .idata$6                   00444602     ucrt:api-ms-win-crt-stdio-l1-1-0.dll
 0002:0001b622       .idata$6                   00444622     ucrt:api-ms-win-crt-convert-l1-1-0.dll
 0002:0001b644       .idata$6                   00444644     ucrt:api-ms-win-crt-string-l1-1-0.dll
 0002:0001b666       .idata$6                   00444666     ucrt:api-ms-win-crt-math-l1-1-0.dll
 0002:0001b686       .idata$6                   00444686     ucrt:api-ms-win-crt-heap-l1-1-0.dll
 0002:0001b6a6       .idata$6                   004446a6     ucrt:api-ms-win-crt-utility-l1-1-0.dll
 0002:0001b6c8       .idata$6                   004446c8     ucrt:api-ms-win-crt-runtime-l1-1-0.dll
 0002:0001b6ea       .idata$6                   004446ea     ucrt:api-ms-win-crt-locale-l1-1-0.dll
 0003:00000000       $SG15777                   00445000     confsample.obj
 0003:00000010       $SG22007                   00445010     confsample.obj
 0003:00000024       $SG22054                   00445024     confsample.obj
 0003:00000028       $SG22055                   00445028     confsample.obj
 0003:0000002c       $SG22056                   0044502c     confsample.obj
 0003:00000034       $SG22057                   00445034     confsample.obj
 0003:0000003c       $SG22058                   0044503c     confsample.obj
 0003:00000044       $SG22059                   00445044     confsample.obj
 0003:0000004c       $SG22060                   0044504c     confsample.obj
 0003:00000054       $SG22061                   00445054     confsample.obj
 0003:0000005c       $SG22062                   0044505c     confsample.obj
 0003:00000060       $SG22063                   00445060     confsample.obj
 0003:00000064       $SG22064                   00445064     confsample.obj
 0003:00000070       $SG22068                   00445070     confsample.obj
 0003:00000094       $SG22072                   00445094     confsample.obj
 0003:000000b8       $SG22076                   004450b8     confsample.obj
 0003:000000d8       $SG22080                   004450d8     confsample.obj
 0003:000000fc       $SG22084                   004450fc     confsample.obj
 0003:00000124       $SG22087                   00445124     confsample.obj
 0003:00000140       $SG22106                   00445140     confsample.obj
 0003:00000170       _desc                      00445170     confsample.obj
 0003:00000174       $SG22218                   00445174     confsample.obj
 0003:00000178       $SG22108                   00445178     confsample.obj
 0003:000006cc       $SG22141                   004456cc     confsample.obj
 0003:000006e4       $SG22216                   004456e4     confsample.obj
 0003:000006f4       $SG22220                   004456f4     confsample.obj
 0003:00000718       $SG22221                   00445718     confsample.obj
 0003:00000728       $SG22222                   00445728     confsample.obj
 0003:00000738       $SG22224                   00445738     confsample.obj
 0003:00000754       $SG22225                   00445754     confsample.obj
 0003:00000764       $SG22227                   00445764     confsample.obj
 0003:00000778       $SG22228                   00445778     confsample.obj
 0003:00000788       $SG22230                   00445788     confsample.obj
 0003:000007a8       $SG22231                   004457a8     confsample.obj
 0003:000007b8       $SG22232                   004457b8     confsample.obj
 0003:000007c8       $SG22235                   004457c8     confsample.obj
 0003:000007d0       $SG22236                   004457d0     confsample.obj
 0003:000007ec       $SG22237                   004457ec     confsample.obj
 0003:00000810       $SG22238                   00445810     confsample.obj
 0003:00000834       $SG22239                   00445834     confsample.obj
 0003:0000086c       $SG22240                   0044586c     confsample.obj
 0003:000008a4       $SG22241                   004458a4     confsample.obj
 0003:000008d4       $SG22242                   004458d4     confsample.obj
 0003:000008e0       $SG22244                   004458e0     confsample.obj
 0003:000008f4       $SG22250                   004458f4     confsample.obj
 0003:0000091c       $SG22252                   0044591c     confsample.obj
 0003:00000938       $SG22255                   00445938     confsample.obj
 0003:0000094c       $SG22257                   0044594c     confsample.obj
 0003:0000096c       $SG22260                   0044596c     confsample.obj
 0003:00000980       $SG22262                   00445980     confsample.obj
 0003:00000998       $SG22263                   00445998     confsample.obj
 0003:000009a8       $SG22266                   004459a8     confsample.obj
 0003:000009c4       $SG22268                   004459c4     confsample.obj
 0003:000009e0       $SG22271                   004459e0     confsample.obj
 0003:000009f4       $SG22273                   004459f4     confsample.obj
 0003:00000a14       $SG22276                   00445a14     confsample.obj
 0003:00000a28       $SG22278                   00445a28     confsample.obj
 0003:00000a40       $SG22279                   00445a40     confsample.obj
 0003:00000a50       $SG22282                   00445a50     confsample.obj
 0003:00000a70       $SG22284                   00445a70     confsample.obj
 0003:00000a84       $SG22287                   00445a84     confsample.obj
 0003:00000a98       $SG22289                   00445a98     confsample.obj
 0003:00000ac4       $SG22292                   00445ac4     confsample.obj
 0003:00000ad4       $SG22294                   00445ad4     confsample.obj
 0003:00000aec       $SG22295                   00445aec     confsample.obj
 0003:00000afc       $SG22298                   00445afc     confsample.obj
 0003:00000b1c       $SG22300                   00445b1c     confsample.obj
 0003:00000b30       $SG22303                   00445b30     confsample.obj
 0003:00000b44       $SG22305                   00445b44     confsample.obj
 0003:00000b70       $SG22308                   00445b70     confsample.obj
 0003:00000b80       $SG22310                   00445b80     confsample.obj
 0003:00000b98       $SG22311                   00445b98     confsample.obj
 0003:00000ba8       $SG22314                   00445ba8     confsample.obj
 0003:00000bbc       $SG22316                   00445bbc     confsample.obj
 0003:00000bdc       $SG22319                   00445bdc     confsample.obj
 0003:00000bf0       $SG22321                   00445bf0     confsample.obj
 0003:00000c18       $SG22323                   00445c18     confsample.obj
 0003:00000c28       $SG22325                   00445c28     confsample.obj
 0003:00000c4c       $SG22327                   00445c4c     confsample.obj
 0003:00000c64       $SG22330                   00445c64     confsample.obj
 0003:00000c84       $SG22360                   00445c84     confsample.obj
 0003:00000c98       $SG22361                   00445c98     confsample.obj
 0003:00000ca0       $SG22365                   00445ca0     confsample.obj
 0003:00000ccc       $SG22401                   00445ccc     confsample.obj
 0003:00000d04       $SG22406                   00445d04     confsample.obj
 0003:00000d28       $SG22366                   00445d28     confsample.obj
 0003:00000e2c       $SG22403                   00445e2c     confsample.obj
 0003:00000e44       $SG22404                   00445e44     confsample.obj
 0003:00000e54       $SG21420                   00445e54     confsample.obj
 0003:00000e68       $SG21421                   00445e68     confsample.obj
 0003:00000e7c       _factory_op                00445e7c     pjmedia-audiodev-i386-win32-vc14-release-dynamic:wmme_dev.obj
 0003:00000e98       _stream_op                 00445e98     pjmedia-audiodev-i386-win32-vc14-release-dynamic:wmme_dev.obj
 0003:00000eb8       _cap_infos                 00445eb8     pjmedia-i386-win32-vc14-release-dynamic:audiodev.obj
 0003:00000f28       _echo_supp_op              00445f28     pjmedia-i386-win32-vc14-release-dynamic:echo_common.obj
 0003:00000f48       _speex_aec_op              00445f48     pjmedia-i386-win32-vc14-release-dynamic:echo_common.obj
 0003:00000f68       _crypto_suites             00445f68     pjmedia-i386-win32-vc14-release-dynamic:transport_srtp.obj
 0003:00001044       _transport_srtp_op         00446044     pjmedia-i386-win32-vc14-release-dynamic:transport_srtp.obj
 0003:00001078       _sdes_op                   00446078     pjmedia-i386-win32-vc14-release-dynamic:transport_srtp.obj
 0003:000010b0       ?liberr@?1??get_libsrtp_errstr@@9@9 004460b0     pjmedia-i386-win32-vc14-release-dynamic:transport_srtp.obj
 0003:0000111c       _thread_tls_id             0044611c     pjlib-i386-win32-vc14-release-dynamic:os_core_win32.obj
 0003:00001120       _pool_sizes                00446120     pjlib-i386-win32-vc14-release-dynamic:pool_caching.obj
 0003:00001160       _thread_suspended_tls_id   00446160     pjlib-i386-win32-vc14-release-dynamic:log.obj
 0003:00001164       _thread_indent_tls_id      00446164     pjlib-i386-win32-vc14-release-dynamic:log.obj
 0003:00001168       _pj_log_max_level          00446168     pjlib-i386-win32-vc14-release-dynamic:log.obj
 0003:0000116c       _log_writer                0044616c     pjlib-i386-win32-vc14-release-dynamic:log.obj
 0003:00001170       _log_decor                 00446170     pjlib-i386-win32-vc14-release-dynamic:log.obj
 0003:00001174       _PJ_LOG_COLOR_0            00446174     pjlib-i386-win32-vc14-release-dynamic:log.obj
 0003:00001178       _PJ_LOG_COLOR_1            00446178     pjlib-i386-win32-vc14-release-dynamic:log.obj
 0003:0000117c       _PJ_LOG_COLOR_2            0044617c     pjlib-i386-win32-vc14-release-dynamic:log.obj
 0003:00001180       _PJ_LOG_COLOR_3            00446180     pjlib-i386-win32-vc14-release-dynamic:log.obj
 0003:00001184       _PJ_LOG_COLOR_4            00446184     pjlib-i386-win32-vc14-release-dynamic:log.obj
 0003:00001188       _PJ_LOG_COLOR_5            00446188     pjlib-i386-win32-vc14-release-dynamic:log.obj
 0003:0000118c       _PJ_LOG_COLOR_6            0044618c     pjlib-i386-win32-vc14-release-dynamic:log.obj
 0003:00001190       _PJ_LOG_COLOR_77           00446190     pjlib-i386-win32-vc14-release-dynamic:log.obj
 0003:00001194       ?ltexts@?2??pj_log@@9@9    00446194     pjlib-i386-win32-vc14-release-dynamic:log.obj
 0003:000011b0       ?wdays@?3??pj_log@@9@9     004461b0     pjlib-i386-win32-vc14-release-dynamic:log.obj
 0003:000011dc       _mutex_lock_template       004461dc     pjlib-i386-win32-vc14-release-dynamic:lock.obj
 0003:000011f0       _null_lock_template        004461f0     pjlib-i386-win32-vc14-release-dynamic:lock.obj
 0003:00001204       _sem_lock_template         00446204     pjlib-i386-win32-vc14-release-dynamic:lock.obj
 0003:00001218       _thread_local_id           00446218     pjlib-i386-win32-vc14-release-dynamic:except.obj
 0003:0000121c       ?hex@?1??hex2digit@@9@9    0044621c     pjlib-i386-win32-vc14-release-dynamic:guid_win32.obj
 0003:00001230       _id                        00446230     pjlib-i386-win32-vc14-release-dynamic:config.obj
 0003:00001234       _tls                       00446234     pjlib-i386-win32-vc14-release-dynamic:pool_buf.obj
 0003:00001238       ?ntryh@?1??drfti1@@9@9     00446238     libspeex-i386-win32-vc14-release-dynamic:smallft.obj
 0003:00001248       ?tpi@?1??drfti1@@9@9       00446248     libspeex-i386-win32-vc14-release-dynamic:smallft.obj
 0003:0000124c       ?hsqt2@?1??dradf4@@9@9     0044624c     libspeex-i386-win32-vc14-release-dynamic:smallft.obj
 0003:00001250       ?tpi@?1??dradfg@@9@9       00446250     libspeex-i386-win32-vc14-release-dynamic:smallft.obj
 0003:00001254       ?taur@?1??dradb3@@9@9      00446254     libspeex-i386-win32-vc14-release-dynamic:smallft.obj
 0003:00001258       ?taui@?1??dradb3@@9@9      00446258     libspeex-i386-win32-vc14-release-dynamic:smallft.obj
 0003:0000125c       ?sqrt2@?1??dradb4@@9@9     0044625c     libspeex-i386-win32-vc14-release-dynamic:smallft.obj
 0003:00001260       ?tpi@?1??dradbg@@9@9       00446260     libspeex-i386-win32-vc14-release-dynamic:smallft.obj
 0003:0000126c       _srtp_event_handler        0044626c     libsrtp-i386-win32-vc14-release-dynamic:srtp.obj
 0003:00001700       $SG22126                   00446700     confsample.obj
 0003:00001701       $SG22233                   00446701     confsample.obj
 0003:00001702       $SG22234                   00446702     confsample.obj
 0003:00001703       $SG22243                   00446703     confsample.obj
 0003:00001704       $SG22247                   00446704     confsample.obj
 0003:00001705       $SG22249                   00446705     confsample.obj
 0003:00001706       $SG22265                   00446706     confsample.obj
 0003:00001707       $SG22281                   00446707     confsample.obj
 0003:00001708       $SG22297                   00446708     confsample.obj
 0003:00001709       $SG22313                   00446709     confsample.obj
 0003:0000170a       $SG22367                   0044670a     confsample.obj
 0003:0000170b       $SG22400                   0044670b     confsample.obj
 0003:0000170c       $SG22407                   0044670c     confsample.obj
 0003:00001710       ?name@?1??get_fmt_name@@9@9 00446710     pjmedia-audiodev-i386-win32-vc14-release-dynamic:wmme_dev.obj
 0003:00001718       ?rec_cnt@?1??wmme_dev_thread@@9@9 00446718     pjmedia-audiodev-i386-win32-vc14-release-dynamic:wmme_dev.obj
 0003:0000171c       ?play_cnt@?1??wmme_dev_thread@@9@9 0044671c     pjmedia-audiodev-i386-win32-vc14-release-dynamic:wmme_dev.obj
 0003:00001720       _aud_subsys                00446720     pjmedia-i386-win32-vc14-release-dynamic:audiodev.obj
 0003:00001bf0       _event_manager_instance    00446bf0     pjmedia-i386-win32-vc14-release-dynamic:event.obj
 0003:00001bf8       ?ev_queue@?9??pjmedia_event_publish@@9@9 00446bf8     pjmedia-i386-win32-vc14-release-dynamic:event.obj
 0003:00002088       _is_initialized            00447088     pjmedia-i386-win32-vc14-release-dynamic:sdp.obj
 0003:00002090       _cis_buf                   00447090     pjmedia-i386-win32-vc14-release-dynamic:sdp.obj
 0003:00002494       _cs_digit                  00447494     pjmedia-i386-win32-vc14-release-dynamic:sdp.obj
 0003:0000249c       _cs_token                  0044749c     pjmedia-i386-win32-vc14-release-dynamic:sdp.obj
 0003:000024a4       ?msg@?3??get_libsrtp_errstr@@9@9 004474a4     pjmedia-i386-win32-vc14-release-dynamic:transport_srtp.obj
 0003:000024c4       _libsrtp_initialized       004474c4     pjmedia-i386-win32-vc14-release-dynamic:transport_srtp.obj
 0003:000024cc       ___getopt_initialized      004474cc     pjlib-util-i386-win32-vc14-release-dynamic:getopt.obj
 0003:000024d0       _nextchar                  004474d0     pjlib-util-i386-win32-vc14-release-dynamic:getopt.obj
 0003:000024d4       _ordering                  004474d4     pjlib-util-i386-win32-vc14-release-dynamic:getopt.obj
 0003:000024d8       _posixly_correct           004474d8     pjlib-util-i386-win32-vc14-release-dynamic:getopt.obj
 0003:000024dc       _first_nonopt              004474dc     pjlib-util-i386-win32-vc14-release-dynamic:getopt.obj
 0003:000024e0       _last_nonopt               004474e0     pjlib-util-i386-win32-vc14-release-dynamic:getopt.obj
 0003:000024e8       _initialized               004474e8     pjlib-i386-win32-vc14-release-dynamic:os_core_win32.obj
 0003:000024ec       _atexit_count              004474ec     pjlib-i386-win32-vc14-release-dynamic:os_core_win32.obj
 0003:000024f0       _main_thread               004474f0     pjlib-i386-win32-vc14-release-dynamic:os_core_win32.obj
 0003:000025f0       _critical_section_mutex    004475f0     pjlib-i386-win32-vc14-release-dynamic:os_core_win32.obj
 0003:00002628       _atexit_func               00447628     pjlib-i386-win32-vc14-release-dynamic:os_core_win32.obj
 0003:000026a8       _err_msg_hnd_cnt           004476a8     pjlib-i386-win32-vc14-release-dynamic:errno.obj
 0003:000026b0       _err_msg_hnd               004476b0     pjlib-i386-win32-vc14-release-dynamic:errno.obj
 0003:00002728       _g_last_thread             00447728     pjlib-i386-win32-vc14-release-dynamic:log.obj
 0003:00002730       _base_time                 00447730     pjlib-i386-win32-vc14-release-dynamic:os_time_win32.obj
 0003:00002738       ?buf@?1??pj_gethostname@@9@9 00447738     pjlib-i386-win32-vc14-release-dynamic:sock_bsd.obj
 0003:000027b8       ?hostname@?1??pj_gethostname@@9@9 004477b8     pjlib-i386-win32-vc14-release-dynamic:sock_bsd.obj
 0003:000027c0       _exception_id_names        004477c0     pjlib-i386-win32-vc14-release-dynamic:except.obj
 0003:00002800       ?unknown_name@?1??pj_exception_id_name@@9@9 00447800     pjlib-i386-win32-vc14-release-dynamic:except.obj
 0003:00002820       _stack_based_factory       00447820     pjlib-i386-win32-vc14-release-dynamic:pool_buf.obj
 0003:00002844       _is_initialized            00447844     pjlib-i386-win32-vc14-release-dynamic:pool_buf.obj
 0003:00002848       _s_hDLL                    00447848     pjlib-i386-win32-vc14-release-dynamic:ip_helper_win32.obj
 0003:0000284c       _s_pfnGetIpAddrTable       0044784c     pjlib-i386-win32-vc14-release-dynamic:ip_helper_win32.obj
 0003:00002850       _s_pfnGetAdapterAddresses  00447850     pjlib-i386-win32-vc14-release-dynamic:ip_helper_win32.obj
 0003:00002854       _s_pfnGetIpForwardTable    00447854     pjlib-i386-win32-vc14-release-dynamic:ip_helper_win32.obj
 0003:00002858       _s_pfnGetIfEntry           00447858     pjlib-i386-win32-vc14-release-dynamic:ip_helper_win32.obj
 0003:0000285c       _srtp_log_handler          0044785c     libsrtp-i386-win32-vc14-release-dynamic:srtp.obj
 0003:00002860       _srtp_log_handler_data     00447860     libsrtp-i386-win32-vc14-release-dynamic:srtp.obj
 0003:00002878       _srtp_aes_icm_128_test_case_0_nonce 00447878     libsrtp-i386-win32-vc14-release-dynamic:aes_icm.obj
 0003:00002888       _srtp_aes_icm_256_test_case_0_nonce 00447888     libsrtp-i386-win32-vc14-release-dynamic:aes_icm.obj
 0003:000028a0       _GS_ExceptionRecord        004478a0     MSVCRT:gs_report.obj
 0003:000028f0       _GS_ContextRecord          004478f0     MSVCRT:gs_report.obj
 0003:00002bc4       ?module_local_atexit_table@@3U_onexit_table_t@@A 00447bc4     MSVCRT:utility.obj
 0003:00002bd0       ?module_local_at_quick_exit_table@@3U_onexit_table_t@@A 00447bd0     MSVCRT:utility.obj
 0003:00002bdc       ?is_initialized_as_dll@@3_NA 00447bdc     MSVCRT:utility.obj
 0004:00000000       __guard_fids__             00449000     MSVCRT:exe_main.obj
 0004:00000004       __guard_fids__             00449004     MSVCRT:exe_main.obj
 0004:00000008       __guard_fids__             00449008     MSVCRT:exe_main.obj
 0004:0000000c       __guard_fids_?pre_c_initialization@@YAHXZ 0044900c     MSVCRT:exe_main.obj
 0004:00000014       __guard_fids____scrt_set_unhandled_exception_filter 00449014     MSVCRT:utility_desktop.obj
 0004:00000018       __guard_fids___except_handler4 00449018     MSVCRT:_chandler4gs_.obj
 0004:0000001c       __guard_fids__             0044901c     MSVCRT:guard_support.obj
 0005:00000000       _static_const_table        0044a000     MSVCRT:_svml_dcos2_sse2_.obj
 0005:00000200       _static_const_table        0044a200     MSVCRT:_svml_dsin2_sse2_.obj
 0005:00000400       __e02PI                    0044a400     MSVCRT:_svml_dtrig_.obj
 0005:000005a0       __e04PI                    0044a5a0     MSVCRT:_svml_dtrig_.obj
 0005:00000730       _2il0floatpacket_2         0044a730     MSVCRT:_svml_dtrig_.obj
 0005:00000740       _2il0floatpacket_9         0044a740     MSVCRT:_svml_dtrig_.obj
 0005:00000750       _2il0floatpacket_12        0044a750     MSVCRT:_svml_dtrig_.obj
 0005:00000760       __dPI02                    0044a760     MSVCRT:_svml_dtrig_.obj
 0005:00000770       __d02PI                    0044a770     MSVCRT:_svml_dtrig_.obj
 0005:00000780       __DP4                      0044a780     MSVCRT:_svml_dtrig_.obj
 0005:000007a0       __dPI04                    0044a7a0     MSVCRT:_svml_dtrig_.obj
 0005:000007b0       __d04PI                    0044a7b0     MSVCRT:_svml_dtrig_.obj
 0005:000007c0       __QP4                      0044a7c0     MSVCRT:_svml_dtrig_.obj
