 pcaputil

 Timestamp is 5e5eb1b3 (Tue Mar  3 15:36:19 2020)

 Preferred load address is 00400000

 Start         Length     Name                   Class
 0001:00000000 0003d8faH .text$mn                CODE
 0002:00000000 00000270H .idata$5                DATA
 0002:00000270 00000004H .00cfg                  DATA
 0002:00000274 00000004H .CRT$XCA                DATA
 0002:00000278 00000004H .CRT$XCAA               DATA
 0002:0000027c 00000004H .CRT$XCZ                DATA
 0002:00000280 00000004H .CRT$XIA                DATA
 0002:00000284 00000004H .CRT$XIAA               DATA
 0002:00000288 00000004H .CRT$XIAC               DATA
 0002:0000028c 00000004H .CRT$XIZ                DATA
 0002:00000290 00000004H .CRT$XPA                DATA
 0002:00000294 00000004H .CRT$XPZ                DATA
 0002:00000298 00000004H .CRT$XTA                DATA
 0002:0000029c 00000004H .CRT$XTZ                DATA
 0002:000002a0 000151e0H .rdata                  DATA
 0002:00015480 00000004H .rdata$sxdata           DATA
 0002:00015484 00000250H .rdata$zzzdbg           DATA
 0002:000156d4 00000004H .rtc$IAA                DATA
 0002:000156d8 00000004H .rtc$IZZ                DATA
 0002:000156dc 00000004H .rtc$TAA                DATA
 0002:000156e0 00000008H .rtc$TZZ                DATA
 0002:000156e8 0000003cH .xdata$x                DATA
 0002:00015724 00000000H .edata                  DATA
 0002:00015724 00000104H .idata$2                DATA
 0002:00015828 00000014H .idata$3                DATA
 0002:0001583c 00000270H .idata$4                DATA
 0002:00015aac 00000a34H .idata$6                DATA
 0003:00000000 00003600H .data                   DATA
 0003:00003600 00001cd0H .bss                    DATA
 0004:00000000 00000020H .gfids$y                DATA
 0005:00000000 000005e0H _RDATA                  DATA

  Address         Publics by Value              Rva+Base       Lib:Object

 0000:00000000       ___guard_fids_table        00000000     <absolute>
 0000:00000000       ___guard_longjmp_table     00000000     <absolute>
 0000:00000000       ___guard_iat_table         00000000     <absolute>
 0000:00000000       ___guard_fids_count        00000000     <absolute>
 0000:00000000       ___guard_iat_count         00000000     <absolute>
 0000:00000000       ___dynamic_value_reloc_table 00000000     <absolute>
 0000:00000000       ___guard_longjmp_count     00000000     <absolute>
 0000:00000001       ___safe_se_handler_count   00000001     <absolute>
 0000:00000100       ___guard_flags             00000100     <absolute>
 0000:00000000       ___ImageBase               00400000     <linker-defined>
 0001:00000c10       _main                      00401c10 f   pcaputil.obj
 0001:00001170       ___local_stdio_printf_options 00402170 f i pcaputil.obj
 0001:00001180       _printf                    00402180 f i pcaputil.obj
 0001:000011b0       _pjmedia_codec_register_audio_codecs 004021b0 f   pjmedia-codec-i386-win32-vc14-release-dynamic:audio_codecs.obj
 0001:000019c0       _pjmedia_codec_g722_deinit 004029c0 f   pjmedia-codec-i386-win32-vc14-release-dynamic:g722.obj
 0001:00001a40       _pjmedia_codec_g722_init   00402a40 f   pjmedia-codec-i386-win32-vc14-release-dynamic:g722.obj
 0001:00002160       _pjmedia_codec_gsm_deinit  00403160 f   pjmedia-codec-i386-win32-vc14-release-dynamic:gsm.obj
 0001:000021e0       _pjmedia_codec_gsm_init    004031e0 f   pjmedia-codec-i386-win32-vc14-release-dynamic:gsm.obj
 0001:00002970       _pjmedia_codec_ilbc_deinit 00403970 f   pjmedia-codec-i386-win32-vc14-release-dynamic:ilbc.obj
 0001:00002b00       __snprintf                 00403b00 f i pjmedia-codec-i386-win32-vc14-release-dynamic:ilbc.obj
 0001:00002b40       _pjmedia_codec_ilbc_init   00403b40 f   pjmedia-codec-i386-win32-vc14-release-dynamic:ilbc.obj
 0001:00003160       _pjmedia_codec_l16_deinit  00404160 f   pjmedia-codec-i386-win32-vc14-release-dynamic:l16.obj
 0001:00003200       _pjmedia_codec_l16_init    00404200 f   pjmedia-codec-i386-win32-vc14-release-dynamic:l16.obj
 0001:00003340       _pjmedia_codec_speex_deinit 00404340 f   pjmedia-codec-i386-win32-vc14-release-dynamic:speex_codec.obj
 0001:00003db0       _pjmedia_codec_speex_init  00404db0 f   pjmedia-codec-i386-win32-vc14-release-dynamic:speex_codec.obj
 0001:000045f0       _g722_enc_encode           004055f0 f   pjmedia-codec-i386-win32-vc14-release-dynamic:g722_enc.obj
 0001:000051d0       _g722_dec_decode           004061d0 f   pjmedia-codec-i386-win32-vc14-release-dynamic:g722_dec.obj
 0001:00005360       _g722_dec_init             00406360 f   pjmedia-codec-i386-win32-vc14-release-dynamic:g722_dec.obj
 0001:00005360       _g722_enc_init             00406360 f   pjmedia-codec-i386-win32-vc14-release-dynamic:g722_enc.obj
 0001:00005540       _pjmedia_aud_subsys_init   00406540 f   pjmedia-audiodev-i386-win32-vc14-release-dynamic:audiodev.obj
 0001:000055e0       _pjmedia_aud_subsys_shutdown 004065e0 f   pjmedia-audiodev-i386-win32-vc14-release-dynamic:audiodev.obj
 0001:00005620       _pjmedia_audiodev_strerror 00406620 f   pjmedia-audiodev-i386-win32-vc14-release-dynamic:errno.obj
 0001:00006a40       _pjmedia_wmme_factory      00407a40 f   pjmedia-audiodev-i386-win32-vc14-release-dynamic:wmme_dev.obj
 0001:00007130       _pjmedia_aud_dev_default_param 00408130 f   pjmedia-i386-win32-vc14-release-dynamic:audiodev.obj
 0001:000071b0       _pjmedia_aud_driver_deinit 004081b0 f   pjmedia-i386-win32-vc14-release-dynamic:audiodev.obj
 0001:00007210       _pjmedia_aud_driver_init   00408210 f   pjmedia-i386-win32-vc14-release-dynamic:audiodev.obj
 0001:00007490       _pjmedia_aud_stream_create 00408490 f   pjmedia-i386-win32-vc14-release-dynamic:audiodev.obj
 0001:00007640       _pjmedia_aud_stream_destroy 00408640 f   pjmedia-i386-win32-vc14-release-dynamic:audiodev.obj
 0001:00007660       _pjmedia_aud_stream_get_param 00408660 f   pjmedia-i386-win32-vc14-release-dynamic:audiodev.obj
 0001:000076c0       _pjmedia_aud_stream_start  004086c0 f   pjmedia-i386-win32-vc14-release-dynamic:audiodev.obj
 0001:000076e0       _pjmedia_aud_stream_stop   004086e0 f   pjmedia-i386-win32-vc14-release-dynamic:audiodev.obj
 0001:00007700       _pjmedia_get_aud_subsys    00408700 f   pjmedia-i386-win32-vc14-release-dynamic:audiodev.obj
 0001:00007710       _pjmedia_rtp_decode_rtp    00408710 f   pjmedia-i386-win32-vc14-release-dynamic:rtp.obj
 0001:00007740       _pjmedia_rtp_decode_rtp2   00408740 f   pjmedia-i386-win32-vc14-release-dynamic:rtp.obj
 0001:00007800       _pjmedia_rtp_seq_update    00408800 f   pjmedia-i386-win32-vc14-release-dynamic:rtp.obj
 0001:00007900       _pjmedia_rtp_session_init  00408900 f   pjmedia-i386-win32-vc14-release-dynamic:rtp.obj
 0001:000079b0       _pjmedia_rtp_session_update2 004089b0 f   pjmedia-i386-win32-vc14-release-dynamic:rtp.obj
 0001:00007ac0       _pjmedia_port_destroy      00408ac0 f   pjmedia-i386-win32-vc14-release-dynamic:port.obj
 0001:00007af0       _pjmedia_port_info_init    00408af0 f   pjmedia-i386-win32-vc14-release-dynamic:port.obj
 0001:00007ba0       _pjmedia_port_put_frame    00408ba0 f   pjmedia-i386-win32-vc14-release-dynamic:port.obj
 0001:00007bd0       _pjmedia_codec_mgr_alloc_codec 00408bd0 f   pjmedia-i386-win32-vc14-release-dynamic:codec.obj
 0001:00007c70       _pjmedia_codec_mgr_dealloc_codec 00408c70 f   pjmedia-i386-win32-vc14-release-dynamic:codec.obj
 0001:00007ca0       _pjmedia_codec_mgr_destroy 00408ca0 f   pjmedia-i386-win32-vc14-release-dynamic:codec.obj
 0001:00007d30       _pjmedia_codec_mgr_find_codecs_by_id 00408d30 f   pjmedia-i386-win32-vc14-release-dynamic:codec.obj
 0001:00007e10       _pjmedia_codec_mgr_get_codec_info 00408e10 f   pjmedia-i386-win32-vc14-release-dynamic:codec.obj
 0001:00007e90       _pjmedia_codec_mgr_get_default_param 00408e90 f   pjmedia-i386-win32-vc14-release-dynamic:codec.obj
 0001:00008000       _pjmedia_codec_mgr_init    00409000 f   pjmedia-i386-win32-vc14-release-dynamic:codec.obj
 0001:00008070       _pjmedia_codec_mgr_register_factory 00409070 f   pjmedia-i386-win32-vc14-release-dynamic:codec.obj
 0001:00008230       _pjmedia_codec_mgr_unregister_factory 00409230 f   pjmedia-i386-win32-vc14-release-dynamic:codec.obj
 0001:000083e0       _pjmedia_endpt_atexit      004093e0 f   pjmedia-i386-win32-vc14-release-dynamic:endpoint.obj
 0001:00008440       _pjmedia_endpt_create2     00409440 f   pjmedia-i386-win32-vc14-release-dynamic:endpoint.obj
 0001:00008610       _pjmedia_endpt_create_pool 00409610 f   pjmedia-i386-win32-vc14-release-dynamic:endpoint.obj
 0001:00008630       _pjmedia_endpt_destroy2    00409630 f   pjmedia-i386-win32-vc14-release-dynamic:endpoint.obj
 0001:000086c0       _pjmedia_endpt_stop_threads 004096c0 f   pjmedia-i386-win32-vc14-release-dynamic:endpoint.obj
 0001:00008720       _sprintf                   00409720 f i pjmedia-i386-win32-vc14-release-dynamic:endpoint.obj
 0001:00008a20       _srtp_ekt_stream_init_from_policy 00409a20 f   libsrtp-i386-win32-vc14-release-dynamic:ekt.obj
 0001:00008a20       __get_startup_thread_locale_mode 00409a20 f   MSVCRT:thread_locale.obj
 0001:00008a20       ___scrt_initialize_winrt   00409a20 f   MSVCRT:utility_desktop.obj
 0001:00008a20       _srtp_err_reporting_init   00409a20 f   libsrtp-i386-win32-vc14-release-dynamic:srtp_err.obj
 0001:00008a20       __matherr                  00409a20 f   MSVCRT:matherr.obj
 0001:00008a20       __get_startup_new_mode     00409a20 f   MSVCRT:new_mode.obj
 0001:00008a20       __get_startup_commit_mode  00409a20 f   MSVCRT:commit_mode.obj
 0001:00008a90       _pjmedia_transport_loop_create 00409a90 f   pjmedia-i386-win32-vc14-release-dynamic:transport_loop.obj
 0001:00008ad0       _pjmedia_transport_loop_create2 00409ad0 f   pjmedia-i386-win32-vc14-release-dynamic:transport_loop.obj
 0001:0000a860       _get_libsrtp_errstr        0040b860 f   pjmedia-i386-win32-vc14-release-dynamic:transport_srtp.obj
 0001:0000ab70       _pjmedia_srtp_enum_crypto  0040bb70 f   pjmedia-i386-win32-vc14-release-dynamic:transport_srtp.obj
 0001:0000abe0       _pjmedia_srtp_init_lib     0040bbe0 f   pjmedia-i386-win32-vc14-release-dynamic:transport_srtp.obj
 0001:0000ac80       _pjmedia_transport_srtp_create 0040bc80 f   pjmedia-i386-win32-vc14-release-dynamic:transport_srtp.obj
 0001:0000af60       _pjmedia_transport_srtp_decrypt_pkt 0040bf60 f   pjmedia-i386-win32-vc14-release-dynamic:transport_srtp.obj
 0001:0000b040       _pjmedia_transport_srtp_start 0040c040 f   pjmedia-i386-win32-vc14-release-dynamic:transport_srtp.obj
 0001:0000b6e0       _pjmedia_transport_srtp_stop 0040c6e0 f   pjmedia-i386-win32-vc14-release-dynamic:transport_srtp.obj
 0001:0000c160       _pjmedia_wav_writer_port_create 0040d160 f   pjmedia-i386-win32-vc14-release-dynamic:wav_writer.obj
 0001:0000c460       _pjmedia_wav_writer_port_get_pos 0040d460 f   pjmedia-i386-win32-vc14-release-dynamic:wav_writer.obj
 0001:0000cad0       _pjmedia_codec_g711_deinit 0040dad0 f   pjmedia-i386-win32-vc14-release-dynamic:g711.obj
 0001:0000cb70       _pjmedia_codec_g711_init   0040db70 f   pjmedia-i386-win32-vc14-release-dynamic:g711.obj
 0001:0000ccf0       _pjmedia_plc_create        0040dcf0 f   pjmedia-i386-win32-vc14-release-dynamic:plc_common.obj
 0001:0000cd50       _pjmedia_plc_generate      0040dd50 f   pjmedia-i386-win32-vc14-release-dynamic:plc_common.obj
 0001:0000cd80       _pjmedia_plc_save          0040dd80 f   pjmedia-i386-win32-vc14-release-dynamic:plc_common.obj
 0001:0000cdb0       _pjmedia_silence_det_apply 0040ddb0 f   pjmedia-i386-win32-vc14-release-dynamic:silencedet.obj
 0001:0000cf80       _pjmedia_silence_det_create 0040df80 f   pjmedia-i386-win32-vc14-release-dynamic:silencedet.obj
 0001:0000d000       _pjmedia_silence_det_detect 0040e000 f   pjmedia-i386-win32-vc14-release-dynamic:silencedet.obj
 0001:0000d200       _pjmedia_event_init        0040e200 f   pjmedia-i386-win32-vc14-release-dynamic:event.obj
 0001:0000d240       _pjmedia_event_publish     0040e240 f   pjmedia-i386-win32-vc14-release-dynamic:event.obj
 0001:0000d370       _pjmedia_event_subscribe   0040e370 f   pjmedia-i386-win32-vc14-release-dynamic:event.obj
 0001:0000d450       _pjmedia_event_unsubscribe 0040e450 f   pjmedia-i386-win32-vc14-release-dynamic:event.obj
 0001:0000d530       _pjmedia_sdp_attr_create   0040e530 f   pjmedia-i386-win32-vc14-release-dynamic:sdp.obj
 0001:0000d590       _pjmedia_sdp_attr_find     0040e590 f   pjmedia-i386-win32-vc14-release-dynamic:sdp.obj
 0001:0000d620       _pjmedia_sdp_media_deactivate 0040e620 f   pjmedia-i386-win32-vc14-release-dynamic:sdp.obj
 0001:0000d650       _pjmedia_sdp_media_find_attr 0040e650 f   pjmedia-i386-win32-vc14-release-dynamic:sdp.obj
 0001:0000d680       _pjmedia_sdp_transport_get_proto 0040e680 f   pjmedia-i386-win32-vc14-release-dynamic:sdp.obj
 0001:0000d7d0       _pjmedia_strerror          0040e7d0 f   pjmedia-i386-win32-vc14-release-dynamic:errno.obj
 0001:0000d8f0       __initialize_invalid_parameter_handler 0040e8f0 f   MSVCRT:invalid_parameter_handler.obj
 0001:0000d8f0       __initialize_denormal_control 0040e8f0 f   MSVCRT:denormal_control.obj
 0001:0000d8f0       _pjmedia_wave_hdr_host_to_file 0040e8f0 f   pjmedia-i386-win32-vc14-release-dynamic:wave.obj
 0001:0000d8f0       _vbr_destroy               0040e8f0 f   libspeex-i386-win32-vc14-release-dynamic:vbr.obj
 0001:0000d8f0       @_guard_check_icall_nop@4  0040e8f0 f   MSVCRT:guard_support.obj
 0001:0000e3c0       _pjmedia_wsola_create      0040f3c0 f   pjmedia-i386-win32-vc14-release-dynamic:wsola.obj
 0001:0000e580       _pjmedia_wsola_generate    0040f580 f   pjmedia-i386-win32-vc14-release-dynamic:wsola.obj
 0001:0000e640       _pjmedia_wsola_save        0040f640 f   pjmedia-i386-win32-vc14-release-dynamic:wsola.obj
 0001:0000ea10       _pjlib_util_init           0040fa10 f   pjlib-util-i386-win32-vc14-release-dynamic:errno.obj
 0001:0000ea30       _pjlib_util_strerror       0040fa30 f   pjlib-util-i386-win32-vc14-release-dynamic:errno.obj
 0001:0000f3d0       _pj_getopt_long            004103d0 f   pjlib-util-i386-win32-vc14-release-dynamic:getopt.obj
 0001:0000f3f0       _pj_base64_decode          004103f0 f   pjlib-util-i386-win32-vc14-release-dynamic:base64.obj
 0001:0000f5e0       _pj_base64_encode          004105e0 f   pjlib-util-i386-win32-vc14-release-dynamic:base64.obj
 0001:0000f780       _pj_pcap_close             00410780 f   pjlib-util-i386-win32-vc14-release-dynamic:pcap.obj
 0001:0000f7a0       _pj_pcap_filter_default    004107a0 f   pjlib-util-i386-win32-vc14-release-dynamic:pcap.obj
 0001:0000f7c0       _pj_pcap_open              004107c0 f   pjlib-util-i386-win32-vc14-release-dynamic:pcap.obj
 0001:0000f8b0       _pj_pcap_read_udp          004108b0 f   pjlib-util-i386-win32-vc14-release-dynamic:pcap.obj
 0001:0000fb80       _pj_pcap_set_filter        00410b80 f   pjlib-util-i386-win32-vc14-release-dynamic:pcap.obj
 0001:0000fca0       _pj_atexit                 00410ca0 f   pjlib-i386-win32-vc14-release-dynamic:os_core_win32.obj
 0001:0000fcd0       _pj_atomic_dec_and_get     00410cd0 f   pjlib-i386-win32-vc14-release-dynamic:os_core_win32.obj
 0001:0000fd20       _pj_atomic_destroy         00410d20 f   pjlib-i386-win32-vc14-release-dynamic:os_core_win32.obj
 0001:0000fd40       _pj_atomic_inc             00410d40 f   pjlib-i386-win32-vc14-release-dynamic:os_core_win32.obj
 0001:0000fd90       _pj_enter_critical_section 00410d90 f   pjlib-i386-win32-vc14-release-dynamic:os_core_win32.obj
 0001:0000fda0       _pj_init                   00410da0 f   pjlib-i386-win32-vc14-release-dynamic:os_core_win32.obj
 0001:0000fee0       _pj_leave_critical_section 00410ee0 f   pjlib-i386-win32-vc14-release-dynamic:os_core_win32.obj
 0001:0000ff30       _pj_mutex_create           00410f30 f   pjlib-i386-win32-vc14-release-dynamic:os_core_win32.obj
 0001:0000ff80       _pj_mutex_create_simple    00410f80 f   pjlib-i386-win32-vc14-release-dynamic:os_core_win32.obj
 0001:0000ff80       _pj_mutex_create_recursive 00410f80 f   pjlib-i386-win32-vc14-release-dynamic:os_core_win32.obj
 0001:0000ffe0       _pj_mutex_destroy          00410fe0 f   pjlib-i386-win32-vc14-release-dynamic:os_core_win32.obj
 0001:00010040       _pj_mutex_lock             00411040 f   pjlib-i386-win32-vc14-release-dynamic:os_core_win32.obj
 0001:000100b0       _pj_mutex_trylock          004110b0 f   pjlib-i386-win32-vc14-release-dynamic:os_core_win32.obj
 0001:00010130       _pj_mutex_unlock           00411130 f   pjlib-i386-win32-vc14-release-dynamic:os_core_win32.obj
 0001:00010190       _pj_sem_destroy            00411190 f   pjlib-i386-win32-vc14-release-dynamic:os_core_win32.obj
 0001:00010220       _pj_sem_post               00411220 f   pjlib-i386-win32-vc14-release-dynamic:os_core_win32.obj
 0001:000102b0       _pj_sem_trywait            004112b0 f   pjlib-i386-win32-vc14-release-dynamic:os_core_win32.obj
 0001:00010310       _pj_sem_wait               00411310 f   pjlib-i386-win32-vc14-release-dynamic:os_core_win32.obj
 0001:00010420       _pj_shutdown               00411420 f   pjlib-i386-win32-vc14-release-dynamic:os_core_win32.obj
 0001:00010560       _pj_term_set_color         00411560 f   pjlib-i386-win32-vc14-release-dynamic:os_core_win32.obj
 0001:00010630       _pj_thread_check_stack     00411630 f   pjlib-i386-win32-vc14-release-dynamic:os_core_win32.obj
 0001:00010670       _pj_thread_create          00411670 f   pjlib-i386-win32-vc14-release-dynamic:os_core_win32.obj
 0001:000107b0       _pj_thread_destroy         004117b0 f   pjlib-i386-win32-vc14-release-dynamic:os_core_win32.obj
 0001:00010840       _pj_thread_get_name        00411840 f   pjlib-i386-win32-vc14-release-dynamic:os_core_win32.obj
 0001:00010890       _pj_thread_init            00411890 f   pjlib-i386-win32-vc14-release-dynamic:os_core_win32.obj
 0001:000108f0       _pj_thread_join            004118f0 f   pjlib-i386-win32-vc14-release-dynamic:os_core_win32.obj
 0001:000109b0       _pj_thread_local_alloc     004119b0 f   pjlib-i386-win32-vc14-release-dynamic:os_core_win32.obj
 0001:00010a00       _pj_thread_local_free      00411a00 f   pjlib-i386-win32-vc14-release-dynamic:os_core_win32.obj
 0001:00010a50       _pj_thread_local_get       00411a50 f   pjlib-i386-win32-vc14-release-dynamic:os_core_win32.obj
 0001:00010a60       _pj_thread_local_set       00411a60 f   pjlib-i386-win32-vc14-release-dynamic:os_core_win32.obj
 0001:00010aa0       _pj_thread_register        00411aa0 f   pjlib-i386-win32-vc14-release-dynamic:os_core_win32.obj
 0001:00010b60       _pj_thread_sleep           00411b60 f   pjlib-i386-win32-vc14-release-dynamic:os_core_win32.obj
 0001:00010bb0       _pj_thread_this            00411bb0 f   pjlib-i386-win32-vc14-release-dynamic:os_core_win32.obj
 0001:00010c40       _pj_htonl                  00411c40 f   pjlib-i386-win32-vc14-release-dynamic:sock_bsd.obj
 0001:00010c50       _pj_htons                  00411c50 f   pjlib-i386-win32-vc14-release-dynamic:sock_bsd.obj
 0001:00010c60       _pj_inet_aton              00411c60 f   pjlib-i386-win32-vc14-release-dynamic:sock_bsd.obj
 0001:00010cf0       _pj_inet_pton              00411cf0 f   pjlib-i386-win32-vc14-release-dynamic:sock_bsd.obj
 0001:00010e50       _pj_ntohl                  00411e50 f   pjlib-i386-win32-vc14-release-dynamic:sock_bsd.obj
 0001:00010e60       _pj_ntohs                  00411e60 f   pjlib-i386-win32-vc14-release-dynamic:sock_bsd.obj
 0001:00010e70       _pj_sock_accept            00411e70 f   pjlib-i386-win32-vc14-release-dynamic:sock_bsd.obj
 0001:00010ee0       _pj_sock_getsockname       00411ee0 f   pjlib-i386-win32-vc14-release-dynamic:sock_bsd.obj
 0001:00010f40       _pj_sock_getsockopt        00411f40 f   pjlib-i386-win32-vc14-release-dynamic:sock_bsd.obj
 0001:00010fb0       _pj_sock_recv              00411fb0 f   pjlib-i386-win32-vc14-release-dynamic:sock_bsd.obj
 0001:00011020       _pj_sock_recvfrom          00412020 f   pjlib-i386-win32-vc14-release-dynamic:sock_bsd.obj
 0001:00011090       _pj_sock_send              00412090 f   pjlib-i386-win32-vc14-release-dynamic:sock_bsd.obj
 0001:00011100       _pj_sock_sendto            00412100 f   pjlib-i386-win32-vc14-release-dynamic:sock_bsd.obj
 0001:00011170       _pj_inet_addr              00412170 f   pjlib-i386-win32-vc14-release-dynamic:sock_common.obj
 0001:00011200       _pj_sockaddr_cmp           00412200 f   pjlib-i386-win32-vc14-release-dynamic:sock_common.obj
 0001:00011320       _pj_sockaddr_has_addr      00412320 f   pjlib-i386-win32-vc14-release-dynamic:sock_common.obj
 0001:000113d0       _pj_sockaddr_in_set_str_addr 004123d0 f   pjlib-i386-win32-vc14-release-dynamic:sock_common.obj
 0001:000114c0       _pj_sockaddr_init          004124c0 f   pjlib-i386-win32-vc14-release-dynamic:sock_common.obj
 0001:00011570       _pj_sockaddr_set_str_addr  00412570 f   pjlib-i386-win32-vc14-release-dynamic:sock_common.obj
 0001:00011690       _pj_errno_clear_handlers   00412690 f   pjlib-i386-win32-vc14-release-dynamic:errno.obj
 0001:000116b0       _pj_perror_3               004126b0 f   pjlib-i386-win32-vc14-release-dynamic:errno.obj
 0001:000116d0       _pj_perror_4               004126d0 f   pjlib-i386-win32-vc14-release-dynamic:errno.obj
 0001:00011790       _pj_register_strerror      00412790 f   pjlib-i386-win32-vc14-release-dynamic:errno.obj
 0001:00011870       _pj_strerror               00412870 f   pjlib-i386-win32-vc14-release-dynamic:errno.obj
 0001:00011a00       _pj_log                    00412a00 f   pjlib-i386-win32-vc14-release-dynamic:log.obj
 0001:00011f00       _pj_log_1                  00412f00 f   pjlib-i386-win32-vc14-release-dynamic:log.obj
 0001:00011f20       _pj_log_3                  00412f20 f   pjlib-i386-win32-vc14-release-dynamic:log.obj
 0001:00011f40       _pj_log_4                  00412f40 f   pjlib-i386-win32-vc14-release-dynamic:log.obj
 0001:00011f60       _pj_log_5                  00412f60 f   pjlib-i386-win32-vc14-release-dynamic:log.obj
 0001:00011f80       _pj_log_get_color          00412f80 f   pjlib-i386-win32-vc14-release-dynamic:log.obj
 0001:00011ff0       _pj_log_get_decor          00412ff0 f   pjlib-i386-win32-vc14-release-dynamic:log.obj
 0001:00012000       _pj_log_get_level          00413000 f   pjlib-i386-win32-vc14-release-dynamic:log.obj
 0001:00012010       _pj_log_init               00413010 f   pjlib-i386-win32-vc14-release-dynamic:log.obj
 0001:00012080       _pj_str                    00413080 f   pjlib-i386-win32-vc14-release-dynamic:string.obj
 0001:000120a0       _pj_strcmp                 004130a0 f   pjlib-i386-win32-vc14-release-dynamic:string.obj
 0001:00012100       _pj_strcmp2                00413100 f   pjlib-i386-win32-vc14-release-dynamic:string.obj
 0001:00012170       _pj_strcspn                00413170 f   pjlib-i386-win32-vc14-release-dynamic:string.obj
 0001:000121c0       _pj_strcspn2               004131c0 f   pjlib-i386-win32-vc14-release-dynamic:string.obj
 0001:00012200       _pj_strdup                 00413200 f   pjlib-i386-win32-vc14-release-dynamic:string.obj
 0001:00012240       _pj_strdup2                00413240 f   pjlib-i386-win32-vc14-release-dynamic:string.obj
 0001:000122a0       _pj_strdup_with_null       004132a0 f   pjlib-i386-win32-vc14-release-dynamic:string.obj
 0001:000122f0       _pj_stricmp                004132f0 f   pjlib-i386-win32-vc14-release-dynamic:string.obj
 0001:00012360       _pj_stricmp2               00413360 f   pjlib-i386-win32-vc14-release-dynamic:string.obj
 0001:000123c0       _pj_stristr                004133c0 f   pjlib-i386-win32-vc14-release-dynamic:string.obj
 0001:00012410       _pj_strncpy_with_null      00413410 f   pjlib-i386-win32-vc14-release-dynamic:string.obj
 0001:00012450       _pj_strnicmp2              00413450 f   pjlib-i386-win32-vc14-release-dynamic:string.obj
 0001:000124b0       _pj_strspn                 004134b0 f   pjlib-i386-win32-vc14-release-dynamic:string.obj
 0001:00012530       _pj_strspn2                00413530 f   pjlib-i386-win32-vc14-release-dynamic:string.obj
 0001:00012590       _pj_strtok                 00413590 f   pjlib-i386-win32-vc14-release-dynamic:string.obj
 0001:00012600       _pj_strtok2                00413600 f   pjlib-i386-win32-vc14-release-dynamic:string.obj
 0001:00012670       _pj_strtoul                00413670 f   pjlib-i386-win32-vc14-release-dynamic:string.obj
 0001:000126d0       _pj_strtoul2               004136d0 f   pjlib-i386-win32-vc14-release-dynamic:string.obj
 0001:00012780       _pj_utoa                   00413780 f   pjlib-i386-win32-vc14-release-dynamic:string.obj
 0001:000127a0       _pj_utoa_pad               004137a0 f   pjlib-i386-win32-vc14-release-dynamic:string.obj
 0001:00012840       _pj_pool_alloc             00413840 f   pjlib-i386-win32-vc14-release-dynamic:pool.obj
 0001:00012890       _pj_pool_allocate_find     00413890 f   pjlib-i386-win32-vc14-release-dynamic:pool.obj
 0001:00012970       _pj_pool_calloc            00413970 f   pjlib-i386-win32-vc14-release-dynamic:pool.obj
 0001:000129d0       _pj_pool_create            004139d0 f   pjlib-i386-win32-vc14-release-dynamic:pool.obj
 0001:00012a60       _pj_pool_create_int        00413a60 f   pjlib-i386-win32-vc14-release-dynamic:pool.obj
 0001:00012b10       _pj_pool_destroy_int       00413b10 f   pjlib-i386-win32-vc14-release-dynamic:pool.obj
 0001:00012b50       _pj_pool_get_capacity      00413b50 f   pjlib-i386-win32-vc14-release-dynamic:pool.obj
 0001:00012b60       _pj_pool_get_used_size     00413b60 f   pjlib-i386-win32-vc14-release-dynamic:pool.obj
 0001:00012b90       _pj_pool_getobjname        00413b90 f   pjlib-i386-win32-vc14-release-dynamic:pool.obj
 0001:00012b90       _pjmedia_endpt_get_codec_mgr 00413b90 f   pjmedia-i386-win32-vc14-release-dynamic:endpoint.obj
 0001:00012ba0       _pj_pool_init_int          00413ba0 f   pjlib-i386-win32-vc14-release-dynamic:pool.obj
 0001:00012c10       _pj_pool_release           00413c10 f   pjlib-i386-win32-vc14-release-dynamic:pool.obj
 0001:00012c30       _pj_pool_reset             00413c30 f   pjlib-i386-win32-vc14-release-dynamic:pool.obj
 0001:00013040       _pj_caching_pool_destroy   00414040 f   pjlib-i386-win32-vc14-release-dynamic:pool_caching.obj
 0001:00013120       _pj_caching_pool_init      00414120 f   pjlib-i386-win32-vc14-release-dynamic:pool_caching.obj
 0001:000131e0       _pj_list_erase             004141e0 f   pjlib-i386-win32-vc14-release-dynamic:list.obj
 0001:00013200       _pj_list_find_node         00414200 f   pjlib-i386-win32-vc14-release-dynamic:list.obj
 0001:00013230       _pj_list_insert_after      00414230 f   pjlib-i386-win32-vc14-release-dynamic:list.obj
 0001:00013250       _pj_list_insert_before     00414250 f   pjlib-i386-win32-vc14-release-dynamic:list.obj
 0001:00013270       _pj_get_netos_error        00414270 f   pjlib-i386-win32-vc14-release-dynamic:os_error_win32.obj
 0001:00013290       _pj_get_os_error           00414290 f   pjlib-i386-win32-vc14-release-dynamic:os_error_win32.obj
 0001:000132b0       _platform_strerror         004142b0 f   pjlib-i386-win32-vc14-release-dynamic:os_error_win32.obj
 0001:00013390       _pj_rand                   00414390 f   pjlib-i386-win32-vc14-release-dynamic:rand.obj
 0001:000133c0       _pj_array_erase            004143c0 f   pjlib-i386-win32-vc14-release-dynamic:array.obj
 0001:00013400       _pj_gettimeofday           00414400 f   pjlib-i386-win32-vc14-release-dynamic:os_time_win32.obj
 0001:000134b0       _pj_time_decode            004144b0 f   pjlib-i386-win32-vc14-release-dynamic:os_time_win32.obj
 0001:00013620       _ioqueue_dispatch_exception_event 00414620 f   pjlib-i386-win32-vc14-release-dynamic:ioqueue_select.obj
 0001:00013760       _ioqueue_dispatch_read_event 00414760 f   pjlib-i386-win32-vc14-release-dynamic:ioqueue_select.obj
 0001:00013980       _ioqueue_dispatch_write_event 00414980 f   pjlib-i386-win32-vc14-release-dynamic:ioqueue_select.obj
 0001:00013c40       _pj_ioqueue_create         00414c40 f   pjlib-i386-win32-vc14-release-dynamic:ioqueue_select.obj
 0001:00013de0       _pj_ioqueue_destroy        00414de0 f   pjlib-i386-win32-vc14-release-dynamic:ioqueue_select.obj
 0001:00013ea0       _pj_ioqueue_poll           00414ea0 f   pjlib-i386-win32-vc14-release-dynamic:ioqueue_select.obj
 0001:000141f0       _pj_ioqueue_set_lock       004151f0 f   pjlib-i386-win32-vc14-release-dynamic:ioqueue_select.obj
 0001:00014230       _pj_ioqueue_unlock_key     00415230 f   pjlib-i386-win32-vc14-release-dynamic:ioqueue_select.obj
 0001:000142f0       _pj_get_timestamp          004152f0 f   pjlib-i386-win32-vc14-release-dynamic:os_timestamp_win32.obj
 0001:00014350       _pj_get_timestamp_freq     00415350 f   pjlib-i386-win32-vc14-release-dynamic:os_timestamp_win32.obj
 0001:000145f0       _pj_grp_lock_add_ref       004155f0 f   pjlib-i386-win32-vc14-release-dynamic:lock.obj
 0001:00014610       _pj_grp_lock_dec_ref       00415610 f   pjlib-i386-win32-vc14-release-dynamic:lock.obj
 0001:00014640       _pj_grp_lock_release       00415640 f   pjlib-i386-win32-vc14-release-dynamic:lock.obj
 0001:00014650       _pj_grp_lock_tryacquire    00415650 f   pjlib-i386-win32-vc14-release-dynamic:lock.obj
 0001:00014660       _pj_lock_acquire           00415660 f   pjlib-i386-win32-vc14-release-dynamic:lock.obj
 0001:00014680       _pj_lock_create_null_mutex 00415680 f   pjlib-i386-win32-vc14-release-dynamic:lock.obj
 0001:000146a0       _pj_lock_create_recursive_mutex 004156a0 f   pjlib-i386-win32-vc14-release-dynamic:lock.obj
 0001:000146c0       _pj_lock_create_simple_mutex 004156c0 f   pjlib-i386-win32-vc14-release-dynamic:lock.obj
 0001:000146e0       _pj_lock_destroy           004156e0 f   pjlib-i386-win32-vc14-release-dynamic:lock.obj
 0001:00014700       _pj_lock_release           00415700 f   pjlib-i386-win32-vc14-release-dynamic:lock.obj
 0001:00014720       _pj_lock_tryacquire        00415720 f   pjlib-i386-win32-vc14-release-dynamic:lock.obj
 0001:00014740       _pj_file_close             00415740 f   pjlib-i386-win32-vc14-release-dynamic:file_io_win32.obj
 0001:00014780       _pj_file_getpos            00415780 f   pjlib-i386-win32-vc14-release-dynamic:file_io_win32.obj
 0001:00014800       _pj_file_open              00415800 f   pjlib-i386-win32-vc14-release-dynamic:file_io_win32.obj
 0001:00014930       _pj_file_read              00415930 f   pjlib-i386-win32-vc14-release-dynamic:file_io_win32.obj
 0001:00014990       _pj_file_setpos            00415990 f   pjlib-i386-win32-vc14-release-dynamic:file_io_win32.obj
 0001:00014a20       _pj_file_write             00415a20 f   pjlib-i386-win32-vc14-release-dynamic:file_io_win32.obj
 0001:00014a80       _pj_exception_id_alloc     00415a80 f   pjlib-i386-win32-vc14-release-dynamic:except.obj
 0001:00014ad0       _pj_exception_id_free      00415ad0 f   pjlib-i386-win32-vc14-release-dynamic:except.obj
 0001:00014b10       _pj_throw_exception_       00415b10 f   pjlib-i386-win32-vc14-release-dynamic:except.obj
 0001:00014c30       _pj_generate_unique_string 00415c30 f   pjlib-i386-win32-vc14-release-dynamic:guid_win32.obj
 0001:00014c80       _pj_getaddrinfo            00415c80 f   pjlib-i386-win32-vc14-release-dynamic:addr_resolv_sock.obj
 0001:00014da0       _pj_gethostbyname          00415da0 f   pjlib-i386-win32-vc14-release-dynamic:addr_resolv_sock.obj
 0001:00014e60       _pj_log_write              00415e60 f   pjlib-i386-win32-vc14-release-dynamic:log_writer_stdout.obj
 0001:00014ec0       _pj_pool_create_on_buf     00415ec0 f   pjlib-i386-win32-vc14-release-dynamic:pool_buf.obj
 0001:00015090       _pj_time_val_normalize     00416090 f   pjlib-i386-win32-vc14-release-dynamic:types.obj
 0001:00015120       _pj_elapsed_time           00416120 f   pjlib-i386-win32-vc14-release-dynamic:os_timestamp_common.obj
 0001:000151d0       _pj_gettickcount           004161d0 f   pjlib-i386-win32-vc14-release-dynamic:os_timestamp_common.obj
 0001:00015210       _PJ_FD_CLR                 00416210 f   pjlib-i386-win32-vc14-release-dynamic:sock_select.obj
 0001:00015290       _PJ_FD_COUNT               00416290 f   pjlib-i386-win32-vc14-release-dynamic:sock_select.obj
 0001:00015290       _srtp_rdb_get_value        00416290 f   libsrtp-i386-win32-vc14-release-dynamic:rdb.obj
 0001:000152a0       _PJ_FD_ISSET               004162a0 f   pjlib-i386-win32-vc14-release-dynamic:sock_select.obj
 0001:000152d0       _PJ_FD_ZERO                004162d0 f   pjlib-i386-win32-vc14-release-dynamic:sock_select.obj
 0001:00015300       _pj_sock_select            00416300 f   pjlib-i386-win32-vc14-release-dynamic:sock_select.obj
 0001:00015370       _gsm_create                00416370 f   libgsmcodec-i386-win32-vc14-release-dynamic:gsm_create.obj
 0001:000153b0       _gsm_destroy               004163b0 f   libgsmcodec-i386-win32-vc14-release-dynamic:gsm_destroy.obj
 0001:000153d0       _gsm_encode                004163d0 f   libgsmcodec-i386-win32-vc14-release-dynamic:gsm_encode.obj
 0001:00015820       _gsm_decode                00416820 f   libgsmcodec-i386-win32-vc14-release-dynamic:gsm_decode.obj
 0001:00015e00       _Gsm_Coder                 00416e00 f   libgsmcodec-i386-win32-vc14-release-dynamic:code.obj
 0001:00016000       _Gsm_Decoder               00417000 f   libgsmcodec-i386-win32-vc14-release-dynamic:decode.obj
 0001:00016750       _Gsm_Long_Term_Predictor   00417750 f   libgsmcodec-i386-win32-vc14-release-dynamic:long_term.obj
 0001:00016790       _Gsm_Long_Term_Synthesis_Filtering 00417790 f   libgsmcodec-i386-win32-vc14-release-dynamic:long_term.obj
 0001:000171c0       _Gsm_LPC_Analysis          004181c0 f   libgsmcodec-i386-win32-vc14-release-dynamic:lpc.obj
 0001:00017b30       _Gsm_Preprocess            00418b30 f   libgsmcodec-i386-win32-vc14-release-dynamic:preprocess.obj
 0001:00018370       _Gsm_Short_Term_Analysis_Filter 00419370 f   libgsmcodec-i386-win32-vc14-release-dynamic:short_term.obj
 0001:00018470       _Gsm_Short_Term_Synthesis_Filter 00419470 f   libgsmcodec-i386-win32-vc14-release-dynamic:short_term.obj
 0001:00018cf0       _Gsm_RPE_Decoding          00419cf0 f   libgsmcodec-i386-win32-vc14-release-dynamic:rpe.obj
 0001:00018d50       _Gsm_RPE_Encoding          00419d50 f   libgsmcodec-i386-win32-vc14-release-dynamic:rpe.obj
 0001:00019420       _gsm_add                   0041a420 f   libgsmcodec-i386-win32-vc14-release-dynamic:add.obj
 0001:00019450       _gsm_asl                   0041a450 f   libgsmcodec-i386-win32-vc14-release-dynamic:add.obj
 0001:00019490       _gsm_asr                   0041a490 f   libgsmcodec-i386-win32-vc14-release-dynamic:add.obj
 0001:000194d0       _gsm_div                   0041a4d0 f   libgsmcodec-i386-win32-vc14-release-dynamic:add.obj
 0001:00019510       _gsm_mult                  0041a510 f   libgsmcodec-i386-win32-vc14-release-dynamic:add.obj
 0001:00019550       _gsm_norm                  0041a550 f   libgsmcodec-i386-win32-vc14-release-dynamic:add.obj
 0001:000195c0       _gsm_sub                   0041a5c0 f   libgsmcodec-i386-win32-vc14-release-dynamic:add.obj
 0001:000195f0       _iLBC_encode               0041a5f0 f   libilbccodec-i386-win32-vc14-release-dynamic:iLBC_encode.obj
 0001:0001a540       _initEncode                0041b540 f   libilbccodec-i386-win32-vc14-release-dynamic:iLBC_encode.obj
 0001:0001a650       _Decode                    0041b650 f   libilbccodec-i386-win32-vc14-release-dynamic:iLBC_decode.obj
 0001:0001acd0       _iLBC_decode               0041bcd0 f   libilbccodec-i386-win32-vc14-release-dynamic:iLBC_decode.obj
 0001:0001b5d0       _initDecode                0041c5d0 f   libilbccodec-i386-win32-vc14-release-dynamic:iLBC_decode.obj
 0001:0001b7c0       _LPCencode                 0041c7c0 f   libilbccodec-i386-win32-vc14-release-dynamic:LPCencode.obj
 0001:0001b8a0       _SimpleAnalysis            0041c8a0 f   libilbccodec-i386-win32-vc14-release-dynamic:LPCencode.obj
 0001:0001b9d0       _SimpleInterpolateLSF      0041c9d0 f   libilbccodec-i386-win32-vc14-release-dynamic:LPCencode.obj
 0001:0001bca0       _FrameClassify             0041cca0 f   libilbccodec-i386-win32-vc14-release-dynamic:FrameClassify.obj
 0001:0001c050       _AbsQuantW                 0041d050 f   libilbccodec-i386-win32-vc14-release-dynamic:StateSearchW.obj
 0001:0001c1a0       _StateSearchW              0041d1a0 f   libilbccodec-i386-win32-vc14-release-dynamic:StateSearchW.obj
 0001:0001c5d0       _StateConstructW           0041d5d0 f   libilbccodec-i386-win32-vc14-release-dynamic:StateConstructW.obj
 0001:0001c8a0       _dopack                    0041d8a0 f   libilbccodec-i386-win32-vc14-release-dynamic:packing.obj
 0001:0001c910       _packcombine               0041d910 f   libilbccodec-i386-win32-vc14-release-dynamic:packing.obj
 0001:0001c930       _packsplit                 0041d930 f   libilbccodec-i386-win32-vc14-release-dynamic:packing.obj
 0001:0001c960       _unpack                    0041d960 f   libilbccodec-i386-win32-vc14-release-dynamic:packing.obj
 0001:0001ca00       _iCBSearch                 0041da00 f   libilbccodec-i386-win32-vc14-release-dynamic:iCBSearch.obj
 0001:0001d880       _iCBConstruct              0041e880 f   libilbccodec-i386-win32-vc14-release-dynamic:iCBConstruct.obj
 0001:0001dd20       _index_conv_dec            0041ed20 f   libilbccodec-i386-win32-vc14-release-dynamic:iCBConstruct.obj
 0001:0001dd80       _index_conv_enc            0041ed80 f   libilbccodec-i386-win32-vc14-release-dynamic:iCBConstruct.obj
 0001:0001ddd0       _hpInput                   0041edd0 f   libilbccodec-i386-win32-vc14-release-dynamic:hpInput.obj
 0001:0001dea0       _anaFilter                 0041eea0 f   libilbccodec-i386-win32-vc14-release-dynamic:anaFilter.obj
 0001:0001e170       _DecoderInterpolateLSF     0041f170 f   libilbccodec-i386-win32-vc14-release-dynamic:LPCdecode.obj
 0001:0001e350       _SimplelsfDEQ              0041f350 f   libilbccodec-i386-win32-vc14-release-dynamic:LPCdecode.obj
 0001:0001e460       _compCorr                  0041f460 f   libilbccodec-i386-win32-vc14-release-dynamic:doCPLC.obj
 0001:0001e590       _doThePLC                  0041f590 f   libilbccodec-i386-win32-vc14-release-dynamic:doCPLC.obj
 0001:0001e9d0       _LSF_check                 0041f9d0 f   libilbccodec-i386-win32-vc14-release-dynamic:helpfun.obj
 0001:0001eac0       _SplitVQ                   0041fac0 f   libilbccodec-i386-win32-vc14-release-dynamic:helpfun.obj
 0001:0001ecd0       _autocorr                  0041fcd0 f   libilbccodec-i386-win32-vc14-release-dynamic:helpfun.obj
 0001:0001edb0       _bwexpand                  0041fdb0 f   libilbccodec-i386-win32-vc14-release-dynamic:helpfun.obj
 0001:0001eea0       _interpolate               0041fea0 f   libilbccodec-i386-win32-vc14-release-dynamic:helpfun.obj
 0001:0001f0b0       _levdurb                   004200b0 f   libilbccodec-i386-win32-vc14-release-dynamic:helpfun.obj
 0001:0001f300       _sort_sq                   00420300 f   libilbccodec-i386-win32-vc14-release-dynamic:helpfun.obj
 0001:0001f380       _window                    00420380 f   libilbccodec-i386-win32-vc14-release-dynamic:helpfun.obj
 0001:0001f520       _NearestNeighbor           00420520 f   libilbccodec-i386-win32-vc14-release-dynamic:enhancer.obj
 0001:0001f600       _enh_upsample              00420600 f   libilbccodec-i386-win32-vc14-release-dynamic:enhancer.obj
 0001:0001f980       _enhancerInterface         00420980 f   libilbccodec-i386-win32-vc14-release-dynamic:enhancer.obj
 0001:000201f0       _getsseq                   004211f0 f   libilbccodec-i386-win32-vc14-release-dynamic:enhancer.obj
 0001:00020630       _refiner                   00421630 f   libilbccodec-i386-win32-vc14-release-dynamic:enhancer.obj
 0001:00020a40       _smath                     00421a40 f   libilbccodec-i386-win32-vc14-release-dynamic:enhancer.obj
 0001:00021270       _xCorrCoef                 00422270 f   libilbccodec-i386-win32-vc14-release-dynamic:enhancer.obj
 0001:000212e0       _hpOutput                  004222e0 f   libilbccodec-i386-win32-vc14-release-dynamic:hpOutput.obj
 0001:000213b0       _syntFilter                004223b0 f   libilbccodec-i386-win32-vc14-release-dynamic:syntFilter.obj
 0001:00021660       _a2lsf                     00422660 f   libilbccodec-i386-win32-vc14-release-dynamic:lsf.obj
 0001:00021970       _lsf2a                     00422970 f   libilbccodec-i386-win32-vc14-release-dynamic:lsf.obj
 0001:00021de0       _AllPoleFilter             00422de0 f   libilbccodec-i386-win32-vc14-release-dynamic:filter.obj
 0001:00021f00       _AllZeroFilter             00422f00 f   libilbccodec-i386-win32-vc14-release-dynamic:filter.obj
 0001:00021ff0       _DownSample                00422ff0 f   libilbccodec-i386-win32-vc14-release-dynamic:filter.obj
 0001:000222f0       _ZeroPoleFilter            004232f0 f   libilbccodec-i386-win32-vc14-release-dynamic:filter.obj
 0001:00022320       _gaindequant               00423320 f   libilbccodec-i386-win32-vc14-release-dynamic:gainquant.obj
 0001:000223a0       _gainquant                 004233a0 f   libilbccodec-i386-win32-vc14-release-dynamic:gainquant.obj
 0001:00022440       _createAugmentedVec        00423440 f   libilbccodec-i386-win32-vc14-release-dynamic:createCB.obj
 0001:000224e0       _filteredCBvecs            004234e0 f   libilbccodec-i386-win32-vc14-release-dynamic:createCB.obj
 0001:00022630       _searchAugmentedCB         00423630 f   libilbccodec-i386-win32-vc14-release-dynamic:createCB.obj
 0001:00022940       _getCBvec                  00423940 f   libilbccodec-i386-win32-vc14-release-dynamic:getCBvec.obj
 0001:00022e00       _speex_mode_query          00423e00 f   libspeex-i386-win32-vc14-release-dynamic:modes.obj
 0001:00022e20       _fprintf                   00423e20 f i libspeex-i386-win32-vc14-release-dynamic:bits.obj
 0001:00022e50       _speex_bits_advance        00423e50 f   libspeex-i386-win32-vc14-release-dynamic:bits.obj
 0001:00022ea0       _speex_bits_destroy        00423ea0 f   libspeex-i386-win32-vc14-release-dynamic:bits.obj
 0001:00022ec0       _speex_bits_init           00423ec0 f   libspeex-i386-win32-vc14-release-dynamic:bits.obj
 0001:00022f10       _speex_bits_insert_terminator 00423f10 f   libspeex-i386-win32-vc14-release-dynamic:bits.obj
 0001:00023010       _speex_bits_pack           00424010 f   libspeex-i386-win32-vc14-release-dynamic:bits.obj
 0001:00023120       _speex_bits_peek           00424120 f   libspeex-i386-win32-vc14-release-dynamic:bits.obj
 0001:00023160       _speex_bits_read_from      00424160 f   libspeex-i386-win32-vc14-release-dynamic:bits.obj
 0001:00023240       _speex_bits_remaining      00424240 f   libspeex-i386-win32-vc14-release-dynamic:bits.obj
 0001:00023270       _speex_bits_reset          00424270 f   libspeex-i386-win32-vc14-release-dynamic:bits.obj
 0001:000232a0       _speex_bits_unpack_unsigned 004242a0 f   libspeex-i386-win32-vc14-release-dynamic:bits.obj
 0001:00023320       _speex_bits_write          00424320 f   libspeex-i386-win32-vc14-release-dynamic:bits.obj
 0001:00023380       _nb_mode_query             00424380 f   libspeex-i386-win32-vc14-release-dynamic:speex.obj
 0001:00023400       _speex_decode_int          00424400 f   libspeex-i386-win32-vc14-release-dynamic:speex.obj
 0001:000234f0       _speex_decode_native       004244f0 f   libspeex-i386-win32-vc14-release-dynamic:speex.obj
 0001:00023510       _speex_decoder_ctl         00424510 f   libspeex-i386-win32-vc14-release-dynamic:speex.obj
 0001:00023530       _speex_decoder_destroy     00424530 f   libspeex-i386-win32-vc14-release-dynamic:speex.obj
 0001:00023550       _speex_decoder_init        00424550 f   libspeex-i386-win32-vc14-release-dynamic:speex.obj
 0001:00023560       _speex_encode_int          00424560 f   libspeex-i386-win32-vc14-release-dynamic:speex.obj
 0001:000235e0       _speex_encode_native       004245e0 f   libspeex-i386-win32-vc14-release-dynamic:speex.obj
 0001:00023600       _speex_encoder_ctl         00424600 f   libspeex-i386-win32-vc14-release-dynamic:speex.obj
 0001:00023620       _speex_encoder_destroy     00424620 f   libspeex-i386-win32-vc14-release-dynamic:speex.obj
 0001:00023640       _speex_encoder_init        00424640 f   libspeex-i386-win32-vc14-release-dynamic:speex.obj
 0001:00023650       _wb_mode_query             00424650 f   libspeex-i386-win32-vc14-release-dynamic:modes_wb.obj
 0001:000236d0       _speex_lib_get_mode        004246d0 f   libspeex-i386-win32-vc14-release-dynamic:modes_wb.obj
 0001:00023730       _nb_decode                 00424730 f   libspeex-i386-win32-vc14-release-dynamic:nb_celp.obj
 0001:00024740       _nb_decoder_ctl            00425740 f   libspeex-i386-win32-vc14-release-dynamic:nb_celp.obj
 0001:00024b60       _nb_decoder_destroy        00425b60 f   libspeex-i386-win32-vc14-release-dynamic:nb_celp.obj
 0001:00024ba0       _nb_decoder_init           00425ba0 f   libspeex-i386-win32-vc14-release-dynamic:nb_celp.obj
 0001:00024d40       _nb_encode                 00425d40 f   libspeex-i386-win32-vc14-release-dynamic:nb_celp.obj
 0001:00026110       _nb_encoder_ctl            00427110 f   libspeex-i386-win32-vc14-release-dynamic:nb_celp.obj
 0001:000267c0       _nb_encoder_destroy        004277c0 f   libspeex-i386-win32-vc14-release-dynamic:nb_celp.obj
 0001:00026830       _nb_encoder_init           00427830 f   libspeex-i386-win32-vc14-release-dynamic:nb_celp.obj
 0001:00026ad0       _forced_pitch_quant        00427ad0 f   libspeex-i386-win32-vc14-release-dynamic:ltp.obj
 0001:00026e80       _forced_pitch_unquant      00427e80 f   libspeex-i386-win32-vc14-release-dynamic:ltp.obj
 0001:00026fc0       _inner_prod                00427fc0 f   libspeex-i386-win32-vc14-release-dynamic:ltp.obj
 0001:00027040       _open_loop_nbest_pitch     00428040 f   libspeex-i386-win32-vc14-release-dynamic:ltp.obj
 0001:00028320       _pitch_search_3tap         00429320 f   libspeex-i386-win32-vc14-release-dynamic:ltp.obj
 0001:00028580       _pitch_unquant_3tap        00429580 f   libspeex-i386-win32-vc14-release-dynamic:ltp.obj
 0001:00028ba0       _lsp_quant_high            00429ba0 f   libspeex-i386-win32-vc14-release-dynamic:quant_lsp.obj
 0001:000291a0       _lsp_quant_lbr             0042a1a0 f   libspeex-i386-win32-vc14-release-dynamic:quant_lsp.obj
 0001:00029900       _lsp_quant_nb              0042a900 f   libspeex-i386-win32-vc14-release-dynamic:quant_lsp.obj
 0001:0002a2c0       _lsp_unquant_high          0042b2c0 f   libspeex-i386-win32-vc14-release-dynamic:quant_lsp.obj
 0001:0002a5e0       _lsp_unquant_lbr           0042b5e0 f   libspeex-i386-win32-vc14-release-dynamic:quant_lsp.obj
 0001:0002aa20       _lsp_unquant_nb            0042ba20 f   libspeex-i386-win32-vc14-release-dynamic:quant_lsp.obj
 0001:0002b350       _noise_codebook_quant      0042c350 f   libspeex-i386-win32-vc14-release-dynamic:cb_search.obj
 0001:0002b4e0       _noise_codebook_unquant    0042c4e0 f   libspeex-i386-win32-vc14-release-dynamic:cb_search.obj
 0001:0002b560       _split_cb_search_shape_sign 0042c560 f   libspeex-i386-win32-vc14-release-dynamic:cb_search.obj
 0001:0002cd50       _split_cb_shape_sign_unquant 0042dd50 f   libspeex-i386-win32-vc14-release-dynamic:cb_search.obj
 0001:0002d030       _vbr_analysis              0042e030 f   libspeex-i386-win32-vc14-release-dynamic:vbr.obj
 0001:0002d820       _vbr_init                  0042e820 f   libspeex-i386-win32-vc14-release-dynamic:vbr.obj
 0001:0002d8d0       _sb_decode                 0042e8d0 f   libspeex-i386-win32-vc14-release-dynamic:sb_celp.obj
 0001:0002e090       _sb_decoder_ctl            0042f090 f   libspeex-i386-win32-vc14-release-dynamic:sb_celp.obj
 0001:0002e5d0       _sb_decoder_destroy        0042f5d0 f   libspeex-i386-win32-vc14-release-dynamic:sb_celp.obj
 0001:0002e620       _sb_decoder_init           0042f620 f   libspeex-i386-win32-vc14-release-dynamic:sb_celp.obj
 0001:0002e760       _sb_encode                 0042f760 f   libspeex-i386-win32-vc14-release-dynamic:sb_celp.obj
 0001:0002f480       _sb_encoder_ctl            00430480 f   libspeex-i386-win32-vc14-release-dynamic:sb_celp.obj
 0001:0002fd70       _sb_encoder_destroy        00430d70 f   libspeex-i386-win32-vc14-release-dynamic:sb_celp.obj
 0001:0002fdd0       _sb_encoder_init           00430dd0 f   libspeex-i386-win32-vc14-release-dynamic:sb_celp.obj
 0001:00030000       _speex_default_user_handler 00431000 f   libspeex-i386-win32-vc14-release-dynamic:speex_callbacks.obj
 0001:00030030       _speex_inband_handler      00431030 f   libspeex-i386-win32-vc14-release-dynamic:speex_callbacks.obj
 0001:000300f0       _bw_lpc                    004310f0 f   libspeex-i386-win32-vc14-release-dynamic:filters.obj
 0001:000301b0       _compute_impulse_response  004311b0 f   libspeex-i386-win32-vc14-release-dynamic:filters.obj
 0001:000305a0       _compute_rms               004315a0 f   libspeex-i386-win32-vc14-release-dynamic:filters.obj
 0001:000305a0       _compute_rms16             004315a0 f   libspeex-i386-win32-vc14-release-dynamic:filters.obj
 0001:00030660       _filter_mem16              00431660 f   libspeex-i386-win32-vc14-release-dynamic:filters.obj
 0001:00030810       _fir_mem16                 00431810 f   libspeex-i386-win32-vc14-release-dynamic:filters.obj
 0001:000309d0       _highpass                  004319d0 f   libspeex-i386-win32-vc14-release-dynamic:filters.obj
 0001:00030b00       _iir_mem16                 00431b00 f   libspeex-i386-win32-vc14-release-dynamic:filters.obj
 0001:00030cd0       _interp_pitch              00431cd0 f   libspeex-i386-win32-vc14-release-dynamic:filters.obj
 0001:00031000       _multicomb                 00432000 f   libspeex-i386-win32-vc14-release-dynamic:filters.obj
 0001:000314a0       _qmf_decomp                004324a0 f   libspeex-i386-win32-vc14-release-dynamic:filters.obj
 0001:00031790       _qmf_synth                 00432790 f   libspeex-i386-win32-vc14-release-dynamic:filters.obj
 0001:00031c30       _residue_percep_zero16     00432c30 f   libspeex-i386-win32-vc14-release-dynamic:filters.obj
 0001:00031cd0       _sanitize_values32         00432cd0 f   libspeex-i386-win32-vc14-release-dynamic:filters.obj
 0001:00031d30       _signal_div                00432d30 f   libspeex-i386-win32-vc14-release-dynamic:filters.obj
 0001:00031e70       _signal_mul                00432e70 f   libspeex-i386-win32-vc14-release-dynamic:filters.obj
 0001:00031fb0       _syn_percep_zero16         00432fb0 f   libspeex-i386-win32-vc14-release-dynamic:filters.obj
 0001:00032050       __spx_autocorr             00433050 f   libspeex-i386-win32-vc14-release-dynamic:lpc.obj
 0001:00032150       __spx_lpc                  00433150 f   libspeex-i386-win32-vc14-release-dynamic:lpc.obj
 0001:00032310       _lpc_to_lsp                00433310 f   libspeex-i386-win32-vc14-release-dynamic:lsp.obj
 0001:00032a50       _lsp_enforce_margin        00433a50 f   libspeex-i386-win32-vc14-release-dynamic:lsp.obj
 0001:00032af0       _lsp_interpolate           00433af0 f   libspeex-i386-win32-vc14-release-dynamic:lsp.obj
 0001:00032d20       _lsp_to_lpc                00433d20 f   libspeex-i386-win32-vc14-release-dynamic:lsp.obj
 0001:00032f30       _scal_quant                00433f30 f   libspeex-i386-win32-vc14-release-dynamic:vq.obj
 0001:00032fa0       _vq_nbest                  00433fa0 f   libspeex-i386-win32-vc14-release-dynamic:vq.obj
 0001:000330f0       _vq_nbest_sign             004340f0 f   libspeex-i386-win32-vc14-release-dynamic:vq.obj
 0001:00033280       ___local_stdio_scanf_options 00434280 f i libsrtp-i386-win32-vc14-release-dynamic:srtp.obj
 0001:00033310       _srtp_add_stream           00434310 f   libsrtp-i386-win32-vc14-release-dynamic:srtp.obj
 0001:000335d0       _srtp_create               004345d0 f   libsrtp-i386-win32-vc14-release-dynamic:srtp.obj
 0001:00033650       _srtp_crypto_policy_set_aes_cm_256_hmac_sha1_32 00434650 f   libsrtp-i386-win32-vc14-release-dynamic:srtp.obj
 0001:00033690       _srtp_crypto_policy_set_aes_cm_256_hmac_sha1_80 00434690 f   libsrtp-i386-win32-vc14-release-dynamic:srtp.obj
 0001:000336d0       _srtp_dealloc              004346d0 f   libsrtp-i386-win32-vc14-release-dynamic:srtp.obj
 0001:00033950       _srtp_event_reporter       00434950 f   libsrtp-i386-win32-vc14-release-dynamic:srtp.obj
 0001:00033a70       _srtp_get_session_keys     00434a70 f   libsrtp-i386-win32-vc14-release-dynamic:srtp.obj
 0001:00033b70       _srtp_init                 00434b70 f   libsrtp-i386-win32-vc14-release-dynamic:srtp.obj
 0001:00033b90       _srtp_inject_mki           00434b90 f   libsrtp-i386-win32-vc14-release-dynamic:srtp.obj
 0001:00033ee0       _srtp_protect              00434ee0 f   libsrtp-i386-win32-vc14-release-dynamic:srtp.obj
 0001:00034200       _srtp_protect_mki          00435200 f   libsrtp-i386-win32-vc14-release-dynamic:srtp.obj
 0001:000347b0       _srtp_protect_rtcp         004357b0 f   libsrtp-i386-win32-vc14-release-dynamic:srtp.obj
 0001:000349b0       _srtp_protect_rtcp_mki     004359b0 f   libsrtp-i386-win32-vc14-release-dynamic:srtp.obj
 0001:00034d50       _srtp_shutdown             00435d50 f   libsrtp-i386-win32-vc14-release-dynamic:srtp.obj
 0001:00034d60       _srtp_stream_alloc         00435d60 f   libsrtp-i386-win32-vc14-release-dynamic:srtp.obj
 0001:00035000       _srtp_stream_clone         00436000 f   libsrtp-i386-win32-vc14-release-dynamic:srtp.obj
 0001:00035220       _srtp_stream_dealloc       00436220 f   libsrtp-i386-win32-vc14-release-dynamic:srtp.obj
 0001:000354a0       _srtp_stream_init          004364a0 f   libsrtp-i386-win32-vc14-release-dynamic:srtp.obj
 0001:000355b0       _srtp_stream_init_all_master_keys 004365b0 f   libsrtp-i386-win32-vc14-release-dynamic:srtp.obj
 0001:00035630       _srtp_stream_init_keys     00436630 f   libsrtp-i386-win32-vc14-release-dynamic:srtp.obj
 0001:00035e30       _srtp_unprotect            00436e30 f   libsrtp-i386-win32-vc14-release-dynamic:srtp.obj
 0001:00036150       _srtp_unprotect_mki        00437150 f   libsrtp-i386-win32-vc14-release-dynamic:srtp.obj
 0001:000367a0       _srtp_unprotect_rtcp       004377a0 f   libsrtp-i386-win32-vc14-release-dynamic:srtp.obj
 0001:00036a20       _srtp_unprotect_rtcp_mki   00437a20 f   libsrtp-i386-win32-vc14-release-dynamic:srtp.obj
 0001:00036f00       _srtp_validate_policy_master_keys 00437f00 f   libsrtp-i386-win32-vc14-release-dynamic:srtp.obj
 0001:00036fc0       _srtp_crypto_alloc         00437fc0 f   libsrtp-i386-win32-vc14-release-dynamic:alloc.obj
 0001:00037020       _srtp_crypto_free          00438020 f   libsrtp-i386-win32-vc14-release-dynamic:alloc.obj
 0001:00037050       _bitvector_alloc           00438050 f   libsrtp-i386-win32-vc14-release-dynamic:datatypes.obj
 0001:000370b0       _bitvector_dealloc         004380b0 f   libsrtp-i386-win32-vc14-release-dynamic:datatypes.obj
 0001:000370e0       _bitvector_left_shift      004380e0 f   libsrtp-i386-win32-vc14-release-dynamic:datatypes.obj
 0001:00037250       _bitvector_set_to_zero     00438250 f   libsrtp-i386-win32-vc14-release-dynamic:datatypes.obj
 0001:00037270       _octet_string_is_eq        00438270 f   libsrtp-i386-win32-vc14-release-dynamic:datatypes.obj
 0001:00037340       _octet_string_set_to_zero  00438340 f   libsrtp-i386-win32-vc14-release-dynamic:datatypes.obj
 0001:00037360       _srtp_octet_string_hex_string 00438360 f   libsrtp-i386-win32-vc14-release-dynamic:datatypes.obj
 0001:00037400       _v128_copy_octet_string    00438400 f   libsrtp-i386-win32-vc14-release-dynamic:datatypes.obj
 0001:00037480       _v128_hex_string           00438480 f   libsrtp-i386-win32-vc14-release-dynamic:datatypes.obj
 0001:00037510       _v128_left_shift           00438510 f   libsrtp-i386-win32-vc14-release-dynamic:datatypes.obj
 0001:000375f0       _srtp_err_report           004385f0 f   libsrtp-i386-win32-vc14-release-dynamic:srtp_err.obj
 0001:00037620       _srtp_index_guess          00438620 f   libsrtp-i386-win32-vc14-release-dynamic:rdbx.obj
 0001:000376a0       _srtp_rdbx_add_index       004386a0 f   libsrtp-i386-win32-vc14-release-dynamic:rdbx.obj
 0001:00037710       _srtp_rdbx_check           00438710 f   libsrtp-i386-win32-vc14-release-dynamic:rdbx.obj
 0001:00037760       _srtp_rdbx_dealloc         00438760 f   libsrtp-i386-win32-vc14-release-dynamic:rdbx.obj
 0001:00037780       _srtp_rdbx_estimate_index  00438780 f   libsrtp-i386-win32-vc14-release-dynamic:rdbx.obj
 0001:000377c0       _srtp_rdbx_get_packet_index 004387c0 f   libsrtp-i386-win32-vc14-release-dynamic:rdbx.obj
 0001:000377d0       _srtp_rdbx_init            004387d0 f   libsrtp-i386-win32-vc14-release-dynamic:rdbx.obj
 0001:00037810       _srtp_rdbx_set_roc         00438810 f   libsrtp-i386-win32-vc14-release-dynamic:rdbx.obj
 0001:00037870       _srtp_rdbx_set_roc_seq     00438870 f   libsrtp-i386-win32-vc14-release-dynamic:rdbx.obj
 0001:000378d0       _srtp_rdb_add_index        004388d0 f   libsrtp-i386-win32-vc14-release-dynamic:rdb.obj
 0001:00037920       _srtp_rdb_check            00438920 f   libsrtp-i386-win32-vc14-release-dynamic:rdb.obj
 0001:00037970       _srtp_rdb_increment        00438970 f   libsrtp-i386-win32-vc14-release-dynamic:rdb.obj
 0001:00037990       _srtp_rdb_init             00438990 f   libsrtp-i386-win32-vc14-release-dynamic:rdb.obj
 0001:000379c0       _srtp_cipher_dealloc       004389c0 f   libsrtp-i386-win32-vc14-release-dynamic:cipher.obj
 0001:000379e0       _srtp_cipher_decrypt       004389e0 f   libsrtp-i386-win32-vc14-release-dynamic:cipher.obj
 0001:00037a10       _srtp_cipher_encrypt       00438a10 f   libsrtp-i386-win32-vc14-release-dynamic:cipher.obj
 0001:00037a40       _srtp_cipher_get_tag       00438a40 f   libsrtp-i386-win32-vc14-release-dynamic:cipher.obj
 0001:00037a80       _srtp_cipher_init          00438a80 f   libsrtp-i386-win32-vc14-release-dynamic:cipher.obj
 0001:00037ab0       _srtp_cipher_output        00438ab0 f   libsrtp-i386-win32-vc14-release-dynamic:cipher.obj
 0001:00037ae0       _srtp_cipher_set_aad       00438ae0 f   libsrtp-i386-win32-vc14-release-dynamic:cipher.obj
 0001:00037b20       _srtp_cipher_set_iv        00438b20 f   libsrtp-i386-win32-vc14-release-dynamic:cipher.obj
 0001:00037b50       _srtp_cipher_type_self_test 00438b50 f   libsrtp-i386-win32-vc14-release-dynamic:cipher.obj
 0001:00037b70       _srtp_cipher_type_test     00438b70 f   libsrtp-i386-win32-vc14-release-dynamic:cipher.obj
 0001:000389b0       _srtp_auth_get_key_length  004399b0 f   libsrtp-i386-win32-vc14-release-dynamic:auth.obj
 0001:000389c0       _srtp_auth_get_prefix_length 004399c0 f   libsrtp-i386-win32-vc14-release-dynamic:auth.obj
 0001:000389d0       _srtp_rdbx_get_window_size 004399d0 f   libsrtp-i386-win32-vc14-release-dynamic:rdbx.obj
 0001:000389d0       _srtp_auth_get_tag_length  004399d0 f   libsrtp-i386-win32-vc14-release-dynamic:auth.obj
 0001:000389d0       _srtp_cipher_get_key_length 004399d0 f   libsrtp-i386-win32-vc14-release-dynamic:cipher.obj
 0001:000389e0       _srtp_auth_type_self_test  004399e0 f   libsrtp-i386-win32-vc14-release-dynamic:auth.obj
 0001:00038a00       _srtp_auth_type_test       00439a00 f   libsrtp-i386-win32-vc14-release-dynamic:auth.obj
 0001:00038c80       _srtp_key_limit_clone      00439c80 f   libsrtp-i386-win32-vc14-release-dynamic:key.obj
 0001:00038ca0       _srtp_key_limit_set        00439ca0 f   libsrtp-i386-win32-vc14-release-dynamic:key.obj
 0001:00038ce0       _srtp_key_limit_update     00439ce0 f   libsrtp-i386-win32-vc14-release-dynamic:key.obj
 0001:00038d30       _srtp_crypto_kernel_alloc_auth 00439d30 f   libsrtp-i386-win32-vc14-release-dynamic:crypto_kernel.obj
 0001:00038d80       _srtp_crypto_kernel_alloc_cipher 00439d80 f   libsrtp-i386-win32-vc14-release-dynamic:crypto_kernel.obj
 0001:00038dd0       _srtp_crypto_kernel_do_load_auth_type 00439dd0 f   libsrtp-i386-win32-vc14-release-dynamic:crypto_kernel.obj
 0001:00038f30       _srtp_crypto_kernel_init   00439f30 f   libsrtp-i386-win32-vc14-release-dynamic:crypto_kernel.obj
 0001:00039050       _srtp_crypto_kernel_list_debug_modules 0043a050 f   libsrtp-i386-win32-vc14-release-dynamic:crypto_kernel.obj
 0001:000390b0       _srtp_crypto_kernel_load_debug_module 0043a0b0 f   libsrtp-i386-win32-vc14-release-dynamic:crypto_kernel.obj
 0001:00039130       _srtp_crypto_kernel_shutdown 0043a130 f   libsrtp-i386-win32-vc14-release-dynamic:crypto_kernel.obj
 0001:00039230       _srtp_crypto_kernel_status 0043a230 f   libsrtp-i386-win32-vc14-release-dynamic:crypto_kernel.obj
 0001:00039310       _srtp_ekt_alloc            0043a310 f   libsrtp-i386-win32-vc14-release-dynamic:ekt.obj
 0001:00039320       _srtp_ekt_octets_after_base_tag 0043a320 f   libsrtp-i386-win32-vc14-release-dynamic:ekt.obj
 0001:00039340       _srtp_ekt_write_data       0043a340 f   libsrtp-i386-win32-vc14-release-dynamic:ekt.obj
 0001:00039490       _srtp_stream_init_from_ekt 0043a490 f   libsrtp-i386-win32-vc14-release-dynamic:ekt.obj
 0001:0003aa10       _srtp_aes_decrypt          0043ba10 f   libsrtp-i386-win32-vc14-release-dynamic:aes.obj
 0001:0003ab40       _srtp_aes_encrypt          0043bb40 f   libsrtp-i386-win32-vc14-release-dynamic:aes.obj
 0001:0003ac70       _srtp_aes_expand_decryption_key 0043bc70 f   libsrtp-i386-win32-vc14-release-dynamic:aes.obj
 0001:0003ae80       _srtp_aes_expand_encryption_key 0043be80 f   libsrtp-i386-win32-vc14-release-dynamic:aes.obj
 0001:0003aec0       _srtp_sha1_core            0043bec0 f   libsrtp-i386-win32-vc14-release-dynamic:sha1.obj
 0001:0003b3d0       _srtp_sha1_final           0043c3d0 f   libsrtp-i386-win32-vc14-release-dynamic:sha1.obj
 0001:0003b9e0       _srtp_sha1_init            0043c9e0 f   libsrtp-i386-win32-vc14-release-dynamic:sha1.obj
 0001:0003ba20       _srtp_sha1_update          0043ca20 f   libsrtp-i386-win32-vc14-release-dynamic:sha1.obj
 0001:0003baf0       ___WSAFDIsSet@8            0043caf0 f   ws2_32:WS2_32.dll
 0001:0003baf6       @__security_check_cookie@4 0043caf6 f   MSVCRT:_secchk_.obj
 0001:0003bd33       _mainCRTStartup            0043cd33 f   MSVCRT:exe_main.obj
 0001:0003bd40       __aulldiv                  0043cd40 f   MSVCRT:ulldiv.obj
 0001:0003bda8       ___raise_securityfailure   0043cda8 f   MSVCRT:gs_report.obj
 0001:0003bdd0       ___report_gsfailure        0043cdd0 f   MSVCRT:gs_report.obj
 0001:0003becb       ___report_rangecheckfailure 0043cecb f   MSVCRT:gs_report.obj
 0001:0003bed7       ___report_securityfailure  0043ced7 f   MSVCRT:gs_report.obj
 0001:0003bfb0       ___vdecl_cos2              0043cfb0 f   MSVCRT:_svml_dcos2_dispatch_.obj
 0001:0003bfc0       __alldiv                   0043cfc0 f   MSVCRT:lldiv.obj
 0001:0003c070       __allmul                   0043d070 f   MSVCRT:llmul.obj
 0001:0003c0b0       __allshl                   0043d0b0 f   MSVCRT:llshl.obj
 0001:0003c0d0       __ftoui3                   0043d0d0 f   MSVCRT:_ftol3_.obj
 0001:0003c0df       __ftoul3                   0043d0df f   MSVCRT:_ftol3_.obj
 0001:0003c0ee       __ftol3                    0043d0ee f   MSVCRT:_ftol3_.obj
 0001:0003c0fb       __ftol3_NaN                0043d0fb f   MSVCRT:_ftol3_.obj
 0001:0003c113       __ftol3_work               0043d113 f   MSVCRT:_ftol3_.obj
 0001:0003c199       __ftol3_common             0043d199 f   MSVCRT:_ftol3_.obj
 0001:0003c25b       __ftol3_arg_error          0043d25b f   MSVCRT:_ftol3_.obj
 0001:0003c26d       __ftol3_except             0043d26d f   MSVCRT:_ftol3_.obj
 0001:0003c2b1       __dtoui3                   0043d2b1 f   MSVCRT:_ftol3_.obj
 0001:0003c2c0       __dtoul3                   0043d2c0 f   MSVCRT:_ftol3_.obj
 0001:0003c2cf       __dtol3                    0043d2cf f   MSVCRT:_ftol3_.obj
 0001:0003c2dc       __dtol3_NaN                0043d2dc f   MSVCRT:_ftol3_.obj
 0001:0003c2f9       __dtol3_work               0043d2f9 f   MSVCRT:_ftol3_.obj
 0001:0003c3e0       __ultod3                   0043d3e0 f   MSVCRT:_ftol3_.obj
 0001:0003c420       __ltod3                    0043d420 f   MSVCRT:_ftol3_.obj
 0001:0003c450       __chkstk                   0043d450 f   MSVCRT:chkstk.obj
 0001:0003c450       __alloca_probe             0043d450 f   MSVCRT:chkstk.obj
 0001:0003c480       __ftol2_sse                0043d480 f   MSVCRT:_ftol2_.obj
 0001:0003c489       __ftol2_pentium4           0043d489 f   MSVCRT:_ftol2_.obj
 0001:0003c49c       __ftol2_sse_excpt          0043d49c f   MSVCRT:_ftol2_.obj
 0001:0003c4c0       __ftol2                    0043d4c0 f   MSVCRT:_ftol2_.obj
 0001:0003c540       __alloca_probe_16          0043d540 f   MSVCRT:alloca16.obj
 0001:0003c556       __alloca_probe_8           0043d556     MSVCRT:alloca16.obj
 0001:0003c56c       ___isa_available_init      0043d56c f   MSVCRT:_cpu_disp_.obj
 0001:0003c754       ___scrt_acquire_startup_lock 0043d754 f   MSVCRT:utility.obj
 0001:0003c789       ___scrt_initialize_crt     0043d789 f   MSVCRT:utility.obj
 0001:0003c7c2       ___scrt_initialize_onexit_tables 0043d7c2 f   MSVCRT:utility.obj
 0001:0003c859       ___scrt_is_nonwritable_in_current_image 0043d859 f   MSVCRT:utility.obj
 0001:0003c8e3       ___scrt_release_startup_lock 0043d8e3 f   MSVCRT:utility.obj
 0001:0003c900       ___scrt_uninitialize_crt   0043d900 f   MSVCRT:utility.obj
 0001:0003c928       __onexit                   0043d928 f   MSVCRT:utility.obj
 0001:0003c963       _atexit                    0043d963 f   MSVCRT:utility.obj
 0001:0003c978       ___security_init_cookie    0043d978 f   MSVCRT:gs_support.obj
 0001:0003ca14       __get_startup_argv_mode    0043da14 f   MSVCRT:argv_mode.obj
 0001:0003ca18       __get_startup_file_mode    0043da18 f   MSVCRT:file_mode.obj
 0001:0003ca1e       ?__scrt_initialize_type_info@@YAXXZ 0043da1e f   MSVCRT:tncleanup.obj
 0001:0003ca2a       ___scrt_stub_for_acrt_uninitialize 0043da2a f   MSVCRT:ucrt_stubs.obj
 0001:0003ca2a       ___vcrt_initialize         0043da2a f   MSVCRT:ucrt_stubs.obj
 0001:0003ca2a       ___scrt_stub_for_acrt_initialize 0043da2a f   MSVCRT:ucrt_stubs.obj
 0001:0003ca2a       __should_initialize_environment 0043da2a f   MSVCRT:env_mode.obj
 0001:0003ca2a       ___vcrt_uninitialize       0043da2a f   MSVCRT:ucrt_stubs.obj
 0001:0003ca2a       ___acrt_initialize         0043da2a f   MSVCRT:ucrt_stubs.obj
 0001:0003ca2a       ___acrt_uninitialize       0043da2a f   MSVCRT:ucrt_stubs.obj
 0001:0003ca2d       __initialize_default_precision 0043da2d f   MSVCRT:default_precision.obj
 0001:0003ca4e       ___scrt_initialize_default_local_stdio_options 0043da4e f   MSVCRT:default_local_stdio_options.obj
 0001:0003ca6b       ___scrt_is_user_matherr_present 0043da6b f   MSVCRT:matherr_detection.obj
 0001:0003ca77       ___scrt_get_dyn_tls_init_callback 0043da77 f   MSVCRT:dyn_tls_init.obj
 0001:0003ca7d       ___scrt_get_dyn_tls_dtor_callback 0043da7d f   MSVCRT:dyn_tls_dtor.obj
 0001:0003ca83       ___scrt_fastfail           0043da83 f   MSVCRT:utility_desktop.obj
 0001:0003cb9e       ___scrt_is_managed_app     0043db9e f   MSVCRT:utility_desktop.obj
 0001:0003cbe2       ___scrt_set_unhandled_exception_filter 0043dbe2 f   MSVCRT:utility_desktop.obj
 0001:0003cbee       ___scrt_unhandled_exception_filter@4 0043dbee f   MSVCRT:utility_desktop.obj
 0001:0003cc2f       __RTC_Initialize           0043dc2f f   MSVCRT:_initsect_.obj
 0001:0003cc5a       __RTC_Terminate            0043dc5a f   MSVCRT:_initsect_.obj
 0001:0003cc85       @_guard_check_icall@4      0043dc85 f i MSVCRT:checkcfg.obj
 0001:0003cc90       __SEH_prolog4              0043dc90 f   MSVCRT:_sehprolg4_.obj
 0001:0003ccd6       __SEH_epilog4              0043dcd6 f   MSVCRT:_sehprolg4_.obj
 0001:0003cceb       __except_handler4          0043dceb f   MSVCRT:_chandler4gs_.obj
 0001:0003cd10       ___sse2_cos2               0043dd10 f   MSVCRT:_svml_dcos2_sse2_.obj
 0001:0003ceb0       ___scrt_is_ucrt_dll_in_use 0043deb0 f   MSVCRT:ucrt_detection.obj
 0001:0003cec0       ___common_sin_reduction_LA 0043dec0 f   MSVCRT:_svml_dtrig_.obj
 0001:0003d210       ___common_cos_reduction_LA 0043e210 f   MSVCRT:_svml_dtrig_.obj
 0001:0003d500       ___common_pi04_reduction_LA 0043e500 f   MSVCRT:_svml_dtrig_.obj
 0001:0003d810       _IsProcessorFeaturePresent@4 0043e810 f   kernel32:KERNEL32.dll
 0001:0003d816       _memcpy                    0043e816 f   vcruntime:VCRUNTIME140.dll
 0001:0003d81c       _memset                    0043e81c f   vcruntime:VCRUNTIME140.dll
 0001:0003d822       _longjmp                   0043e822 f   vcruntime:VCRUNTIME140.dll
 0001:0003d828       __except_handler4_common   0043e828 f   vcruntime:VCRUNTIME140.dll
 0001:0003d82e       _exit                      0043e82e f   ucrt:api-ms-win-crt-runtime-l1-1-0.dll
 0001:0003d834       __libm_sse2_cos_precise    0043e834 f   ucrt:api-ms-win-crt-math-l1-1-0.dll
 0001:0003d83a       __CIfmod                   0043e83a f   ucrt:api-ms-win-crt-math-l1-1-0.dll
 0001:0003d840       __libm_sse2_log10_precise  0043e840 f   ucrt:api-ms-win-crt-math-l1-1-0.dll
 0001:0003d846       __libm_sse2_pow_precise    0043e846 f   ucrt:api-ms-win-crt-math-l1-1-0.dll
 0001:0003d84c       __libm_sse2_sqrt_precise   0043e84c f   ucrt:api-ms-win-crt-math-l1-1-0.dll
 0001:0003d852       _floor                     0043e852 f   ucrt:api-ms-win-crt-math-l1-1-0.dll
 0001:0003d858       __libm_sse2_exp_precise    0043e858 f   ucrt:api-ms-win-crt-math-l1-1-0.dll
 0001:0003d85e       __libm_sse2_log_precise    0043e85e f   ucrt:api-ms-win-crt-math-l1-1-0.dll
 0001:0003d864       __libm_sse2_acos_precise   0043e864 f   ucrt:api-ms-win-crt-math-l1-1-0.dll
 0001:0003d86a       __seh_filter_exe           0043e86a f   ucrt:api-ms-win-crt-runtime-l1-1-0.dll
 0001:0003d870       __set_app_type             0043e870 f   ucrt:api-ms-win-crt-runtime-l1-1-0.dll
 0001:0003d876       ___setusermatherr          0043e876 f   ucrt:api-ms-win-crt-math-l1-1-0.dll
 0001:0003d87c       __configure_narrow_argv    0043e87c f   ucrt:api-ms-win-crt-runtime-l1-1-0.dll
 0001:0003d882       __initialize_narrow_environment 0043e882 f   ucrt:api-ms-win-crt-runtime-l1-1-0.dll
 0001:0003d888       __get_initial_narrow_environment 0043e888 f   ucrt:api-ms-win-crt-runtime-l1-1-0.dll
 0001:0003d88e       __initterm                 0043e88e f   ucrt:api-ms-win-crt-runtime-l1-1-0.dll
 0001:0003d894       __initterm_e               0043e894 f   ucrt:api-ms-win-crt-runtime-l1-1-0.dll
 0001:0003d89a       __exit                     0043e89a f   ucrt:api-ms-win-crt-runtime-l1-1-0.dll
 0001:0003d8a0       __set_fmode                0043e8a0 f   ucrt:api-ms-win-crt-stdio-l1-1-0.dll
 0001:0003d8a6       ___p___argc                0043e8a6 f   ucrt:api-ms-win-crt-runtime-l1-1-0.dll
 0001:0003d8ac       ___p___argv                0043e8ac f   ucrt:api-ms-win-crt-runtime-l1-1-0.dll
 0001:0003d8b2       __cexit                    0043e8b2 f   ucrt:api-ms-win-crt-runtime-l1-1-0.dll
 0001:0003d8b8       __c_exit                   0043e8b8 f   ucrt:api-ms-win-crt-runtime-l1-1-0.dll
 0001:0003d8be       __register_thread_local_exe_atexit_callback 0043e8be f   ucrt:api-ms-win-crt-runtime-l1-1-0.dll
 0001:0003d8c4       __configthreadlocale       0043e8c4 f   ucrt:api-ms-win-crt-locale-l1-1-0.dll
 0001:0003d8ca       __set_new_mode             0043e8ca f   ucrt:api-ms-win-crt-heap-l1-1-0.dll
 0001:0003d8d0       ___p__commode              0043e8d0 f   ucrt:api-ms-win-crt-stdio-l1-1-0.dll
 0001:0003d8d6       __except1                  0043e8d6 f   ucrt:api-ms-win-crt-math-l1-1-0.dll
 0001:0003d8dc       __initialize_onexit_table  0043e8dc f   ucrt:api-ms-win-crt-runtime-l1-1-0.dll
 0001:0003d8e2       __register_onexit_function 0043e8e2 f   ucrt:api-ms-win-crt-runtime-l1-1-0.dll
 0001:0003d8e8       __crt_atexit               0043e8e8 f   ucrt:api-ms-win-crt-runtime-l1-1-0.dll
 0001:0003d8ee       __controlfp_s              0043e8ee f   ucrt:api-ms-win-crt-runtime-l1-1-0.dll
 0001:0003d8f4       _terminate                 0043e8f4 f   ucrt:api-ms-win-crt-runtime-l1-1-0.dll
 0002:00000000       __imp__QueryPerformanceCounter@4 0043f000     kernel32:KERNEL32.dll
 0002:00000004       __imp__GetModuleHandleW@4  0043f004     kernel32:KERNEL32.dll
 0002:00000008       __imp__IsDebuggerPresent@0 0043f008     kernel32:KERNEL32.dll
 0002:0000000c       __imp__InitializeSListHead@4 0043f00c     kernel32:KERNEL32.dll
 0002:00000010       __imp__GetSystemTimeAsFileTime@4 0043f010     kernel32:KERNEL32.dll
 0002:00000014       __imp__IsProcessorFeaturePresent@4 0043f014     kernel32:KERNEL32.dll
 0002:00000018       __imp__TerminateProcess@8  0043f018     kernel32:KERNEL32.dll
 0002:0000001c       __imp__GetCurrentProcess@0 0043f01c     kernel32:KERNEL32.dll
 0002:00000020       __imp__SetUnhandledExceptionFilter@4 0043f020     kernel32:KERNEL32.dll
 0002:00000024       __imp__UnhandledExceptionFilter@4 0043f024     kernel32:KERNEL32.dll
 0002:00000028       __imp__WriteFile@20        0043f028     kernel32:KERNEL32.dll
 0002:0000002c       __imp__SetFilePointer@16   0043f02c     kernel32:KERNEL32.dll
 0002:00000030       __imp__ReadFile@20         0043f030     kernel32:KERNEL32.dll
 0002:00000034       __imp__CreateFileA@28      0043f034     kernel32:KERNEL32.dll
 0002:00000038       __imp__QueryPerformanceFrequency@4 0043f038     kernel32:KERNEL32.dll
 0002:0000003c       __imp__SystemTimeToFileTime@8 0043f03c     kernel32:KERNEL32.dll
 0002:00000040       __imp__FileTimeToSystemTime@8 0043f040     kernel32:KERNEL32.dll
 0002:00000044       __imp__GetLocalTime@4      0043f044     kernel32:KERNEL32.dll
 0002:00000048       __imp__FormatMessageA@28   0043f048     kernel32:KERNEL32.dll
 0002:0000004c       __imp__SetConsoleTextAttribute@8 0043f04c     kernel32:KERNEL32.dll
 0002:00000050       __imp__TlsFree@4           0043f050     kernel32:KERNEL32.dll
 0002:00000054       __imp__TlsSetValue@8       0043f054     kernel32:KERNEL32.dll
 0002:00000058       __imp__TlsGetValue@4       0043f058     kernel32:KERNEL32.dll
 0002:0000005c       __imp__TlsAlloc@0          0043f05c     kernel32:KERNEL32.dll
 0002:00000060       __imp__GetCurrentThreadId@0 0043f060     kernel32:KERNEL32.dll
 0002:00000064       __imp__CreateThread@24     0043f064     kernel32:KERNEL32.dll
 0002:00000068       __imp__GetCurrentProcessId@0 0043f068     kernel32:KERNEL32.dll
 0002:0000006c       __imp__Sleep@4             0043f06c     kernel32:KERNEL32.dll
 0002:00000070       __imp__WaitForSingleObject@8 0043f070     kernel32:KERNEL32.dll
 0002:00000074       __imp__ReleaseSemaphore@12 0043f074     kernel32:KERNEL32.dll
 0002:00000078       __imp__DeleteCriticalSection@4 0043f078     kernel32:KERNEL32.dll
 0002:0000007c       __imp__TryEnterCriticalSection@4 0043f07c     kernel32:KERNEL32.dll
 0002:00000080       __imp__LeaveCriticalSection@4 0043f080     kernel32:KERNEL32.dll
 0002:00000084       __imp__EnterCriticalSection@4 0043f084     kernel32:KERNEL32.dll
 0002:00000088       __imp__InitializeCriticalSection@4 0043f088     kernel32:KERNEL32.dll
 0002:0000008c       __imp__GetLastError@0      0043f08c     kernel32:KERNEL32.dll
 0002:00000090       __imp__GetStdHandle@4      0043f090     kernel32:KERNEL32.dll
 0002:00000094       __imp__WaitForMultipleObjects@16 0043f094     kernel32:KERNEL32.dll
 0002:00000098       __imp__SetThreadPriority@8 0043f098     kernel32:KERNEL32.dll
 0002:0000009c       __imp__GetCurrentThread@0  0043f09c     kernel32:KERNEL32.dll
 0002:000000a0       __imp__CreateEventA@16     0043f0a0     kernel32:KERNEL32.dll
 0002:000000a4       __imp__SetEvent@4          0043f0a4     kernel32:KERNEL32.dll
 0002:000000a8       __imp__CloseHandle@4       0043f0a8     kernel32:KERNEL32.dll
 0002:000000ac       \177KERNEL32_NULL_THUNK_DATA 0043f0ac     kernel32:KERNEL32.dll
 0002:000000b0       __imp___except_handler4_common 0043f0b0     vcruntime:VCRUNTIME140.dll
 0002:000000b4       __imp__memcpy              0043f0b4     vcruntime:VCRUNTIME140.dll
 0002:000000b8       __imp__memset              0043f0b8     vcruntime:VCRUNTIME140.dll
 0002:000000bc       __imp__memmove             0043f0bc     vcruntime:VCRUNTIME140.dll
 0002:000000c0       __imp__strchr              0043f0c0     vcruntime:VCRUNTIME140.dll
 0002:000000c4       __imp__longjmp             0043f0c4     vcruntime:VCRUNTIME140.dll
 0002:000000c8       \177VCRUNTIME140_NULL_THUNK_DATA 0043f0c8     vcruntime:VCRUNTIME140.dll
 0002:000000cc       __imp__waveInGetNumDevs@0  0043f0cc     winmm:WINMM.dll
 0002:000000d0       __imp__waveOutReset@4      0043f0d0     winmm:WINMM.dll
 0002:000000d4       __imp__waveOutRestart@4    0043f0d4     winmm:WINMM.dll
 0002:000000d8       __imp__waveOutPause@4      0043f0d8     winmm:WINMM.dll
 0002:000000dc       __imp__waveOutWrite@12     0043f0dc     winmm:WINMM.dll
 0002:000000e0       __imp__waveOutUnprepareHeader@12 0043f0e0     winmm:WINMM.dll
 0002:000000e4       __imp__waveOutPrepareHeader@12 0043f0e4     winmm:WINMM.dll
 0002:000000e8       __imp__waveInGetDevCapsA@12 0043f0e8     winmm:WINMM.dll
 0002:000000ec       __imp__waveOutOpen@24      0043f0ec     winmm:WINMM.dll
 0002:000000f0       __imp__waveOutSetVolume@8  0043f0f0     winmm:WINMM.dll
 0002:000000f4       __imp__waveOutGetVolume@8  0043f0f4     winmm:WINMM.dll
 0002:000000f8       __imp__waveOutGetDevCapsA@12 0043f0f8     winmm:WINMM.dll
 0002:000000fc       __imp__waveOutGetNumDevs@0 0043f0fc     winmm:WINMM.dll
 0002:00000100       __imp__waveInGetErrorTextA@12 0043f100     winmm:WINMM.dll
 0002:00000104       __imp__waveOutGetErrorTextA@12 0043f104     winmm:WINMM.dll
 0002:00000108       __imp__waveInOpen@24       0043f108     winmm:WINMM.dll
 0002:0000010c       __imp__waveInClose@4       0043f10c     winmm:WINMM.dll
 0002:00000110       __imp__waveInPrepareHeader@12 0043f110     winmm:WINMM.dll
 0002:00000114       __imp__waveInUnprepareHeader@12 0043f114     winmm:WINMM.dll
 0002:00000118       __imp__waveInReset@4       0043f118     winmm:WINMM.dll
 0002:0000011c       __imp__waveInStop@4        0043f11c     winmm:WINMM.dll
 0002:00000120       __imp__waveInStart@4       0043f120     winmm:WINMM.dll
 0002:00000124       __imp__waveOutClose@4      0043f124     winmm:WINMM.dll
 0002:00000128       __imp__waveInAddBuffer@12  0043f128     winmm:WINMM.dll
 0002:0000012c       \177WINMM_NULL_THUNK_DATA  0043f12c     winmm:WINMM.dll
 0002:00000130       __imp__sendto@24           0043f130     ws2_32:WS2_32.dll
 0002:00000134       __imp__send@16             0043f134     ws2_32:WS2_32.dll
 0002:00000138       __imp__recvfrom@24         0043f138     ws2_32:WS2_32.dll
 0002:0000013c       __imp__recv@16             0043f13c     ws2_32:WS2_32.dll
 0002:00000140       __imp__ntohs@4             0043f140     ws2_32:WS2_32.dll
 0002:00000144       __imp__ntohl@4             0043f144     ws2_32:WS2_32.dll
 0002:00000148       __imp__inet_addr@4         0043f148     ws2_32:WS2_32.dll
 0002:0000014c       __imp__htons@4             0043f14c     ws2_32:WS2_32.dll
 0002:00000150       __imp__htonl@4             0043f150     ws2_32:WS2_32.dll
 0002:00000154       __imp__getsockopt@20       0043f154     ws2_32:WS2_32.dll
 0002:00000158       __imp__getsockname@12      0043f158     ws2_32:WS2_32.dll
 0002:0000015c       __imp__accept@12           0043f15c     ws2_32:WS2_32.dll
 0002:00000160       __imp__WSAGetLastError@0   0043f160     ws2_32:WS2_32.dll
 0002:00000164       __imp__WSACleanup@0        0043f164     ws2_32:WS2_32.dll
 0002:00000168       __imp__WSAStartup@8        0043f168     ws2_32:WS2_32.dll
 0002:0000016c       __imp__WSAStringToAddressA@20 0043f16c     ws2_32:WS2_32.dll
 0002:00000170       __imp__gethostbyname@4     0043f170     ws2_32:WS2_32.dll
 0002:00000174       __imp____WSAFDIsSet@8      0043f174     ws2_32:WS2_32.dll
 0002:00000178       __imp__select@20           0043f178     ws2_32:WS2_32.dll
 0002:0000017c       \177WS2_32_NULL_THUNK_DATA 0043f17c     ws2_32:WS2_32.dll
 0002:00000180       __imp__atoi                0043f180     ucrt:api-ms-win-crt-convert-l1-1-0.dll
 0002:00000184       \177api-ms-win-crt-convert-l1-1-0_NULL_THUNK_DATA 0043f184     ucrt:api-ms-win-crt-convert-l1-1-0.dll
 0002:00000188       __imp___set_new_mode       0043f188     ucrt:api-ms-win-crt-heap-l1-1-0.dll
 0002:0000018c       __imp__calloc              0043f18c     ucrt:api-ms-win-crt-heap-l1-1-0.dll
 0002:00000190       __imp__realloc             0043f190     ucrt:api-ms-win-crt-heap-l1-1-0.dll
 0002:00000194       __imp__malloc              0043f194     ucrt:api-ms-win-crt-heap-l1-1-0.dll
 0002:00000198       __imp__free                0043f198     ucrt:api-ms-win-crt-heap-l1-1-0.dll
 0002:0000019c       \177api-ms-win-crt-heap-l1-1-0_NULL_THUNK_DATA 0043f19c     ucrt:api-ms-win-crt-heap-l1-1-0.dll
 0002:000001a0       __imp___configthreadlocale 0043f1a0     ucrt:api-ms-win-crt-locale-l1-1-0.dll
 0002:000001a4       \177api-ms-win-crt-locale-l1-1-0_NULL_THUNK_DATA 0043f1a4     ucrt:api-ms-win-crt-locale-l1-1-0.dll
 0002:000001a8       __imp___libm_sse2_pow_precise 0043f1a8     ucrt:api-ms-win-crt-math-l1-1-0.dll
 0002:000001ac       __imp___libm_sse2_cos_precise 0043f1ac     ucrt:api-ms-win-crt-math-l1-1-0.dll
 0002:000001b0       __imp___except1            0043f1b0     ucrt:api-ms-win-crt-math-l1-1-0.dll
 0002:000001b4       __imp___libm_sse2_acos_precise 0043f1b4     ucrt:api-ms-win-crt-math-l1-1-0.dll
 0002:000001b8       __imp___libm_sse2_log_precise 0043f1b8     ucrt:api-ms-win-crt-math-l1-1-0.dll
 0002:000001bc       __imp___libm_sse2_exp_precise 0043f1bc     ucrt:api-ms-win-crt-math-l1-1-0.dll
 0002:000001c0       __imp__floor               0043f1c0     ucrt:api-ms-win-crt-math-l1-1-0.dll
 0002:000001c4       __imp___libm_sse2_sqrt_precise 0043f1c4     ucrt:api-ms-win-crt-math-l1-1-0.dll
 0002:000001c8       __imp____setusermatherr    0043f1c8     ucrt:api-ms-win-crt-math-l1-1-0.dll
 0002:000001cc       __imp___CIfmod             0043f1cc     ucrt:api-ms-win-crt-math-l1-1-0.dll
 0002:000001d0       __imp___libm_sse2_log10_precise 0043f1d0     ucrt:api-ms-win-crt-math-l1-1-0.dll
 0002:000001d4       \177api-ms-win-crt-math-l1-1-0_NULL_THUNK_DATA 0043f1d4     ucrt:api-ms-win-crt-math-l1-1-0.dll
 0002:000001d8       __imp___initialize_onexit_table 0043f1d8     ucrt:api-ms-win-crt-runtime-l1-1-0.dll
 0002:000001dc       __imp___register_onexit_function 0043f1dc     ucrt:api-ms-win-crt-runtime-l1-1-0.dll
 0002:000001e0       __imp__exit                0043f1e0     ucrt:api-ms-win-crt-runtime-l1-1-0.dll
 0002:000001e4       __imp___crt_atexit         0043f1e4     ucrt:api-ms-win-crt-runtime-l1-1-0.dll
 0002:000001e8       __imp___controlfp_s        0043f1e8     ucrt:api-ms-win-crt-runtime-l1-1-0.dll
 0002:000001ec       __imp__terminate           0043f1ec     ucrt:api-ms-win-crt-runtime-l1-1-0.dll
 0002:000001f0       __imp___register_thread_local_exe_atexit_callback 0043f1f0     ucrt:api-ms-win-crt-runtime-l1-1-0.dll
 0002:000001f4       __imp___seh_filter_exe     0043f1f4     ucrt:api-ms-win-crt-runtime-l1-1-0.dll
 0002:000001f8       __imp___set_app_type       0043f1f8     ucrt:api-ms-win-crt-runtime-l1-1-0.dll
 0002:000001fc       __imp___initterm_e         0043f1fc     ucrt:api-ms-win-crt-runtime-l1-1-0.dll
 0002:00000200       __imp___configure_narrow_argv 0043f200     ucrt:api-ms-win-crt-runtime-l1-1-0.dll
 0002:00000204       __imp___initialize_narrow_environment 0043f204     ucrt:api-ms-win-crt-runtime-l1-1-0.dll
 0002:00000208       __imp___get_initial_narrow_environment 0043f208     ucrt:api-ms-win-crt-runtime-l1-1-0.dll
 0002:0000020c       __imp___initterm           0043f20c     ucrt:api-ms-win-crt-runtime-l1-1-0.dll
 0002:00000210       __imp___c_exit             0043f210     ucrt:api-ms-win-crt-runtime-l1-1-0.dll
 0002:00000214       __imp___exit               0043f214     ucrt:api-ms-win-crt-runtime-l1-1-0.dll
 0002:00000218       __imp___cexit              0043f218     ucrt:api-ms-win-crt-runtime-l1-1-0.dll
 0002:0000021c       __imp____p___argc          0043f21c     ucrt:api-ms-win-crt-runtime-l1-1-0.dll
 0002:00000220       __imp____p___argv          0043f220     ucrt:api-ms-win-crt-runtime-l1-1-0.dll
 0002:00000224       \177api-ms-win-crt-runtime-l1-1-0_NULL_THUNK_DATA 0043f224     ucrt:api-ms-win-crt-runtime-l1-1-0.dll
 0002:00000228       __imp____acrt_iob_func     0043f228     ucrt:api-ms-win-crt-stdio-l1-1-0.dll
 0002:0000022c       __imp____stdio_common_vfprintf 0043f22c     ucrt:api-ms-win-crt-stdio-l1-1-0.dll
 0002:00000230       __imp__puts                0043f230     ucrt:api-ms-win-crt-stdio-l1-1-0.dll
 0002:00000234       __imp____p__commode        0043f234     ucrt:api-ms-win-crt-stdio-l1-1-0.dll
 0002:00000238       __imp____stdio_common_vsprintf 0043f238     ucrt:api-ms-win-crt-stdio-l1-1-0.dll
 0002:0000023c       __imp___set_fmode          0043f23c     ucrt:api-ms-win-crt-stdio-l1-1-0.dll
 0002:00000240       \177api-ms-win-crt-stdio-l1-1-0_NULL_THUNK_DATA 0043f240     ucrt:api-ms-win-crt-stdio-l1-1-0.dll
 0002:00000244       __imp___strnicmp           0043f244     ucrt:api-ms-win-crt-string-l1-1-0.dll
 0002:00000248       __imp__isxdigit            0043f248     ucrt:api-ms-win-crt-string-l1-1-0.dll
 0002:0000024c       __imp__strncmp             0043f24c     ucrt:api-ms-win-crt-string-l1-1-0.dll
 0002:00000250       __imp__isdigit             0043f250     ucrt:api-ms-win-crt-string-l1-1-0.dll
 0002:00000254       __imp__strncpy             0043f254     ucrt:api-ms-win-crt-string-l1-1-0.dll
 0002:00000258       __imp___stricmp            0043f258     ucrt:api-ms-win-crt-string-l1-1-0.dll
 0002:0000025c       \177api-ms-win-crt-string-l1-1-0_NULL_THUNK_DATA 0043f25c     ucrt:api-ms-win-crt-string-l1-1-0.dll
 0002:00000260       __imp__rand                0043f260     ucrt:api-ms-win-crt-utility-l1-1-0.dll
 0002:00000264       \177api-ms-win-crt-utility-l1-1-0_NULL_THUNK_DATA 0043f264     ucrt:api-ms-win-crt-utility-l1-1-0.dll
 0002:00000268       __imp__CoCreateGuid@4      0043f268     ole32:ole32.dll
 0002:0000026c       \177ole32_NULL_THUNK_DATA  0043f26c     ole32:ole32.dll
 0002:00000270       ___guard_check_icall_fptr  0043f270     MSVCRT:guard_support.obj
 0002:00000274       ___xc_a                    0043f274     MSVCRT:initializers.obj
 0002:0000027c       ___xc_z                    0043f27c     MSVCRT:initializers.obj
 0002:00000280       ___xi_a                    0043f280     MSVCRT:initializers.obj
 0002:0000028c       ___xi_z                    0043f28c     MSVCRT:initializers.obj
 0002:00000290       ___xp_a                    0043f290     MSVCRT:initializers.obj
 0002:00000294       ___xp_z                    0043f294     MSVCRT:initializers.obj
 0002:00000298       ___xt_a                    0043f298     MSVCRT:initializers.obj
 0002:0000029c       ___xt_z                    0043f29c     MSVCRT:initializers.obj
 0002:000002a0       __xmm@00000000000000060000000000000001 0043f2a0     pcaputil.obj
 0002:000002b0       ??_C@_04HEGNCJCM@G722?$AA@ 0043f2b0     pjmedia-codec-i386-win32-vc14-release-dynamic:g722.obj
 0002:000002b8       ??_C@_04LFKMAGCI@g722?$AA@ 0043f2b8     pjmedia-codec-i386-win32-vc14-release-dynamic:g722.obj
 0002:000002c0       ??_C@_03PDFFOBMG@GSM?$AA@  0043f2c0     pjmedia-codec-i386-win32-vc14-release-dynamic:gsm.obj
 0002:000002c4       ??_C@_03POKOCMLK@gsm?$AA@  0043f2c4     pjmedia-codec-i386-win32-vc14-release-dynamic:gsm.obj
 0002:000002c8       ??_C@_04GMGOKAFF@mode?$AA@ 0043f2c8     pjmedia-codec-i386-win32-vc14-release-dynamic:ilbc.obj
 0002:000002d0       ??_C@_04NEHHLPDD@iLBC?$AA@ 0043f2d0     pjmedia-codec-i386-win32-vc14-release-dynamic:ilbc.obj
 0002:000002d8       ??_C@_02PJNFELNH@30?$AA@   0043f2d8     pjmedia-codec-i386-win32-vc14-release-dynamic:ilbc.obj
 0002:000002dc       ??_C@_02PIBHCBOA@20?$AA@   0043f2dc     pjmedia-codec-i386-win32-vc14-release-dynamic:ilbc.obj
 0002:000002e0       ??_C@_06LOAMOCKH@iLBC?$CFp?$AA@ 0043f2e0     pjmedia-codec-i386-win32-vc14-release-dynamic:ilbc.obj
 0002:000002e8       ??_C@_06NIFDGHKL@ilbc?$CFp?$AA@ 0043f2e8     pjmedia-codec-i386-win32-vc14-release-dynamic:ilbc.obj
 0002:000002f0       ??_C@_0DA@IJNJIJBB@Normalized?5iLBC?5encoder?5and?5deco@ 0043f2f0     pjmedia-codec-i386-win32-vc14-release-dynamic:ilbc.obj
 0002:00000320       ??_C@_0BL@PLFPNNLG@iLBC?5codec?5opened?0?5mode?$DN?$CFd?$AA@ 0043f320     pjmedia-codec-i386-win32-vc14-release-dynamic:ilbc.obj
 0002:0000033c       ??_C@_0BC@LKOHDGGA@iLBC?5codec?5closed?$AA@ 0043f33c     pjmedia-codec-i386-win32-vc14-release-dynamic:ilbc.obj
 0002:00000350       ??_C@_03KDMMNJLE@L16?$AA@  0043f350     pjmedia-codec-i386-win32-vc14-release-dynamic:l16.obj
 0002:00000354       ??_C@_03DPOHGIK@l16?$AA@   0043f354     pjmedia-codec-i386-win32-vc14-release-dynamic:l16.obj
 0002:00000360       ??_C@_05JPFLDMPI@speex?$AA@ 0043f360     pjmedia-codec-i386-win32-vc14-release-dynamic:speex_codec.obj
 0002:000003c8       ??_C@_0BP@EFILPKKM@Adjusting?5quality?5to?55?5for?5uwb?$AA@ 0043f3c8     pjmedia-codec-i386-win32-vc14-release-dynamic:speex_codec.obj
 0002:000003e8       ??_C@_0O@GPAECDMN@speex_codec?4c?$AA@ 0043f3e8     pjmedia-codec-i386-win32-vc14-release-dynamic:speex_codec.obj
 0002:000003f8       _g722_qmf_coeff            0043f3f8     pjmedia-codec-i386-win32-vc14-release-dynamic:g722_enc.obj
 0002:00000a70       ??_C@_0DC@MHBBCDGM@Unspecified?5audio?5device?5error?5?$CI@ 0043fa70     pjmedia-audiodev-i386-win32-vc14-release-dynamic:errno.obj
 0002:00000aa4       ??_C@_0DG@FEDKLOFB@Unknown?5error?5from?5audio?5driver?5@ 0043faa4     pjmedia-audiodev-i386-win32-vc14-release-dynamic:errno.obj
 0002:00000adc       ??_C@_0DE@DOHCBKFK@Audio?5subsystem?5not?5initialized?5@ 0043fadc     pjmedia-audiodev-i386-win32-vc14-release-dynamic:errno.obj
 0002:00000b10       ??_C@_0CL@NCBJPCNF@Invalid?5audio?5device?5?$CIPJMEDIA_EA@ 0043fb10     pjmedia-audiodev-i386-win32-vc14-release-dynamic:errno.obj
 0002:00000b3c       ??_C@_0CM@LOPLLMHO@Found?5no?5audio?5devices?5?$CIPJMEDIA_@ 0043fb3c     pjmedia-audiodev-i386-win32-vc14-release-dynamic:errno.obj
 0002:00000b68       ??_C@_0DM@DPDKGMIE@Unable?5to?5find?5default?5audio?5dev@ 0043fb68     pjmedia-audiodev-i386-win32-vc14-release-dynamic:errno.obj
 0002:00000ba4       ??_C@_0CP@JIPJOIMB@Audio?5device?5not?5ready?5?$CIPJMEDIA_@ 0043fba4     pjmedia-audiodev-i386-win32-vc14-release-dynamic:errno.obj
 0002:00000bd4       ??_C@_0DO@NMIGLFFA@Invalid?5or?5unsupported?5audio?5cap@ 0043fbd4     pjmedia-audiodev-i386-win32-vc14-release-dynamic:errno.obj
 0002:00000c18       ??_C@_0ED@PLJALPOA@Invalid?5or?5unsupported?5audio?5dev@ 0043fc18     pjmedia-audiodev-i386-win32-vc14-release-dynamic:errno.obj
 0002:00000c5c       ??_C@_0DM@JKDJGBNG@Bad?5or?5invalid?5audio?5device?5form@ 0043fc5c     pjmedia-audiodev-i386-win32-vc14-release-dynamic:errno.obj
 0002:00000c98       ??_C@_0DN@BLAJILEA@Invalid?5audio?5device?5sample?5form@ 0043fc98     pjmedia-audiodev-i386-win32-vc14-release-dynamic:errno.obj
 0002:00000cd8       ??_C@_0DE@LJJGJIEF@Bad?5audio?5latency?5setting?5?$CIPJMED@ 0043fcd8     pjmedia-audiodev-i386-win32-vc14-release-dynamic:errno.obj
 0002:00000d0c       ??_C@_0BJ@GMHLEOAL@MMSYSTEM?5native?5error?5?$CFd?$AA@ 0043fd0c     pjmedia-audiodev-i386-win32-vc14-release-dynamic:errno.obj
 0002:00000d28       ??_C@_0CC@MFOJNIAN@Unknown?5pjmedia?9audiodev?5error?5?$CF@ 0043fd28     pjmedia-audiodev-i386-win32-vc14-release-dynamic:errno.obj
 0002:00000d4c       ??_C@_0M@KBHHDDLP@Wave?5mapper?$AA@ 0043fd4c     pjmedia-audiodev-i386-win32-vc14-release-dynamic:wmme_dev.obj
 0002:00000d58       ??_C@_04CPNMDOAK@WMME?$AA@ 0043fd58     pjmedia-audiodev-i386-win32-vc14-release-dynamic:wmme_dev.obj
 0002:00000d60       ??_C@_0BB@EOKKHGLD@WMME?5initialized?$AA@ 0043fd60     pjmedia-audiodev-i386-win32-vc14-release-dynamic:wmme_dev.obj
 0002:00000d74       ??_C@_0L@HHCCMOGO@wmme_dev?4c?$AA@ 0043fd74     pjmedia-audiodev-i386-win32-vc14-release-dynamic:wmme_dev.obj
 0002:00000d80       ??_C@_0BM@OMJMEAMB@WMME?5found?5no?5sound?5devices?$AA@ 0043fd80     pjmedia-audiodev-i386-win32-vc14-release-dynamic:wmme_dev.obj
 0002:00000d9c       ??_C@_11LOCGONAA@?$AA?$AA@ 0043fd9c     pjmedia-audiodev-i386-win32-vc14-release-dynamic:wmme_dev.obj
 0002:00000da0       ??_C@_0BH@GEMAAOCL@WMME?5found?5?$CFd?5devices?3?$AA@ 0043fda0     pjmedia-audiodev-i386-win32-vc14-release-dynamic:wmme_dev.obj
 0002:00000db8       ??_C@_0CA@NLJGEGOG@?5dev_id?5?$CFd?3?5?$CFs?5?5?$CIin?$DN?$CFd?0?5out?$DN?$CFd?$CJ?$AA@ 0043fdb8     pjmedia-audiodev-i386-win32-vc14-release-dynamic:wmme_dev.obj
 0002:00000dd8       ??_C@_03CCLNCNJA@PCM?$AA@  0043fdd8     pjmedia-audiodev-i386-win32-vc14-release-dynamic:wmme_dev.obj
 0002:00000de0       ??_C@_0HB@MKIBCFPJ@?5WaveAPI?5Sound?5player?5?$CC?$CFs?$CC?5initi@ 0043fde0     pjmedia-audiodev-i386-win32-vc14-release-dynamic:wmme_dev.obj
 0002:00000e58       ??_C@_0HD@PIICIPL@?5WaveAPI?5Sound?5recorder?5?$CC?$CFs?$CC?5ini@ 0043fe58     pjmedia-audiodev-i386-win32-vc14-release-dynamic:wmme_dev.obj
 0002:00000ecc       ??_C@_0CJ@BMOAEONK@Failed?5to?5write?5audio?5frame?5for?5@ 0043fecc     pjmedia-audiodev-i386-win32-vc14-release-dynamic:wmme_dev.obj
 0002:00000ef8       ??_C@_0BP@EAOBDJJO@Failed?5to?5add?5recording?5buffer?$AA@ 0043fef8     pjmedia-audiodev-i386-win32-vc14-release-dynamic:wmme_dev.obj
 0002:00000f18       ??_C@_0BI@BEJPJEBJ@WMME?3?5thread?5stopping?4?4?$AA@ 0043ff18     pjmedia-audiodev-i386-win32-vc14-release-dynamic:wmme_dev.obj
 0002:00000f30       ??_C@_0CB@JKFANBEJ@WMME?5thread?5stopped?5due?5to?5error@ 0043ff30     pjmedia-audiodev-i386-win32-vc14-release-dynamic:wmme_dev.obj
 0002:00000f54       ??_C@_08MOOOBPLB@wmme?9dev?$AA@ 0043ff54     pjmedia-audiodev-i386-win32-vc14-release-dynamic:wmme_dev.obj
 0002:00000f60       ??_C@_04ODOGNMHC@wmme?$AA@ 0043ff60     pjmedia-audiodev-i386-win32-vc14-release-dynamic:wmme_dev.obj
 0002:00000f68       ??_C@_0BN@MNACKNIN@WMME?5playback?5stream?5started?$AA@ 0043ff68     pjmedia-audiodev-i386-win32-vc14-release-dynamic:wmme_dev.obj
 0002:00000f88       ??_C@_0BM@NKDLICNM@WMME?5capture?5stream?5started?$AA@ 0043ff88     pjmedia-audiodev-i386-win32-vc14-release-dynamic:wmme_dev.obj
 0002:00000fa4       ??_C@_0BN@FMJNHCPG@Stopped?5WMME?5playback?5stream?$AA@ 0043ffa4     pjmedia-audiodev-i386-win32-vc14-release-dynamic:wmme_dev.obj
 0002:00000fc4       ??_C@_0BM@KCHDOGNE@Stopped?5WMME?5capture?5stream?$AA@ 0043ffc4     pjmedia-audiodev-i386-win32-vc14-release-dynamic:wmme_dev.obj
 0002:00000fe0       ??_C@_09OFDCJLJM@WMME?5base?$AA@ 0043ffe0     pjmedia-audiodev-i386-win32-vc14-release-dynamic:wmme_dev.obj
 0002:00000fec       ??_C@_07GBKCPIDJ@ext?9fmt?$AA@ 0043ffec     pjmedia-i386-win32-vc14-release-dynamic:audiodev.obj
 0002:00000ff4       ??_C@_0BI@GGHCECPI@Extended?1non?9PCM?5format?$AA@ 0043fff4     pjmedia-i386-win32-vc14-release-dynamic:audiodev.obj
 0002:0000100c       ??_C@_0L@IKNMBADD@latency?9in?$AA@ 0044000c     pjmedia-i386-win32-vc14-release-dynamic:audiodev.obj
 0002:00001018       ??_C@_0CC@LIGOHOJN@Input?5latency?1buffer?5size?5settin@ 00440018     pjmedia-i386-win32-vc14-release-dynamic:audiodev.obj
 0002:0000103c       ??_C@_0M@MBBBBCLJ@latency?9out?$AA@ 0044003c     pjmedia-i386-win32-vc14-release-dynamic:audiodev.obj
 0002:00001048       ??_C@_0CD@GAINMBC@Output?5latency?1buffer?5size?5setti@ 00440048     pjmedia-i386-win32-vc14-release-dynamic:audiodev.obj
 0002:0000106c       ??_C@_06KGGLCDDG@vol?9in?$AA@ 0044006c     pjmedia-i386-win32-vc14-release-dynamic:audiodev.obj
 0002:00001074       ??_C@_0BF@CCEKOJAN@Input?5volume?5setting?$AA@ 00440074     pjmedia-i386-win32-vc14-release-dynamic:audiodev.obj
 0002:0000108c       ??_C@_07LBFHFBAF@vol?9out?$AA@ 0044008c     pjmedia-i386-win32-vc14-release-dynamic:audiodev.obj
 0002:00001094       ??_C@_0BG@IBEHJHAD@Output?5volume?5setting?$AA@ 00440094     pjmedia-i386-win32-vc14-release-dynamic:audiodev.obj
 0002:000010ac       ??_C@_08BPNDLGG@meter?9in?$AA@ 004400ac     pjmedia-i386-win32-vc14-release-dynamic:audiodev.obj
 0002:000010b8       ??_C@_0M@NCGIGNPG@Input?5meter?$AA@ 004400b8     pjmedia-i386-win32-vc14-release-dynamic:audiodev.obj
 0002:000010c4       ??_C@_09NKJLJGOJ@meter?9out?$AA@ 004400c4     pjmedia-i386-win32-vc14-release-dynamic:audiodev.obj
 0002:000010d0       ??_C@_0N@GBEOEOEP@Output?5meter?$AA@ 004400d0     pjmedia-i386-win32-vc14-release-dynamic:audiodev.obj
 0002:000010e0       ??_C@_08FPHJDLBG@route?9in?$AA@ 004400e0     pjmedia-i386-win32-vc14-release-dynamic:audiodev.obj
 0002:000010ec       ??_C@_0O@JDPFDDM@Input?5routing?$AA@ 004400ec     pjmedia-i386-win32-vc14-release-dynamic:audiodev.obj
 0002:000010fc       ??_C@_09IKMAGDNF@route?9out?$AA@ 004400fc     pjmedia-i386-win32-vc14-release-dynamic:audiodev.obj
 0002:00001108       ??_C@_0P@JOFPIEJJ@Output?5routing?$AA@ 00440108     pjmedia-i386-win32-vc14-release-dynamic:audiodev.obj
 0002:00001118       ??_C@_03FNONIBCK@aec?$AA@  00440118     pjmedia-i386-win32-vc14-release-dynamic:audiodev.obj
 0002:0000111c       ??_C@_0BM@HPDLGLFJ@Accoustic?5echo?5cancellation?$AA@ 0044011c     pjmedia-i386-win32-vc14-release-dynamic:audiodev.obj
 0002:00001138       ??_C@_08MKAPJCJE@aec?9tail?$AA@ 00440138     pjmedia-i386-win32-vc14-release-dynamic:audiodev.obj
 0002:00001144       ??_C@_0BM@PBLLADJD@Tail?5length?5setting?5for?5AEC?$AA@ 00440144     pjmedia-i386-win32-vc14-release-dynamic:audiodev.obj
 0002:00001160       ??_C@_03NIGLNABH@vad?$AA@  00440160     pjmedia-i386-win32-vc14-release-dynamic:audiodev.obj
 0002:00001164       ??_C@_0BJ@PEELNNPF@Voice?5activity?5detection?$AA@ 00440164     pjmedia-i386-win32-vc14-release-dynamic:audiodev.obj
 0002:00001180       ??_C@_03JPNNGDEE@cng?$AA@  00440180     pjmedia-i386-win32-vc14-release-dynamic:audiodev.obj
 0002:00001184       ??_C@_0BJ@MNDOFJGN@Comfort?5noise?5generation?$AA@ 00440184     pjmedia-i386-win32-vc14-release-dynamic:audiodev.obj
 0002:000011a0       ??_C@_03NOPFEPFL@plg?$AA@  004401a0     pjmedia-i386-win32-vc14-release-dynamic:audiodev.obj
 0002:000011a4       ??_C@_0BI@OMEMKBHH@Packet?5loss?5concealment?$AA@ 004401a4     pjmedia-i386-win32-vc14-release-dynamic:audiodev.obj
 0002:000011c0       ??_C@_0EF@NLCNMHAD@?$CFd?5device?$CIs?$CJ?5cannot?5be?5registere@ 004401c0     pjmedia-i386-win32-vc14-release-dynamic:audiodev.obj
 0002:00001208       ??_C@_0L@FGHHAHLM@audiodev?4c?$AA@ 00440208     pjmedia-i386-win32-vc14-release-dynamic:audiodev.obj
 0002:00001214       ??_C@_0DL@OIPEDDCB@pjmedia_rtp_session_init?3?5ses?$DN?$CFp@ 00440214     pjmedia-i386-win32-vc14-release-dynamic:rtp.obj
 0002:00001250       ??_C@_05BDLJEHIL@rtp?4c?$AA@ 00440250     pjmedia-i386-win32-vc14-release-dynamic:rtp.obj
 0002:00001258       ??_C@_09GLMNEMC@codec?9mgr?$AA@ 00440258     pjmedia-i386-win32-vc14-release-dynamic:codec.obj
 0002:00001264       ??_C@_0L@MMBOMEDE@?$CF?4?$CKs?1?$CFu?1?$CFu?$AA@ 00440264     pjmedia-i386-win32-vc14-release-dynamic:codec.obj
 0002:000012a0       ??_C@_07OEHJJJKF@RTP?1AVP?$AA@ 004402a0     pjmedia-i386-win32-vc14-release-dynamic:endpoint.obj
 0002:000012a8       ??_C@_02BBAPPCCJ@IN?$AA@   004402a8     pjmedia-i386-win32-vc14-release-dynamic:endpoint.obj
 0002:000012ac       ??_C@_03OPDBOKBD@IP4?$AA@  004402ac     pjmedia-i386-win32-vc14-release-dynamic:endpoint.obj
 0002:000012b0       ??_C@_03NNAHIIJB@IP6?$AA@  004402b0     pjmedia-i386-win32-vc14-release-dynamic:endpoint.obj
 0002:000012b4       ??_C@_07HDFHIMAJ@pjmedia?$AA@ 004402b4     pjmedia-i386-win32-vc14-release-dynamic:endpoint.obj
 0002:000012bc       ??_C@_08LMCBNPPN@sendrecv?$AA@ 004402bc     pjmedia-i386-win32-vc14-release-dynamic:endpoint.obj
 0002:000012c8       ??_C@_07LBNDIDNE@med?9ept?$AA@ 004402c8     pjmedia-i386-win32-vc14-release-dynamic:endpoint.obj
 0002:000012d0       ??_C@_0EL@BIFHLACC@Warning?3?5no?5worker?5thread?5is?5cre@ 004402d0     pjmedia-i386-win32-vc14-release-dynamic:endpoint.obj
 0002:0000131c       ??_C@_0L@DLFDMOGF@endpoint?4c?$AA@ 0044031c     pjmedia-i386-win32-vc14-release-dynamic:endpoint.obj
 0002:00001328       ??_C@_05CECBHAPI@media?$AA@ 00440328     pjmedia-i386-win32-vc14-release-dynamic:endpoint.obj
 0002:0000132e       ??_C@_00CNPNBAHC@?$AA@     0044032e     pjmedia-i386-win32-vc14-release-dynamic:endpoint.obj
 0002:00001330       ??_C@_01CLKCMJKC@?5?$AA@   00440330     pjmedia-i386-win32-vc14-release-dynamic:endpoint.obj
 0002:00001334       ??_C@_0DF@MINIEIGK@TX?5RTP?5packet?5dropped?5because?5of@ 00440334     pjmedia-i386-win32-vc14-release-dynamic:transport_loop.obj
 0002:0000136c       ??_C@_0DF@BFHKOPKN@RX?5RTP?5packet?5dropped?5because?5of@ 0044036c     pjmedia-i386-win32-vc14-release-dynamic:transport_loop.obj
 0002:000013a4       ??_C@_06CCKFFBIK@tploop?$AA@ 004403a4     pjmedia-i386-win32-vc14-release-dynamic:transport_loop.obj
 0002:000013ac       ??_C@_09PFCHIMEP@127?40?40?41?$AA@ 004403ac     pjmedia-i386-win32-vc14-release-dynamic:transport_loop.obj
 0002:000013b8       ??_C@_03KOIMFPNC@?3?31?$AA@ 004403b8     pjmedia-i386-win32-vc14-release-dynamic:transport_loop.obj
 0002:000013bc       ??_C@_0BA@CMIKGIPP@SRTP?5not?5active?$AA@ 004403bc     pjmedia-i386-win32-vc14-release-dynamic:transport_srtp.obj
 0002:000013cc       ??_C@_04LFNPDDCP@SDES?$AA@ 004403cc     pjmedia-i386-win32-vc14-release-dynamic:transport_srtp.obj
 0002:000013d4       ??_C@_09LMBOLLED@DTLS?9SRTP?$AA@ 004403d4     pjmedia-i386-win32-vc14-release-dynamic:transport_srtp.obj
 0002:000013e0       ??_C@_0CD@NFEKFFAL@SRTP?5started?0?5keying?$DN?$CFs?0?5crypto?$DN@ 004403e0     pjmedia-i386-win32-vc14-release-dynamic:transport_srtp.obj
 0002:0000141c       ??_C@_08MPIAKENM@RTP?1SAVP?$AA@ 0044041c     pjmedia-i386-win32-vc14-release-dynamic:transport_srtp.obj
 0002:00001428       ??_C@_06LAEHEPPF@crypto?$AA@ 00440428     pjmedia-i386-win32-vc14-release-dynamic:transport_srtp.obj
 0002:00001430       ??_C@_04HIBGFPH@NULL?$AA@  00440430     pjmedia-i386-win32-vc14-release-dynamic:transport_srtp.obj
 0002:00001438       ??_C@_0BI@FCCBBIDC@AES_256_CM_HMAC_SHA1_80?$AA@ 00440438     pjmedia-i386-win32-vc14-release-dynamic:transport_srtp.obj
 0002:00001450       ??_C@_0BI@GMECJFFB@AES_256_CM_HMAC_SHA1_32?$AA@ 00440450     pjmedia-i386-win32-vc14-release-dynamic:transport_srtp.obj
 0002:00001468       ??_C@_0BI@OADHPNHF@AES_CM_128_HMAC_SHA1_80?$AA@ 00440468     pjmedia-i386-win32-vc14-release-dynamic:transport_srtp.obj
 0002:00001480       ??_C@_0BI@NOFEHABG@AES_CM_128_HMAC_SHA1_32?$AA@ 00440480     pjmedia-i386-win32-vc14-release-dynamic:transport_srtp.obj
 0002:00001498       ??_C@_0BP@CAGNCNCA@Failed?5to?5restart?5SRTP?0?5err?$DN?$CFs?$AA@ 00440498     pjmedia-i386-win32-vc14-release-dynamic:transport_srtp.obj
 0002:000014b8       ??_C@_0CO@EDHKLEPP@Failed?5to?5unprotect?5SRTP?0?5pkt?5si@ 004404b8     pjmedia-i386-win32-vc14-release-dynamic:transport_srtp.obj
 0002:000014e8       ??_C@_0CP@OAIPELPD@Failed?5to?5unprotect?5SRTCP?0?5pkt?5s@ 004404e8     pjmedia-i386-win32-vc14-release-dynamic:transport_srtp.obj
 0002:00001518       ??_C@_0BL@LHHEAKNJ@SRTP?5uses?5keying?5method?5?$CFs?$AA@ 00440518     pjmedia-i386-win32-vc14-release-dynamic:transport_srtp.obj
 0002:00001534       ??_C@_0CN@IMPBKLBH@SRTP?5failed?5stop?5underlying?5medi@ 00440534     pjmedia-i386-win32-vc14-release-dynamic:transport_srtp.obj
 0002:00001568       ??_C@_0EB@EJGHAKCH@Warning?3?5simple?5random?5generator@ 00440568     pjmedia-i386-win32-vc14-release-dynamic:transport_srtp.obj
 0002:000015ac       ??_C@_0BB@HGEADDBB@transport_srtp?4c?$AA@ 004405ac     pjmedia-i386-win32-vc14-release-dynamic:transport_srtp.obj
 0002:000015c0       ??_C@_0CE@BAIPFCEP@Failed?5encoding?5plain?5key?5to?5bas@ 004405c0     pjmedia-i386-win32-vc14-release-dynamic:transport_srtp.obj
 0002:000015e4       ??_C@_0BA@OGAKIHAO@?$CFd?5?$CFs?5inline?3?$CFs?$AA@ 004405e4     pjmedia-i386-win32-vc14-release-dynamic:transport_srtp.obj
 0002:000015f4       ??_C@_0BP@IBJNGPHO@Attribute?5crypto?5expecting?5tag?$AA@ 004405f4     pjmedia-i386-win32-vc14-release-dynamic:transport_srtp.obj
 0002:00001614       ??_C@_0CI@IIDGBGP@Attribute?5crypto?5expecting?5crypt@ 00440614     pjmedia-i386-win32-vc14-release-dynamic:transport_srtp.obj
 0002:0000163c       ??_C@_02LMMGGCAJ@?3?5?$AA@ 0044063c     pjmedia-i386-win32-vc14-release-dynamic:transport_srtp.obj
 0002:00001640       ??_C@_0CG@JCJFEHFF@Attribute?5crypto?5expecting?5key?5m@ 00440640     pjmedia-i386-win32-vc14-release-dynamic:transport_srtp.obj
 0002:00001668       ??_C@_06OGMBMJA@inline?$AA@ 00440668     pjmedia-i386-win32-vc14-release-dynamic:transport_srtp.obj
 0002:00001670       ??_C@_0DC@FIGAPMKM@Attribute?5crypto?5key?5method?5?8?$CF?4?$CK@ 00440670     pjmedia-i386-win32-vc14-release-dynamic:transport_srtp.obj
 0002:000016a4       ??_C@_02MINBJDHL@?$HM?5?$AA@ 004406a4     pjmedia-i386-win32-vc14-release-dynamic:transport_srtp.obj
 0002:000016a8       ??_C@_0BP@FKKPLPLE@Attribute?5crypto?5expecting?5key?$AA@ 004406a8     pjmedia-i386-win32-vc14-release-dynamic:transport_srtp.obj
 0002:000016c8       ??_C@_0N@FJKIJMGM@Key?5too?5long?$AA@ 004406c8     pjmedia-i386-win32-vc14-release-dynamic:transport_srtp.obj
 0002:000016d8       ??_C@_0CH@PPONEAL@Failed?5decoding?5crypto?5key?5from?5@ 004406d8     pjmedia-i386-win32-vc14-release-dynamic:transport_srtp.obj
 0002:00001700       ??_C@_02MFDMBIJM@ok?$AA@   00440700     pjmedia-i386-win32-vc14-release-dynamic:transport_srtp.obj
 0002:00001704       ??_C@_0BE@KFOIPNMM@unspecified?5failure?$AA@ 00440704     pjmedia-i386-win32-vc14-release-dynamic:transport_srtp.obj
 0002:00001718       ??_C@_0BG@LENPEKHL@unsupported?5parameter?$AA@ 00440718     pjmedia-i386-win32-vc14-release-dynamic:transport_srtp.obj
 0002:00001730       ??_C@_0BJ@DGLNBGGB@couldn?8t?5allocate?5memory?$AA@ 00440730     pjmedia-i386-win32-vc14-release-dynamic:transport_srtp.obj
 0002:0000174c       ??_C@_0BN@LJIJFBAJ@couldn?8t?5deallocate?5properly?$AA@ 0044074c     pjmedia-i386-win32-vc14-release-dynamic:transport_srtp.obj
 0002:0000176c       ??_C@_0BE@KBPICNEA@couldn?8t?5initialize?$AA@ 0044076c     pjmedia-i386-win32-vc14-release-dynamic:transport_srtp.obj
 0002:00001780       ??_C@_0CI@FEPPFOBO@can?8t?5process?5as?5much?5data?5as?5re@ 00440780     pjmedia-i386-win32-vc14-release-dynamic:transport_srtp.obj
 0002:000017a8       ??_C@_0BH@DJJHFLDI@authentication?5failure?$AA@ 004407a8     pjmedia-i386-win32-vc14-release-dynamic:transport_srtp.obj
 0002:000017c0       ??_C@_0P@MHOCHBCE@cipher?5failure?$AA@ 004407c0     pjmedia-i386-win32-vc14-release-dynamic:transport_srtp.obj
 0002:000017d0       ??_C@_0CA@LIFPFHJ@replay?5check?5failed?5?$CIbad?5index?$CJ?$AA@ 004407d0     pjmedia-i386-win32-vc14-release-dynamic:transport_srtp.obj
 0002:000017f0       ??_C@_0CE@GCMJOMFK@replay?5check?5failed?5?$CIindex?5too?5o@ 004407f0     pjmedia-i386-win32-vc14-release-dynamic:transport_srtp.obj
 0002:00001814       ??_C@_0BO@KLFALCF@algorithm?5failed?5test?5routine?$AA@ 00440814     pjmedia-i386-win32-vc14-release-dynamic:transport_srtp.obj
 0002:00001834       ??_C@_0BG@JKFIFBMN@unsupported?5operation?$AA@ 00440834     pjmedia-i386-win32-vc14-release-dynamic:transport_srtp.obj
 0002:0000184c       ??_C@_0BN@PDJKDLOF@no?5appropriate?5context?5found?$AA@ 0044084c     pjmedia-i386-win32-vc14-release-dynamic:transport_srtp.obj
 0002:0000186c       ??_C@_0CF@DOHHPHGD@unable?5to?5perform?5desired?5valida@ 0044086c     pjmedia-i386-win32-vc14-release-dynamic:transport_srtp.obj
 0002:00001894       ??_C@_0BH@NKHPNDDN@can?8t?5use?5key?5any?5more?$AA@ 00440894     pjmedia-i386-win32-vc14-release-dynamic:transport_srtp.obj
 0002:000018ac       ??_C@_0BH@CDHGOGDE@error?5in?5use?5of?5socket?$AA@ 004408ac     pjmedia-i386-win32-vc14-release-dynamic:transport_srtp.obj
 0002:000018c4       ??_C@_0BL@DJFHEKEC@error?5in?5use?5POSIX?5signals?$AA@ 004408c4     pjmedia-i386-win32-vc14-release-dynamic:transport_srtp.obj
 0002:000018e0       ??_C@_0BD@HFMCMINA@nonce?5check?5failed?$AA@ 004408e0     pjmedia-i386-win32-vc14-release-dynamic:transport_srtp.obj
 0002:000018f4       ??_C@_0BD@FCFDDPHP@couldn?8t?5read?5data?$AA@ 004408f4     pjmedia-i386-win32-vc14-release-dynamic:transport_srtp.obj
 0002:00001908       ??_C@_0BE@PIHIJLHG@couldn?8t?5write?5data?$AA@ 00440908     pjmedia-i386-win32-vc14-release-dynamic:transport_srtp.obj
 0002:0000191c       ??_C@_0BD@PIIFGNCP@error?5pasring?5data?$AA@ 0044091c     pjmedia-i386-win32-vc14-release-dynamic:transport_srtp.obj
 0002:00001930       ??_C@_0BE@FFKLLGEP@error?5encoding?5data?$AA@ 00440930     pjmedia-i386-win32-vc14-release-dynamic:transport_srtp.obj
 0002:00001944       ??_C@_0BN@OEPMNKMP@error?5while?5using?5semaphores?$AA@ 00440944     pjmedia-i386-win32-vc14-release-dynamic:transport_srtp.obj
 0002:00001964       ??_C@_0BI@JNCDFEKK@error?5while?5using?5pfkey?$AA@ 00440964     pjmedia-i386-win32-vc14-release-dynamic:transport_srtp.obj
 0002:0000197c       ??_C@_0BJ@BOBCJFAN@Unknown?5libsrtp?5error?5?$CFd?$AA@ 0044097c     pjmedia-i386-win32-vc14-release-dynamic:transport_srtp.obj
 0002:00001998       ??_C@_04HJOFNBFH@sdes?$AA@ 00440998     pjmedia-i386-win32-vc14-release-dynamic:transport_srtp.obj
 0002:000019a0       ??_C@_0BJ@FEOOEBIC@SRTP?5keying?5SDES?5created?$AA@ 004409a0     pjmedia-i386-win32-vc14-release-dynamic:transport_srtp.obj
 0002:000019bc       ??_C@_0CB@KJOFGAC@Failed?5to?5initialize?5libsrtp?3?5?$CFs@ 004409bc     pjmedia-i386-win32-vc14-release-dynamic:transport_srtp.obj
 0002:000019e0       ??_C@_0CD@JOBKHEBK@Failed?5to?5register?5libsrtp?5deini@ 004409e0     pjmedia-i386-win32-vc14-release-dynamic:transport_srtp.obj
 0002:00001a04       ??_C@_0CD@EDFIBBCB@Failed?5to?5deinitialize?5libsrtp?3?5@ 00440a04     pjmedia-i386-win32-vc14-release-dynamic:transport_srtp.obj
 0002:00001a28       ??_C@_06IPCNFNJD@srtp?$CFp?$AA@ 00440a28     pjmedia-i386-win32-vc14-release-dynamic:transport_srtp.obj
 0002:00001a30       ??_C@_0BB@JENPEJDI@?9?9key?5too?5long?9?9?$AA@ 00440a30     pjmedia-i386-win32-vc14-release-dynamic:transport_srtp.obj
 0002:00001a44       ??_C@_0O@LPFLKIMI@TX?3?5?$CFs?5key?$DN?$CFs?$AA@ 00440a44     pjmedia-i386-win32-vc14-release-dynamic:transport_srtp.obj
 0002:00001a54       ??_C@_05EPPOHEBK@?5auth?$AA@ 00440a54     pjmedia-i386-win32-vc14-release-dynamic:transport_srtp.obj
 0002:00001a5c       ??_C@_04PIHNPOJJ@?5enc?$AA@ 00440a5c     pjmedia-i386-win32-vc14-release-dynamic:transport_srtp.obj
 0002:00001a64       ??_C@_0BA@BONGIHBG@TX?3?5disable?$CFs?$CFs?$AA@ 00440a64     pjmedia-i386-win32-vc14-release-dynamic:transport_srtp.obj
 0002:00001a74       ??_C@_0O@EHJJODHO@RX?3?5?$CFs?5key?$DN?$CFs?$AA@ 00440a74     pjmedia-i386-win32-vc14-release-dynamic:transport_srtp.obj
 0002:00001a84       ??_C@_0BA@ENEHOOPC@RX?3?5disable?$CFs?$CFs?$AA@ 00440a84     pjmedia-i386-win32-vc14-release-dynamic:transport_srtp.obj
 0002:00001a94       ??_C@_0CG@KDAPJFOB@Failed?5to?5dealloc?5RX?5SRTP?5contex@ 00440a94     pjmedia-i386-win32-vc14-release-dynamic:transport_srtp.obj
 0002:00001abc       ??_C@_0CG@CHCMAIDE@Failed?5to?5dealloc?5TX?5SRTP?5contex@ 00440abc     pjmedia-i386-win32-vc14-release-dynamic:transport_srtp.obj
 0002:00001ae4       ??_C@_0DH@EDIEAILI@File?5writer?5?8?$CF?4?$CKs?8?5created?3?5samp@ 00440ae4     pjmedia-i386-win32-vc14-release-dynamic:wav_writer.obj
 0002:00001b1c       ??_C@_0N@MCLOBLAH@wav_writer?4c?$AA@ 00440b1c     pjmedia-i386-win32-vc14-release-dynamic:wav_writer.obj
 0002:00001b2c       ??_C@_04DHOBIHHI@PCMU?$AA@ 00440b2c     pjmedia-i386-win32-vc14-release-dynamic:g711.obj
 0002:00001b34       ??_C@_04BJEPFACN@PCMA?$AA@ 00440b34     pjmedia-i386-win32-vc14-release-dynamic:g711.obj
 0002:00001b3c       ??_C@_04JMMHOLLC@g711?$AA@ 00440b3c     pjmedia-i386-win32-vc14-release-dynamic:g711.obj
 0002:00001b44       ??_C@_04CEHLIMNH@g611?$AA@ 00440b44     pjmedia-i386-win32-vc14-release-dynamic:g711.obj
 0002:00001b4c       ??_C@_04CCFCAPFE@sd?$CFp?$AA@ 00440b4c     pjmedia-i386-win32-vc14-release-dynamic:silencedet.obj
 0002:00001b54       ??_C@_0CJ@FEGDIEOD@Re?9adjust?5threshold?5?$CIin?5talk?5bur@ 00440b54     pjmedia-i386-win32-vc14-release-dynamic:silencedet.obj
 0002:00001b80       ??_C@_0N@GGOMHLHN@silencedet?4c?$AA@ 00440b80     pjmedia-i386-win32-vc14-release-dynamic:silencedet.obj
 0002:00001b90       ??_C@_0CM@HFHDPICL@Starting?5talk?5burst?5?$CIlevel?$DN?$CFd?5th@ 00440b90     pjmedia-i386-win32-vc14-release-dynamic:silencedet.obj
 0002:00001bbc       ??_C@_0CG@DGOMOKAK@Re?9adjust?5threshold?5?$CIin?5silence?$CJ@ 00440bbc     pjmedia-i386-win32-vc14-release-dynamic:silencedet.obj
 0002:00001be4       ??_C@_0CJ@HMFIAFFP@Starting?5silence?5?$CIlevel?$DN?$CFd?5thres@ 00440be4     pjmedia-i386-win32-vc14-release-dynamic:silencedet.obj
 0002:00001c10       ??_C@_0DH@LLDEKPNG@Lost?5event?5?$CFs?5from?5publisher?5?$FL0x@ 00440c10     pjmedia-i386-win32-vc14-release-dynamic:event.obj
 0002:00001c48       ??_C@_07GLALFINI@event?4c?$AA@ 00440c48     pjmedia-i386-win32-vc14-release-dynamic:event.obj
 0002:00001c50       ??_C@_01KMDKNFGN@?1?$AA@   00440c50     pjmedia-i386-win32-vc14-release-dynamic:sdp.obj
 0002:00001c54       ??_C@_03GOLBDMPC@RTP?$AA@  00440c54     pjmedia-i386-win32-vc14-release-dynamic:sdp.obj
 0002:00001c58       ??_C@_03CPJJBAON@AVP?$AA@  00440c58     pjmedia-i386-win32-vc14-release-dynamic:sdp.obj
 0002:00001c5c       ??_C@_04LHEMINPH@SAVP?$AA@ 00440c5c     pjmedia-i386-win32-vc14-release-dynamic:sdp.obj
 0002:00001c64       ??_C@_04HILHOPFG@AVPF?$AA@ 00440c64     pjmedia-i386-win32-vc14-release-dynamic:sdp.obj
 0002:00001c6c       ??_C@_05IFENMDLB@SAVPF?$AA@ 00440c6c     pjmedia-i386-win32-vc14-release-dynamic:sdp.obj
 0002:00001c74       ??_C@_03OPEAKHDL@UDP?$AA@  00440c74     pjmedia-i386-win32-vc14-release-dynamic:sdp.obj
 0002:00001c78       ??_C@_0N@IFKNLCBO@TLS?1RTP?1SAVP?$AA@ 00440c78     pjmedia-i386-win32-vc14-release-dynamic:sdp.obj
 0002:00001c88       ??_C@_0O@FMKJHIFC@TLS?1RTP?1SAVPF?$AA@ 00440c88     pjmedia-i386-win32-vc14-release-dynamic:sdp.obj
 0002:00001fe8       ??_C@_0CK@HBHLALIF@Unspecified?5PJMEDIA?5error?5?$CIPJMED@ 00440fe8     pjmedia-i386-win32-vc14-release-dynamic:errno.obj
 0002:00002014       ??_C@_0CM@KFAONKNJ@Invalid?5SDP?5descriptor?5?$CIPJMEDIA_@ 00441014     pjmedia-i386-win32-vc14-release-dynamic:errno.obj
 0002:00002040       ??_C@_0CO@ONPCFICA@Invalid?5SDP?5version?5line?5?$CIPJMEDI@ 00441040     pjmedia-i386-win32-vc14-release-dynamic:errno.obj
 0002:00002070       ??_C@_0DA@DIKNJOEJ@Invalid?5SDP?5origin?5line?5?$CIPJMEDIA@ 00441070     pjmedia-i386-win32-vc14-release-dynamic:errno.obj
 0002:000020a0       ??_C@_0CM@DLEAGODI@Invalid?5SDP?5time?5line?5?$CIPJMEDIA_S@ 004410a0     pjmedia-i386-win32-vc14-release-dynamic:errno.obj
 0002:000020cc       ??_C@_0DF@HNDCDPJF@SDP?5name?1subject?5line?5is?5empty?5?$CI@ 004410cc     pjmedia-i386-win32-vc14-release-dynamic:errno.obj
 0002:00002104       ??_C@_0DC@KNNPDHKA@Invalid?5SDP?5connection?5line?5?$CIPJM@ 00441104     pjmedia-i386-win32-vc14-release-dynamic:errno.obj
 0002:00002138       ??_C@_0DM@NEDHCJGL@Missing?5SDP?5connection?5info?5line@ 00441138     pjmedia-i386-win32-vc14-release-dynamic:errno.obj
 0002:00002174       ??_C@_0CN@JHLMEODJ@Invalid?5SDP?5attributes?5?$CIPJMEDIA_@ 00441174     pjmedia-i386-win32-vc14-release-dynamic:errno.obj
 0002:000021a4       ??_C@_0DF@BJAALDOM@Invalid?5SDP?5rtpmap?5attribute?5?$CIPJ@ 004411a4     pjmedia-i386-win32-vc14-release-dynamic:errno.obj
 0002:000021dc       ??_C@_0DL@HCOGNPAF@SDP?5rtpmap?5attribute?5too?5long?5?$CIP@ 004411dc     pjmedia-i386-win32-vc14-release-dynamic:errno.obj
 0002:00002218       ??_C@_0EJ@IDNJACOO@Missing?5SDP?5rtpmap?5for?5dynamic?5p@ 00441218     pjmedia-i386-win32-vc14-release-dynamic:errno.obj
 0002:00002264       ??_C@_0CO@DIKFNJOF@Invalid?5SDP?5media?5line?5?$CIPJMEDIA_@ 00441264     pjmedia-i386-win32-vc14-release-dynamic:errno.obj
 0002:00002294       ??_C@_0DN@GADAENKO@No?5SDP?5payload?5format?5in?5the?5med@ 00441294     pjmedia-i386-win32-vc14-release-dynamic:errno.obj
 0002:000022d4       ??_C@_0DL@KAILPDC@Invalid?5SDP?5payload?5type?5in?5medi@ 004412d4     pjmedia-i386-win32-vc14-release-dynamic:errno.obj
 0002:00002310       ??_C@_0DB@BJCACDID@Invalid?5SDP?5fmtp?5attribute?5?$CIPJME@ 00441310     pjmedia-i386-win32-vc14-release-dynamic:errno.obj
 0002:00002344       ??_C@_0DB@GFBENNMO@Invalid?5SDP?5rtcp?5attribute?5?$CIPJME@ 00441344     pjmedia-i386-win32-vc14-release-dynamic:errno.obj
 0002:00002378       ??_C@_0DM@JFGCNJLM@Invalid?5SDP?5media?5transport?5prot@ 00441378     pjmedia-i386-win32-vc14-release-dynamic:errno.obj
 0002:000023b4       ??_C@_0DH@PCNCDMKM@Invalid?5SDP?5bandwidth?5info?5line?5@ 004413b4     pjmedia-i386-win32-vc14-release-dynamic:errno.obj
 0002:000023ec       ??_C@_0DB@POLJHCKE@Invalid?5SDP?5ssrc?5attribute?5?$CIPJME@ 004413ec     pjmedia-i386-win32-vc14-release-dynamic:errno.obj
 0002:00002420       ??_C@_0EF@CJNFLCEL@Invalid?5SDP?5negotiator?5state?5for@ 00441420     pjmedia-i386-win32-vc14-release-dynamic:errno.obj
 0002:00002468       ??_C@_0ED@IFOJJHNO@No?5initial?5local?5SDP?5in?5SDP?5nego@ 00441468     pjmedia-i386-win32-vc14-release-dynamic:errno.obj
 0002:000024ac       ??_C@_0DL@MFMHOMBE@No?5active?5SDP?5in?5SDP?5negotiator?5@ 004414ac     pjmedia-i386-win32-vc14-release-dynamic:errno.obj
 0002:000024e8       ??_C@_0DN@JGPGLEOH@No?5current?5local?1remote?5offer?1an@ 004414e8     pjmedia-i386-win32-vc14-release-dynamic:errno.obj
 0002:00002528       ??_C@_0EE@BLNHOMNC@SDP?5media?5count?5mismatch?5in?5offe@ 00441528     pjmedia-i386-win32-vc14-release-dynamic:errno.obj
 0002:00002570       ??_C@_0EG@MJOIPNIH@SDP?5media?5type?5mismatch?5in?5offer@ 00441570     pjmedia-i386-win32-vc14-release-dynamic:errno.obj
 0002:000025b8       ??_C@_0EN@OPFCIOMP@SDP?5media?5transport?5type?5mismatc@ 004415b8     pjmedia-i386-win32-vc14-release-dynamic:errno.obj
 0002:00002608       ??_C@_0ED@NGHPALDD@No?5common?5SDP?5media?5payload?5in?5a@ 00441608     pjmedia-i386-win32-vc14-release-dynamic:errno.obj
 0002:00002650       ??_C@_0ED@HELGJJGO@No?5active?5media?5stream?5after?5neg@ 00441650     pjmedia-i386-win32-vc14-release-dynamic:errno.obj
 0002:00002694       ??_C@_0DP@KIMEPBPF@No?5suitable?5codec?5for?5remote?5off@ 00441694     pjmedia-i386-win32-vc14-release-dynamic:errno.obj
 0002:000026d8       ??_C@_0EM@LLMPLGCO@No?5suitable?5telephone?9event?5for?5@ 004416d8     pjmedia-i386-win32-vc14-release-dynamic:errno.obj
 0002:00002728       ??_C@_0EK@LPNBCGHG@No?5suitable?5answer?5for?5unknown?5r@ 00441728     pjmedia-i386-win32-vc14-release-dynamic:errno.obj
 0002:00002774       ??_C@_0DM@JMBBJEKO@SDP?5media?5descriptor?5not?5equal?5?$CI@ 00441774     pjmedia-i386-win32-vc14-release-dynamic:errno.obj
 0002:000027b0       ??_C@_0ED@KAALGBMF@Port?5in?5SDP?5media?5descriptor?5not@ 004417b0     pjmedia-i386-win32-vc14-release-dynamic:errno.obj
 0002:000027f8       ??_C@_0EJ@FJOJLJDF@Transport?5in?5SDP?5media?5descripto@ 004417f8     pjmedia-i386-win32-vc14-release-dynamic:errno.obj
 0002:00002848       ??_C@_0EH@FMIFCFBA@Format?5in?5SDP?5media?5descriptor?5n@ 00441848     pjmedia-i386-win32-vc14-release-dynamic:errno.obj
 0002:00002890       ??_C@_0DK@MAHAOAHF@SDP?5connection?5line?5not?5equal?5?$CIP@ 00441890     pjmedia-i386-win32-vc14-release-dynamic:errno.obj
 0002:000028cc       ??_C@_0DF@HHCJAGLJ@SDP?5attributes?5not?5equal?5?$CIPJMEDI@ 004418cc     pjmedia-i386-win32-vc14-release-dynamic:errno.obj
 0002:00002904       ??_C@_0DJ@GGABIHGL@SDP?5media?5direction?5not?5equal?5?$CIP@ 00441904     pjmedia-i386-win32-vc14-release-dynamic:errno.obj
 0002:00002940       ??_C@_0DJ@FFGHKCEG@SDP?5fmtp?5attribute?5not?5equal?5?$CIPJ@ 00441940     pjmedia-i386-win32-vc14-release-dynamic:errno.obj
 0002:0000297c       ??_C@_0DN@HLKACHFN@SDP?5rtpmap?5attribute?5not?5equal?5?$CI@ 0044197c     pjmedia-i386-win32-vc14-release-dynamic:errno.obj
 0002:000029bc       ??_C@_0DN@EALGPLFN@SDP?5session?5descriptor?5not?5equal@ 004419bc     pjmedia-i386-win32-vc14-release-dynamic:errno.obj
 0002:000029fc       ??_C@_0DI@BLKBMMGO@SDP?5origin?5line?5not?5equal?5?$CIPJMED@ 004419fc     pjmedia-i386-win32-vc14-release-dynamic:errno.obj
 0002:00002a34       ??_C@_0DM@HCOBINN@SDP?5name?1subject?5line?5not?5equal?5@ 00441a34     pjmedia-i386-win32-vc14-release-dynamic:errno.obj
 0002:00002a70       ??_C@_0DE@PFJJJNGL@SDP?5time?5line?5not?5equal?5?$CIPJMEDIA@ 00441a70     pjmedia-i386-win32-vc14-release-dynamic:errno.obj
 0002:00002aa4       ??_C@_0CP@ODMIIAEN@Unsupported?5media?5codec?5?$CIPJMEDIA@ 00441aa4     pjmedia-i386-win32-vc14-release-dynamic:errno.obj
 0002:00002ad4       ??_C@_0DG@KJBEJCIE@Codec?5internal?5creation?5error?5?$CIP@ 00441ad4     pjmedia-i386-win32-vc14-release-dynamic:errno.obj
 0002:00002b0c       ??_C@_0DG@FOGENKNL@Codec?5frame?5is?5too?5short?5?$CIPJMEDI@ 00441b0c     pjmedia-i386-win32-vc14-release-dynamic:errno.obj
 0002:00002b44       ??_C@_0DE@OLKJHMCL@PCM?5frame?5is?5too?5short?5?$CIPJMEDIA_@ 00441b44     pjmedia-i386-win32-vc14-release-dynamic:errno.obj
 0002:00002b78       ??_C@_0DF@JDAOLAOM@Invalid?5codec?5frame?5length?5?$CIPJME@ 00441b78     pjmedia-i386-win32-vc14-release-dynamic:errno.obj
 0002:00002bb0       ??_C@_0DG@LLBBCNCG@Invalid?5PCM?5frame?5length?5?$CIPJMEDI@ 00441bb0     pjmedia-i386-win32-vc14-release-dynamic:errno.obj
 0002:00002be8       ??_C@_0DG@EKMGLMFL@Invalid?5codec?5mode?5?$CIno?5fmtp?$DP?$CJ?5?$CIP@ 00441be8     pjmedia-i386-win32-vc14-release-dynamic:errno.obj
 0002:00002c20       ??_C@_0DJ@NJFBGAOC@Bad?5or?5corrupted?5bitstream?5?$CIPJME@ 00441c20     pjmedia-i386-win32-vc14-release-dynamic:errno.obj
 0002:00002c5c       ??_C@_0DH@KOBKDDJI@Invalid?5remote?5media?5?$CIIP?$CJ?5addres@ 00441c5c     pjmedia-i386-win32-vc14-release-dynamic:errno.obj
 0002:00002c94       ??_C@_0DM@GBJMMNCF@Asymetric?5media?5codec?5is?5not?5sup@ 00441c94     pjmedia-i386-win32-vc14-release-dynamic:errno.obj
 0002:00002cd0       ??_C@_0DA@DKJJFGPE@Invalid?5media?5payload?5type?5?$CIPJME@ 00441cd0     pjmedia-i386-win32-vc14-release-dynamic:errno.obj
 0002:00002d00       ??_C@_0DN@IGGOEBDI@Missing?5rtpmap?5in?5media?5descript@ 00441d00     pjmedia-i386-win32-vc14-release-dynamic:errno.obj
 0002:00002d40       ??_C@_0CO@MJBLNMMI@Invalid?5media?5type?5?$CIPJMEDIA_EINV@ 00441d40     pjmedia-i386-win32-vc14-release-dynamic:errno.obj
 0002:00002d70       ??_C@_0DF@NNKPPHHC@Remote?5does?5not?5support?5DTMF?5?$CIPJ@ 00441d70     pjmedia-i386-win32-vc14-release-dynamic:errno.obj
 0002:00002da8       ??_C@_0CJ@ECIKMCPH@Invalid?5DTMF?5digit?5?$CIPJMEDIA_RTP_@ 00441da8     pjmedia-i386-win32-vc14-release-dynamic:errno.obj
 0002:00002dd4       ??_C@_0DN@EHCPFJJN@Remote?5does?5not?5support?5RFC?52833@ 00441dd4     pjmedia-i386-win32-vc14-release-dynamic:errno.obj
 0002:00002e14       ??_C@_0BN@LMCOIKH@Bad?5format?5?$CIPJMEDIA_EBADFMT?$CJ?$AA@ 00441e14     pjmedia-i386-win32-vc14-release-dynamic:errno.obj
 0002:00002e34       ??_C@_0DB@GBKLBGPK@Unsupported?5media?5type?5?$CIPJMEDIA_@ 00441e34     pjmedia-i386-win32-vc14-release-dynamic:errno.obj
 0002:00002e68       ??_C@_0CI@KDAMKHEL@Invalid?5RTP?5packet?5?$CIPJMEDIA_RTP_@ 00441e68     pjmedia-i386-win32-vc14-release-dynamic:errno.obj
 0002:00002e90       ??_C@_0DL@KLDJIJLI@Invalid?5RTP?5packing?5?$CIinternal?5er@ 00441e90     pjmedia-i386-win32-vc14-release-dynamic:errno.obj
 0002:00002ecc       ??_C@_0CJ@NGKNCMFA@Invalid?5RTP?5version?5?$CIPJMEDIA_RTP@ 00441ecc     pjmedia-i386-win32-vc14-release-dynamic:errno.obj
 0002:00002ef8       ??_C@_0DC@PFPAEINL@RTP?5packet?5SSRC?5id?5mismatch?5?$CIPJM@ 00441ef8     pjmedia-i386-win32-vc14-release-dynamic:errno.obj
 0002:00002f2c       ??_C@_0DF@KDOADJLK@RTP?5packet?5payload?5type?5mismatch@ 00441f2c     pjmedia-i386-win32-vc14-release-dynamic:errno.obj
 0002:00002f64       ??_C@_0CP@OBFABIAL@Invalid?5RTP?5packet?5length?5?$CIPJMED@ 00441f64     pjmedia-i386-win32-vc14-release-dynamic:errno.obj
 0002:00002f94       ??_C@_0DB@HLHLKEBJ@RTP?5session?5restarted?5?$CIPJMEDIA_R@ 00441f94     pjmedia-i386-win32-vc14-release-dynamic:errno.obj
 0002:00002fc8       ??_C@_0DG@OPPFJBGL@RTP?5session?5in?5probation?5?$CIPJMEDI@ 00441fc8     pjmedia-i386-win32-vc14-release-dynamic:errno.obj
 0002:00003000       ??_C@_0DI@LFLLIJCB@Bad?5sequence?5number?5in?5RTP?5packe@ 00442000     pjmedia-i386-win32-vc14-release-dynamic:errno.obj
 0002:00003038       ??_C@_0EE@PHAAOPAG@RTP?5media?5port?5destination?5is?5no@ 00442038     pjmedia-i386-win32-vc14-release-dynamic:errno.obj
 0002:0000307c       ??_C@_0CO@BFKJOFNE@RTP?5is?5not?5configured?5?$CIPJMEDIA_R@ 0044207c     pjmedia-i386-win32-vc14-release-dynamic:errno.obj
 0002:000030ac       ??_C@_0DI@MEKDIPIO@Media?5ports?5are?5not?5compatible?5?$CI@ 004420ac     pjmedia-i386-win32-vc14-release-dynamic:errno.obj
 0002:000030e8       ??_C@_0EA@EJPEOGMK@Media?5ports?5have?5incompatible?5cl@ 004420e8     pjmedia-i386-win32-vc14-release-dynamic:errno.obj
 0002:00003128       ??_C@_0EL@KOIIKBFP@Media?5ports?5have?5incompatible?5sa@ 00442128     pjmedia-i386-win32-vc14-release-dynamic:errno.obj
 0002:00003174       ??_C@_0DL@FLCJCEPI@Media?5ports?5have?5incompatible?5me@ 00442174     pjmedia-i386-win32-vc14-release-dynamic:errno.obj
 0002:000031b0       ??_C@_0EA@CDICINEI@Media?5ports?5have?5incompatible?5bi@ 004421b0     pjmedia-i386-win32-vc14-release-dynamic:errno.obj
 0002:000031f0       ??_C@_0EB@DHIDGGBD@Media?5ports?5have?5incompatible?5by@ 004421f0     pjmedia-i386-win32-vc14-release-dynamic:errno.obj
 0002:00003238       ??_C@_0EG@FBPNENMF@Media?5ports?5have?5incompatible?5nu@ 00442238     pjmedia-i386-win32-vc14-release-dynamic:errno.obj
 0002:00003280       ??_C@_0CO@CKCFJDML@Not?5a?5valid?5WAVE?5file?5?$CIPJMEDIA_E@ 00442280     pjmedia-i386-win32-vc14-release-dynamic:errno.obj
 0002:000032b0       ??_C@_0DD@FKNCKLNB@Unsupported?5WAVE?5file?5format?5?$CIPJ@ 004422b0     pjmedia-i386-win32-vc14-release-dynamic:errno.obj
 0002:000032e4       ??_C@_0CM@HKHLDPDN@WAVE?5file?5too?5short?5?$CIPJMEDIA_EWA@ 004422e4     pjmedia-i386-win32-vc14-release-dynamic:errno.obj
 0002:00003310       ??_C@_0DP@HHAKLPGE@Sound?5frame?5too?5large?5for?5file?5b@ 00442310     pjmedia-i386-win32-vc14-release-dynamic:errno.obj
 0002:00003350       ??_C@_0CK@EMOCNCPF@Unsupported?5AVI?5file?5?$CIPJMEDIA_EA@ 00442350     pjmedia-i386-win32-vc14-release-dynamic:errno.obj
 0002:0000337c       ??_C@_0DF@PKIKHNPA@No?5suitable?5sound?5capture?5device@ 0044237c     pjmedia-i386-win32-vc14-release-dynamic:errno.obj
 0002:000033b4       ??_C@_0DH@NACBPKOD@No?5suitable?5sound?5playback?5devic@ 004423b4     pjmedia-i386-win32-vc14-release-dynamic:errno.obj
 0002:000033ec       ??_C@_0CO@FCJGKBG@Invalid?5sound?5device?5ID?5?$CIPJMEDIA@ 004423ec     pjmedia-i386-win32-vc14-release-dynamic:errno.obj
 0002:00003420       ??_C@_0EB@GAMOPGD@Invalid?5sample?5format?5for?5sound?5@ 00442420     pjmedia-i386-win32-vc14-release-dynamic:errno.obj
 0002:00003468       ??_C@_0FA@HAKEALMK@SRTP?5crypto?9suite?5name?5not?5match@ 00442468     pjmedia-i386-win32-vc14-release-dynamic:errno.obj
 0002:000034b8       ??_C@_0EF@DCMAHBDI@Invalid?5SRTP?5key?5length?5for?5spec@ 004424b8     pjmedia-i386-win32-vc14-release-dynamic:errno.obj
 0002:00003500       ??_C@_0DL@BINEGGLM@Unsupported?5SRTP?5crypto?9suite?5?$CIP@ 00442500     pjmedia-i386-win32-vc14-release-dynamic:errno.obj
 0002:0000353c       ??_C@_0DP@DNDEFJI@SRTP?5SDP?5contains?5ambigue?5answer@ 0044253c     pjmedia-i386-win32-vc14-release-dynamic:errno.obj
 0002:0000357c       ??_C@_0DL@PPDCJAFI@Duplicated?5SRTP?5crypto?5tag?5?$CIPJME@ 0044257c     pjmedia-i386-win32-vc14-release-dynamic:errno.obj
 0002:000035b8       ??_C@_0DK@EIEPDNB@Invalid?5SRTP?5crypto?5attribute?5?$CIP@ 004425b8     pjmedia-i386-win32-vc14-release-dynamic:errno.obj
 0002:000035f4       ??_C@_0DH@JABOECDK@Invalid?5SRTP?5crypto?5tag?5?$CIPJMEDIA@ 004425f4     pjmedia-i386-win32-vc14-release-dynamic:errno.obj
 0002:00003630       ??_C@_0EE@HKDIFKLN@Invalid?5SDP?5media?5transport?5for?5@ 00442630     pjmedia-i386-win32-vc14-release-dynamic:errno.obj
 0002:00003674       ??_C@_0DM@OPHJDJCK@SRTP?5crypto?5attribute?5required?5?$CI@ 00442674     pjmedia-i386-win32-vc14-release-dynamic:errno.obj
 0002:000036b0       ??_C@_0EO@MOMMHEEA@Secure?5transport?5required?5in?5SDP@ 004426b0     pjmedia-i386-win32-vc14-release-dynamic:errno.obj
 0002:00003700       ??_C@_0EK@HIIDIBOJ@SRTP?5parameters?5negotiation?5stil@ 00442700     pjmedia-i386-win32-vc14-release-dynamic:errno.obj
 0002:00003750       ??_C@_0EM@HBHPHIDH@No?5matching?5SRTP?5crypto?9suite?5af@ 00442750     pjmedia-i386-win32-vc14-release-dynamic:errno.obj
 0002:000037a0       ??_C@_0EN@OKMMPCBN@No?5certificate?5supplied?5by?5peer?5@ 004427a0     pjmedia-i386-win32-vc14-release-dynamic:errno.obj
 0002:000037f0       ??_C@_0FM@DHHDFBCG@Fingerprint?5from?5signalling?5not?5@ 004427f0     pjmedia-i386-win32-vc14-release-dynamic:errno.obj
 0002:0000384c       ??_C@_0DE@BIABFNHJ@Fingerprint?5not?5found?5?$CIPJMEDIA_S@ 0044284c     pjmedia-i386-win32-vc14-release-dynamic:errno.obj
 0002:00003880       ??_C@_0EG@NFPDPACI@No?5valid?5SRTP?5protection?5profile@ 00442880     pjmedia-i386-win32-vc14-release-dynamic:errno.obj
 0002:000038c8       ??_C@_0BJ@JGEGOKIK@Unknown?5pjmedia?5error?5?$CFd?$AA@ 004428c8     pjmedia-i386-win32-vc14-release-dynamic:errno.obj
 0002:000038e8       _pjmedia_linear2ulaw_tab   004428e8     pjmedia-i386-win32-vc14-release-dynamic:alaw_ulaw_table.obj
 0002:000078e8       _pjmedia_linear2alaw_tab   004468e8     pjmedia-i386-win32-vc14-release-dynamic:alaw_ulaw_table.obj
 0002:0000b8e8       _pjmedia_ulaw2linear_tab   0044a8e8     pjmedia-i386-win32-vc14-release-dynamic:alaw_ulaw_table.obj
 0002:0000bae8       _pjmedia_alaw2linear_tab   0044aae8     pjmedia-i386-win32-vc14-release-dynamic:alaw_ulaw_table.obj
 0002:0000bce8       ??_C@_0BO@PBEKEGBF@Failed?5to?5create?5circular?5buf?$AA@ 0044ace8     pjmedia-i386-win32-vc14-release-dynamic:wsola.obj
 0002:0000bd08       ??_C@_07LLDBJGIC@wsola?4c?$AA@ 0044ad08     pjmedia-i386-win32-vc14-release-dynamic:wsola.obj
 0002:0000bd10       __real@3f800000            0044ad10     pjmedia-i386-win32-vc14-release-dynamic:wsola.obj
 0002:0000bd18       __real@3fe0000000000000    0044ad18     pjmedia-i386-win32-vc14-release-dynamic:wsola.obj
 0002:0000bd20       __real@3ff0000000000000    0044ad20     pjmedia-i386-win32-vc14-release-dynamic:wsola.obj
 0002:0000bd28       __real@3ff8000000000000    0044ad28     pjmedia-i386-win32-vc14-release-dynamic:wsola.obj
 0002:0000bd30       __real@401921fb54442d18    0044ad30     pjmedia-i386-win32-vc14-release-dynamic:wsola.obj
 0002:0000bd40       __xmm@00000001000000010000000100000001 0044ad40     pjmedia-i386-win32-vc14-release-dynamic:wsola.obj
 0002:0000bd50       __xmm@00000003000000020000000100000000 0044ad50     pjmedia-i386-win32-vc14-release-dynamic:wsola.obj
 0002:0000bd60       __xmm@3fe00000000000003fe0000000000000 0044ad60     pjmedia-i386-win32-vc14-release-dynamic:wsola.obj
 0002:0000bd70       __xmm@401921fb54442d18401921fb54442d18 0044ad70     pjmedia-i386-win32-vc14-release-dynamic:wsola.obj
 0002:0000bd80       __xmm@41f00000000000000000000000000000 0044ad80     pjmedia-i386-win32-vc14-release-dynamic:wsola.obj
 0002:0000bd90       __xmm@41f000000000000041f0000000000000 0044ad90     pjmedia-i386-win32-vc14-release-dynamic:wsola.obj
 0002:0000bf80       ??_C@_0DI@FPKNFLPC@Unable?5to?5resolve?5STUN?5server?5?$CIP@ 0044af80     pjlib-util-i386-win32-vc14-release-dynamic:errno.obj
 0002:0000bfb8       ??_C@_0DG@MLIAHJMC@Unknown?5STUN?5message?5type?5?$CIPJLIB@ 0044afb8     pjlib-util-i386-win32-vc14-release-dynamic:errno.obj
 0002:0000bff0       ??_C@_0DH@BGLGMNML@Invalid?5STUN?5message?5length?5?$CIPJL@ 0044aff0     pjlib-util-i386-win32-vc14-release-dynamic:errno.obj
 0002:0000c028       ??_C@_0DI@MNKBLDCO@STUN?5attribute?5length?5error?5?$CIPJL@ 0044b028     pjlib-util-i386-win32-vc14-release-dynamic:errno.obj
 0002:0000c060       ??_C@_0DJ@GEFJCPHI@Invalid?5STUN?5attribute?5type?5?$CIPJL@ 0044b060     pjlib-util-i386-win32-vc14-release-dynamic:errno.obj
 0002:0000c09c       ??_C@_0DL@JFEBBJAB@Invalid?5STUN?5server?1socket?5index@ 0044b09c     pjlib-util-i386-win32-vc14-release-dynamic:errno.obj
 0002:0000c0d8       ??_C@_0EE@OMBAKMPD@No?5STUN?5binding?5response?5in?5the?5@ 0044b0d8     pjlib-util-i386-win32-vc14-release-dynamic:errno.obj
 0002:0000c11c       ??_C@_0DM@JJJKHKHH@Received?5STUN?5error?5attribute?5?$CIP@ 0044b11c     pjlib-util-i386-win32-vc14-release-dynamic:errno.obj
 0002:0000c158       ??_C@_0DJ@BDPKKDEL@No?5STUN?5mapped?5address?5attribute@ 0044b158     pjlib-util-i386-win32-vc14-release-dynamic:errno.obj
 0002:0000c198       ??_C@_0ED@MIOBPJDH@Received?5no?5response?5from?5STUN?5s@ 0044b198     pjlib-util-i386-win32-vc14-release-dynamic:errno.obj
 0002:0000c1dc       ??_C@_0DK@OILEGGA@Symetric?5NAT?5detected?5by?5STUN?5?$CIP@ 0044b1dc     pjlib-util-i386-win32-vc14-release-dynamic:errno.obj
 0002:0000c218       ??_C@_0CI@OKGDIDF@Invalid?5XML?5message?5?$CIPJLIB_UTIL_@ 0044b218     pjlib-util-i386-win32-vc14-release-dynamic:errno.obj
 0002:0000c240       ??_C@_0CL@IPLFEOJE@Invalid?5JSON?5document?5?$CIPJLIB_UTI@ 0044b240     pjlib-util-i386-win32-vc14-release-dynamic:errno.obj
 0002:0000c270       ??_C@_0EC@KJLJANIE@DNS?5query?5packet?5buffer?5is?5too?5s@ 0044b270     pjlib-util-i386-win32-vc14-release-dynamic:errno.obj
 0002:0000c2b4       ??_C@_0DC@JFKHADAC@Invalid?5DNS?5packet?5length?5?$CIPJLIB@ 0044b2b4     pjlib-util-i386-win32-vc14-release-dynamic:errno.obj
 0002:0000c2e8       ??_C@_0CL@OCFDFFNM@Invalid?5DNS?5class?5?$CIPJLIB_UTIL_ED@ 0044b2e8     pjlib-util-i386-win32-vc14-release-dynamic:errno.obj
 0002:0000c314       ??_C@_0DE@FIPILDGP@Invalid?5DNS?5name?5pointer?5?$CIPJLIB_@ 0044b314     pjlib-util-i386-win32-vc14-release-dynamic:errno.obj
 0002:0000c348       ??_C@_0DJ@NBOGGJL@Invalid?5DNS?5nameserver?5address?5?$CI@ 0044b348     pjlib-util-i386-win32-vc14-release-dynamic:errno.obj
 0002:0000c384       ??_C@_0DH@LFJGDOHB@No?5nameserver?5is?5in?5DNS?5resolver@ 0044b384     pjlib-util-i386-win32-vc14-release-dynamic:errno.obj
 0002:0000c3bc       ??_C@_0DH@PHJBLCKD@No?5working?5DNS?5nameserver?5?$CIPJLIB@ 0044b3bc     pjlib-util-i386-win32-vc14-release-dynamic:errno.obj
 0002:0000c3f8       ??_C@_0EC@HJFBNLFC@No?5answer?5record?5in?5the?5DNS?5resp@ 0044b3f8     pjlib-util-i386-win32-vc14-release-dynamic:errno.obj
 0002:0000c43c       ??_C@_0CN@DEFBDJKF@Invalid?5DNS?5answer?5?$CIPJLIB_UTIL_E@ 0044b43c     pjlib-util-i386-win32-vc14-release-dynamic:errno.obj
 0002:0000c46c       ??_C@_0CN@BCAAPMPM@DNS?5?$CCFormat?5error?$CC?5?$CIPJLIB_UTIL_E@ 0044b46c     pjlib-util-i386-win32-vc14-release-dynamic:errno.obj
 0002:0000c49c       ??_C@_0DA@NBPIIAHM@DNS?5?$CCServer?5failure?$CC?5?$CIPJLIB_UTIL@ 0044b49c     pjlib-util-i386-win32-vc14-release-dynamic:errno.obj
 0002:0000c4cc       ??_C@_0CM@CNNJNBCA@DNS?5?$CCName?5Error?$CC?5?$CIPJLIB_UTIL_EDN@ 0044b4cc     pjlib-util-i386-win32-vc14-release-dynamic:errno.obj
 0002:0000c4f8       ??_C@_0DA@DIMDKHPM@DNS?5?$CCNot?5Implemented?$CC?5?$CIPJLIB_UTI@ 0044b4f8     pjlib-util-i386-win32-vc14-release-dynamic:errno.obj
 0002:0000c528       ??_C@_0CI@LDMKLLKJ@DNS?5?$CCRefused?$CC?5?$CIPJLIB_UTIL_EDNS_R@ 0044b528     pjlib-util-i386-win32-vc14-release-dynamic:errno.obj
 0002:0000c550       ??_C@_0DB@PFAMNHPJ@DNS?5?$CCThe?5name?5exists?$CC?5?$CIPJLIB_UTI@ 0044b550     pjlib-util-i386-win32-vc14-release-dynamic:errno.obj
 0002:0000c584       ??_C@_0DO@OIIHMCI@DNS?5?$CCThe?5RRset?5?$CIname?0?5type?$CJ?5exis@ 0044b584     pjlib-util-i386-win32-vc14-release-dynamic:errno.obj
 0002:0000c5c8       ??_C@_0EG@OMHMBNML@DNS?5?$CCThe?5RRset?5?$CIname?0?5type?$CJ?5does@ 0044b5c8     pjlib-util-i386-win32-vc14-release-dynamic:errno.obj
 0002:0000c610       ??_C@_0CP@HJODAHHO@DNS?5?$CCNot?5authorized?$CC?5?$CIPJLIB_UTIL@ 0044b610     pjlib-util-i386-win32-vc14-release-dynamic:errno.obj
 0002:0000c640       ??_C@_0EB@GKEHOPAE@DNS?5?$CCThe?5zone?5specified?5is?5not?5a@ 0044b640     pjlib-util-i386-win32-vc14-release-dynamic:errno.obj
 0002:0000c684       ??_C@_0DH@EMGNELGL@Too?5many?5STUN?5attributes?5?$CIPJLIB_@ 0044b684     pjlib-util-i386-win32-vc14-release-dynamic:errno.obj
 0002:0000c6bc       ??_C@_0DF@KMIPDCMM@Unknown?5STUN?5attribute?5?$CIPJLIB_UT@ 0044b6bc     pjlib-util-i386-win32-vc14-release-dynamic:errno.obj
 0002:0000c6f4       ??_C@_0DP@PDBNFLFH@Invalid?5STUN?5socket?5address?5leng@ 0044b6f4     pjlib-util-i386-win32-vc14-release-dynamic:errno.obj
 0002:0000c738       ??_C@_0EA@NAKPKGDE@STUN?5IPv6?5attribute?5not?5supporte@ 0044b738     pjlib-util-i386-win32-vc14-release-dynamic:errno.obj
 0002:0000c778       ??_C@_0DO@LEKPMIHP@Expecting?5STUN?5response?5message?5@ 0044b778     pjlib-util-i386-win32-vc14-release-dynamic:errno.obj
 0002:0000c7b8       ??_C@_0DJ@DDEJFFIL@STUN?5transaction?5ID?5mismatch?5?$CIPJ@ 0044b7b8     pjlib-util-i386-win32-vc14-release-dynamic:errno.obj
 0002:0000c7f8       ??_C@_0EI@BNLBFIKH@Unable?5to?5find?5STUN?5handler?5for?5@ 0044b7f8     pjlib-util-i386-win32-vc14-release-dynamic:errno.obj
 0002:0000c840       ??_C@_0FA@DIAPLEFD@Found?5non?9FINGERPRINT?5attr?4?5afte@ 0044b840     pjlib-util-i386-win32-vc14-release-dynamic:errno.obj
 0002:0000c890       ??_C@_0ED@CNMDGMPD@Found?5STUN?5attribute?5after?5FINGE@ 0044b890     pjlib-util-i386-win32-vc14-release-dynamic:errno.obj
 0002:0000c8d4       ??_C@_0DN@JLMAJAKN@Missing?5STUN?5USERNAME?5attribute?5@ 0044b8d4     pjlib-util-i386-win32-vc14-release-dynamic:errno.obj
 0002:0000c918       ??_C@_0EK@LMHKLKC@Missing?1invalid?5STUN?5MESSAGE?9INT@ 0044b918     pjlib-util-i386-win32-vc14-release-dynamic:errno.obj
 0002:0000c964       ??_C@_0DJ@BCFNCGF@Found?5duplicate?5STUN?5attribute?5?$CI@ 0044b964     pjlib-util-i386-win32-vc14-release-dynamic:errno.obj
 0002:0000c9a0       ??_C@_0DH@MMHMOPBG@Missing?5STUN?5REALM?5attribute?5?$CIPJ@ 0044b9a0     pjlib-util-i386-win32-vc14-release-dynamic:errno.obj
 0002:0000c9d8       ??_C@_0EB@FGOGNHPO@Missing?1stale?5STUN?5NONCE?5attribu@ 0044b9d8     pjlib-util-i386-win32-vc14-release-dynamic:errno.obj
 0002:0000ca20       ??_C@_0EF@HAPLEMIK@STUN?5transaction?5terminates?5with@ 0044ba20     pjlib-util-i386-win32-vc14-release-dynamic:errno.obj
 0002:0000ca68       ??_C@_0CL@GOOAEBLJ@Invalid?5URL?5format?5?$CIPJLIB_UTIL_E@ 0044ba68     pjlib-util-i386-win32-vc14-release-dynamic:errno.obj
 0002:0000ca94       ??_C@_0DB@BDFJPAOA@Invalid?5URL?5port?5number?5?$CIPJLIB_U@ 0044ba94     pjlib-util-i386-win32-vc14-release-dynamic:errno.obj
 0002:0000cac8       ??_C@_0DN@CABCKELB@Incomplete?5response?5header?5recei@ 0044bac8     pjlib-util-i386-win32-vc14-release-dynamic:errno.obj
 0002:0000cb08       ??_C@_0CN@MKMAKFDH@Insufficient?5buffer?5?$CIPJLIB_UTIL_@ 0044bb08     pjlib-util-i386-win32-vc14-release-dynamic:errno.obj
 0002:0000cb38       ??_C@_0CH@JNBFBBKA@Connection?5lost?5?$CIPJLIB_UTIL_EHTT@ 0044bb38     pjlib-util-i386-win32-vc14-release-dynamic:errno.obj
 0002:0000cb60       ??_C@_0CE@DHMMOEGP@Exit?5current?5session?5?$CIPJ_CLI_EEX@ 0044bb60     pjlib-util-i386-win32-vc14-release-dynamic:errno.obj
 0002:0000cb84       ??_C@_0CG@LEDMCEME@Missing?5argument?5?$CIPJ_CLI_EMISSIN@ 0044bb84     pjlib-util-i386-win32-vc14-release-dynamic:errno.obj
 0002:0000cbac       ??_C@_0CJ@ECODGDHL@Too?5many?5arguments?5?$CIPJ_CLI_ETOOM@ 0044bbac     pjlib-util-i386-win32-vc14-release-dynamic:errno.obj
 0002:0000cbd8       ??_C@_0CC@NLPGOLED@Invalid?5argument?5?$CIPJ_CLI_EINVARG@ 0044bbd8     pjlib-util-i386-win32-vc14-release-dynamic:errno.obj
 0002:0000cbfc       ??_C@_0CO@OOEOBCH@Command?5name?5already?5exists?5?$CIPJ_@ 0044bbfc     pjlib-util-i386-win32-vc14-release-dynamic:errno.obj
 0002:0000cc2c       ??_C@_0CK@MKOACJP@Command?5id?5already?5exists?5?$CIPJ_CL@ 0044bc2c     pjlib-util-i386-win32-vc14-release-dynamic:errno.obj
 0002:0000cc58       ??_C@_0CE@LHHCBFML@Invalid?5XML?5format?5?$CIPJ_CLI_EBADX@ 0044bc58     pjlib-util-i386-win32-vc14-release-dynamic:errno.obj
 0002:0000cc7c       ??_C@_0CF@CKMLJLLP@Connection?5lost?5?$CIPJ_CLI_ETELNETL@ 0044bc7c     pjlib-util-i386-win32-vc14-release-dynamic:errno.obj
 0002:0000cca4       ??_C@_0BM@LDLEGOFO@Unknown?5pjlib?9util?5error?5?$CFd?$AA@ 0044bca4     pjlib-util-i386-win32-vc14-release-dynamic:errno.obj
 0002:0000ccc0       ??_C@_02BAABKJLB@?9?9?$AA@ 0044bcc0     pjlib-util-i386-win32-vc14-release-dynamic:getopt.obj
 0002:0000cd08       ??_C@_04IPLGGICB@pcap?$AA@ 0044bd08     pjlib-util-i386-win32-vc14-release-dynamic:pcap.obj
 0002:0000cd10       ??_C@_04IFCNACLH@pj?$CFp?$AA@ 0044bd10     pjlib-i386-win32-vc14-release-dynamic:os_core_win32.obj
 0002:0000cd18       ??_C@_0BA@NGJFHJA@PJLIB?1No?5memory?$AA@ 0044bd18     pjlib-i386-win32-vc14-release-dynamic:os_core_win32.obj
 0002:0000cd28       ??_C@_0BP@NGEKBPIB@pjlib?5?$CFs?5for?5win32?5initialized?$AA@ 0044bd28     pjlib-i386-win32-vc14-release-dynamic:os_core_win32.obj
 0002:0000cd48       ??_C@_0BA@FNCACAIG@os_core_win32?4c?$AA@ 0044bd48     pjlib-i386-win32-vc14-release-dynamic:os_core_win32.obj
 0002:0000cd58       ??_C@_0CI@EAKIIBBA@Main?5thread?5stack?5max?5usage?$DN?$CFu?5b@ 0044bd58     pjlib-i386-win32-vc14-release-dynamic:os_core_win32.obj
 0002:0000cd80       ??_C@_0BK@BHGJHPMG@?4?4?2src?2pj?2os_core_win32?4c?$AA@ 0044bd80     pjlib-i386-win32-vc14-release-dynamic:os_core_win32.obj
 0002:0000cd9c       ??_C@_05KHEDLION@thr?$CFp?$AA@ 0044bd9c     pjlib-i386-win32-vc14-release-dynamic:os_core_win32.obj
 0002:0000cda4       ??_C@_0CD@GPHECFNA@Thread?5stack?5max?5usage?$DN?$CFu?5by?5?$CFs?3@ 0044bda4     pjlib-i386-win32-vc14-release-dynamic:os_core_win32.obj
 0002:0000cdc8       ??_C@_05EJDHHBFJ@mtx?$CFp?$AA@ 0044bdc8     pjlib-i386-win32-vc14-release-dynamic:os_core_win32.obj
 0002:0000cdd0       _PJ_MSG_OOB                0044bdd0     pjlib-i386-win32-vc14-release-dynamic:sock_bsd.obj
 0002:0000cdd4       _PJ_MSG_PEEK               0044bdd4     pjlib-i386-win32-vc14-release-dynamic:sock_bsd.obj
 0002:0000cdd8       _PJ_MSG_DONTROUTE          0044bdd8     pjlib-i386-win32-vc14-release-dynamic:sock_bsd.obj
 0002:0000cddc       _PJ_AF_UNSPEC              0044bddc     pjlib-i386-win32-vc14-release-dynamic:sock_bsd.obj
 0002:0000cde0       _PJ_AF_UNIX                0044bde0     pjlib-i386-win32-vc14-release-dynamic:sock_bsd.obj
 0002:0000cde4       _PJ_AF_INET                0044bde4     pjlib-i386-win32-vc14-release-dynamic:sock_bsd.obj
 0002:0000cde8       _PJ_AF_INET6               0044bde8     pjlib-i386-win32-vc14-release-dynamic:sock_bsd.obj
 0002:0000cdec       _PJ_AF_PACKET              0044bdec     pjlib-i386-win32-vc14-release-dynamic:sock_bsd.obj
 0002:0000cdf0       _PJ_AF_IRDA                0044bdf0     pjlib-i386-win32-vc14-release-dynamic:sock_bsd.obj
 0002:0000cdf4       _PJ_SOCK_STREAM            0044bdf4     pjlib-i386-win32-vc14-release-dynamic:sock_bsd.obj
 0002:0000cdf8       _PJ_SOCK_DGRAM             0044bdf8     pjlib-i386-win32-vc14-release-dynamic:sock_bsd.obj
 0002:0000cdfc       _PJ_SOCK_RAW               0044bdfc     pjlib-i386-win32-vc14-release-dynamic:sock_bsd.obj
 0002:0000ce00       _PJ_SOCK_RDM               0044be00     pjlib-i386-win32-vc14-release-dynamic:sock_bsd.obj
 0002:0000ce04       _PJ_SOL_SOCKET             0044be04     pjlib-i386-win32-vc14-release-dynamic:sock_bsd.obj
 0002:0000ce08       _PJ_SOL_IP                 0044be08     pjlib-i386-win32-vc14-release-dynamic:sock_bsd.obj
 0002:0000ce0c       _PJ_SOL_TCP                0044be0c     pjlib-i386-win32-vc14-release-dynamic:sock_bsd.obj
 0002:0000ce10       _PJ_SOL_UDP                0044be10     pjlib-i386-win32-vc14-release-dynamic:sock_bsd.obj
 0002:0000ce14       _PJ_SOL_IPV6               0044be14     pjlib-i386-win32-vc14-release-dynamic:sock_bsd.obj
 0002:0000ce18       _PJ_IP_TOS                 0044be18     pjlib-i386-win32-vc14-release-dynamic:sock_bsd.obj
 0002:0000ce1c       _PJ_IPTOS_LOWDELAY         0044be1c     pjlib-i386-win32-vc14-release-dynamic:sock_bsd.obj
 0002:0000ce20       _PJ_IPTOS_THROUGHPUT       0044be20     pjlib-i386-win32-vc14-release-dynamic:sock_bsd.obj
 0002:0000ce24       _PJ_IPTOS_RELIABILITY      0044be24     pjlib-i386-win32-vc14-release-dynamic:sock_bsd.obj
 0002:0000ce28       _PJ_IPTOS_MINCOST          0044be28     pjlib-i386-win32-vc14-release-dynamic:sock_bsd.obj
 0002:0000ce2c       _PJ_IPV6_TCLASS            0044be2c     pjlib-i386-win32-vc14-release-dynamic:sock_bsd.obj
 0002:0000ce30       _PJ_SO_TYPE                0044be30     pjlib-i386-win32-vc14-release-dynamic:sock_bsd.obj
 0002:0000ce34       _PJ_SO_RCVBUF              0044be34     pjlib-i386-win32-vc14-release-dynamic:sock_bsd.obj
 0002:0000ce38       _PJ_SO_SNDBUF              0044be38     pjlib-i386-win32-vc14-release-dynamic:sock_bsd.obj
 0002:0000ce3c       _PJ_TCP_NODELAY            0044be3c     pjlib-i386-win32-vc14-release-dynamic:sock_bsd.obj
 0002:0000ce40       _PJ_SO_REUSEADDR           0044be40     pjlib-i386-win32-vc14-release-dynamic:sock_bsd.obj
 0002:0000ce44       _PJ_SO_NOSIGPIPE           0044be44     pjlib-i386-win32-vc14-release-dynamic:sock_bsd.obj
 0002:0000ce48       _PJ_SO_PRIORITY            0044be48     pjlib-i386-win32-vc14-release-dynamic:sock_bsd.obj
 0002:0000ce4c       _PJ_IP_MULTICAST_IF        0044be4c     pjlib-i386-win32-vc14-release-dynamic:sock_bsd.obj
 0002:0000ce50       _PJ_IP_MULTICAST_TTL       0044be50     pjlib-i386-win32-vc14-release-dynamic:sock_bsd.obj
 0002:0000ce54       _PJ_IP_MULTICAST_LOOP      0044be54     pjlib-i386-win32-vc14-release-dynamic:sock_bsd.obj
 0002:0000ce58       _PJ_IP_ADD_MEMBERSHIP      0044be58     pjlib-i386-win32-vc14-release-dynamic:sock_bsd.obj
 0002:0000ce5c       _PJ_IP_DROP_MEMBERSHIP     0044be5c     pjlib-i386-win32-vc14-release-dynamic:sock_bsd.obj
 0002:0000ce60       ??_C@_0BF@KBJNEAPB@?4?4?2src?2pj?2sock_bsd?4c?$AA@ 0044be60     pjlib-i386-win32-vc14-release-dynamic:sock_bsd.obj
 0002:0000ce78       ??_C@_0BI@IIPAIKDD@?4?4?2src?2pj?2sock_common?4c?$AA@ 0044be78     pjlib-i386-win32-vc14-release-dynamic:sock_common.obj
 0002:0000cf50       ??_C@_0BM@FLPPOGAG@Unknown?5Error?5?$CIPJ_EUNKNOWN?$CJ?$AA@ 0044bf50     pjlib-i386-win32-vc14-release-dynamic:errno.obj
 0002:0000cf6c       ??_C@_0CA@DCLOOJGD@Pending?5operation?5?$CIPJ_EPENDING?$CJ?$AA@ 0044bf6c     pjlib-i386-win32-vc14-release-dynamic:errno.obj
 0002:0000cf8c       ??_C@_0CO@GABEOAFF@Too?5many?5connecting?5sockets?5?$CIPJ_@ 0044bf8c     pjlib-i386-win32-vc14-release-dynamic:errno.obj
 0002:0000cfbc       ??_C@_0CG@CBCJBJGD@Invalid?5value?5or?5argument?5?$CIPJ_EI@ 0044bfbc     pjlib-i386-win32-vc14-release-dynamic:errno.obj
 0002:0000cfe4       ??_C@_0CA@GJABNEKD@Name?5too?5long?5?$CIPJ_ENAMETOOLONG?$CJ?$AA@ 0044bfe4     pjlib-i386-win32-vc14-release-dynamic:errno.obj
 0002:0000d004       ??_C@_0BJ@JNKLPII@Not?5found?5?$CIPJ_ENOTFOUND?$CJ?$AA@ 0044c004     pjlib-i386-win32-vc14-release-dynamic:errno.obj
 0002:0000d020       ??_C@_0BO@GOLCMJKK@Not?5enough?5memory?5?$CIPJ_ENOMEM?$CJ?$AA@ 0044c020     pjlib-i386-win32-vc14-release-dynamic:errno.obj
 0002:0000d040       ??_C@_0BI@HHGDCAID@BUG?5DETECTED?$CB?5?$CIPJ_EBUG?$CJ?$AA@ 0044c040     pjlib-i386-win32-vc14-release-dynamic:errno.obj
 0002:0000d058       ??_C@_0CD@JOGIDHPJ@Operation?5timed?5out?5?$CIPJ_ETIMEDOU@ 0044c058     pjlib-i386-win32-vc14-release-dynamic:errno.obj
 0002:0000d07c       ??_C@_0DF@MIFNAIHL@Too?5many?5objects?5of?5the?5specifie@ 0044c07c     pjlib-i386-win32-vc14-release-dynamic:errno.obj
 0002:0000d0b4       ??_C@_0BK@OMPILOH@Object?5is?5busy?5?$CIPJ_EBUSY?$CJ?$AA@ 0044c0b4     pjlib-i386-win32-vc14-release-dynamic:errno.obj
 0002:0000d0d0       ??_C@_0CP@BAIBJOJE@Option?1operation?5is?5not?5supporte@ 0044c0d0     pjlib-i386-win32-vc14-release-dynamic:errno.obj
 0002:0000d100       ??_C@_0CC@OEEEEEML@Invalid?5operation?5?$CIPJ_EINVALIDOP@ 0044c100     pjlib-i386-win32-vc14-release-dynamic:errno.obj
 0002:0000d124       ??_C@_0CE@KDDMJLGF@Operation?5cancelled?5?$CIPJ_ECANCELL@ 0044c124     pjlib-i386-win32-vc14-release-dynamic:errno.obj
 0002:0000d148       ??_C@_0CD@LODOFNLC@Object?5already?5exists?5?$CIPJ_EEXIST@ 0044c148     pjlib-i386-win32-vc14-release-dynamic:errno.obj
 0002:0000d16c       ??_C@_0BG@GMBDFNLN@End?5of?5file?5?$CIPJ_EEOF?$CJ?$AA@ 0044c16c     pjlib-i386-win32-vc14-release-dynamic:errno.obj
 0002:0000d184       ??_C@_0BN@PCCNBFLN@Size?5is?5too?5big?5?$CIPJ_ETOOBIG?$CJ?$AA@ 0044c184     pjlib-i386-win32-vc14-release-dynamic:errno.obj
 0002:0000d1a4       ??_C@_0DB@FDCHLEID@gethostbyname?$CI?$CJ?5has?5returned?5err@ 0044c1a4     pjlib-i386-win32-vc14-release-dynamic:errno.obj
 0002:0000d1d8       ??_C@_0CB@MGGLJMNO@Size?5is?5too?5short?5?$CIPJ_ETOOSMALL?$CJ@ 0044c1d8     pjlib-i386-win32-vc14-release-dynamic:errno.obj
 0002:0000d1fc       ??_C@_0BG@NBDJGAFI@Ignored?5?$CIPJ_EIGNORED?$CJ?$AA@ 0044c1fc     pjlib-i386-win32-vc14-release-dynamic:errno.obj
 0002:0000d214       ??_C@_0CH@OGOOBJBE@IPv6?5is?5not?5supported?5?$CIPJ_EIPV6N@ 0044c214     pjlib-i386-win32-vc14-release-dynamic:errno.obj
 0002:0000d23c       ??_C@_0CK@DJAHHNOI@Unsupported?5address?5family?5?$CIPJ_E@ 0044c23c     pjlib-i386-win32-vc14-release-dynamic:errno.obj
 0002:0000d268       ??_C@_0CD@PDGCJOJH@Object?5no?5longer?5exists?5?$CIPJ_EGON@ 0044c268     pjlib-i386-win32-vc14-release-dynamic:errno.obj
 0002:0000d28c       ??_C@_0CI@LBHALONI@Socket?5is?5in?5bad?5state?5?$CIPJ_ESOCK@ 0044c28c     pjlib-i386-win32-vc14-release-dynamic:errno.obj
 0002:0000d2b4       ??_C@_0BH@ONDLFCEA@Unknown?5pjlib?5error?5?$CFd?$AA@ 0044c2b4     pjlib-i386-win32-vc14-release-dynamic:errno.obj
 0002:0000d2cc       ??_C@_07PBILKAFL@Success?$AA@ 0044c2cc     pjlib-i386-win32-vc14-release-dynamic:errno.obj
 0002:0000d2d4       ??_C@_0BB@BIKLJNJD@Unknown?5error?5?$CFd?$AA@ 0044c2d4     pjlib-i386-win32-vc14-release-dynamic:errno.obj
 0002:0000d2e8       ??_C@_05NAOIJFC@Error?$AA@ 0044c2e8     pjlib-i386-win32-vc14-release-dynamic:errno.obj
 0002:0000d2f0       ??_C@_06DJHOIPC@?$CFs?3?5?$CFs?$AA@ 0044c2f0     pjlib-i386-win32-vc14-release-dynamic:errno.obj
 0002:0000d2f8       ??_C@_0BA@CLLJDBF@?4?4?2src?2pj?2log?4c?$AA@ 0044c2f8     pjlib-i386-win32-vc14-release-dynamic:log.obj
 0002:0000d308       ??_C@_06DDFOEFIF@FATAL?3?$AA@ 0044c308     pjlib-i386-win32-vc14-release-dynamic:log.obj
 0002:0000d310       ??_C@_06PONDCDME@ERROR?3?$AA@ 0044c310     pjlib-i386-win32-vc14-release-dynamic:log.obj
 0002:0000d318       ??_C@_06OHJPOJDB@?5WARN?3?$AA@ 0044c318     pjlib-i386-win32-vc14-release-dynamic:log.obj
 0002:0000d320       ??_C@_06ICKKLHPE@?5INFO?3?$AA@ 0044c320     pjlib-i386-win32-vc14-release-dynamic:log.obj
 0002:0000d328       ??_C@_06DNOFLLB@DEBUG?3?$AA@ 0044c328     pjlib-i386-win32-vc14-release-dynamic:log.obj
 0002:0000d330       ??_C@_06ELIFFDKB@TRACE?3?$AA@ 0044c330     pjlib-i386-win32-vc14-release-dynamic:log.obj
 0002:0000d338       ??_C@_06HGKAKJPG@DETRC?3?$AA@ 0044c338     pjlib-i386-win32-vc14-release-dynamic:log.obj
 0002:0000d340       ??_C@_03KOEHGMDN@Sun?$AA@  0044c340     pjlib-i386-win32-vc14-release-dynamic:log.obj
 0002:0000d344       ??_C@_03PDAGKDH@Mon?$AA@   0044c344     pjlib-i386-win32-vc14-release-dynamic:log.obj
 0002:0000d348       ??_C@_03NAGEINEP@Tue?$AA@  0044c348     pjlib-i386-win32-vc14-release-dynamic:log.obj
 0002:0000d34c       ??_C@_03MHOMLAJA@Wed?$AA@  0044c34c     pjlib-i386-win32-vc14-release-dynamic:log.obj
 0002:0000d350       ??_C@_03IOFIKPDN@Thu?$AA@  0044c350     pjlib-i386-win32-vc14-release-dynamic:log.obj
 0002:0000d354       ??_C@_03IDIOELNC@Fri?$AA@  0044c354     pjlib-i386-win32-vc14-release-dynamic:log.obj
 0002:0000d358       ??_C@_03FEFJNEK@Sat?$AA@   0044c358     pjlib-i386-win32-vc14-release-dynamic:log.obj
 0002:0000d35c       ??_C@_0BO@BGMDCDKP@?$DMlogging?5error?3?5msg?5too?5long?$DO?$AA@ 0044c35c     pjlib-i386-win32-vc14-release-dynamic:log.obj
 0002:0000d37c       ??_C@_0BD@ELEDKDKB@?4?4?2src?2pj?2string?4c?$AA@ 0044c37c     pjlib-i386-win32-vc14-release-dynamic:string.obj
 0002:0000d390       __real@00000000            0044c390     pjlib-i386-win32-vc14-release-dynamic:string.obj
 0002:0000d394       __real@41200000            0044c394     pjlib-i386-win32-vc14-release-dynamic:string.obj
 0002:0000d398       ??_C@_0BB@PKFOFEEC@?4?4?2src?2pj?2pool?4c?$AA@ 0044c398     pjlib-i386-win32-vc14-release-dynamic:pool.obj
 0002:0000d3ac       ??_C@_0BJ@MJKAJPML@?4?4?2src?2pj?2pool_caching?4c?$AA@ 0044c3ac     pjlib-i386-win32-vc14-release-dynamic:pool_caching.obj
 0002:0000d3c8       ??_C@_0M@IGFPEOLJ@cachingpool?$AA@ 0044c3c8     pjlib-i386-win32-vc14-release-dynamic:pool_caching.obj
 0002:0000d3d4       ??_C@_0DD@ECGDPCBA@Pool?5is?5not?5released?5by?5applicat@ 0044c3d4     pjlib-i386-win32-vc14-release-dynamic:pool_caching.obj
 0002:0000d408       ??_C@_0BH@BBPHJKOA@?5Dumping?5caching?5pool?3?$AA@ 0044c408     pjlib-i386-win32-vc14-release-dynamic:pool_caching.obj
 0002:0000d420       ??_C@_08COPEICHG@cachpool?$AA@ 0044c420     pjlib-i386-win32-vc14-release-dynamic:pool_caching.obj
 0002:0000d42c       ??_C@_0CN@DOKPIIOH@?5?5?5Capacity?$DN?$CFu?0?5max_capacity?$DN?$CFu?0@ 0044c42c     pjlib-i386-win32-vc14-release-dynamic:pool_caching.obj
 0002:0000d45c       ??_C@_0BM@IDLDGCC@?5?5Dumping?5all?5active?5pools?3?$AA@ 0044c45c     pjlib-i386-win32-vc14-release-dynamic:pool_caching.obj
 0002:0000d478       ??_C@_0CA@MMLIKIEG@?5?5?5?$CF16s?3?5?$CF8d?5of?5?$CF8d?5?$CI?$CFd?$CF?$CF?$CJ?5used?$AA@ 0044c478     pjlib-i386-win32-vc14-release-dynamic:pool_caching.obj
 0002:0000d498       ??_C@_0CB@GKBJPDKG@?5?5Total?5?$CF9d?5of?5?$CF9d?5?$CI?$CFd?5?$CF?$CF?$CJ?5used?$CB@ 0044c498     pjlib-i386-win32-vc14-release-dynamic:pool_caching.obj
 0002:0000d650       ??_C@_0CD@FNMHLHMI@Interrupted?5system?5call?5?$CIWSAEINT@ 0044c650     pjlib-i386-win32-vc14-release-dynamic:os_error_win32.obj
 0002:0000d674       ??_C@_0BL@OKPDNKLH@Bad?5file?5number?5?$CIWSAEBADF?$CJ?$AA@ 0044c674     pjlib-i386-win32-vc14-release-dynamic:os_error_win32.obj
 0002:0000d690       ??_C@_0BO@BMBEEPBP@Permission?5denied?5?$CIWSAEACCES?$CJ?$AA@ 0044c690     pjlib-i386-win32-vc14-release-dynamic:os_error_win32.obj
 0002:0000d6b0       ??_C@_0BI@LAKHPJJ@Bad?5address?5?$CIWSAEFAULT?$CJ?$AA@ 0044c6b0     pjlib-i386-win32-vc14-release-dynamic:os_error_win32.obj
 0002:0000d6c8       ??_C@_0BN@FEIDINKH@Invalid?5argument?5?$CIWSAEINVAL?$CJ?$AA@ 0044c6c8     pjlib-i386-win32-vc14-release-dynamic:os_error_win32.obj
 0002:0000d6e8       ??_C@_0CC@HMKKNDGL@Too?5many?5open?5sockets?5?$CIWSAEMFILE@ 0044c6e8     pjlib-i386-win32-vc14-release-dynamic:os_error_win32.obj
 0002:0000d70c       ??_C@_0CH@GCPPFMGM@Operation?5would?5block?5?$CIWSAEWOULD@ 0044c70c     pjlib-i386-win32-vc14-release-dynamic:os_error_win32.obj
 0002:0000d734       ??_C@_0CL@DKGHEPCD@Operation?5now?5in?5progress?5?$CIWSAEI@ 0044c734     pjlib-i386-win32-vc14-release-dynamic:os_error_win32.obj
 0002:0000d760       ??_C@_0CM@BEMCBKDH@Operation?5already?5in?5progress?5?$CIW@ 0044c760     pjlib-i386-win32-vc14-release-dynamic:os_error_win32.obj
 0002:0000d78c       ??_C@_0CN@PAFKDEBN@Socket?5operation?5on?5non?9socket?5?$CI@ 0044c78c     pjlib-i386-win32-vc14-release-dynamic:os_error_win32.obj
 0002:0000d7bc       ??_C@_0CP@HCDICECK@Destination?5address?5required?5?$CIWS@ 0044c7bc     pjlib-i386-win32-vc14-release-dynamic:os_error_win32.obj
 0002:0000d7ec       ??_C@_0BP@LNFPBFEK@Message?5too?5long?5?$CIWSAEMSGSIZE?$CJ?$AA@ 0044c7ec     pjlib-i386-win32-vc14-release-dynamic:os_error_win32.obj
 0002:0000d80c       ??_C@_0CP@MMIMIEMF@Protocol?5wrong?5type?5for?5socket?5?$CI@ 0044c80c     pjlib-i386-win32-vc14-release-dynamic:os_error_win32.obj
 0002:0000d83c       ??_C@_0CF@HNFLHOHA@Bad?5protocol?5option?5?$CIWSAENOPROTO@ 0044c83c     pjlib-i386-win32-vc14-release-dynamic:os_error_win32.obj
 0002:0000d864       ??_C@_0CM@HPGHEHCE@Protocol?5not?5supported?5?$CIWSAEPROT@ 0044c864     pjlib-i386-win32-vc14-release-dynamic:os_error_win32.obj
 0002:0000d890       ??_C@_0CP@JLBNHCOL@Socket?5type?5not?5supported?5?$CIWSAES@ 0044c890     pjlib-i386-win32-vc14-release-dynamic:os_error_win32.obj
 0002:0000d8c0       ??_C@_0DC@GJMFANID@Operation?5not?5supported?5on?5socke@ 0044c8c0     pjlib-i386-win32-vc14-release-dynamic:os_error_win32.obj
 0002:0000d8f4       ??_C@_0DA@GFNBENIG@Protocol?5family?5not?5supported?5?$CIW@ 0044c8f4     pjlib-i386-win32-vc14-release-dynamic:os_error_win32.obj
 0002:0000d924       ??_C@_0CP@MMKHGIFC@Address?5family?5not?5supported?5?$CIWS@ 0044c924     pjlib-i386-win32-vc14-release-dynamic:os_error_win32.obj
 0002:0000d954       ??_C@_0CH@OCKNFBKE@Address?5already?5in?5use?5?$CIWSAEADDR@ 0044c954     pjlib-i386-win32-vc14-release-dynamic:os_error_win32.obj
 0002:0000d97c       ??_C@_0DC@FJJPJPOD@Can?8t?5assign?5requested?5address?5?$CI@ 0044c97c     pjlib-i386-win32-vc14-release-dynamic:os_error_win32.obj
 0002:0000d9b0       ??_C@_0BO@IICKDHLJ@Network?5is?5down?5?$CIWSAENETDOWN?$CJ?$AA@ 0044c9b0     pjlib-i386-win32-vc14-release-dynamic:os_error_win32.obj
 0002:0000d9d0       ??_C@_0CI@NKJAACME@Network?5is?5unreachable?5?$CIWSAENETU@ 0044c9d0     pjlib-i386-win32-vc14-release-dynamic:os_error_win32.obj
 0002:0000d9f8       ??_C@_0CE@LJEEEFEC@Net?5connection?5reset?5?$CIWSAENETRES@ 0044c9f8     pjlib-i386-win32-vc14-release-dynamic:os_error_win32.obj
 0002:0000da1c       ??_C@_0DD@PGDIHOBG@Software?5caused?5connection?5abort@ 0044ca1c     pjlib-i386-win32-vc14-release-dynamic:os_error_win32.obj
 0002:0000da50       ??_C@_0CJ@PJHCFAAN@Connection?5reset?5by?5peer?5?$CIWSAECO@ 0044ca50     pjlib-i386-win32-vc14-release-dynamic:os_error_win32.obj
 0002:0000da7c       ??_C@_0CH@EKNGIMKN@No?5buffer?5space?5available?5?$CIWSAEN@ 0044ca7c     pjlib-i386-win32-vc14-release-dynamic:os_error_win32.obj
 0002:0000daa4       ??_C@_0CJ@JOPBNNOD@Socket?5is?5already?5connected?5?$CIWSA@ 0044caa4     pjlib-i386-win32-vc14-release-dynamic:os_error_win32.obj
 0002:0000dad0       ??_C@_0CG@CECDMHLL@Socket?5is?5not?5connected?5?$CIWSAENOT@ 0044cad0     pjlib-i386-win32-vc14-release-dynamic:os_error_win32.obj
 0002:0000daf8       ??_C@_0DA@JGJMJPNM@Can?8t?5send?5after?5socket?5shutdown@ 0044caf8     pjlib-i386-win32-vc14-release-dynamic:os_error_win32.obj
 0002:0000db28       ??_C@_0DE@CAILNFFE@Too?5many?5references?0?5can?8t?5splic@ 0044cb28     pjlib-i386-win32-vc14-release-dynamic:os_error_win32.obj
 0002:0000db5c       ??_C@_0CE@IIKHBGF@Connection?5timed?5out?5?$CIWSAETIMEDO@ 0044cb5c     pjlib-i386-win32-vc14-release-dynamic:os_error_win32.obj
 0002:0000db80       ??_C@_0CF@JMKFBJH@Connection?5refused?5?$CIWSAECONNREFU@ 0044cb80     pjlib-i386-win32-vc14-release-dynamic:os_error_win32.obj
 0002:0000dba8       ??_C@_0CN@FCKBNFMB@Too?5many?5levels?5of?5symbolic?5link@ 0044cba8     pjlib-i386-win32-vc14-release-dynamic:os_error_win32.obj
 0002:0000dbd8       ??_C@_0CF@MOFKOMBB@File?5name?5too?5long?5?$CIWSAENAMETOOL@ 0044cbd8     pjlib-i386-win32-vc14-release-dynamic:os_error_win32.obj
 0002:0000dc00       ??_C@_0BM@NCJCEEDP@Host?5is?5down?5?$CIWSAEHOSTDOWN?$CJ?$AA@ 0044cc00     pjlib-i386-win32-vc14-release-dynamic:os_error_win32.obj
 0002:0000dc1c       ??_C@_0CD@ECJOJHBH@No?5route?5to?5host?5?$CIWSAEHOSTUNREAC@ 0044cc1c     pjlib-i386-win32-vc14-release-dynamic:os_error_win32.obj
 0002:0000dc40       ??_C@_0CD@NEFLEHEG@Directory?5not?5empty?5?$CIWSAENOTEMPT@ 0044cc40     pjlib-i386-win32-vc14-release-dynamic:os_error_win32.obj
 0002:0000dc64       ??_C@_0CB@GPCGLHOJ@Too?5many?5processes?5?$CIWSAEPROCLIM?$CJ@ 0044cc64     pjlib-i386-win32-vc14-release-dynamic:os_error_win32.obj
 0002:0000dc88       ??_C@_0BL@IGHJMJKO@Too?5many?5users?5?$CIWSAEUSERS?$CJ?$AA@ 0044cc88     pjlib-i386-win32-vc14-release-dynamic:os_error_win32.obj
 0002:0000dca4       ??_C@_0CA@MIOFDKMA@Disc?5quota?5exceeded?5?$CIWSAEDQUOT?$CJ?$AA@ 0044cca4     pjlib-i386-win32-vc14-release-dynamic:os_error_win32.obj
 0002:0000dcc4       ??_C@_0CC@IMLIDHNH@Stale?5NFS?5file?5handle?5?$CIWSAESTALE@ 0044ccc4     pjlib-i386-win32-vc14-release-dynamic:os_error_win32.obj
 0002:0000dce8       ??_C@_0CP@MLAFGPOA@Too?5many?5levels?5of?5remote?5in?5pat@ 0044cce8     pjlib-i386-win32-vc14-release-dynamic:os_error_win32.obj
 0002:0000dd18       ??_C@_0CP@IBAEMKGH@Network?5system?5is?5unavailable?5?$CIW@ 0044cd18     pjlib-i386-win32-vc14-release-dynamic:os_error_win32.obj
 0002:0000dd48       ??_C@_0DC@BLAKHMMJ@Winsock?5version?5out?5of?5range?5?$CIWS@ 0044cd48     pjlib-i386-win32-vc14-release-dynamic:os_error_win32.obj
 0002:0000dd7c       ??_C@_0CO@HPDHHDHA@WSAStartup?5not?5yet?5called?5?$CIWSANO@ 0044cd7c     pjlib-i386-win32-vc14-release-dynamic:os_error_win32.obj
 0002:0000ddac       ??_C@_0CL@GFDHEKLB@Graceful?5shutdown?5in?5progress?5?$CIW@ 0044cdac     pjlib-i386-win32-vc14-release-dynamic:os_error_win32.obj
 0002:0000ddd8       ??_C@_0CD@OEALOMDH@Host?5not?5found?5?$CIWSAHOST_NOT_FOUN@ 0044cdd8     pjlib-i386-win32-vc14-release-dynamic:os_error_win32.obj
 0002:0000ddfc       ??_C@_0DB@KFPHELLI@No?5host?5data?5of?5that?5type?5was?5fo@ 0044cdfc     pjlib-i386-win32-vc14-release-dynamic:os_error_win32.obj
 0002:0000de30       ??_C@_0BE@JPHLLAEM@Win32?5error?5code?5?$CFu?$AA@ 0044ce30     pjlib-i386-win32-vc14-release-dynamic:os_error_win32.obj
 0002:0000de44       ??_C@_0BB@KPBPCFEE@?4?4?2src?2pj?2rand?4c?$AA@ 0044ce44     pjlib-i386-win32-vc14-release-dynamic:rand.obj
 0002:0000de58       ??_C@_05LIJONKFG@ioq?$CFp?$AA@ 0044ce58     pjlib-i386-win32-vc14-release-dynamic:ioqueue_select.obj
 0002:0000de60       ??_C@_0CA@IMDCINDN@select?$CI?$CJ?5I?1O?5Queue?5created?5?$CI?$CFp?$CJ?$AA@ 0044ce60     pjlib-i386-win32-vc14-release-dynamic:ioqueue_select.obj
 0002:0000de80       ??_C@_05PHKAINEA@pjlib?$AA@ 0044ce80     pjlib-i386-win32-vc14-release-dynamic:ioqueue_select.obj
 0002:0000de88       ??_C@_0CD@KFHCCJFN@?$CB?$CB?$CBFATAL?3?5unhandled?5exception?5?$CFs@ 0044ce88     pjlib-i386-win32-vc14-release-dynamic:except.obj
 0002:0000deac       ??_C@_08PDFMOJIE@except?4c?$AA@ 0044ceac     pjlib-i386-win32-vc14-release-dynamic:except.obj
 0002:0000deb8       ??_C@_0N@GJOLEKJC@?$DMInvalid?5ID?$DO?$AA@ 0044ceb8     pjlib-i386-win32-vc14-release-dynamic:except.obj
 0002:0000dec8       ??_C@_0N@LJPLLMIL@exception?5?$CFd?$AA@ 0044cec8     pjlib-i386-win32-vc14-release-dynamic:except.obj
 0002:0000ded8       _PJ_GUID_STRING_LENGTH     0044ced8     pjlib-i386-win32-vc14-release-dynamic:guid_win32.obj
 0002:0000dedc       ??_C@_0BH@DLOCENPK@?4?4?2src?2pj?2guid_win32?4c?$AA@ 0044cedc     pjlib-i386-win32-vc14-release-dynamic:guid_win32.obj
 0002:0000def4       ??_C@_04FIDOICFN@2?410?$AA@ 0044cef4     pjlib-i386-win32-vc14-release-dynamic:config.obj
 0002:0000defc       ??_C@_08DOCHLGNA@config?4c?$AA@ 0044cefc     pjlib-i386-win32-vc14-release-dynamic:config.obj
 0002:0000df08       ??_C@_0BO@KBBNBAFA@?4?4?2src?2pj?2log_writer_stdout?4c?$AA@ 0044cf08     pjlib-i386-win32-vc14-release-dynamic:log_writer_stdout.obj
 0002:0000df28       ??_C@_02DKCKIIND@?$CFs?$AA@ 0044cf28     pjlib-i386-win32-vc14-release-dynamic:log_writer_stdout.obj
 0002:0000df2c       ??_C@_0BP@JMMENEAD@?4?4?2src?2pj?2pool_policy_malloc?4c?$AA@ 0044cf2c     pjlib-i386-win32-vc14-release-dynamic:pool_policy_malloc.obj
 0002:0000df4c       ??_C@_0BC@OIAJPKFB@?4?4?2src?2pj?2types?4c?$AA@ 0044cf4c     pjlib-i386-win32-vc14-release-dynamic:types.obj
 0002:0000df60       __real@408f400000000000    0044cf60     pjlib-i386-win32-vc14-release-dynamic:os_timestamp_common.obj
 0002:0000df68       ??_C@_0BI@FIAAHKJ@?4?4?2src?2pj?2sock_select?4c?$AA@ 0044cf68     pjlib-i386-win32-vc14-release-dynamic:sock_select.obj
 0002:0000df80       __xmm@00000002000000020000000200000002 0044cf80     libgsmcodec-i386-win32-vc14-release-dynamic:lpc.obj
 0002:0000df90       __xmm@00000004000000040000000400000004 0044cf90     libgsmcodec-i386-win32-vc14-release-dynamic:lpc.obj
 0002:0000dfa0       __xmm@00000008000000080000000800000008 0044cfa0     libgsmcodec-i386-win32-vc14-release-dynamic:lpc.obj
 0002:0000dfb0       __xmm@00004000000040000000400000004000 0044cfb0     libgsmcodec-i386-win32-vc14-release-dynamic:lpc.obj
 0002:0000dfc0       __xmm@ffffbfffffffbfffffffbfffffffbfff 0044cfc0     libgsmcodec-i386-win32-vc14-release-dynamic:lpc.obj
 0002:0000dfd0       __xmm@ffffffffffffffffffffffffffffffff 0044cfd0     libgsmcodec-i386-win32-vc14-release-dynamic:lpc.obj
 0002:0000e0e0       __real@3e2aaaab            0044d0e0     libilbccodec-i386-win32-vc14-release-dynamic:FrameClassify.obj
 0002:0000e0e4       __real@3eaaaaab            0044d0e4     libilbccodec-i386-win32-vc14-release-dynamic:FrameClassify.obj
 0002:0000e0e8       __real@3f000000            0044d0e8     libilbccodec-i386-win32-vc14-release-dynamic:FrameClassify.obj
 0002:0000e0ec       __real@3f2aaaab            0044d0ec     libilbccodec-i386-win32-vc14-release-dynamic:FrameClassify.obj
 0002:0000e0f0       __real@3f555555            0044d0f0     libilbccodec-i386-win32-vc14-release-dynamic:FrameClassify.obj
 0002:0000e100       __xmm@3f6666663f8000003f6666663f4ccccd 0044d100     libilbccodec-i386-win32-vc14-release-dynamic:FrameClassify.obj
 0002:0000e110       __real@4024000000000000    0044d110     libilbccodec-i386-win32-vc14-release-dynamic:StateSearchW.obj
 0002:0000e118       __real@40900000            0044d118     libilbccodec-i386-win32-vc14-release-dynamic:StateSearchW.obj
 0002:0000e120       __xmm@7fffffffffffffff7fffffffffffffff 0044d120     libilbccodec-i386-win32-vc14-release-dynamic:StateSearchW.obj
 0002:0000e130       __real@25800000            0044d130     libilbccodec-i386-win32-vc14-release-dynamic:iCBSearch.obj
 0002:0000e134       __real@3fa66666            0044d134     libilbccodec-i386-win32-vc14-release-dynamic:iCBSearch.obj
 0002:0000e138       __real@3ff4ccccc0000000    0044d138     libilbccodec-i386-win32-vc14-release-dynamic:iCBSearch.obj
 0002:0000e140       __real@cb189680            0044d140     libilbccodec-i386-win32-vc14-release-dynamic:iCBSearch.obj
 0002:0000e148       _ULP_20msTbl               0044d148     libilbccodec-i386-win32-vc14-release-dynamic:constants.obj
 0002:0000e558       _ULP_30msTbl               0044d558     libilbccodec-i386-win32-vc14-release-dynamic:constants.obj
 0002:0000e968       __real@3e999999            0044d968     libilbccodec-i386-win32-vc14-release-dynamic:doCPLC.obj
 0002:0000e96c       __real@3ecccccd            0044d96c     libilbccodec-i386-win32-vc14-release-dynamic:doCPLC.obj
 0002:0000e970       __real@3f333333            0044d970     libilbccodec-i386-win32-vc14-release-dynamic:doCPLC.obj
 0002:0000e974       __real@3f666666            0044d974     libilbccodec-i386-win32-vc14-release-dynamic:doCPLC.obj
 0002:0000e978       __real@3f733333            0044d978     libilbccodec-i386-win32-vc14-release-dynamic:doCPLC.obj
 0002:0000e980       __real@403e000000000000    0044d980     libilbccodec-i386-win32-vc14-release-dynamic:doCPLC.obj
 0002:0000e988       __real@7cf0bdc2            0044d988     libilbccodec-i386-win32-vc14-release-dynamic:helpfun.obj
 0002:0000e990       __xmm@80000000800000008000000080000000 0044d990     libilbccodec-i386-win32-vc14-release-dynamic:helpfun.obj
 0002:0000e9a0       __real@3e800000            0044d9a0     libilbccodec-i386-win32-vc14-release-dynamic:enhancer.obj
 0002:0000e9a8       __real@3f1a36e2eb1c432d    0044d9a8     libilbccodec-i386-win32-vc14-release-dynamic:enhancer.obj
 0002:0000e9b0       __real@40000000            0044d9b0     libilbccodec-i386-win32-vc14-release-dynamic:enhancer.obj
 0002:0000e9b4       __real@40c90fdb            0044d9b4     libilbccodec-i386-win32-vc14-release-dynamic:enhancer.obj
 0002:0000e9b8       __real@42200000            0044d9b8     libilbccodec-i386-win32-vc14-release-dynamic:enhancer.obj
 0002:0000e9bc       __real@42a40000            0044d9bc     libilbccodec-i386-win32-vc14-release-dynamic:enhancer.obj
 0002:0000e9c0       __real@bf000000            0044d9c0     libilbccodec-i386-win32-vc14-release-dynamic:enhancer.obj
 0002:0000e9d0       __xmm@0000000a0000000a0000000a0000000a 0044d9d0     libilbccodec-i386-win32-vc14-release-dynamic:enhancer.obj
 0002:0000e9e0       __xmm@3f0000003f0000003f0000003f000000 0044d9e0     libilbccodec-i386-win32-vc14-release-dynamic:enhancer.obj
 0002:0000e9f0       __xmm@3f8000003f8000003f8000003f800000 0044d9f0     libilbccodec-i386-win32-vc14-release-dynamic:enhancer.obj
 0002:0000ea00       __xmm@40000000400000004000000040000000 0044da00     libilbccodec-i386-win32-vc14-release-dynamic:enhancer.obj
 0002:0000ea10       __xmm@40c90fdb40c90fdb40c90fdb40c90fdb 0044da10     libilbccodec-i386-win32-vc14-release-dynamic:enhancer.obj
 0002:0000ea20       __xmm@41200000412000004120000041200000 0044da20     libilbccodec-i386-win32-vc14-release-dynamic:enhancer.obj
 0002:0000ea30       __real@3bd013a9            0044da30     libilbccodec-i386-win32-vc14-release-dynamic:lsf.obj
 0002:0000ea34       __real@41100000            0044da34     libilbccodec-i386-win32-vc14-release-dynamic:lsf.obj
 0002:0000ea38       __real@bf800000            0044da38     libilbccodec-i386-win32-vc14-release-dynamic:lsf.obj
 0002:0000ea40       __xmm@3a5013a93ad013a93b5013a93bd013a9 0044da40     libilbccodec-i386-win32-vc14-release-dynamic:lsf.obj
 0002:0000ea50       __xmm@3e22f9833e22f9833e22f9833e22f983 0044da50     libilbccodec-i386-win32-vc14-release-dynamic:lsf.obj
 0002:0000ea60       __real@3dcccccd            0044da60     libilbccodec-i386-win32-vc14-release-dynamic:gainquant.obj
 0002:0000ea68       __real@3fb999999999999a    0044da68     libilbccodec-i386-win32-vc14-release-dynamic:gainquant.obj
 0002:0000ea70       __real@4b189680            0044da70     libilbccodec-i386-win32-vc14-release-dynamic:gainquant.obj
 0002:0000ea74       __real@3e4ccccd            0044da74     libilbccodec-i386-win32-vc14-release-dynamic:createCB.obj
 0002:0000ea78       _speex_nb_mode             0044da78     libspeex-i386-win32-vc14-release-dynamic:modes.obj
 0002:0000eda8       ??_C@_0L@NALGBMGK@narrowband?$AA@ 0044dda8     libspeex-i386-win32-vc14-release-dynamic:modes.obj
 0002:0000edb4       ??_C@_0BC@FNCFDNHJ@notification?3?5?$CFs?6?$AA@ 0044ddb4     libspeex-i386-win32-vc14-release-dynamic:bits.obj
 0002:0000edc8       ??_C@_0CH@JHNNOEKH@Packet?5is?5larger?5than?5allocated?5@ 0044ddc8     libspeex-i386-win32-vc14-release-dynamic:bits.obj
 0002:0000edf0       ??_C@_0DA@MPJMFLGI@Could?5not?5resize?5input?5buffer?3?5t@ 0044ddf0     libspeex-i386-win32-vc14-release-dynamic:bits.obj
 0002:0000ee20       ??_C@_0M@FDFEAFGN@warning?3?5?$CFs?$AA@ 0044de20     libspeex-i386-win32-vc14-release-dynamic:bits.obj
 0002:0000ee2c       ??_C@_0DD@HLOIJDCP@Do?5not?5own?5input?5buffer?3?5truncat@ 0044de2c     libspeex-i386-win32-vc14-release-dynamic:bits.obj
 0002:0000ee60       ??_C@_0BO@DBLCIOHH@Buffer?5too?5small?5to?5pack?5bits?$AA@ 0044de60     libspeex-i386-win32-vc14-release-dynamic:bits.obj
 0002:0000ee80       ??_C@_0CL@NBHNDCMK@Could?5not?5resize?5input?5buffer?3?5n@ 0044de80     libspeex-i386-win32-vc14-release-dynamic:bits.obj
 0002:0000eeac       ??_C@_0CF@BOBDAKDJ@Do?5not?5own?5input?5buffer?3?5not?5pac@ 0044deac     libspeex-i386-win32-vc14-release-dynamic:bits.obj
 0002:0000eed4       ??_C@_0CA@ELGIOMID@Unknown?5nb_mode_query?5request?3?5?$AA@ 0044ded4     libspeex-i386-win32-vc14-release-dynamic:speex.obj
 0002:0000eef4       ??_C@_0BA@JHIGFAJK@warning?3?5?$CFs?3?5?$CFd?$AA@ 0044def4     libspeex-i386-win32-vc14-release-dynamic:speex.obj
 0002:0000ef04       ??_C@_0CA@GHCLMKCH@Unknown?5wb_mode_query?5request?3?5?$AA@ 0044df04     libspeex-i386-win32-vc14-release-dynamic:speex.obj
 0002:0000ef24       __real@46fffe00            0044df24     libspeex-i386-win32-vc14-release-dynamic:speex.obj
 0002:0000ef28       __real@c7000000            0044df28     libspeex-i386-win32-vc14-release-dynamic:speex.obj
 0002:0000f038       _speex_wb_mode             0044e038     libspeex-i386-win32-vc14-release-dynamic:modes_wb.obj
 0002:0000f06c       _speex_uwb_mode            0044e06c     libspeex-i386-win32-vc14-release-dynamic:modes_wb.obj
 0002:0000f144       _speex_mode_list           0044e144     libspeex-i386-win32-vc14-release-dynamic:modes_wb.obj
 0002:0000f1f4       ??_C@_0BJ@NCPFBLIG@wideband?5?$CIsub?9band?5CELP?$CJ?$AA@ 0044e1f4     libspeex-i386-win32-vc14-release-dynamic:modes_wb.obj
 0002:0000f210       ??_C@_0BP@OEPNAOAL@ultra?9wideband?5?$CIsub?9band?5CELP?$CJ?$AA@ 0044e210     libspeex-i386-win32-vc14-release-dynamic:modes_wb.obj
 0002:0000f230       _exc_gain_quant_scal3_bound 0044e230     libspeex-i386-win32-vc14-release-dynamic:nb_celp.obj
 0002:0000f24c       _exc_gain_quant_scal3      0044e24c     libspeex-i386-win32-vc14-release-dynamic:nb_celp.obj
 0002:0000f26c       _exc_gain_quant_scal1_bound 0044e26c     libspeex-i386-win32-vc14-release-dynamic:nb_celp.obj
 0002:0000f270       _exc_gain_quant_scal1      0044e270     libspeex-i386-win32-vc14-release-dynamic:nb_celp.obj
 0002:0000f278       _attenuation               0044e278     libspeex-i386-win32-vc14-release-dynamic:nb_celp.obj
 0002:0000f2c0       ??_C@_0CL@OLCMCGJA@Fatal?5?$CIinternal?$CJ?5error?5in?5?$CFs?0?5li@ 0044e2c0     libspeex-i386-win32-vc14-release-dynamic:nb_celp.obj
 0002:0000f2ec       ??_C@_0BP@DLKMJDGK@?4?4?2?4?4?2speex?2libspeex?2nb_celp?4c?$AA@ 0044e2ec     libspeex-i386-win32-vc14-release-dynamic:nb_celp.obj
 0002:0000f310       ??_C@_0ED@BDOMFGAK@assertion?5failed?3?5st?9?$DOwindowSize@ 0044e310     libspeex-i386-win32-vc14-release-dynamic:nb_celp.obj
 0002:0000f354       ??_C@_0CF@KEPONAKN@assertion?5failed?3?5SUBMODE?$CIltp_qu@ 0044e354     libspeex-i386-win32-vc14-release-dynamic:nb_celp.obj
 0002:0000f37c       ??_C@_0CM@PGGHFKNH@assertion?5failed?3?5SUBMODE?$CIinnova@ 0044e37c     libspeex-i386-win32-vc14-release-dynamic:nb_celp.obj
 0002:0000f3a8       ??_C@_0DD@IFFBIDOE@Invalid?5mode?5encountered?4?5The?5st@ 0044e3a8     libspeex-i386-win32-vc14-release-dynamic:nb_celp.obj
 0002:0000f3dc       ??_C@_0DO@OMOPNNBK@More?5than?5two?5wideband?5layers?5fo@ 0044e3dc     libspeex-i386-win32-vc14-release-dynamic:nb_celp.obj
 0002:0000f41c       ??_C@_0CH@FGPFIBHI@assertion?5failed?3?5SUBMODE?$CIltp_un@ 0044e41c     libspeex-i386-win32-vc14-release-dynamic:nb_celp.obj
 0002:0000f444       ??_C@_0CO@IOEICIKD@assertion?5failed?3?5SUBMODE?$CIinnova@ 0044e444     libspeex-i386-win32-vc14-release-dynamic:nb_celp.obj
 0002:0000f474       ??_C@_0BJ@LJJDMLEK@Unknown?5nb_ctl?5request?3?5?$AA@ 0044e474     libspeex-i386-win32-vc14-release-dynamic:nb_celp.obj
 0002:0000f490       __real@26901d7d            0044e490     libspeex-i386-win32-vc14-release-dynamic:nb_celp.obj
 0002:0000f494       __real@3d4ccccd            0044e494     libspeex-i386-win32-vc14-release-dynamic:nb_celp.obj
 0002:0000f498       __real@3e19999a            0044e498     libspeex-i386-win32-vc14-release-dynamic:nb_celp.obj
 0002:0000f49c       __real@3e99999a            0044e49c     libspeex-i386-win32-vc14-release-dynamic:nb_celp.obj
 0002:0000f4a0       __real@3ee8ba1f            0044e4a0     libspeex-i386-win32-vc14-release-dynamic:nb_celp.obj
 0002:0000f4a4       __real@3f4ccccd            0044e4a4     libspeex-i386-win32-vc14-release-dynamic:nb_celp.obj
 0002:0000f4a8       __real@3f59999a            0044e4a8     libspeex-i386-win32-vc14-release-dynamic:nb_celp.obj
 0002:0000f4ac       __real@3f7d70a4            0044e4ac     libspeex-i386-win32-vc14-release-dynamic:nb_celp.obj
 0002:0000f4b0       __real@3f8147ae            0044e4b0     libspeex-i386-win32-vc14-release-dynamic:nb_celp.obj
 0002:0000f4b8       __real@3fa999999999999a    0044e4b8     libspeex-i386-win32-vc14-release-dynamic:nb_celp.obj
 0002:0000f4c0       __real@3fb11116a8b8f14e    0044e4c0     libspeex-i386-win32-vc14-release-dynamic:nb_celp.obj
 0002:0000f4c8       __real@3fc00000            0044e4c8     libspeex-i386-win32-vc14-release-dynamic:nb_celp.obj
 0002:0000f4d0       __real@3fd0000000000000    0044e4d0     libspeex-i386-win32-vc14-release-dynamic:nb_celp.obj
 0002:0000f4d8       __real@3fe3333333333333    0044e4d8     libspeex-i386-win32-vc14-release-dynamic:nb_celp.obj
 0002:0000f4e0       __real@3fe570a3d70a3d71    0044e4e0     libspeex-i386-win32-vc14-release-dynamic:nb_celp.obj
 0002:0000f4e8       __real@3fe999999999999a    0044e4e8     libspeex-i386-win32-vc14-release-dynamic:nb_celp.obj
 0002:0000f4f0       __real@3feb333333333333    0044e4f0     libspeex-i386-win32-vc14-release-dynamic:nb_celp.obj
 0002:0000f4f8       __real@3feccccccccccccd    0044e4f8     libspeex-i386-win32-vc14-release-dynamic:nb_celp.obj
 0002:0000f500       __real@3fee666666666666    0044e500     libspeex-i386-win32-vc14-release-dynamic:nb_celp.obj
 0002:0000f508       __real@3ff199999999999a    0044e508     libspeex-i386-win32-vc14-release-dynamic:nb_celp.obj
 0002:0000f510       __real@400bb6ae7d566cf4    0044e510     libspeex-i386-win32-vc14-release-dynamic:nb_celp.obj
 0002:0000f518       __real@400c000000000000    0044e518     libspeex-i386-win32-vc14-release-dynamic:nb_celp.obj
 0002:0000f520       __real@400ccccd            0044e520     libspeex-i386-win32-vc14-release-dynamic:nb_celp.obj
 0002:0000f524       __real@40490fdb            0044e524     libspeex-i386-win32-vc14-release-dynamic:nb_celp.obj
 0002:0000f528       __real@41700000            0044e528     libspeex-i386-win32-vc14-release-dynamic:nb_celp.obj
 0002:0000f52c       __real@42c80000            0044e52c     libspeex-i386-win32-vc14-release-dynamic:nb_celp.obj
 0002:0000f530       __real@bd4ccccd            0044e530     libspeex-i386-win32-vc14-release-dynamic:nb_celp.obj
 0002:0000f538       __real@bee4f8b588e368f1    0044e538     libspeex-i386-win32-vc14-release-dynamic:nb_celp.obj
 0002:0000f540       __real@bfa999999999999a    0044e540     libspeex-i386-win32-vc14-release-dynamic:nb_celp.obj
 0002:0000f548       __real@bfc999999999999a    0044e548     libspeex-i386-win32-vc14-release-dynamic:nb_celp.obj
 0002:0000f550       __real@bfe0000000000000    0044e550     libspeex-i386-win32-vc14-release-dynamic:nb_celp.obj
 0002:0000f558       __real@c00bb6ae7d566cf4    0044e558     libspeex-i386-win32-vc14-release-dynamic:nb_celp.obj
 0002:0000f560       _gain_cdbk_nb              0044e560     libspeex-i386-win32-vc14-release-dynamic:gain_table.obj
 0002:0000f760       _gain_cdbk_lbr             0044e760     libspeex-i386-win32-vc14-release-dynamic:gain_table_lbr.obj
 0002:0000f7e0       _exc_5_256_table           0044e7e0     libspeex-i386-win32-vc14-release-dynamic:exc_5_256_table.obj
 0002:0000fce0       _exc_5_64_table            0044ece0     libspeex-i386-win32-vc14-release-dynamic:exc_5_64_table.obj
 0002:0000fe20       _exc_8_128_table           0044ee20     libspeex-i386-win32-vc14-release-dynamic:exc_8_128_table.obj
 0002:00010220       _exc_10_32_table           0044f220     libspeex-i386-win32-vc14-release-dynamic:exc_10_32_table.obj
 0002:00010360       _exc_10_16_table           0044f360     libspeex-i386-win32-vc14-release-dynamic:exc_10_16_table.obj
 0002:00010400       _exc_20_32_table           0044f400     libspeex-i386-win32-vc14-release-dynamic:exc_20_32_table.obj
 0002:00010680       __real@3f90000000000000    0044f680     libspeex-i386-win32-vc14-release-dynamic:ltp.obj
 0002:00010688       __real@3f947ae147ae147b    0044f688     libspeex-i386-win32-vc14-release-dynamic:ltp.obj
 0002:00010690       __real@3fa0000000000000    0044f690     libspeex-i386-win32-vc14-release-dynamic:ltp.obj
 0002:00010698       __real@3fefae147ae147ae    0044f698     libspeex-i386-win32-vc14-release-dynamic:ltp.obj
 0002:000106a0       __real@41f80000            0044f6a0     libspeex-i386-win32-vc14-release-dynamic:ltp.obj
 0002:000106a4       __real@42000000            0044f6a4     libspeex-i386-win32-vc14-release-dynamic:ltp.obj
 0002:000106a8       __real@42800000            0044f6a8     libspeex-i386-win32-vc14-release-dynamic:ltp.obj
 0002:000106ac       __real@43000000            0044f6ac     libspeex-i386-win32-vc14-release-dynamic:ltp.obj
 0002:000106b0       __real@44800000            0044f6b0     libspeex-i386-win32-vc14-release-dynamic:ltp.obj
 0002:000106b4       __real@48800000            0044f6b4     libspeex-i386-win32-vc14-release-dynamic:ltp.obj
 0002:000106b8       __real@d8635fa9            0044f6b8     libspeex-i386-win32-vc14-release-dynamic:ltp.obj
 0002:000106c0       __real@3f4ffffaa19c4774    0044f6c0     libspeex-i386-win32-vc14-release-dynamic:quant_lsp.obj
 0002:000106c8       __real@3f5fffe5280d6543    0044f6c8     libspeex-i386-win32-vc14-release-dynamic:quant_lsp.obj
 0002:000106d0       __real@3f6fffe5280d6543    0044f6d0     libspeex-i386-win32-vc14-release-dynamic:quant_lsp.obj
 0002:000106d8       __real@3fa47ae147ae147b    0044f6d8     libspeex-i386-win32-vc14-release-dynamic:quant_lsp.obj
 0002:000106e0       __real@3fd4000000000000    0044f6e0     libspeex-i386-win32-vc14-release-dynamic:quant_lsp.obj
 0002:000106e8       __real@3fe8000000000000    0044f6e8     libspeex-i386-win32-vc14-release-dynamic:quant_lsp.obj
 0002:000106f0       __real@400921fb54442d18    0044f6f0     libspeex-i386-win32-vc14-release-dynamic:quant_lsp.obj
 0002:000106f8       __real@4070000000000000    0044f6f8     libspeex-i386-win32-vc14-release-dynamic:quant_lsp.obj
 0002:00010700       __real@58635fa9            0044f700     libspeex-i386-win32-vc14-release-dynamic:quant_lsp.obj
 0002:00010710       __xmm@3fd00000000000003fd0000000000000 0044f710     libspeex-i386-win32-vc14-release-dynamic:quant_lsp.obj
 0002:00010720       __xmm@3fd40000000000003fd4000000000000 0044f720     libspeex-i386-win32-vc14-release-dynamic:quant_lsp.obj
 0002:00010730       __xmm@3fe80000000000003fe8000000000000 0044f730     libspeex-i386-win32-vc14-release-dynamic:quant_lsp.obj
 0002:00010740       __real@3d000000            0044f740     libspeex-i386-win32-vc14-release-dynamic:cb_search.obj
 0002:00010748       _vbr_nb_thresh             0044f748     libspeex-i386-win32-vc14-release-dynamic:vbr.obj
 0002:000108d8       _vbr_hb_thresh             0044f8d8     libspeex-i386-win32-vc14-release-dynamic:vbr.obj
 0002:000109b8       _vbr_uhb_thresh            0044f9b8     libspeex-i386-win32-vc14-release-dynamic:vbr.obj
 0002:00010a10       __real@3faeb851eb851eb8    0044fa10     libspeex-i386-win32-vc14-release-dynamic:vbr.obj
 0002:00010a18       __real@3fc999999999999a    0044fa18     libspeex-i386-win32-vc14-release-dynamic:vbr.obj
 0002:00010a20       __real@3fd3333333333333    0044fa20     libspeex-i386-win32-vc14-release-dynamic:vbr.obj
 0002:00010a28       __real@3fd999999999999a    0044fa28     libspeex-i386-win32-vc14-release-dynamic:vbr.obj
 0002:00010a30       __real@3fe6666666666666    0044fa30     libspeex-i386-win32-vc14-release-dynamic:vbr.obj
 0002:00010a38       __real@3ff3333333333333    0044fa38     libspeex-i386-win32-vc14-release-dynamic:vbr.obj
 0002:00010a40       __real@3ff999999999999a    0044fa40     libspeex-i386-win32-vc14-release-dynamic:vbr.obj
 0002:00010a48       __real@400199999999999a    0044fa48     libspeex-i386-win32-vc14-release-dynamic:vbr.obj
 0002:00010a50       __real@4008000000000000    0044fa50     libspeex-i386-win32-vc14-release-dynamic:vbr.obj
 0002:00010a58       __real@401c000000000000    0044fa58     libspeex-i386-win32-vc14-release-dynamic:vbr.obj
 0002:00010a60       __real@40400000            0044fa60     libspeex-i386-win32-vc14-release-dynamic:vbr.obj
 0002:00010a64       __real@40800000            0044fa64     libspeex-i386-win32-vc14-release-dynamic:vbr.obj
 0002:00010a68       __real@40a00000            0044fa68     libspeex-i386-win32-vc14-release-dynamic:vbr.obj
 0002:00010a6c       __real@40b33334            0044fa6c     libspeex-i386-win32-vc14-release-dynamic:vbr.obj
 0002:00010a70       __real@40b7700000000000    0044fa70     libspeex-i386-win32-vc14-release-dynamic:vbr.obj
 0002:00010a78       __real@40c9999a            0044fa78     libspeex-i386-win32-vc14-release-dynamic:vbr.obj
 0002:00010a7c       __real@40e00000            0044fa7c     libspeex-i386-win32-vc14-release-dynamic:vbr.obj
 0002:00010a80       __real@40ed4c0000000000    0044fa80     libspeex-i386-win32-vc14-release-dynamic:vbr.obj
 0002:00010a88       __real@43160000            0044fa88     libspeex-i386-win32-vc14-release-dynamic:vbr.obj
 0002:00010a8c       __real@453b8000            0044fa8c     libspeex-i386-win32-vc14-release-dynamic:vbr.obj
 0002:00010a90       __real@45bb8000            0044fa90     libspeex-i386-win32-vc14-release-dynamic:vbr.obj
 0002:00010a94       __real@461c4000            0044fa94     libspeex-i386-win32-vc14-release-dynamic:vbr.obj
 0002:00010a98       __real@46ea6000            0044fa98     libspeex-i386-win32-vc14-release-dynamic:vbr.obj
 0002:00010a9c       __real@476a6000            0044fa9c     libspeex-i386-win32-vc14-release-dynamic:vbr.obj
 0002:00010aa0       __real@c0a00000            0044faa0     libspeex-i386-win32-vc14-release-dynamic:vbr.obj
 0002:00010aa8       _hexc_table                0044faa8     libspeex-i386-win32-vc14-release-dynamic:hexc_table.obj
 0002:00010ea8       _hexc_10_32_table          0044fea8     libspeex-i386-win32-vc14-release-dynamic:hexc_10_32_table.obj
 0002:000111a8       __real@3e000000            004501a8     libspeex-i386-win32-vc14-release-dynamic:sb_celp.obj
 0002:000111ac       __real@3f350529            004501ac     libspeex-i386-win32-vc14-release-dynamic:sb_celp.obj
 0002:000111b0       __real@3f847ae147ae147b    004501b0     libspeex-i386-win32-vc14-release-dynamic:sb_celp.obj
 0002:000111b8       __real@3fb50481            004501b8     libspeex-i386-win32-vc14-release-dynamic:sb_celp.obj
 0002:000111c0       __real@3febf487fcb923a3    004501c0     libspeex-i386-win32-vc14-release-dynamic:sb_celp.obj
 0002:000111c8       __real@4000000000000000    004501c8     libspeex-i386-win32-vc14-release-dynamic:sb_celp.obj
 0002:000111d0       __real@40200000            004501d0     libspeex-i386-win32-vc14-release-dynamic:sb_celp.obj
 0002:000111d4       __real@bdcccccd            004501d4     libspeex-i386-win32-vc14-release-dynamic:sb_celp.obj
 0002:000111d8       __real@bfb999999999999a    004501d8     libspeex-i386-win32-vc14-release-dynamic:sb_celp.obj
 0002:000111e0       __real@c0800000            004501e0     libspeex-i386-win32-vc14-release-dynamic:sb_celp.obj
 0002:000111e8       _shift_filt                004501e8     libspeex-i386-win32-vc14-release-dynamic:filters.obj
 0002:00011240       __real@3fb1eb851eb851ec    00450240     libspeex-i386-win32-vc14-release-dynamic:filters.obj
 0002:00011248       __real@3ffb851eb851eb85    00450248     libspeex-i386-win32-vc14-release-dynamic:filters.obj
 0002:00011250       __real@447a0000            00450250     libspeex-i386-win32-vc14-release-dynamic:filters.obj
 0002:00011260       __xmm@3f76e6da3f74dfcebff4e0223f74dfce 00450260     libspeex-i386-win32-vc14-release-dynamic:filters.obj
 0002:00011270       __xmm@3f792b80bffc73043f8000003f6f7ee5 00450270     libspeex-i386-win32-vc14-release-dynamic:filters.obj
 0002:00011280       __xmm@3f7c87fdbffc83ba3f7c87fd3f779c63 00450280     libspeex-i386-win32-vc14-release-dynamic:filters.obj
 0002:00011290       __xmm@3f8000003f6a3c21bff4a2343f800000 00450290     libspeex-i386-win32-vc14-release-dynamic:filters.obj
 0002:000112a0       __xmm@bff778ff3f8000003f6e4303bff6a25e 004502a0     libspeex-i386-win32-vc14-release-dynamic:filters.obj
 0002:000112b0       __xmm@bff79c0f3f779c633f76e6dabff6e297 004502b0     libspeex-i386-win32-vc14-release-dynamic:filters.obj
 0002:000112c0       __real@3f689374bc6a7efa    004502c0     libspeex-i386-win32-vc14-release-dynamic:lpc.obj
 0002:000112c8       __real@3aa69eb6            004502c8     libspeex-i386-win32-vc14-release-dynamic:lsp.obj
 0002:000112cc       __real@3d29ef0e            004502cc     libspeex-i386-win32-vc14-release-dynamic:lsp.obj
 0002:000112d0       __real@3efff486            004502d0     libspeex-i386-win32-vc14-release-dynamic:lsp.obj
 0002:000112d4       __real@3f7fff90            004502d4     libspeex-i386-win32-vc14-release-dynamic:lsp.obj
 0002:000112d8       __real@3ff921fb544486e0    004502d8     libspeex-i386-win32-vc14-release-dynamic:lsp.obj
 0002:000112e0       _lag_window                004502e0     libspeex-i386-win32-vc14-release-dynamic:window.obj
 0002:00011310       _lpc_window                00450310     libspeex-i386-win32-vc14-release-dynamic:window.obj
 0002:00011630       _cdbk_nb                   00450630     libspeex-i386-win32-vc14-release-dynamic:lsp_tables_nb.obj
 0002:000118b0       _cdbk_nb_low1              004508b0     libspeex-i386-win32-vc14-release-dynamic:lsp_tables_nb.obj
 0002:000119f0       _cdbk_nb_low2              004509f0     libspeex-i386-win32-vc14-release-dynamic:lsp_tables_nb.obj
 0002:00011b30       _cdbk_nb_high1             00450b30     libspeex-i386-win32-vc14-release-dynamic:lsp_tables_nb.obj
 0002:00011c70       _cdbk_nb_high2             00450c70     libspeex-i386-win32-vc14-release-dynamic:lsp_tables_nb.obj
 0002:00011db0       _high_lsp_cdbk             00450db0     libspeex-i386-win32-vc14-release-dynamic:high_lsp_tables.obj
 0002:00011fb0       _high_lsp_cdbk2            00450fb0     libspeex-i386-win32-vc14-release-dynamic:high_lsp_tables.obj
 0002:000121b0       ??_C@_04DKFOEDJA@srtp?$AA@ 004511b0     libsrtp-i386-win32-vc14-release-dynamic:srtp.obj
 0002:000121b8       ??_C@_0CD@KFGKPJOG@?$CFs?3?5cloning?5stream?5?$CISSRC?3?50x?$CF08x@ 004511b8     libsrtp-i386-win32-vc14-release-dynamic:srtp.obj
 0002:000121dc       ??_C@_0BG@DDGAJBGL@?$CFs?3?5srtp?5key?5len?3?5?$CFd?6?$AA@ 004511dc     libsrtp-i386-win32-vc14-release-dynamic:srtp.obj
 0002:000121f4       ??_C@_0BH@DGNFCKJN@?$CFs?3?5srtcp?5key?5len?3?5?$CFd?6?$AA@ 004511f4     libsrtp-i386-win32-vc14-release-dynamic:srtp.obj
 0002:0001220c       ??_C@_0BG@DMEGGANK@?$CFs?3?5base?5key?5len?3?5?$CFd?6?$AA@ 0045120c     libsrtp-i386-win32-vc14-release-dynamic:srtp.obj
 0002:00012224       ??_C@_0BF@HLIACONN@?$CFs?3?5kdf?5key?5len?3?5?$CFd?6?$AA@ 00451224     libsrtp-i386-win32-vc14-release-dynamic:srtp.obj
 0002:0001223c       ??_C@_0BG@BGKGMHMB@?$CFs?3?5rtp?5salt?5len?3?5?$CFd?6?$AA@ 0045123c     libsrtp-i386-win32-vc14-release-dynamic:srtp.obj
 0002:00012254       ??_C@_0BE@PGOGLMMP@?$CFs?3?5cipher?5key?3?5?$CFs?6?$AA@ 00451254     libsrtp-i386-win32-vc14-release-dynamic:srtp.obj
 0002:00012268       ??_C@_0CN@BDCDAMHJ@?$CFs?3?5found?5rtp_salt_len?5?$DO?50?0?5gene@ 00451268     libsrtp-i386-win32-vc14-release-dynamic:srtp.obj
 0002:00012298       ??_C@_0BF@GHNDNNEA@?$CFs?3?5cipher?5salt?3?5?$CFs?6?$AA@ 00451298     libsrtp-i386-win32-vc14-release-dynamic:srtp.obj
 0002:000122b0       ??_C@_0BP@LJKEDGBP@?$CFs?3?5extensions?5cipher?5key?3?5?$CFs?6?$AA@ 004512b0     libsrtp-i386-win32-vc14-release-dynamic:srtp.obj
 0002:000122d0       ??_C@_0DF@NJKDAIDN@?$CFs?3?5found?5rtp_xtn_hdr_salt_len?5?$DO@ 004512d0     libsrtp-i386-win32-vc14-release-dynamic:srtp.obj
 0002:00012308       ??_C@_0CA@OBEPENBO@?$CFs?3?5extensions?5cipher?5salt?3?5?$CFs?6?$AA@ 00451308     libsrtp-i386-win32-vc14-release-dynamic:srtp.obj
 0002:00012328       ??_C@_0BE@HGKFNAFC@?$CFs?3?5auth?5key?3?5?5?5?$CFs?6?$AA@ 00451328     libsrtp-i386-win32-vc14-release-dynamic:srtp.obj
 0002:0001233c       ??_C@_0BH@KOPGGCNO@?$CFs?3?5rtcp?5salt?5len?3?5?$CFd?6?$AA@ 0045133c     libsrtp-i386-win32-vc14-release-dynamic:srtp.obj
 0002:00012354       ??_C@_0DD@DNDBGLG@?$CFs?3?5found?5rtcp_salt_len?5?$DO?50?0?5gen@ 00451354     libsrtp-i386-win32-vc14-release-dynamic:srtp.obj
 0002:00012388       ??_C@_0BJ@KAKGCCMO@?$CFs?3?5rtcp?5cipher?5key?3?5?$CFs?6?$AA@ 00451388     libsrtp-i386-win32-vc14-release-dynamic:srtp.obj
 0002:000123a4       ??_C@_0BK@BAICKNEI@?$CFs?3?5rtcp?5cipher?5salt?3?5?$CFs?6?$AA@ 004513a4     libsrtp-i386-win32-vc14-release-dynamic:srtp.obj
 0002:000123c0       ??_C@_0BJ@CAOFEOFD@?$CFs?3?5rtcp?5auth?5key?3?5?5?5?$CFs?6?$AA@ 004513c0     libsrtp-i386-win32-vc14-release-dynamic:srtp.obj
 0002:000123dc       ??_C@_0CI@PDNDGOMA@?$CFs?3?5initializing?5stream?5?$CISSRC?3?50@ 004513dc     libsrtp-i386-win32-vc14-release-dynamic:srtp.obj
 0002:00012404       ??_C@_0BH@GAKJJGLB@srtp?3?5in?5stream?50x?$CFx?3?5?$AA@ 00451404     libsrtp-i386-win32-vc14-release-dynamic:srtp.obj
 0002:0001241c       ??_C@_0BB@PPFALDPP@?7SSRC?5collision?6?$AA@ 0045141c     libsrtp-i386-win32-vc14-release-dynamic:srtp.obj
 0002:00012430       ??_C@_0BP@HOEKLBIN@?7key?5usage?5soft?5limit?5reached?6?$AA@ 00451430     libsrtp-i386-win32-vc14-release-dynamic:srtp.obj
 0002:00012450       ??_C@_0BP@KNJIFCF@?7key?5usage?5hard?5limit?5reached?6?$AA@ 00451450     libsrtp-i386-win32-vc14-release-dynamic:srtp.obj
 0002:00012470       ??_C@_0BN@MKCGGAOP@?7packet?5index?5limit?5reached?6?$AA@ 00451470     libsrtp-i386-win32-vc14-release-dynamic:srtp.obj
 0002:00012490       ??_C@_0CE@FFJEPPID@?7unknown?5event?5reported?5to?5handl@ 00451490     libsrtp-i386-win32-vc14-release-dynamic:srtp.obj
 0002:000124b4       ??_C@_0BN@IJKEFIPG@?$CFs?3?5Pre?9salted?5RTP?5IV?5?$DN?5?$CFs?6?6?$AA@ 004514b4     libsrtp-i386-win32-vc14-release-dynamic:srtp.obj
 0002:000124d4       ??_C@_0BE@MNMIOELF@?$CFs?3?5RTP?5SALT?5?$DN?5?$CFs?6?6?$AA@ 004514d4     libsrtp-i386-win32-vc14-release-dynamic:srtp.obj
 0002:000124e8       ??_C@_0CH@MOHBLIMO@?$CFs?3?5estimated?5u_packet?5index?3?5?$CF0@ 004514e8     libsrtp-i386-win32-vc14-release-dynamic:srtp.obj
 0002:00012510       ??_C@_0CA@OMJPHCHL@?$CFs?3?5function?5srtp_protect_aead?6?$AA@ 00451510     libsrtp-i386-win32-vc14-release-dynamic:srtp.obj
 0002:00012530       ??_C@_0CF@PEPHCKJP@?$CFs?3?5estimated?5packet?5index?3?5?$CF016@ 00451530     libsrtp-i386-win32-vc14-release-dynamic:srtp.obj
 0002:00012558       ??_C@_0CC@KIGABHOG@?$CFs?3?5function?5srtp_unprotect_aead@ 00451558     libsrtp-i386-win32-vc14-release-dynamic:srtp.obj
 0002:0001257c       ??_C@_0BL@MADNODBC@?$CFs?3?5function?5srtp_protect?6?$AA@ 0045157c     libsrtp-i386-win32-vc14-release-dynamic:srtp.obj
 0002:00012598       ??_C@_0BK@KLBGMJPP@?$CFs?3?5keystream?5prefix?3?5?$CFs?6?$AA@ 00451598     libsrtp-i386-win32-vc14-release-dynamic:srtp.obj
 0002:000125b4       ??_C@_0BK@GCKOFNLP@?$CFs?3?5srtp?5auth?5tag?3?5?5?5?5?$CFs?6?$AA@ 004515b4     libsrtp-i386-win32-vc14-release-dynamic:srtp.obj
 0002:000125d0       ??_C@_0BN@LADOAJPP@?$CFs?3?5function?5srtp_unprotect?6?$AA@ 004515d0     libsrtp-i386-win32-vc14-release-dynamic:srtp.obj
 0002:000125f0       ??_C@_0CN@PJAKIEAG@?$CFs?3?5using?5provisional?5stream?5?$CISS@ 004515f0     libsrtp-i386-win32-vc14-release-dynamic:srtp.obj
 0002:00012620       ??_C@_0BO@BONEKIBH@?$CFs?3?5computed?5auth?5tag?3?5?5?5?5?$CFs?6?$AA@ 00451620     libsrtp-i386-win32-vc14-release-dynamic:srtp.obj
 0002:00012640       ??_C@_0BO@KMHOFFAA@?$CFs?3?5packet?5auth?5tag?3?5?5?5?5?5?5?$CFs?6?$AA@ 00451640     libsrtp-i386-win32-vc14-release-dynamic:srtp.obj
 0002:00012660       ??_C@_0BO@ONKEAFKG@?$CFs?3?5Pre?9salted?5RTCP?5IV?5?$DN?5?$CFs?6?6?$AA@ 00451660     libsrtp-i386-win32-vc14-release-dynamic:srtp.obj
 0002:00012680       ??_C@_0BF@FLPIMBMP@?$CFs?3?5RTCP?5SALT?5?$DN?5?$CFs?6?6?$AA@ 00451680     libsrtp-i386-win32-vc14-release-dynamic:srtp.obj
 0002:00012698       ??_C@_0BF@JBCKCIAJ@?$CFs?3?5srtcp?5index?3?5?$CFx?6?$AA@ 00451698     libsrtp-i386-win32-vc14-release-dynamic:srtp.obj
 0002:000126b0       ??_C@_0BL@OBHAKLEH@?$CFs?3?5srtcp?5auth?5tag?3?5?5?5?5?$CFs?6?$AA@ 004516b0     libsrtp-i386-win32-vc14-release-dynamic:srtp.obj
 0002:000126cc       ??_C@_0DD@HHOLLDKC@?$CFs?3?5srtcp?5using?5provisional?5stre@ 004516cc     libsrtp-i386-win32-vc14-release-dynamic:srtp.obj
 0002:00012700       ??_C@_0CC@IMKDPKDI@?$CFs?3?5srtcp?5computed?5tag?3?5?5?5?5?5?5?5?$CFs@ 00451700     libsrtp-i386-win32-vc14-release-dynamic:srtp.obj
 0002:00012724       ??_C@_0CC@GFCANNPL@?$CFs?3?5srtcp?5tag?5from?5packet?3?5?5?5?5?$CFs@ 00451724     libsrtp-i386-win32-vc14-release-dynamic:srtp.obj
 0002:00012748       ??_C@_05KNPMOECN@alloc?$AA@ 00451748     libsrtp-i386-win32-vc14-release-dynamic:alloc.obj
 0002:00012750       ??_C@_0BO@KJOGHNGM@?$CFs?3?5?$CIlocation?3?5?$CFp?$CJ?5allocated?6?$AA@ 00451750     libsrtp-i386-win32-vc14-release-dynamic:alloc.obj
 0002:00012770       ??_C@_0CN@JJLNACEJ@?$CFs?3?5allocation?5failed?5?$CIasked?5for@ 00451770     libsrtp-i386-win32-vc14-release-dynamic:alloc.obj
 0002:000127a0       ??_C@_0BK@BNKOPMHD@?$CFs?3?5?$CIlocation?3?5?$CFp?$CJ?5freed?6?$AA@ 004517a0     libsrtp-i386-win32-vc14-release-dynamic:alloc.obj
 0002:000127c0       __xmm@66656463626139383736353433323130 004517c0     libsrtp-i386-win32-vc14-release-dynamic:datatypes.obj
 0002:000127d0       ??_C@_07EFAIHJHH@libsrtp?$AA@ 004517d0     libsrtp-i386-win32-vc14-release-dynamic:srtp_err.obj
 0002:000127d8       ??_C@_06KDGDAFPH@cipher?$AA@ 004517d8     libsrtp-i386-win32-vc14-release-dynamic:cipher.obj
 0002:000127e0       ??_C@_0CF@FLDNHEPF@?$CFs?3?5running?5self?9test?5for?5cipher@ 004517e0     libsrtp-i386-win32-vc14-release-dynamic:cipher.obj
 0002:00012808       ??_C@_0BI@DMHBCEPE@?$CFs?3?5testing?5encryption?6?$AA@ 00451808     libsrtp-i386-win32-vc14-release-dynamic:cipher.obj
 0002:00012820       ??_C@_0BG@IGPMAAHP@?$CFs?3?5plaintext?3?5?5?5?5?$CFs?6?$AA@ 00451820     libsrtp-i386-win32-vc14-release-dynamic:cipher.obj
 0002:00012838       ??_C@_0P@EJHFDBDM@?$CFs?3?5IV?3?5?5?5?5?$CFs?6?$AA@ 00451838     libsrtp-i386-win32-vc14-release-dynamic:cipher.obj
 0002:00012848       ??_C@_0BA@PIMALHJP@?$CFs?3?5AAD?3?5?5?5?5?$CFs?6?$AA@ 00451848     libsrtp-i386-win32-vc14-release-dynamic:cipher.obj
 0002:00012858       ??_C@_0BG@LLNGMAPJ@?$CFs?3?5ciphertext?3?5?5?5?$CFs?6?$AA@ 00451858     libsrtp-i386-win32-vc14-release-dynamic:cipher.obj
 0002:00012870       ??_C@_0BJ@ECBNBHJB@?$CFs?3?5test?5case?5?$CFd?5failed?6?$AA@ 00451870     libsrtp-i386-win32-vc14-release-dynamic:cipher.obj
 0002:0001288c       ??_C@_0BK@FFAGFACF@?$CFs?3?5?$CIfailure?5at?5byte?5?$CFd?$CJ?6?$AA@ 0045188c     libsrtp-i386-win32-vc14-release-dynamic:cipher.obj
 0002:000128a8       ??_C@_0BE@FJOCDNKP@?$CFs?3?5c?5computed?3?5?$CFs?6?$AA@ 004518a8     libsrtp-i386-win32-vc14-release-dynamic:cipher.obj
 0002:000128bc       ??_C@_0BE@PPCKDKP@?$CFs?3?5c?5expected?3?5?$CFs?6?$AA@ 004518bc     libsrtp-i386-win32-vc14-release-dynamic:cipher.obj
 0002:000128d0       ??_C@_0BI@IEPFOPNP@?$CFs?3?5testing?5decryption?6?$AA@ 004518d0     libsrtp-i386-win32-vc14-release-dynamic:cipher.obj
 0002:000128e8       ??_C@_0BH@EDJDPICD@?$CFs?3?5ciphertext?3?5?5?5?5?$CFs?6?$AA@ 004518e8     libsrtp-i386-win32-vc14-release-dynamic:cipher.obj
 0002:00012900       ??_C@_0BF@GOBFCCEB@?$CFs?3?5plaintext?3?5?5?5?$CFs?6?$AA@ 00451900     libsrtp-i386-win32-vc14-release-dynamic:cipher.obj
 0002:00012918       ??_C@_0BE@JGANLHMD@?$CFs?3?5p?5computed?3?5?$CFs?6?$AA@ 00451918     libsrtp-i386-win32-vc14-release-dynamic:cipher.obj
 0002:0001292c       ??_C@_0BE@MABNCJMD@?$CFs?3?5p?5expected?3?5?$CFs?6?$AA@ 0045192c     libsrtp-i386-win32-vc14-release-dynamic:cipher.obj
 0002:00012940       ??_C@_0CB@OOAIJLO@?$CFs?3?5random?5plaintext?5length?5?$CFd?6?6@ 00451940     libsrtp-i386-win32-vc14-release-dynamic:cipher.obj
 0002:00012964       ??_C@_0BG@NMIIDDNI@?$CFs?3?5plaintext?$FL2?$FN?3?5?$CFs?6?$AA@ 00451964     libsrtp-i386-win32-vc14-release-dynamic:cipher.obj
 0002:0001297c       ??_C@_0CA@EAJGEBOP@?$CFs?3?5random?5test?5case?5?$CFd?5failed?6?$AA@ 0045197c     libsrtp-i386-win32-vc14-release-dynamic:cipher.obj
 0002:0001299c       ??_C@_09EJIBOKIO@auth?5func?$AA@ 0045199c     libsrtp-i386-win32-vc14-release-dynamic:auth.obj
 0002:000129a8       ??_C@_0CM@DFOPKAOA@?$CFs?3?5running?5self?9test?5for?5auth?5f@ 004519a8     libsrtp-i386-win32-vc14-release-dynamic:auth.obj
 0002:000129d4       ??_C@_0N@OIMPEMMJ@?$CFs?3?5key?3?5?$CFs?6?$AA@ 004519d4     libsrtp-i386-win32-vc14-release-dynamic:auth.obj
 0002:000129e4       ??_C@_0O@NBGEFCOD@?$CFs?3?5data?3?5?$CFs?6?$AA@ 004519e4     libsrtp-i386-win32-vc14-release-dynamic:auth.obj
 0002:000129f4       ??_C@_0BG@KCOPIALB@?$CFs?3?5tag?5computed?3?5?$CFs?6?$AA@ 004519f4     libsrtp-i386-win32-vc14-release-dynamic:auth.obj
 0002:00012a0c       ??_C@_0BG@PEPPBOLB@?$CFs?3?5tag?5expected?3?5?$CFs?6?$AA@ 00451a0c     libsrtp-i386-win32-vc14-release-dynamic:auth.obj
 0002:00012a24       ??_C@_0BO@CKPEGHKK@?$CFs?3?5?5?5?$CImismatch?5at?5octet?5?$CFd?$CJ?6?$AA@ 00451a24     libsrtp-i386-win32-vc14-release-dynamic:auth.obj
 0002:00012a44       ??_C@_0O@MIKIJNFL@crypto?5kernel?$AA@ 00451a44     libsrtp-i386-win32-vc14-release-dynamic:crypto_kernel.obj
 0002:00012a54       ??_C@_0M@FNOFIMGM@cipher?3?5?$CFs?6?$AA@ 00451a54     libsrtp-i386-win32-vc14-release-dynamic:crypto_kernel.obj
 0002:00012a60       ??_C@_0O@CJBDENN@?5?5self?9test?3?5?$AA@ 00451a60     libsrtp-i386-win32-vc14-release-dynamic:crypto_kernel.obj
 0002:00012a70       ??_C@_0BL@HPMBNDJK@failed?5with?5error?5code?5?$CFd?6?$AA@ 00451a70     libsrtp-i386-win32-vc14-release-dynamic:crypto_kernel.obj
 0002:00012a8c       ??_C@_07JBEBJPGA@passed?6?$AA@ 00451a8c     libsrtp-i386-win32-vc14-release-dynamic:crypto_kernel.obj
 0002:00012a94       ??_C@_0P@CJMMEABE@auth?5func?3?5?$CFs?6?$AA@ 00451a94     libsrtp-i386-win32-vc14-release-dynamic:crypto_kernel.obj
 0002:00012aa4       ??_C@_0BH@NLMDBEPJ@debug?5modules?5loaded?3?6?$AA@ 00451aa4     libsrtp-i386-win32-vc14-release-dynamic:crypto_kernel.obj
 0002:00012abc       ??_C@_05NMIPNJMJ@?5?5?$CFs?5?$AA@ 00451abc     libsrtp-i386-win32-vc14-release-dynamic:crypto_kernel.obj
 0002:00012ac4       ??_C@_05KICKCMEO@?$CIon?$CJ?6?$AA@ 00451ac4     libsrtp-i386-win32-vc14-release-dynamic:crypto_kernel.obj
 0002:00012acc       ??_C@_06KCCPFFCC@?$CIoff?$CJ?6?$AA@ 00451acc     libsrtp-i386-win32-vc14-release-dynamic:crypto_kernel.obj
 0002:00012ad4       ??_C@_0CC@DLGHEHKN@?$CFs?3?5freeing?5memory?5for?5cipher?5?$CFs@ 00451ad4     libsrtp-i386-win32-vc14-release-dynamic:crypto_kernel.obj
 0002:00012af8       ??_C@_0CK@KGHAAPIM@?$CFs?3?5freeing?5memory?5for?5authentic@ 00451af8     libsrtp-i386-win32-vc14-release-dynamic:crypto_kernel.obj
 0002:00012b24       ??_C@_0CI@MFBGGOG@?$CFs?3?5freeing?5memory?5for?5debug?5mod@ 00451b24     libsrtp-i386-win32-vc14-release-dynamic:crypto_kernel.obj
 0002:00012b4c       ??_C@_0BE@ICAFLID@?$CFs?3?5EKT?5not?5in?5use?6?$AA@ 00451b4c     libsrtp-i386-win32-vc14-release-dynamic:ekt.obj
 0002:00012b60       ??_C@_0BK@CMOOGLJH@?$CFs?3?5writing?5EKT?5EMK?3?5?$CFs?0?6?$AA@ 00451b60     libsrtp-i386-win32-vc14-release-dynamic:ekt.obj
 0002:00012b7c       ??_C@_0BK@BEIPMCDF@?$CFs?3?5writing?5EKT?5ROC?3?5?$CFs?0?6?$AA@ 00451b7c     libsrtp-i386-win32-vc14-release-dynamic:ekt.obj
 0002:00012b98       ??_C@_0BK@BKDABMJO@?$CFs?3?5writing?5EKT?5ISN?3?5?$CFs?0?6?$AA@ 00451b98     libsrtp-i386-win32-vc14-release-dynamic:ekt.obj
 0002:00012bb4       ??_C@_0BK@BJPEDIGD@?$CFs?3?5writing?5EKT?5SPI?3?5?$CFs?0?6?$AA@ 00451bb4     libsrtp-i386-win32-vc14-release-dynamic:ekt.obj
 0002:00012bd0       ??_C@_09LCMAEBCF@stat?5test?$AA@ 00451bd0     libsrtp-i386-win32-vc14-release-dynamic:stat.obj
 0002:00012bdc       ??_C@_0CK@DAFEFAPH@?$CFs?3?5allocating?5cipher?5with?5key?5l@ 00451bdc     libsrtp-i386-win32-vc14-release-dynamic:null_cipher.obj
 0002:00012c08       ??_C@_0BO@HCJFKKEE@?$CFs?3?5initializing?5null?5cipher?6?$AA@ 00451c08     libsrtp-i386-win32-vc14-release-dynamic:null_cipher.obj
 0002:00012c60       _srtp_null_cipher          00451c60     libsrtp-i386-win32-vc14-release-dynamic:null_cipher.obj
 0002:00012c8c       ??_C@_07MPIJGLIA@aes?5icm?$AA@ 00451c8c     libsrtp-i386-win32-vc14-release-dynamic:aes_icm.obj
 0002:00012c94       _srtp_aes_icm_128          00451c94     libsrtp-i386-win32-vc14-release-dynamic:aes_icm.obj
 0002:00012cc0       _srtp_aes_icm_256          00451cc0     libsrtp-i386-win32-vc14-release-dynamic:aes_icm.obj
 0002:00012e54       ??_C@_0O@GFBJNBAD@?$CFs?3?5key?3?5?5?$CFs?6?$AA@ 00451e54     libsrtp-i386-win32-vc14-release-dynamic:aes_icm.obj
 0002:00012e64       ??_C@_0BA@ILFEGDEM@?$CFs?3?5offset?3?5?$CFs?6?$AA@ 00451e64     libsrtp-i386-win32-vc14-release-dynamic:aes_icm.obj
 0002:00012e74       ??_C@_0BE@ECIFEEKH@?$CFs?3?5setting?5iv?3?5?$CFs?6?$AA@ 00451e74     libsrtp-i386-win32-vc14-release-dynamic:aes_icm.obj
 0002:00012e88       ??_C@_0BF@OAOEHNDM@?$CFs?3?5set_counter?3?5?$CFs?6?$AA@ 00451e88     libsrtp-i386-win32-vc14-release-dynamic:aes_icm.obj
 0002:00012ea0       ??_C@_0BE@ENJPOLAG@?$CFs?3?5counter?3?5?5?5?5?$CFs?6?$AA@ 00451ea0     libsrtp-i386-win32-vc14-release-dynamic:aes_icm.obj
 0002:00012eb4       ??_C@_0BE@ILCAEFF@?$CFs?3?5ciphertext?3?5?$CFs?6?$AA@ 00451eb4     libsrtp-i386-win32-vc14-release-dynamic:aes_icm.obj
 0002:00012ec8       ??_C@_0BF@BLBMMINO@?$CFs?3?5block?5index?3?5?$CFd?6?$AA@ 00451ec8     libsrtp-i386-win32-vc14-release-dynamic:aes_icm.obj
 0002:00012ee0       ??_C@_0CN@KBEHBKDH@?$CFs?3?5allocating?5auth?5func?5with?5ke@ 00451ee0     libsrtp-i386-win32-vc14-release-dynamic:null_auth.obj
 0002:00012f10       ??_C@_0CN@FDNDBNFI@?$CFs?3?5?5?5?5?5?5?5?5?5?5?5?5?5?5?5?5?5?5?5?5?5?5?5?5?5?5?5ta@ 00451f10     libsrtp-i386-win32-vc14-release-dynamic:null_auth.obj
 0002:00012f7c       _srtp_null_auth            00451f7c     libsrtp-i386-win32-vc14-release-dynamic:null_auth.obj
 0002:00012fa0       ??_C@_0L@NBBBLMAJ@hmac?5sha?91?$AA@ 00451fa0     libsrtp-i386-win32-vc14-release-dynamic:hmac.obj
 0002:00012fac       ??_C@_0O@PJECJPIJ@?$CFs?3?5ipad?3?5?$CFs?6?$AA@ 00451fac     libsrtp-i386-win32-vc14-release-dynamic:hmac.obj
 0002:00012fbc       ??_C@_0P@JHGAOEEF@?$CFs?3?5input?3?5?$CFs?6?$AA@ 00451fbc     libsrtp-i386-win32-vc14-release-dynamic:hmac.obj
 0002:00012fcc       ??_C@_0BM@JABNBLDM@?$CFs?3?5intermediate?5state?3?5?$CFs?6?$AA@ 00451fcc     libsrtp-i386-win32-vc14-release-dynamic:hmac.obj
 0002:00012fe8       ??_C@_0BA@NKCNJNLN@?$CFs?3?5output?3?5?$CFs?6?$AA@ 00451fe8     libsrtp-i386-win32-vc14-release-dynamic:hmac.obj
 0002:00013068       _srtp_hmac                 00452068     libsrtp-i386-win32-vc14-release-dynamic:hmac.obj
 0002:00013090       __xmm@36363636363636363636363636363636 00452090     libsrtp-i386-win32-vc14-release-dynamic:hmac.obj
 0002:000130a0       __xmm@5c5c5c5c5c5c5c5c5c5c5c5c5c5c5c5c 004520a0     libsrtp-i386-win32-vc14-release-dynamic:hmac.obj
 0002:000152b0       ??_C@_05BPJLFPNI@sha?91?$AA@ 004542b0     libsrtp-i386-win32-vc14-release-dynamic:sha1.obj
 0002:000152b8       ??_C@_0CH@CIFCCFOE@?$CFs?3?5?$CIupdate?$CJ?5running?5srtp_sha1_c@ 004542b8     libsrtp-i386-win32-vc14-release-dynamic:sha1.obj
 0002:000152e0       ??_C@_0CL@FECLBICF@?$CFs?3?5?$CIupdate?$CJ?5not?5running?5srtp_sh@ 004542e0     libsrtp-i386-win32-vc14-release-dynamic:sha1.obj
 0002:0001530c       ??_C@_0CG@BBEKCMGE@?$CFs?3?5?$CIfinal?$CJ?5running?5srtp_sha1_co@ 0045430c     libsrtp-i386-win32-vc14-release-dynamic:sha1.obj
 0002:00015334       ??_C@_0CM@HEEFBAKO@?$CFs?3?5?$CIfinal?$CJ?5running?5srtp_sha1_co@ 00454334     libsrtp-i386-win32-vc14-release-dynamic:sha1.obj
 0002:00015420       __load_config_used         00454420     MSVCRT:loadcfg.obj
 0002:00015480       ___safe_se_handler_table   00454480     <linker-defined>
 0002:000156d4       ___rtc_iaa                 004546d4     MSVCRT:_initsect_.obj
 0002:000156d8       ___rtc_izz                 004546d8     MSVCRT:_initsect_.obj
 0002:000156dc       ___rtc_taa                 004546dc     MSVCRT:_initsect_.obj
 0002:000156e0       ___rtc_tzz                 004546e0     MSVCRT:_initsect_.obj
 0002:00015724       __IMPORT_DESCRIPTOR_ole32  00454724     ole32:ole32.dll
 0002:00015738       __IMPORT_DESCRIPTOR_WS2_32 00454738     ws2_32:WS2_32.dll
 0002:0001574c       __IMPORT_DESCRIPTOR_WINMM  0045474c     winmm:WINMM.dll
 0002:00015760       __IMPORT_DESCRIPTOR_KERNEL32 00454760     kernel32:KERNEL32.dll
 0002:00015774       __IMPORT_DESCRIPTOR_VCRUNTIME140 00454774     vcruntime:VCRUNTIME140.dll
 0002:00015788       __IMPORT_DESCRIPTOR_api-ms-win-crt-stdio-l1-1-0 00454788     ucrt:api-ms-win-crt-stdio-l1-1-0.dll
 0002:0001579c       __IMPORT_DESCRIPTOR_api-ms-win-crt-runtime-l1-1-0 0045479c     ucrt:api-ms-win-crt-runtime-l1-1-0.dll
 0002:000157b0       __IMPORT_DESCRIPTOR_api-ms-win-crt-convert-l1-1-0 004547b0     ucrt:api-ms-win-crt-convert-l1-1-0.dll
 0002:000157c4       __IMPORT_DESCRIPTOR_api-ms-win-crt-string-l1-1-0 004547c4     ucrt:api-ms-win-crt-string-l1-1-0.dll
 0002:000157d8       __IMPORT_DESCRIPTOR_api-ms-win-crt-math-l1-1-0 004547d8     ucrt:api-ms-win-crt-math-l1-1-0.dll
 0002:000157ec       __IMPORT_DESCRIPTOR_api-ms-win-crt-utility-l1-1-0 004547ec     ucrt:api-ms-win-crt-utility-l1-1-0.dll
 0002:00015800       __IMPORT_DESCRIPTOR_api-ms-win-crt-heap-l1-1-0 00454800     ucrt:api-ms-win-crt-heap-l1-1-0.dll
 0002:00015814       __IMPORT_DESCRIPTOR_api-ms-win-crt-locale-l1-1-0 00454814     ucrt:api-ms-win-crt-locale-l1-1-0.dll
 0002:00015828       __NULL_IMPORT_DESCRIPTOR   00454828     ole32:ole32.dll
 0003:00001108       _pjmedia_add_rtpmap_for_static_pt 00457108     pjmedia-i386-win32-vc14-release-dynamic:endpoint.obj
 0003:0000110c       _pjmedia_add_bandwidth_tias_in_sdp 0045710c     pjmedia-i386-win32-vc14-release-dynamic:endpoint.obj
 0003:00001338       _pj_optind                 00457338     pjlib-util-i386-win32-vc14-release-dynamic:getopt.obj
 0003:0000133c       _pj_optopt                 0045733c     pjlib-util-i386-win32-vc14-release-dynamic:getopt.obj
 0003:00001440       _PJ_VERSION                00457440     pjlib-i386-win32-vc14-release-dynamic:config.obj
 0003:0000144c       _pj_pool_factory_default_policy 0045744c     pjlib-i386-win32-vc14-release-dynamic:pool_policy_malloc.obj
 0003:0000145c       _gsm_A                     0045745c     libgsmcodec-i386-win32-vc14-release-dynamic:table.obj
 0003:0000146c       _gsm_B                     0045746c     libgsmcodec-i386-win32-vc14-release-dynamic:table.obj
 0003:0000147c       _gsm_MIC                   0045747c     libgsmcodec-i386-win32-vc14-release-dynamic:table.obj
 0003:0000148c       _gsm_MAC                   0045748c     libgsmcodec-i386-win32-vc14-release-dynamic:table.obj
 0003:0000149c       _gsm_INVA                  0045749c     libgsmcodec-i386-win32-vc14-release-dynamic:table.obj
 0003:000014ac       _gsm_DLB                   004574ac     libgsmcodec-i386-win32-vc14-release-dynamic:table.obj
 0003:000014b4       _gsm_QLB                   004574b4     libgsmcodec-i386-win32-vc14-release-dynamic:table.obj
 0003:000014bc       _gsm_H                     004574bc     libgsmcodec-i386-win32-vc14-release-dynamic:table.obj
 0003:000014d4       _gsm_NRFAC                 004574d4     libgsmcodec-i386-win32-vc14-release-dynamic:table.obj
 0003:000014e4       _gsm_FAC                   004574e4     libgsmcodec-i386-win32-vc14-release-dynamic:table.obj
 0003:000014f8       _lpc_asymwinTbl            004574f8     libilbccodec-i386-win32-vc14-release-dynamic:constants.obj
 0003:000018b8       _lpc_lagwinTbl             004578b8     libilbccodec-i386-win32-vc14-release-dynamic:constants.obj
 0003:000018e4       _hpi_zero_coefsTbl         004578e4     libilbccodec-i386-win32-vc14-release-dynamic:constants.obj
 0003:000018f0       _lsfCbTbl                  004578f0     libilbccodec-i386-win32-vc14-release-dynamic:constants.obj
 0003:000029f0       _hpi_pole_coefsTbl         004589f0     libilbccodec-i386-win32-vc14-release-dynamic:constants.obj
 0003:000029fc       _hpo_zero_coefsTbl         004589fc     libilbccodec-i386-win32-vc14-release-dynamic:constants.obj
 0003:00002a08       _hpo_pole_coefsTbl         00458a08     libilbccodec-i386-win32-vc14-release-dynamic:constants.obj
 0003:00002a14       _lpFilt_coefsTbl           00458a14     libilbccodec-i386-win32-vc14-release-dynamic:constants.obj
 0003:00002a30       _state_sq3Tbl              00458a30     libilbccodec-i386-win32-vc14-release-dynamic:constants.obj
 0003:00002a50       _state_frgqTbl             00458a50     libilbccodec-i386-win32-vc14-release-dynamic:constants.obj
 0003:00002b50       _search_rangeTbl           00458b50     libilbccodec-i386-win32-vc14-release-dynamic:constants.obj
 0003:00002b8c       _stMemLTbl                 00458b8c     libilbccodec-i386-win32-vc14-release-dynamic:constants.obj
 0003:00002b90       _memLfTbl                  00458b90     libilbccodec-i386-win32-vc14-release-dynamic:constants.obj
 0003:00002ba0       _cbfiltersTbl              00458ba0     libilbccodec-i386-win32-vc14-release-dynamic:constants.obj
 0003:00002bc0       _gain_sq3Tbl               00458bc0     libilbccodec-i386-win32-vc14-release-dynamic:constants.obj
 0003:00002be0       _gain_sq4Tbl               00458be0     libilbccodec-i386-win32-vc14-release-dynamic:constants.obj
 0003:00002c20       _gain_sq5Tbl               00458c20     libilbccodec-i386-win32-vc14-release-dynamic:constants.obj
 0003:00002ca0       _polyphaserTbl             00458ca0     libilbccodec-i386-win32-vc14-release-dynamic:constants.obj
 0003:00002d10       _enh_plocsTbl              00458d10     libilbccodec-i386-win32-vc14-release-dynamic:constants.obj
 0003:00002d30       _dim_lsfCbTbl              00458d30     libilbccodec-i386-win32-vc14-release-dynamic:constants.obj
 0003:00002d3c       _size_lsfCbTbl             00458d3c     libilbccodec-i386-win32-vc14-release-dynamic:constants.obj
 0003:00002d48       _lsfmeanTbl                00458d48     libilbccodec-i386-win32-vc14-release-dynamic:constants.obj
 0003:00002d70       _lsf_weightTbl_30ms        00458d70     libilbccodec-i386-win32-vc14-release-dynamic:constants.obj
 0003:00002d88       _lsf_weightTbl_20ms        00458d88     libilbccodec-i386-win32-vc14-release-dynamic:constants.obj
 0003:00002d98       _lpc_winTbl                00458d98     libilbccodec-i386-win32-vc14-release-dynamic:constants.obj
 0003:00003168       _mod_srtp                  00459168     libsrtp-i386-win32-vc14-release-dynamic:srtp.obj
 0003:00003174       _mod_alloc                 00459174     libsrtp-i386-win32-vc14-release-dynamic:alloc.obj
 0003:00003180       _octet_weight              00459180     libsrtp-i386-win32-vc14-release-dynamic:datatypes.obj
 0003:00003580       _srtp_mod_cipher           00459580     libsrtp-i386-win32-vc14-release-dynamic:cipher.obj
 0003:00003588       _srtp_mod_auth             00459588     libsrtp-i386-win32-vc14-release-dynamic:auth.obj
 0003:00003590       _srtp_mod_crypto_kernel    00459590     libsrtp-i386-win32-vc14-release-dynamic:crypto_kernel.obj
 0003:00003598       _mod_stat                  00459598     libsrtp-i386-win32-vc14-release-dynamic:stat.obj
 0003:000035a0       _srtp_mod_aes_icm          004595a0     libsrtp-i386-win32-vc14-release-dynamic:aes_icm.obj
 0003:000035a8       _srtp_mod_hmac             004595a8     libsrtp-i386-win32-vc14-release-dynamic:hmac.obj
 0003:000035b0       _srtp_mod_sha1             004595b0     libsrtp-i386-win32-vc14-release-dynamic:sha1.obj
 0003:000035b8       _SHA_K0                    004595b8     libsrtp-i386-win32-vc14-release-dynamic:sha1.obj
 0003:000035bc       _SHA_K1                    004595bc     libsrtp-i386-win32-vc14-release-dynamic:sha1.obj
 0003:000035c0       _SHA_K2                    004595c0     libsrtp-i386-win32-vc14-release-dynamic:sha1.obj
 0003:000035c4       _SHA_K3                    004595c4     libsrtp-i386-win32-vc14-release-dynamic:sha1.obj
 0003:000035c8       ___security_cookie_complement 004595c8     MSVCRT:gs_cookie.obj
 0003:000035cc       ___security_cookie         004595cc     MSVCRT:gs_cookie.obj
 0003:000035d0       __fltused                  004595d0     MSVCRT:fltused.obj
 0003:000035e0       ___isa_enabled             004595e0     MSVCRT:_cpu_disp_.obj
 0003:000035e4       ___scrt_native_dllmain_reason 004595e4     MSVCRT:utility.obj
 0003:000035e8       ___scrt_default_matherr    004595e8     MSVCRT:matherr.obj
 0003:000035f0       ___scrt_ucrt_dll_is_in_use 004595f0     MSVCRT:ucrt_stubs.obj
 0003:00004754       _pj_optarg                 0045a754     pjlib-util-i386-win32-vc14-release-dynamic:getopt.obj
 0003:00004aec       _err_level                 0045aaec     libsrtp-i386-win32-vc14-release-dynamic:srtp_err.obj
 0003:00004af0       _crypto_kernel             0045aaf0     libsrtp-i386-win32-vc14-release-dynamic:crypto_kernel.obj
 0003:00004e3c       ___isa_available           0045ae3c     MSVCRT:_cpu_disp_.obj
 0003:00004e40       ___favor                   0045ae40     MSVCRT:_cpu_disp_.obj
 0003:00004e44       ___scrt_current_native_startup_state 0045ae44     MSVCRT:utility.obj
 0003:00004e48       ___scrt_native_startup_lock 0045ae48     MSVCRT:utility.obj
 0003:00004e68       ?__type_info_root_node@@3U__type_info_node@@A 0045ae68     MSVCRT:tncleanup.obj
 0003:00004e70       ___scrt_debugger_hook_flag 0045ae70     MSVCRT:utility_desktop.obj
 0003:00004e78       ?_OptionsStorage@?1??__local_stdio_printf_options@@9@9 0045ae78     <common>
 0003:00004e80       _play_frm                  0045ae80     <common>
 0003:00004ea0       _PJ_NO_MEMORY_EXCEPTION    0045aea0     <common>
 0003:00004ec0       _bit_string                0045aec0     <common>
 0003:000052c0       ?_OptionsStorage@?1??__local_stdio_scanf_options@@9@9 0045b2c0     <common>
 0003:000052c8       ___dyn_tls_dtor_callback   0045b2c8     <common>
 0003:000052cc       ___dyn_tls_init_callback   0045b2cc     <common>

 entry point at        0001:0003bd33

 Static symbols

 0002:fffc1000       .idata$6                   00400000     ucrt:api-ms-win-crt-time-l1-1-0.dll
 0001:00000000       _pj_bzero                  00401000 f   pcaputil.obj
 0001:00000020       _pj_memcpy                 00401020 f   pcaputil.obj
 0001:00000030       _PJMEDIA_PIA_SRATE         00401030 f   pcaputil.obj
 0001:00000040       _pjmedia_codec_init        00401040 f   pcaputil.obj
 0001:00000050       _pjmedia_codec_open        00401050 f   pcaputil.obj
 0001:00000060       _pjmedia_codec_close       00401060 f   pcaputil.obj
 0001:00000070       _pjmedia_codec_parse       00401070 f   pcaputil.obj
 0001:00000080       _pjmedia_codec_decode      00401080 f   pcaputil.obj
 0001:00000090       _pjmedia_codec_recover     00401090 f   pcaputil.obj
 0001:000000b0       _pjmedia_transport_close   004010b0 f   pcaputil.obj
 0001:000000d0       _pjmedia_endpt_create      004010d0 f   pcaputil.obj
 0001:00000110       _pjmedia_endpt_destroy     00401110 f   pcaputil.obj
 0001:00000130       _cleanup                   00401130 f   pcaputil.obj
 0001:00000250       _err_exit                  00401250 f   pcaputil.obj
 0001:000002b0       _read_rtp                  004012b0 f   pcaputil.obj
 0001:000004e0       _wait_play                 004014e0 f   pcaputil.obj
 0001:00000530       _play_cb                   00401530 f   pcaputil.obj
 0001:00000590       _pcap2wav                  00401590 f   pcaputil.obj
 0001:000010d4       $LN73                      004020d4     pcaputil.obj
 0001:000010f8       $LN61                      004020f8     pcaputil.obj
 0001:00001290       _g722_test_alloc           00402290 f   pjmedia-codec-i386-win32-vc14-release-dynamic:g722.obj
 0001:000012b0       _g722_default_attr         004022b0 f   pjmedia-codec-i386-win32-vc14-release-dynamic:g722.obj
 0001:00001300       _g722_enum_codecs          00402300 f   pjmedia-codec-i386-win32-vc14-release-dynamic:g722.obj
 0001:00001370       _g722_alloc_codec          00402370 f   pjmedia-codec-i386-win32-vc14-release-dynamic:g722.obj
 0001:000014a0       _g722_dealloc_codec        004024a0 f   pjmedia-codec-i386-win32-vc14-release-dynamic:g722.obj
 0001:00001570       _g722_codec_open           00402570 f   pjmedia-codec-i386-win32-vc14-release-dynamic:g722.obj
 0001:00001640       _g722_codec_modify         00402640 f   pjmedia-codec-i386-win32-vc14-release-dynamic:g722.obj
 0001:00001670       _g722_codec_parse          00402670 f   pjmedia-codec-i386-win32-vc14-release-dynamic:g722.obj
 0001:000016f0       _g722_codec_encode         004026f0 f   pjmedia-codec-i386-win32-vc14-release-dynamic:g722.obj
 0001:00001830       _g722_codec_decode         00402830 f   pjmedia-codec-i386-win32-vc14-release-dynamic:g722.obj
 0001:00001970       _g722_codec_recover        00402970 f   pjmedia-codec-i386-win32-vc14-release-dynamic:g722.obj
 0001:00001b20       _gsm_test_alloc            00402b20 f   pjmedia-codec-i386-win32-vc14-release-dynamic:gsm.obj
 0001:00001b40       _gsm_default_attr          00402b40 f   pjmedia-codec-i386-win32-vc14-release-dynamic:gsm.obj
 0001:00001b90       _gsm_enum_codecs           00402b90 f   pjmedia-codec-i386-win32-vc14-release-dynamic:gsm.obj
 0001:00001c00       _gsm_alloc_codec           00402c00 f   pjmedia-codec-i386-win32-vc14-release-dynamic:gsm.obj
 0001:00001d20       _gsm_dealloc_codec         00402d20 f   pjmedia-codec-i386-win32-vc14-release-dynamic:gsm.obj
 0001:00001e10       _gsm_codec_open            00402e10 f   pjmedia-codec-i386-win32-vc14-release-dynamic:gsm.obj
 0001:00001e60       _gsm_codec_close           00402e60 f   pjmedia-codec-i386-win32-vc14-release-dynamic:gsm.obj
 0001:00001ea0       _gsm_codec_modify          00402ea0 f   pjmedia-codec-i386-win32-vc14-release-dynamic:gsm.obj
 0001:00001ed0       _gsm_codec_parse           00402ed0 f   pjmedia-codec-i386-win32-vc14-release-dynamic:gsm.obj
 0001:00001f50       _gsm_codec_encode          00402f50 f   pjmedia-codec-i386-win32-vc14-release-dynamic:gsm.obj
 0001:00002080       _gsm_codec_decode          00403080 f   pjmedia-codec-i386-win32-vc14-release-dynamic:gsm.obj
 0001:00002110       _gsm_codec_recover         00403110 f   pjmedia-codec-i386-win32-vc14-release-dynamic:gsm.obj
 0001:000022b0       _ilbc_test_alloc           004032b0 f   pjmedia-codec-i386-win32-vc14-release-dynamic:ilbc.obj
 0001:00002320       _ilbc_default_attr         00403320 f   pjmedia-codec-i386-win32-vc14-release-dynamic:ilbc.obj
 0001:000023e0       _ilbc_enum_codecs          004033e0 f   pjmedia-codec-i386-win32-vc14-release-dynamic:ilbc.obj
 0001:00002460       _ilbc_alloc_codec          00403460 f   pjmedia-codec-i386-win32-vc14-release-dynamic:ilbc.obj
 0001:00002500       _ilbc_dealloc_codec        00403500 f   pjmedia-codec-i386-win32-vc14-release-dynamic:ilbc.obj
 0001:00002530       _ilbc_codec_open           00403530 f   pjmedia-codec-i386-win32-vc14-release-dynamic:ilbc.obj
 0001:00002720       _ilbc_codec_close          00403720 f   pjmedia-codec-i386-win32-vc14-release-dynamic:ilbc.obj
 0001:00002750       _ilbc_codec_modify         00403750 f   pjmedia-codec-i386-win32-vc14-release-dynamic:ilbc.obj
 0001:00002780       _ilbc_codec_parse          00403780 f   pjmedia-codec-i386-win32-vc14-release-dynamic:ilbc.obj
 0001:00002810       _ilbc_codec_encode         00403810 f   pjmedia-codec-i386-win32-vc14-release-dynamic:ilbc.obj
 0001:000029b0       _ilbc_codec_decode         004039b0 f   pjmedia-codec-i386-win32-vc14-release-dynamic:ilbc.obj
 0001:00002a70       _ilbc_codec_recover        00403a70 f   pjmedia-codec-i386-win32-vc14-release-dynamic:ilbc.obj
 0001:00002bf0       _l16_test_alloc            00403bf0 f   pjmedia-codec-i386-win32-vc14-release-dynamic:l16.obj
 0001:00002c10       _l16_default_attr          00403c10 f   pjmedia-codec-i386-win32-vc14-release-dynamic:l16.obj
 0001:00002c70       _l16_enum_codecs           00403c70 f   pjmedia-codec-i386-win32-vc14-release-dynamic:l16.obj
 0001:00002cf0       _l16_alloc_codec           00403cf0 f   pjmedia-codec-i386-win32-vc14-release-dynamic:l16.obj
 0001:00002e10       _l16_dealloc_codec         00403e10 f   pjmedia-codec-i386-win32-vc14-release-dynamic:l16.obj
 0001:00002e60       _l16_open                  00403e60 f   pjmedia-codec-i386-win32-vc14-release-dynamic:l16.obj
 0001:00002ea0       _l16_modify                00403ea0 f   pjmedia-codec-i386-win32-vc14-release-dynamic:l16.obj
 0001:00002ed0       _l16_parse                 00403ed0 f   pjmedia-codec-i386-win32-vc14-release-dynamic:l16.obj
 0001:00002f50       _l16_encode                00403f50 f   pjmedia-codec-i386-win32-vc14-release-dynamic:l16.obj
 0001:00003060       _l16_decode                00404060 f   pjmedia-codec-i386-win32-vc14-release-dynamic:l16.obj
 0001:00003110       _l16_recover               00404110 f   pjmedia-codec-i386-win32-vc14-release-dynamic:l16.obj
 0001:000032e0       _spx_test_alloc            004042e0 f   pjmedia-codec-i386-win32-vc14-release-dynamic:speex_codec.obj
 0001:000033e0       _spx_default_attr          004043e0 f   pjmedia-codec-i386-win32-vc14-release-dynamic:speex_codec.obj
 0001:00003490       _spx_enum_codecs           00404490 f   pjmedia-codec-i386-win32-vc14-release-dynamic:speex_codec.obj
 0001:00003550       _spx_alloc_codec           00404550 f   pjmedia-codec-i386-win32-vc14-release-dynamic:speex_codec.obj
 0001:00003640       _spx_dealloc_codec         00404640 f   pjmedia-codec-i386-win32-vc14-release-dynamic:speex_codec.obj
 0001:000036b0       _spx_codec_open            004046b0 f   pjmedia-codec-i386-win32-vc14-release-dynamic:speex_codec.obj
 0001:000037d0       _spx_codec_close           004047d0 f   pjmedia-codec-i386-win32-vc14-release-dynamic:speex_codec.obj
 0001:00003820       _spx_codec_modify          00404820 f   pjmedia-codec-i386-win32-vc14-release-dynamic:speex_codec.obj
 0001:00003880       _spx_codec_parse           00404880 f   pjmedia-codec-i386-win32-vc14-release-dynamic:speex_codec.obj
 0001:00003aa0       _spx_codec_encode          00404aa0 f   pjmedia-codec-i386-win32-vc14-release-dynamic:speex_codec.obj
 0001:00003bc0       _spx_codec_decode          00404bc0 f   pjmedia-codec-i386-win32-vc14-release-dynamic:speex_codec.obj
 0001:00003c80       _spx_codec_recover         00404c80 f   pjmedia-codec-i386-win32-vc14-release-dynamic:speex_codec.obj
 0001:00003cd0       _get_speex_info            00404cd0 f   pjmedia-codec-i386-win32-vc14-release-dynamic:speex_codec.obj
 0001:00003fc0       _block1h                   00404fc0 f   pjmedia-codec-i386-win32-vc14-release-dynamic:g722_enc.obj
 0001:00004020       _block1l                   00405020 f   pjmedia-codec-i386-win32-vc14-release-dynamic:g722_enc.obj
 0001:000040a0       _block3h                   004050a0 f   pjmedia-codec-i386-win32-vc14-release-dynamic:g722_enc.obj
 0001:00004120       _block3l                   00405120 f   pjmedia-codec-i386-win32-vc14-release-dynamic:g722_enc.obj
 0001:000041a0       _block4h                   004051a0 f   pjmedia-codec-i386-win32-vc14-release-dynamic:g722_enc.obj
 0001:00004740       _tx_qmf                    00405740 f   pjmedia-codec-i386-win32-vc14-release-dynamic:g722_enc.obj
 0001:00004850       _block3h                   00405850 f   pjmedia-codec-i386-win32-vc14-release-dynamic:g722_dec.obj
 0001:000048d0       _block3l                   004058d0 f   pjmedia-codec-i386-win32-vc14-release-dynamic:g722_dec.obj
 0001:00004950       _block4h                   00405950 f   pjmedia-codec-i386-win32-vc14-release-dynamic:g722_dec.obj
 0001:00004e50       _block4l                   00405e50 f   pjmedia-codec-i386-win32-vc14-release-dynamic:g722_enc.obj
 0001:00004e50       _block4l                   00405e50 f   pjmedia-codec-i386-win32-vc14-release-dynamic:g722_dec.obj
 0001:000053a0       _rx_qmf                    004063a0 f   pjmedia-codec-i386-win32-vc14-release-dynamic:g722_dec.obj
 0001:00005780       _factory_init              00406780 f   pjmedia-audiodev-i386-win32-vc14-release-dynamic:wmme_dev.obj
 0001:000057c0       _factory_destroy           004067c0 f   pjmedia-audiodev-i386-win32-vc14-release-dynamic:wmme_dev.obj
 0001:000057f0       _factory_refresh           004067f0 f   pjmedia-audiodev-i386-win32-vc14-release-dynamic:wmme_dev.obj
 0001:00005aa0       _factory_get_dev_count     00406aa0 f   pjmedia-audiodev-i386-win32-vc14-release-dynamic:wmme_dev.obj
 0001:00005ab0       _factory_get_dev_info      00406ab0 f   pjmedia-audiodev-i386-win32-vc14-release-dynamic:wmme_dev.obj
 0001:00005af0       _factory_default_param     00406af0 f   pjmedia-audiodev-i386-win32-vc14-release-dynamic:wmme_dev.obj
 0001:00005bd0       _factory_create_stream     00406bd0 f   pjmedia-audiodev-i386-win32-vc14-release-dynamic:wmme_dev.obj
 0001:00005e30       _stream_get_param          00406e30 f   pjmedia-audiodev-i386-win32-vc14-release-dynamic:wmme_dev.obj
 0001:00005eb0       _stream_get_cap            00406eb0 f   pjmedia-audiodev-i386-win32-vc14-release-dynamic:wmme_dev.obj
 0001:00005f40       _stream_set_cap            00406f40 f   pjmedia-audiodev-i386-win32-vc14-release-dynamic:wmme_dev.obj
 0001:00005fe0       _stream_start              00406fe0 f   pjmedia-audiodev-i386-win32-vc14-release-dynamic:wmme_dev.obj
 0001:00006060       _stream_stop               00407060 f   pjmedia-audiodev-i386-win32-vc14-release-dynamic:wmme_dev.obj
 0001:000060f0       _stream_destroy            004070f0 f   pjmedia-audiodev-i386-win32-vc14-release-dynamic:wmme_dev.obj
 0001:00006260       _build_dev_info            00407260 f   pjmedia-audiodev-i386-win32-vc14-release-dynamic:wmme_dev.obj
 0001:00006410       _init_capture_stream       00407410 f   pjmedia-audiodev-i386-win32-vc14-release-dynamic:wmme_dev.obj
 0001:00006630       _init_player_stream        00407630 f   pjmedia-audiodev-i386-win32-vc14-release-dynamic:wmme_dev.obj
 0001:00006870       _init_waveformatex         00407870 f   pjmedia-audiodev-i386-win32-vc14-release-dynamic:wmme_dev.obj
 0001:00006950       _pjmedia_frame_ext_append_subframe 00407950 f   pjmedia-audiodev-i386-win32-vc14-release-dynamic:wmme_dev.obj
 0001:000069b0       _pjmedia_frame_ext_copy_payload 004079b0 f   pjmedia-audiodev-i386-win32-vc14-release-dynamic:wmme_dev.obj
 0001:00006a80       _wmme_dev_thread           00407a80 f   pjmedia-audiodev-i386-win32-vc14-release-dynamic:wmme_dev.obj
 0001:00006ff0       _lookup_dev                00407ff0 f   pjmedia-i386-win32-vc14-release-dynamic:audiodev.obj
 0001:000070e0       _make_global_index         004080e0 f   pjmedia-i386-win32-vc14-release-dynamic:audiodev.obj
 0001:000082f0       _sort_codecs               004092f0 f   pjmedia-i386-win32-vc14-release-dynamic:codec.obj
 0001:00008760       _worker_proc               00409760 f   pjmedia-i386-win32-vc14-release-dynamic:endpoint.obj
 0001:000087b0       _transport_get_info        004097b0 f   pjmedia-i386-win32-vc14-release-dynamic:transport_loop.obj
 0001:00008810       _transport_attach          00409810 f   pjmedia-i386-win32-vc14-release-dynamic:transport_loop.obj
 0001:00008840       _transport_attach2         00409840 f   pjmedia-i386-win32-vc14-release-dynamic:transport_loop.obj
 0001:00008870       _transport_detach          00409870 f   pjmedia-i386-win32-vc14-release-dynamic:transport_loop.obj
 0001:000088b0       _transport_send_rtp        004098b0 f   pjmedia-i386-win32-vc14-release-dynamic:transport_loop.obj
 0001:000089a0       _transport_send_rtcp       004099a0 f   pjmedia-i386-win32-vc14-release-dynamic:transport_loop.obj
 0001:000089e0       _transport_send_rtcp2      004099e0 f   pjmedia-i386-win32-vc14-release-dynamic:transport_loop.obj
 0001:00008a20       _l16_close                 00409a20 f   pjmedia-codec-i386-win32-vc14-release-dynamic:l16.obj
 0001:00008a20       _l16_init                  00409a20 f   pjmedia-codec-i386-win32-vc14-release-dynamic:l16.obj
 0001:00008a20       _sdes_media_stop           00409a20 f   pjmedia-i386-win32-vc14-release-dynamic:transport_srtp.obj
 0001:00008a20       _ilbc_codec_init           00409a20 f   pjmedia-codec-i386-win32-vc14-release-dynamic:ilbc.obj
 0001:00008a20       _srtp_null_auth_init       00409a20 f   libsrtp-i386-win32-vc14-release-dynamic:null_auth.obj
 0001:00008a20       _g722_codec_close          00409a20 f   pjmedia-codec-i386-win32-vc14-release-dynamic:g722.obj
 0001:00008a20       _spx_codec_init            00409a20 f   pjmedia-codec-i386-win32-vc14-release-dynamic:speex_codec.obj
 0001:00008a20       _transport_media_stop      00409a20 f   pjmedia-i386-win32-vc14-release-dynamic:transport_loop.obj
 0001:00008a20       _g711_close                00409a20 f   pjmedia-i386-win32-vc14-release-dynamic:g711.obj
 0001:00008a20       _transport_media_start     00409a20 f   pjmedia-i386-win32-vc14-release-dynamic:transport_loop.obj
 0001:00008a20       _transport_encode_sdp      00409a20 f   pjmedia-i386-win32-vc14-release-dynamic:transport_loop.obj
 0001:00008a20       _transport_media_create    00409a20 f   pjmedia-i386-win32-vc14-release-dynamic:transport_loop.obj
 0001:00008a20       _gsm_codec_init            00409a20 f   pjmedia-codec-i386-win32-vc14-release-dynamic:gsm.obj
 0001:00008a20       _srtp_null_cipher_encrypt  00409a20 f   libsrtp-i386-win32-vc14-release-dynamic:null_cipher.obj
 0001:00008a20       _srtp_null_cipher_set_iv   00409a20 f   libsrtp-i386-win32-vc14-release-dynamic:null_cipher.obj
 0001:00008a20       _g711_init                 00409a20 f   pjmedia-i386-win32-vc14-release-dynamic:g711.obj
 0001:00008a20       _null_op                   00409a20 f   pjlib-i386-win32-vc14-release-dynamic:lock.obj
 0001:00008a20       _srtp_null_auth_start      00409a20 f   libsrtp-i386-win32-vc14-release-dynamic:null_auth.obj
 0001:00008a20       _srtp_null_auth_compute    00409a20 f   libsrtp-i386-win32-vc14-release-dynamic:null_auth.obj
 0001:00008a20       _srtp_null_auth_update     00409a20 f   libsrtp-i386-win32-vc14-release-dynamic:null_auth.obj
 0001:00008a20       _g722_codec_init           00409a20 f   pjmedia-codec-i386-win32-vc14-release-dynamic:g722.obj
 0001:00008a30       _transport_simulate_lost   00409a30 f   pjmedia-i386-win32-vc14-release-dynamic:transport_loop.obj
 0001:00008a70       _transport_destroy         00409a70 f   pjmedia-i386-win32-vc14-release-dynamic:transport_loop.obj
 0001:00008c00       _tp_attach                 00409c00 f   pjmedia-i386-win32-vc14-release-dynamic:transport_loop.obj
 0001:00008cb0       _transport_get_info        00409cb0 f   pjmedia-i386-win32-vc14-release-dynamic:transport_srtp.obj
 0001:00008de0       _transport_detach          00409de0 f   pjmedia-i386-win32-vc14-release-dynamic:transport_srtp.obj
 0001:00008e50       _transport_send_rtp        00409e50 f   pjmedia-i386-win32-vc14-release-dynamic:transport_srtp.obj
 0001:00008f10       _transport_send_rtcp       00409f10 f   pjmedia-i386-win32-vc14-release-dynamic:transport_srtp.obj
 0001:00008f30       _transport_send_rtcp2      00409f30 f   pjmedia-i386-win32-vc14-release-dynamic:transport_srtp.obj
 0001:00009000       _transport_media_create    0040a000 f   pjmedia-i386-win32-vc14-release-dynamic:transport_srtp.obj
 0001:00009190       _transport_encode_sdp      0040a190 f   pjmedia-i386-win32-vc14-release-dynamic:transport_srtp.obj
 0001:00009370       _transport_media_start     0040a370 f   pjmedia-i386-win32-vc14-release-dynamic:transport_srtp.obj
 0001:000094b0       _transport_media_stop      0040a4b0 f   pjmedia-i386-win32-vc14-release-dynamic:transport_srtp.obj
 0001:00009630       _transport_simulate_lost   0040a630 f   pjmedia-i386-win32-vc14-release-dynamic:transport_srtp.obj
 0001:00009660       _transport_destroy         0040a660 f   pjmedia-i386-win32-vc14-release-dynamic:transport_srtp.obj
 0001:00009700       _transport_attach2         0040a700 f   pjmedia-i386-win32-vc14-release-dynamic:transport_srtp.obj
 0001:00009890       _sdes_media_create         0040a890 f   pjmedia-i386-win32-vc14-release-dynamic:transport_srtp.obj
 0001:00009910       _sdes_encode_sdp           0040a910 f   pjmedia-i386-win32-vc14-release-dynamic:transport_srtp.obj
 0001:00009e80       _sdes_media_start          0040ae80 f   pjmedia-i386-win32-vc14-release-dynamic:transport_srtp.obj
 0001:0000a230       _fill_local_crypto         0040b230 f   pjmedia-i386-win32-vc14-release-dynamic:transport_srtp.obj
 0001:0000a570       _generate_crypto_attr_value 0040b570 f   pjmedia-i386-win32-vc14-release-dynamic:transport_srtp.obj
 0001:0000a810       _get_crypto_idx            0040b810 f   pjmedia-i386-win32-vc14-release-dynamic:transport_srtp.obj
 0001:0000a890       _parse_attr_crypto         0040b890 f   pjmedia-i386-win32-vc14-release-dynamic:transport_srtp.obj
 0001:0000ab10       _pjmedia_srtp_deinit_lib   0040bb10 f   pjmedia-i386-win32-vc14-release-dynamic:transport_srtp.obj
 0001:0000b810       _sdes_create               0040c810 f   pjmedia-i386-win32-vc14-release-dynamic:transport_srtp.obj
 0001:0000b880       _srtp_crypto_cmp           0040c880 f   pjmedia-i386-win32-vc14-release-dynamic:transport_srtp.obj
 0001:0000b8c0       _srtp_rtcp_cb              0040c8c0 f   pjmedia-i386-win32-vc14-release-dynamic:transport_srtp.obj
 0001:0000b9c0       _srtp_rtp_cb               0040c9c0 f   pjmedia-i386-win32-vc14-release-dynamic:transport_srtp.obj
 0001:0000bcc0       _start_srtp                0040ccc0 f   pjmedia-i386-win32-vc14-release-dynamic:transport_srtp.obj
 0001:0000be10       _file_get_frame            0040ce10 f   pjmedia-i386-win32-vc14-release-dynamic:wav_writer.obj
 0001:0000be20       _file_on_destroy           0040ce20 f   pjmedia-i386-win32-vc14-release-dynamic:wav_writer.obj
 0001:0000bf90       _file_on_event             0040cf90 f   pjmedia-i386-win32-vc14-release-dynamic:wav_writer.obj
 0001:0000bfc0       _file_put_frame            0040cfc0 f   pjmedia-i386-win32-vc14-release-dynamic:wav_writer.obj
 0001:0000c490       _g711_test_alloc           0040d490 f   pjmedia-i386-win32-vc14-release-dynamic:g711.obj
 0001:0000c4b0       _g711_default_attr         0040d4b0 f   pjmedia-i386-win32-vc14-release-dynamic:g711.obj
 0001:0000c510       _g711_enum_codecs          0040d510 f   pjmedia-i386-win32-vc14-release-dynamic:g711.obj
 0001:0000c5a0       _g711_alloc_codec          0040d5a0 f   pjmedia-i386-win32-vc14-release-dynamic:g711.obj
 0001:0000c6c0       _g711_dealloc_codec        0040d6c0 f   pjmedia-i386-win32-vc14-release-dynamic:g711.obj
 0001:0000c790       _g711_open                 0040d790 f   pjmedia-i386-win32-vc14-release-dynamic:g711.obj
 0001:0000c7c0       _g711_modify               0040d7c0 f   pjmedia-i386-win32-vc14-release-dynamic:g711.obj
 0001:0000c800       _g711_parse                0040d800 f   pjmedia-i386-win32-vc14-release-dynamic:g711.obj
 0001:0000c890       _g711_encode               0040d890 f   pjmedia-i386-win32-vc14-release-dynamic:g711.obj
 0001:0000c9b0       _g711_decode               0040d9b0 f   pjmedia-i386-win32-vc14-release-dynamic:g711.obj
 0001:0000ca80       _g711_recover              0040da80 f   pjmedia-i386-win32-vc14-release-dynamic:g711.obj
 0001:0000cc60       _plc_wsola_create          0040dc60 f   pjmedia-i386-win32-vc14-release-dynamic:plc_common.obj
 0001:0000cca0       _plc_wsola_save            0040dca0 f   pjmedia-i386-win32-vc14-release-dynamic:plc_common.obj
 0001:0000ccd0       _plc_wsola_generate        0040dcd0 f   pjmedia-i386-win32-vc14-release-dynamic:plc_common.obj
 0001:0000d060       _event_mgr_distribute_events 0040e060 f   pjmedia-i386-win32-vc14-release-dynamic:event.obj
 0001:0000d130       _event_queue_add_event     0040e130 f   pjmedia-i386-win32-vc14-release-dynamic:event.obj
 0001:0000d900       _create_win                0040e900 f   pjmedia-i386-win32-vc14-release-dynamic:wsola.obj
 0001:0000da90       _expand                    0040ea90 f   pjmedia-i386-win32-vc14-release-dynamic:wsola.obj
 0001:0000dc10       _fade_in                   0040ec10 f   pjmedia-i386-win32-vc14-release-dynamic:wsola.obj
 0001:0000dcd0       _find_pitch                0040ecd0 f   pjmedia-i386-win32-vc14-release-dynamic:wsola.obj
 0001:0000df80       _overlapp_add_simple       0040ef80 f   pjmedia-i386-win32-vc14-release-dynamic:wsola.obj
 0001:0000e010       _pjmedia_circ_buf_adv_read_ptr 0040f010 f   pjmedia-i386-win32-vc14-release-dynamic:wsola.obj
 0001:0000e060       _pjmedia_circ_buf_copy     0040f060 f   pjmedia-i386-win32-vc14-release-dynamic:wsola.obj
 0001:0000e110       _pjmedia_circ_buf_create   0040f110 f   pjmedia-i386-win32-vc14-release-dynamic:wsola.obj
 0001:0000e150       _pjmedia_circ_buf_get_read_regions 0040f150 f   pjmedia-i386-win32-vc14-release-dynamic:wsola.obj
 0001:0000e1c0       _pjmedia_circ_buf_get_write_regions 0040f1c0 f   pjmedia-i386-win32-vc14-release-dynamic:wsola.obj
 0001:0000e240       _pjmedia_circ_buf_pack_buffer 0040f240 f   pjmedia-i386-win32-vc14-release-dynamic:wsola.obj
 0001:0000e320       _pjmedia_circ_buf_write    0040f320 f   pjmedia-i386-win32-vc14-release-dynamic:wsola.obj
 0001:0000e8f0       _wsola_fade_out            0040f8f0 f   pjmedia-i386-win32-vc14-release-dynamic:wsola.obj
 0001:0000eb00       __getopt_initialize        0040fb00 f   pjlib-util-i386-win32-vc14-release-dynamic:getopt.obj
 0001:0000eb60       __getopt_internal          0040fb60 f   pjlib-util-i386-win32-vc14-release-dynamic:getopt.obj
 0001:0000f2b0       _exchange                  004102b0 f   pjlib-util-i386-win32-vc14-release-dynamic:getopt.obj
 0001:0000f3a0       _my_index                  004103a0 f   pjlib-util-i386-win32-vc14-release-dynamic:getopt.obj
 0001:0000fbb0       _read_file                 00410bb0 f   pjlib-util-i386-win32-vc14-release-dynamic:pcap.obj
 0001:0000fbe0       _skip                      00410be0 f   pjlib-util-i386-win32-vc14-release-dynamic:pcap.obj
 0001:0000fc00       _init_mutex                00410c00 f   pjlib-i386-win32-vc14-release-dynamic:os_core_win32.obj
 0001:00010370       _pj_sem_wait_for           00411370 f   pjlib-i386-win32-vc14-release-dynamic:os_core_win32.obj
 0001:00010bc0       _thread_main@4             00411bc0 f   pjlib-i386-win32-vc14-release-dynamic:os_core_win32.obj
 0001:00011190       _pj_memcmp                 00412190 f   pjlib-i386-win32-vc14-release-dynamic:string.obj
 0001:00011190       _pj_memcmp                 00412190 f   pjlib-i386-win32-vc14-release-dynamic:sock_common.obj
 0001:00011670       _invoke_log                00412670 f   pjlib-i386-win32-vc14-release-dynamic:errno.obj
 0001:000116f0       _pj_perror_imp             004126f0 f   pjlib-i386-win32-vc14-release-dynamic:errno.obj
 0001:00011940       _pjlib_error               00412940 f   pjlib-i386-win32-vc14-release-dynamic:errno.obj
 0001:000119c0       _logging_shutdown          004129c0 f   pjlib-i386-win32-vc14-release-dynamic:log.obj
 0001:00011fcc       $LN14                      00412fcc     pjlib-i386-win32-vc14-release-dynamic:log.obj
 0001:000129e0       _pj_pool_create_block      004139e0 f   pjlib-i386-win32-vc14-release-dynamic:pool.obj
 0001:00012c40       _reset_pool                00413c40 f   pjlib-i386-win32-vc14-release-dynamic:pool.obj
 0001:00012cc0       _cpool_create_pool         00413cc0 f   pjlib-i386-win32-vc14-release-dynamic:pool_caching.obj
 0001:00012df0       _cpool_dump_status         00413df0 f   pjlib-i386-win32-vc14-release-dynamic:pool_caching.obj
 0001:00012f40       _cpool_on_block_alloc      00413f40 f   pjlib-i386-win32-vc14-release-dynamic:pool_caching.obj
 0001:00012f60       _cpool_on_block_free       00413f60 f   pjlib-i386-win32-vc14-release-dynamic:pool_caching.obj
 0001:00012f70       _cpool_release_pool        00413f70 f   pjlib-i386-win32-vc14-release-dynamic:pool_caching.obj
 0001:00013560       _decrement_counter         00414560 f   pjlib-i386-win32-vc14-release-dynamic:ioqueue_select.obj
 0001:000135f0       _increment_counter         004145f0 f   pjlib-i386-win32-vc14-release-dynamic:ioqueue_select.obj
 0001:00014260       _scan_closing_keys         00415260 f   pjlib-i386-win32-vc14-release-dynamic:ioqueue_select.obj
 0001:000143b0       _create_mutex_lock         004153b0 f   pjlib-i386-win32-vc14-release-dynamic:lock.obj
 0001:00014420       _grp_lock_destroy          00415420 f   pjlib-i386-win32-vc14-release-dynamic:lock.obj
 0001:000144d0       _grp_lock_release          004154d0 f   pjlib-i386-win32-vc14-release-dynamic:lock.obj
 0001:00014540       _grp_lock_tryacquire       00415540 f   pjlib-i386-win32-vc14-release-dynamic:lock.obj
 0001:00014bb0       _guid_to_str               00415bb0 f   pjlib-i386-win32-vc14-release-dynamic:guid_win32.obj
 0001:00014f60       _pool_buf_cleanup          00415f60 f   pjlib-i386-win32-vc14-release-dynamic:pool_buf.obj
 0001:00014f90       _stack_alloc               00415f90 f   pjlib-i386-win32-vc14-release-dynamic:pool_buf.obj
 0001:00014fd0       _default_block_alloc       00415fd0 f   pjlib-i386-win32-vc14-release-dynamic:pool_policy_malloc.obj
 0001:00015030       _default_block_free        00416030 f   pjlib-i386-win32-vc14-release-dynamic:pool_policy_malloc.obj
 0001:00015070       _default_pool_callback     00416070 f   pjlib-i386-win32-vc14-release-dynamic:pool_policy_malloc.obj
 0001:000161e0       _Calculation_of_the_LTP_parameters 004171e0 f   libgsmcodec-i386-win32-vc14-release-dynamic:long_term.obj
 0001:00016860       _Long_term_analysis_filtering 00417860 f   libgsmcodec-i386-win32-vc14-release-dynamic:long_term.obj
 0001:00016ac0       $LN57                      00417ac0     libgsmcodec-i386-win32-vc14-release-dynamic:long_term.obj
 0001:00016ad0       _Autocorrelation           00417ad0 f   libgsmcodec-i386-win32-vc14-release-dynamic:lpc.obj
 0001:000171ac       $LN146                     004181ac     libgsmcodec-i386-win32-vc14-release-dynamic:lpc.obj
 0001:00017210       _Quantization_and_coding   00418210 f   libgsmcodec-i386-win32-vc14-release-dynamic:lpc.obj
 0001:00017760       _Reflection_coefficients   00418760 f   libgsmcodec-i386-win32-vc14-release-dynamic:lpc.obj
 0001:00017aa0       _Transformation_to_Log_Area_Ratios 00418aa0 f   libgsmcodec-i386-win32-vc14-release-dynamic:lpc.obj
 0001:00017ce0       _Coefficients_0_12         00418ce0 f   libgsmcodec-i386-win32-vc14-release-dynamic:short_term.obj
 0001:00017da0       _Coefficients_13_26        00418da0 f   libgsmcodec-i386-win32-vc14-release-dynamic:short_term.obj
 0001:00017e20       _Coefficients_27_39        00418e20 f   libgsmcodec-i386-win32-vc14-release-dynamic:short_term.obj
 0001:00017ee0       _Decoding_of_the_coded_Log_Area_Ratios 00418ee0 f   libgsmcodec-i386-win32-vc14-release-dynamic:short_term.obj
 0001:00018580       _LARp_to_rp                00419580 f   libgsmcodec-i386-win32-vc14-release-dynamic:short_term.obj
 0001:00018670       _Short_term_analysis_filtering 00419670 f   libgsmcodec-i386-win32-vc14-release-dynamic:short_term.obj
 0001:00018790       _Short_term_synthesis_filtering 00419790 f   libgsmcodec-i386-win32-vc14-release-dynamic:short_term.obj
 0001:000188d0       _APCM_inverse_quantization 004198d0 f   libgsmcodec-i386-win32-vc14-release-dynamic:rpe.obj
 0001:000189b0       _APCM_quantization         004199b0 f   libgsmcodec-i386-win32-vc14-release-dynamic:rpe.obj
 0001:00018c80       _APCM_quantization_xmaxc_to_exp_mant 00419c80 f   libgsmcodec-i386-win32-vc14-release-dynamic:rpe.obj
 0001:00018de0       _RPE_grid_positioning      00419de0 f   libgsmcodec-i386-win32-vc14-release-dynamic:rpe.obj
 0001:00018e64       $LN26                      00419e64     libgsmcodec-i386-win32-vc14-release-dynamic:rpe.obj
 0001:00018e80       _RPE_grid_selection        00419e80 f   libgsmcodec-i386-win32-vc14-release-dynamic:rpe.obj
 0001:00019370       _Weighting_filter          0041a370 f   libgsmcodec-i386-win32-vc14-release-dynamic:rpe.obj
 0001:000236f0       __speex_fatal              004246f0 f   libspeex-i386-win32-vc14-release-dynamic:nb_celp.obj
 0001:000244e0       _nb_decode_lost            004254e0 f   libspeex-i386-win32-vc14-release-dynamic:nb_celp.obj
 0001:00024a88       $LN68                      00425a88     libspeex-i386-win32-vc14-release-dynamic:nb_celp.obj
 0001:00024ae8       $LN65                      00425ae8     libspeex-i386-win32-vc14-release-dynamic:nb_celp.obj
 0001:000266b8       $LN116                     004276b8     libspeex-i386-win32-vc14-release-dynamic:nb_celp.obj
 0001:0002674c       $LN112                     0042774c     libspeex-i386-win32-vc14-release-dynamic:nb_celp.obj
 0001:00026aa0       _speex_notify              00427aa0 f   libspeex-i386-win32-vc14-release-dynamic:nb_celp.obj
 0001:00027500       _pitch_gain_search_3tap    00428500 f   libspeex-i386-win32-vc14-release-dynamic:ltp.obj
 0001:000281f0       _pitch_gain_search_3tap_vq 004291f0 f   libspeex-i386-win32-vc14-release-dynamic:ltp.obj
 0001:000289c0       _compute_quant_weights     004299c0 f   libspeex-i386-win32-vc14-release-dynamic:quant_lsp.obj
 0001:00028a60       _lsp_quant                 00429a60 f   libspeex-i386-win32-vc14-release-dynamic:quant_lsp.obj
 0001:0002b010       _lsp_weight_quant          0042c010 f   libspeex-i386-win32-vc14-release-dynamic:quant_lsp.obj
 0001:0002b160       _compute_weighted_codebook 0042c160 f   libspeex-i386-win32-vc14-release-dynamic:cb_search.obj
 0001:0002c540       _split_cb_search_shape_sign_N1 0042d540 f   libspeex-i386-win32-vc14-release-dynamic:cb_search.obj
 0001:0002ceb0       _target_update             0042deb0 f   libspeex-i386-win32-vc14-release-dynamic:cb_search.obj
 0001:0002df60       _sb_decode_lost            0042ef60 f   libspeex-i386-win32-vc14-release-dynamic:sb_celp.obj
 0001:0002e4f0       $LN114                     0042f4f0     libspeex-i386-win32-vc14-release-dynamic:sb_celp.obj
 0001:0002e558       $LN94                      0042f558     libspeex-i386-win32-vc14-release-dynamic:sb_celp.obj
 0001:0002fc60       $LN165                     00430c60     libspeex-i386-win32-vc14-release-dynamic:sb_celp.obj
 0001:0002fcfc       $LN144                     00430cfc     libspeex-i386-win32-vc14-release-dynamic:sb_celp.obj
 0001:00033290       _base_key_length           00434290 f   libsrtp-i386-win32-vc14-release-dynamic:srtp.obj
 0001:000332bc       $LN10                      004342bc     libsrtp-i386-win32-vc14-release-dynamic:srtp.obj
 0001:000332e0       _be64_to_cpu               004342e0 f   libsrtp-i386-win32-vc14-release-dynamic:srtp.obj
 0001:000333e0       _srtp_calc_aead_iv         004343e0 f   libsrtp-i386-win32-vc14-release-dynamic:srtp.obj
 0001:000334d0       _srtp_calc_aead_iv_srtcp   004344d0 f   libsrtp-i386-win32-vc14-release-dynamic:srtp.obj
 0001:000338b0       _srtp_estimate_index       004348b0 f   libsrtp-i386-win32-vc14-release-dynamic:srtp.obj
 0001:000339d0       $LN12                      004349d0     libsrtp-i386-win32-vc14-release-dynamic:srtp.obj
 0001:000339e0       _srtp_get_est_pkt_index    004349e0 f   libsrtp-i386-win32-vc14-release-dynamic:srtp.obj
 0001:00033bc0       _srtp_kdf_generate         00434bc0 f   libsrtp-i386-win32-vc14-release-dynamic:srtp.obj
 0001:00033c40       _srtp_kdf_init             00434c40 f   libsrtp-i386-win32-vc14-release-dynamic:srtp.obj
 0001:00033cb0       _srtp_process_header_encryption 00434cb0 f   libsrtp-i386-win32-vc14-release-dynamic:srtp.obj
 0001:00033f00       _srtp_protect_aead         00434f00 f   libsrtp-i386-win32-vc14-release-dynamic:srtp.obj
 0001:000347d0       _srtp_protect_rtcp_aead    004357d0 f   libsrtp-i386-win32-vc14-release-dynamic:srtp.obj
 0001:000353c0       _srtp_stream_free          004363c0 f   libsrtp-i386-win32-vc14-release-dynamic:srtp.obj
 0001:00035e14       $LN91                      00436e14     libsrtp-i386-win32-vc14-release-dynamic:srtp.obj
 0001:00035e50       _srtp_unprotect_aead       00436e50 f   libsrtp-i386-win32-vc14-release-dynamic:srtp.obj
 0001:000367c0       _srtp_unprotect_rtcp_aead  004377c0 f   libsrtp-i386-win32-vc14-release-dynamic:srtp.obj
 0001:00036f50       _srtp_validate_rtp_header  00437f50 f   libsrtp-i386-win32-vc14-release-dynamic:srtp.obj
 0001:00038e80       _srtp_crypto_kernel_do_load_cipher_type 00439e80 f   libsrtp-i386-win32-vc14-release-dynamic:crypto_kernel.obj
 0001:00039550       _srtp_null_cipher_alloc    0043a550 f   libsrtp-i386-win32-vc14-release-dynamic:null_cipher.obj
 0001:000395c0       _srtp_null_cipher_dealloc  0043a5c0 f   libsrtp-i386-win32-vc14-release-dynamic:null_cipher.obj
 0001:000395e0       _srtp_null_cipher_init     0043a5e0 f   libsrtp-i386-win32-vc14-release-dynamic:null_cipher.obj
 0001:00039610       _srtp_aes_icm_alloc        0043a610 f   libsrtp-i386-win32-vc14-release-dynamic:aes_icm.obj
 0001:000396f0       _srtp_aes_icm_dealloc      0043a6f0 f   libsrtp-i386-win32-vc14-release-dynamic:aes_icm.obj
 0001:00039730       _srtp_aes_icm_context_init 0043a730 f   libsrtp-i386-win32-vc14-release-dynamic:aes_icm.obj
 0001:00039870       _srtp_aes_icm_set_iv       0043a870 f   libsrtp-i386-win32-vc14-release-dynamic:aes_icm.obj
 0001:00039920       _srtp_aes_icm_encrypt      0043a920 f   libsrtp-i386-win32-vc14-release-dynamic:aes_icm.obj
 0001:00039b00       _srtp_aes_icm_advance      0043ab00 f   libsrtp-i386-win32-vc14-release-dynamic:aes_icm.obj
 0001:00039b90       _srtp_null_auth_alloc      0043ab90 f   libsrtp-i386-win32-vc14-release-dynamic:null_auth.obj
 0001:00039c20       _srtp_null_auth_dealloc    0043ac20 f   libsrtp-i386-win32-vc14-release-dynamic:null_auth.obj
 0001:00039c40       _srtp_hmac_alloc           0043ac40 f   libsrtp-i386-win32-vc14-release-dynamic:hmac.obj
 0001:00039cf0       _srtp_hmac_dealloc         0043acf0 f   libsrtp-i386-win32-vc14-release-dynamic:hmac.obj
 0001:00039d10       _srtp_hmac_init            0043ad10 f   libsrtp-i386-win32-vc14-release-dynamic:hmac.obj
 0001:00039f80       _srtp_hmac_start           0043af80 f   libsrtp-i386-win32-vc14-release-dynamic:hmac.obj
 0001:00039fa0       _srtp_hmac_update          0043afa0 f   libsrtp-i386-win32-vc14-release-dynamic:hmac.obj
 0001:00039ff0       _srtp_hmac_compute         0043aff0 f   libsrtp-i386-win32-vc14-release-dynamic:hmac.obj
 0001:0003a120       _aes_128_expand_encryption_key 0043b120 f   libsrtp-i386-win32-vc14-release-dynamic:aes.obj
 0001:0003a530       _aes_256_expand_encryption_key 0043b530 f   libsrtp-i386-win32-vc14-release-dynamic:aes.obj
 0001:0003a630       _aes_final_round           0043b630 f   libsrtp-i386-win32-vc14-release-dynamic:aes.obj
 0001:0003a730       _aes_inv_final_round       0043b730 f   libsrtp-i386-win32-vc14-release-dynamic:aes.obj
 0001:0003a830       _aes_inv_round             0043b830 f   libsrtp-i386-win32-vc14-release-dynamic:aes.obj
 0001:0003a920       _aes_round                 0043b920 f   libsrtp-i386-win32-vc14-release-dynamic:aes.obj
 0001:0003b9cc       $LN111                     0043c9cc     libsrtp-i386-win32-vc14-release-dynamic:sha1.obj
 0001:0003bb07       ?pre_c_initialization@@YAHXZ 0043cb07 f   MSVCRT:exe_main.obj
 0001:0003bbab       ?post_pgo_initialization@@YAHXZ 0043cbab f   MSVCRT:exe_main.obj
 0001:0003bbb3       ?pre_cpp_initialization@@YAXXZ 0043cbb3 f   MSVCRT:exe_main.obj
 0001:0003bbc5       ?__scrt_common_main_seh@@YAHXZ 0043cbc5 f   MSVCRT:exe_main.obj
 0001:0003bd40       $$000000                   0043cd40     MSVCRT:ulldiv.obj
 0001:0003bfb0       $$000000                   0043cfb0     MSVCRT:_svml_dcos2_dispatch_.obj
 0001:0003bfc0       $$000000                   0043cfc0     MSVCRT:lldiv.obj
 0001:0003c070       $$000000                   0043d070     MSVCRT:llmul.obj
 0001:0003c0b0       $$000000                   0043d0b0     MSVCRT:llshl.obj
 0001:0003c0d0       $$000000                   0043d0d0     MSVCRT:_ftol3_.obj
 0001:0003c450       $$000000                   0043d450     MSVCRT:chkstk.obj
 0001:0003c480       $$000000                   0043d480     MSVCRT:_ftol2_.obj
 0001:0003c540       $$000000                   0043d540     MSVCRT:alloca16.obj
 0001:0003c710       ?find_pe_section@@YAPAU_IMAGE_SECTION_HEADER@@QAEI@Z 0043d710 f   MSVCRT:utility.obj
 0001:0003cc90       $$000000                   0043dc90     MSVCRT:_sehprolg4_.obj
 0001:0003cd10       $$000000                   0043dd10     MSVCRT:_svml_dcos2_sse2_.obj
 0001:0003cec0       $$000000                   0043dec0     MSVCRT:_svml_dtrig_.obj
 0001:0003d1b0       ___common_srl              0043e1b0 f   MSVCRT:_svml_dtrig_.obj
 0001:0003d1e0       ___common_sll              0043e1e0 f   MSVCRT:_svml_dtrig_.obj
 0002:00000278       ?pre_cpp_initializer@@3P6AXXZA 0043f278     MSVCRT:exe_main.obj
 0002:00000284       ?pre_c_initializer@@3P6AHXZA 0043f284     MSVCRT:exe_main.obj
 0002:00000288       ?post_pgo_initializer@@3P6AHXZA 0043f288     MSVCRT:exe_main.obj
 0002:00000358       _STR_L16                   0043f358     pjmedia-codec-i386-win32-vc14-release-dynamic:l16.obj
 0002:00000368       ?inband_skip_table@?1??speex_get_next_frame@@9@9 0043f368     pjmedia-codec-i386-win32-vc14-release-dynamic:speex_codec.obj
 0002:000003a8       ?wb_skip_table@?1??speex_get_next_frame@@9@9 0043f3a8     pjmedia-codec-i386-win32-vc14-release-dynamic:speex_codec.obj
 0002:00000458       ?q6@?1??block1l@@9@9       0043f458     pjmedia-codec-i386-win32-vc14-release-dynamic:g722_enc.obj
 0002:000004d8       ?iln@?1??block1l@@9@9      0043f4d8     pjmedia-codec-i386-win32-vc14-release-dynamic:g722_enc.obj
 0002:00000558       ?ilp@?1??block1l@@9@9      0043f558     pjmedia-codec-i386-win32-vc14-release-dynamic:g722_enc.obj
 0002:000005d8       ?qm4@?1??block2l@@9@9      0043f5d8     pjmedia-codec-i386-win32-vc14-release-dynamic:g722_enc.obj
 0002:00000618       ?wl@?1??block3l@@9@9       0043f618     pjmedia-codec-i386-win32-vc14-release-dynamic:g722_enc.obj
 0002:00000638       ?rl42@?1??block3l@@9@9     0043f638     pjmedia-codec-i386-win32-vc14-release-dynamic:g722_enc.obj
 0002:00000678       ?ilb@?1??block3l@@9@9      0043f678     pjmedia-codec-i386-win32-vc14-release-dynamic:g722_enc.obj
 0002:000006f8       ?ihn@?1??block1h@@9@9      0043f6f8     pjmedia-codec-i386-win32-vc14-release-dynamic:g722_enc.obj
 0002:00000704       ?ihp@?1??block1h@@9@9      0043f704     pjmedia-codec-i386-win32-vc14-release-dynamic:g722_enc.obj
 0002:00000710       ?qm2@?1??block2h@@9@9      0043f710     pjmedia-codec-i386-win32-vc14-release-dynamic:g722_enc.obj
 0002:00000720       ?wh@?1??block3h@@9@9       0043f720     pjmedia-codec-i386-win32-vc14-release-dynamic:g722_enc.obj
 0002:0000072c       ?rh2@?1??block3h@@9@9      0043f72c     pjmedia-codec-i386-win32-vc14-release-dynamic:g722_enc.obj
 0002:00000740       ?ilb@?1??block3h@@9@9      0043f740     pjmedia-codec-i386-win32-vc14-release-dynamic:g722_enc.obj
 0002:000007c0       _qm4                       0043f7c0     pjmedia-codec-i386-win32-vc14-release-dynamic:g722_dec.obj
 0002:00000800       _ilb                       0043f800     pjmedia-codec-i386-win32-vc14-release-dynamic:g722_dec.obj
 0002:00000880       ?wl@?1??block3l@@9@9       0043f880     pjmedia-codec-i386-win32-vc14-release-dynamic:g722_dec.obj
 0002:000008a0       ?rl42@?1??block3l@@9@9     0043f8a0     pjmedia-codec-i386-win32-vc14-release-dynamic:g722_dec.obj
 0002:000008e0       ?qm6@?1??block5l@@9@9      0043f8e0     pjmedia-codec-i386-win32-vc14-release-dynamic:g722_dec.obj
 0002:000009e0       ?qm2@?1??block2h@@9@9      0043f9e0     pjmedia-codec-i386-win32-vc14-release-dynamic:g722_dec.obj
 0002:000009f0       ?wh@?1??block3h@@9@9       0043f9f0     pjmedia-codec-i386-win32-vc14-release-dynamic:g722_dec.obj
 0002:000009fc       ?rh2@?1??block3h@@9@9      0043f9fc     pjmedia-codec-i386-win32-vc14-release-dynamic:g722_dec.obj
 0002:00000a10       _err_str                   0043fa10     pjmedia-audiodev-i386-win32-vc14-release-dynamic:errno.obj
 0002:00001270       _STR_RTP_AVP               00440270     pjmedia-i386-win32-vc14-release-dynamic:endpoint.obj
 0002:00001278       _STR_IN                    00440278     pjmedia-i386-win32-vc14-release-dynamic:endpoint.obj
 0002:00001280       _STR_IP4                   00440280     pjmedia-i386-win32-vc14-release-dynamic:endpoint.obj
 0002:00001288       _STR_IP6                   00440288     pjmedia-i386-win32-vc14-release-dynamic:endpoint.obj
 0002:00001290       _STR_SDP_NAME              00440290     pjmedia-i386-win32-vc14-release-dynamic:endpoint.obj
 0002:00001298       _STR_SENDRECV              00440298     pjmedia-i386-win32-vc14-release-dynamic:endpoint.obj
 0002:00001404       _ID_RTP_AVP                00440404     pjmedia-i386-win32-vc14-release-dynamic:transport_srtp.obj
 0002:0000140c       _ID_RTP_SAVP               0044040c     pjmedia-i386-win32-vc14-release-dynamic:transport_srtp.obj
 0002:00001414       _ID_CRYPTO                 00440414     pjmedia-i386-win32-vc14-release-dynamic:transport_srtp.obj
 0002:00001c98       _err_str                   00440c98     pjmedia-i386-win32-vc14-release-dynamic:errno.obj
 0002:0000bda0       _err_str                   0044ada0     pjlib-util-i386-win32-vc14-release-dynamic:errno.obj
 0002:0000ccc8       _base64_char               0044bcc8     pjlib-util-i386-win32-vc14-release-dynamic:base64.obj
 0002:0000ce90       _err_str                   0044be90     pjlib-i386-win32-vc14-release-dynamic:errno.obj
 0002:0000d4c0       _gaErrorList               0044c4c0     pjlib-i386-win32-vc14-release-dynamic:os_error_win32.obj
 0002:0000dfe0       _bitoff                    0044cfe0     libgsmcodec-i386-win32-vc14-release-dynamic:add.obj
 0002:0000eaac       _ltp_params_nb             0044daac     libspeex-i386-win32-vc14-release-dynamic:modes.obj
 0002:0000eab8       _ltp_params_vlbr           0044dab8     libspeex-i386-win32-vc14-release-dynamic:modes.obj
 0002:0000eac4       _ltp_params_lbr            0044dac4     libspeex-i386-win32-vc14-release-dynamic:modes.obj
 0002:0000ead0       _ltp_params_med            0044dad0     libspeex-i386-win32-vc14-release-dynamic:modes.obj
 0002:0000eadc       _split_cb_nb_vlbr          0044dadc     libspeex-i386-win32-vc14-release-dynamic:modes.obj
 0002:0000eaf0       _split_cb_nb_ulbr          0044daf0     libspeex-i386-win32-vc14-release-dynamic:modes.obj
 0002:0000eb04       _split_cb_nb_lbr           0044db04     libspeex-i386-win32-vc14-release-dynamic:modes.obj
 0002:0000eb18       _split_cb_nb               0044db18     libspeex-i386-win32-vc14-release-dynamic:modes.obj
 0002:0000eb2c       _split_cb_nb_med           0044db2c     libspeex-i386-win32-vc14-release-dynamic:modes.obj
 0002:0000eb40       _split_cb_sb               0044db40     libspeex-i386-win32-vc14-release-dynamic:modes.obj
 0002:0000eb54       _nb_submode1               0044db54     libspeex-i386-win32-vc14-release-dynamic:modes.obj
 0002:0000eb8c       _nb_submode8               0044db8c     libspeex-i386-win32-vc14-release-dynamic:modes.obj
 0002:0000ebc4       _nb_submode2               0044dbc4     libspeex-i386-win32-vc14-release-dynamic:modes.obj
 0002:0000ebfc       _nb_submode3               0044dbfc     libspeex-i386-win32-vc14-release-dynamic:modes.obj
 0002:0000ec34       _nb_submode4               0044dc34     libspeex-i386-win32-vc14-release-dynamic:modes.obj
 0002:0000ec6c       _nb_submode5               0044dc6c     libspeex-i386-win32-vc14-release-dynamic:modes.obj
 0002:0000eca4       _nb_submode6               0044dca4     libspeex-i386-win32-vc14-release-dynamic:modes.obj
 0002:0000ecdc       _nb_submode7               0044dcdc     libspeex-i386-win32-vc14-release-dynamic:modes.obj
 0002:0000ed18       _nb_mode                   0044dd18     libspeex-i386-win32-vc14-release-dynamic:modes.obj
 0002:0000ef30       _split_cb_high             0044df30     libspeex-i386-win32-vc14-release-dynamic:modes_wb.obj
 0002:0000ef44       _split_cb_high_lbr         0044df44     libspeex-i386-win32-vc14-release-dynamic:modes_wb.obj
 0002:0000ef58       _wb_submode1               0044df58     libspeex-i386-win32-vc14-release-dynamic:modes_wb.obj
 0002:0000ef90       _wb_submode2               0044df90     libspeex-i386-win32-vc14-release-dynamic:modes_wb.obj
 0002:0000efc8       _wb_submode3               0044dfc8     libspeex-i386-win32-vc14-release-dynamic:modes_wb.obj
 0002:0000f000       _wb_submode4               0044e000     libspeex-i386-win32-vc14-release-dynamic:modes_wb.obj
 0002:0000f0a0       _sb_wb_mode                0044e0a0     libspeex-i386-win32-vc14-release-dynamic:modes_wb.obj
 0002:0000f150       _sb_uwb_mode               0044e150     libspeex-i386-win32-vc14-release-dynamic:modes_wb.obj
 0002:0000f2a0       _wb_skip_table             0044e2a0     libspeex-i386-win32-vc14-release-dynamic:nb_celp.obj
 0002:00010fe8       _gc_quant_bound            0044ffe8     libspeex-i386-win32-vc14-release-dynamic:sb_celp.obj
 0002:00011028       _fold_quant_bound          00450028     libspeex-i386-win32-vc14-release-dynamic:sb_celp.obj
 0002:000110a8       _h0                        004500a8     libspeex-i386-win32-vc14-release-dynamic:sb_celp.obj
 0002:00012c28       _srtp_null_cipher_description 00451c28     libsrtp-i386-win32-vc14-release-dynamic:null_cipher.obj
 0002:00012c34       _srtp_null_cipher_test_0   00451c34     libsrtp-i386-win32-vc14-release-dynamic:null_cipher.obj
 0002:00012cec       _srtp_aes_icm_128_description 00451cec     libsrtp-i386-win32-vc14-release-dynamic:aes_icm.obj
 0002:00012d0c       _srtp_aes_icm_256_description 00451d0c     libsrtp-i386-win32-vc14-release-dynamic:aes_icm.obj
 0002:00012d2c       _srtp_aes_icm_128_test_case_0_key 00451d2c     libsrtp-i386-win32-vc14-release-dynamic:aes_icm.obj
 0002:00012d4c       _srtp_aes_icm_128_test_case_0_plaintext 00451d4c     libsrtp-i386-win32-vc14-release-dynamic:aes_icm.obj
 0002:00012d6c       _srtp_aes_icm_128_test_case_0_ciphertext 00451d6c     libsrtp-i386-win32-vc14-release-dynamic:aes_icm.obj
 0002:00012d8c       _srtp_aes_icm_128_test_case_0 00451d8c     libsrtp-i386-win32-vc14-release-dynamic:aes_icm.obj
 0002:00012db8       _srtp_aes_icm_256_test_case_0_key 00451db8     libsrtp-i386-win32-vc14-release-dynamic:aes_icm.obj
 0002:00012de8       _srtp_aes_icm_256_test_case_0_plaintext 00451de8     libsrtp-i386-win32-vc14-release-dynamic:aes_icm.obj
 0002:00012e08       _srtp_aes_icm_256_test_case_0_ciphertext 00451e08     libsrtp-i386-win32-vc14-release-dynamic:aes_icm.obj
 0002:00012e28       _srtp_aes_icm_256_test_case_0 00451e28     libsrtp-i386-win32-vc14-release-dynamic:aes_icm.obj
 0002:00012f40       _srtp_null_auth_test_case_0 00451f40     libsrtp-i386-win32-vc14-release-dynamic:null_auth.obj
 0002:00012f5c       _srtp_null_auth_description 00451f5c     libsrtp-i386-win32-vc14-release-dynamic:null_auth.obj
 0002:00012ff8       _srtp_hmac_test_case_0_key 00451ff8     libsrtp-i386-win32-vc14-release-dynamic:hmac.obj
 0002:0001300c       _srtp_hmac_test_case_0_data 0045200c     libsrtp-i386-win32-vc14-release-dynamic:hmac.obj
 0002:00013014       _srtp_hmac_test_case_0_tag 00452014     libsrtp-i386-win32-vc14-release-dynamic:hmac.obj
 0002:00013028       _srtp_hmac_test_case_0     00452028     libsrtp-i386-win32-vc14-release-dynamic:hmac.obj
 0002:00013044       _srtp_hmac_description     00452044     libsrtp-i386-win32-vc14-release-dynamic:hmac.obj
 0002:000130b0       _T0                        004520b0     libsrtp-i386-win32-vc14-release-dynamic:aes.obj
 0002:000134b0       _T1                        004524b0     libsrtp-i386-win32-vc14-release-dynamic:aes.obj
 0002:000138b0       _T2                        004528b0     libsrtp-i386-win32-vc14-release-dynamic:aes.obj
 0002:00013cb0       _T3                        00452cb0     libsrtp-i386-win32-vc14-release-dynamic:aes.obj
 0002:000140b0       _U0                        004530b0     libsrtp-i386-win32-vc14-release-dynamic:aes.obj
 0002:000144b0       _U1                        004534b0     libsrtp-i386-win32-vc14-release-dynamic:aes.obj
 0002:000148b0       _U2                        004538b0     libsrtp-i386-win32-vc14-release-dynamic:aes.obj
 0002:00014cb0       _U3                        00453cb0     libsrtp-i386-win32-vc14-release-dynamic:aes.obj
 0002:000150b0       _aes_sbox                  004540b0     libsrtp-i386-win32-vc14-release-dynamic:aes.obj
 0002:000151b0       _aes_inv_sbox              004541b0     libsrtp-i386-win32-vc14-release-dynamic:aes.obj
 0002:00015360       _GS_ExceptionPointers      00454360     MSVCRT:gs_report.obj
 0002:00015370       _Int32ToUInt32             00454370     MSVCRT:_ftol3_.obj
 0002:00015378       _DP2to32                   00454378     MSVCRT:_ftol3_.obj
 0002:00015380       _MantissaMask              00454380     MSVCRT:_ftol3_.obj
 0002:00015388       _IntegerBit                00454388     MSVCRT:_ftol3_.obj
 0002:00015390       _SignBit64                 00454390     MSVCRT:_ftol3_.obj
 0002:00015398       _MinFP64                   00454398     MSVCRT:_ftol3_.obj
 0002:000153a0       _MinInt64                  004543a0     MSVCRT:_ftol3_.obj
 0002:000153a8       _MaxInt64                  004543a8     MSVCRT:_ftol3_.obj
 0002:000153b0       _MaxUInt64                 004543b0     MSVCRT:_ftol3_.obj
 0002:000153b8       _MaxFP32                   004543b8     MSVCRT:_ftol3_.obj
 0002:000153c0       _MinFP32                   004543c0     MSVCRT:_ftol3_.obj
 0002:000153c8       _MinSubInexact             004543c8     MSVCRT:_ftol3_.obj
 0002:000153d0       _FpExcptTable              004543d0     MSVCRT:_ftol3_.obj
 0002:000153e0       _i1075                     004543e0     MSVCRT:_ftol3_.obj
 0002:000153e4       _i1087                     004543e4     MSVCRT:_ftol3_.obj
 0002:000153e8       _x0800                     004543e8     MSVCRT:_ftol3_.obj
 0002:000153ec       _x17FF                     004543ec     MSVCRT:_ftol3_.obj
 0002:000153f0       _CWMask                    004543f0     MSVCRT:_ftol3_.obj
 0002:000156e8       __sehtable$?__scrt_common_main_seh@@YAHXZ 004546e8     MSVCRT:exe_main.obj
 0002:00015708       __sehtable$___scrt_is_nonwritable_in_current_image 00454708     MSVCRT:utility.obj
 0002:00015abc       .idata$6                   00454abc     ole32:ole32.dll
 0002:00015adc       .idata$6                   00454adc     ws2_32:WS2_32.dll
 0002:00015ca8       .idata$6                   00454ca8     winmm:WINMM.dll
 0002:0001600c       .idata$6                   0045500c     kernel32:KERNEL32.dll
 0002:00016066       .idata$6                   00455066     vcruntime:VCRUNTIME140.dll
 0002:000163d6       .idata$6                   004553d6     ucrt:api-ms-win-crt-stdio-l1-1-0.dll
 0002:000163f6       .idata$6                   004553f6     ucrt:api-ms-win-crt-runtime-l1-1-0.dll
 0002:00016418       .idata$6                   00455418     ucrt:api-ms-win-crt-convert-l1-1-0.dll
 0002:0001643a       .idata$6                   0045543a     ucrt:api-ms-win-crt-string-l1-1-0.dll
 0002:0001645c       .idata$6                   0045545c     ucrt:api-ms-win-crt-math-l1-1-0.dll
 0002:0001647c       .idata$6                   0045547c     ucrt:api-ms-win-crt-utility-l1-1-0.dll
 0002:0001649e       .idata$6                   0045549e     ucrt:api-ms-win-crt-heap-l1-1-0.dll
 0002:000164be       .idata$6                   004554be     ucrt:api-ms-win-crt-locale-l1-1-0.dll
 0003:00000000       $SG22572                   00456000     pcaputil.obj
 0003:0000000c       $SG22573                   0045600c     pcaputil.obj
 0003:00000018       $SG22574                   00456018     pcaputil.obj
 0003:00000024       $SG22575                   00456024     pcaputil.obj
 0003:00000030       $SG22576                   00456030     pcaputil.obj
 0003:00000038       $SG22577                   00456038     pcaputil.obj
 0003:00000040       $SG22578                   00456040     pcaputil.obj
 0003:00000048       $SG22579                   00456048     pcaputil.obj
 0003:00000050       $SG22580                   00456050     pcaputil.obj
 0003:0000005c       $SG22581                   0045605c     pcaputil.obj
 0003:00000068       $SG22582                   00456068     pcaputil.obj
 0003:00000074       $SG22583                   00456074     pcaputil.obj
 0003:00000080       $SG22584                   00456080     pcaputil.obj
 0003:00000088       $SG22585                   00456088     pcaputil.obj
 0003:00000090       $SG22586                   00456090     pcaputil.obj
 0003:0000009c       $SG22587                   0045609c     pcaputil.obj
 0003:000000a8       $SG22588                   004560a8     pcaputil.obj
 0003:000000b0       $SG22592                   004560b0     pcaputil.obj
 0003:000000c4       $SG22600                   004560c4     pcaputil.obj
 0003:000000dc       $SG22603                   004560dc     pcaputil.obj
 0003:00000110       $SG22605                   00456110     pcaputil.obj
 0003:0000011c       $SG22606                   0045611c     pcaputil.obj
 0003:00000128       $SG22608                   00456128     pcaputil.obj
 0003:0000013c       $SG22610                   0045613c     pcaputil.obj
 0003:00000178       $SG22612                   00456178     pcaputil.obj
 0003:000001a8       $SG22614                   004561a8     pcaputil.obj
 0003:000001d0       $SG19728                   004561d0     pcaputil.obj
 0003:000001e0       _USAGE                     004561e0     pcaputil.obj
 0003:000001e4       $SG22243                   004561e4     pcaputil.obj
 0003:00000200       $SG22220                   00456200     pcaputil.obj
 0003:00000874       $SG22258                   00456874     pcaputil.obj
 0003:00000884       $SG22259                   00456884     pcaputil.obj
 0003:00000890       $SG22297                   00456890     pcaputil.obj
 0003:000008c0       $SG22299                   004568c0     pcaputil.obj
 0003:000008d8       $SG22301                   004568d8     pcaputil.obj
 0003:00000900       $SG22304                   00456900     pcaputil.obj
 0003:00000934       $SG22306                   00456934     pcaputil.obj
 0003:0000095c       $SG22308                   0045695c     pcaputil.obj
 0003:0000097c       $SG22310                   0045697c     pcaputil.obj
 0003:000009a8       $SG22312                   004569a8     pcaputil.obj
 0003:000009bc       $SG22334                   004569bc     pcaputil.obj
 0003:000009dc       $SG22335                   004569dc     pcaputil.obj
 0003:000009e8       $SG2912                    004569e8     pcaputil.obj
 0003:000009fc       $SG2913                    004569fc     pcaputil.obj
 0003:00000a10       $SG22455                   00456a10     pcaputil.obj
 0003:00000a18       $SG22456                   00456a18     pcaputil.obj
 0003:00000a20       $SG22458                   00456a20     pcaputil.obj
 0003:00000a54       $SG22461                   00456a54     pcaputil.obj
 0003:00000a84       $SG22463                   00456a84     pcaputil.obj
 0003:00000ac4       $SG22465                   00456ac4     pcaputil.obj
 0003:00000b00       $SG22469                   00456b00     pcaputil.obj
 0003:00000b3c       $SG22473                   00456b3c     pcaputil.obj
 0003:00000b64       $SG22477                   00456b64     pcaputil.obj
 0003:00000b98       $SG22471                   00456b98     pcaputil.obj
 0003:00000bdc       $SG22475                   00456bdc     pcaputil.obj
 0003:00000c14       $SG22479                   00456c14     pcaputil.obj
 0003:00000c3c       $SG22481                   00456c3c     pcaputil.obj
 0003:00000c64       $SG22484                   00456c64     pcaputil.obj
 0003:00000c68       $SG22486                   00456c68     pcaputil.obj
 0003:00000c9c       $SG22490                   00456c9c     pcaputil.obj
 0003:00000cc4       $SG22495                   00456cc4     pcaputil.obj
 0003:00000cd8       $SG22488                   00456cd8     pcaputil.obj
 0003:00000d24       $SG22502                   00456d24     pcaputil.obj
 0003:00000d50       $SG22494                   00456d50     pcaputil.obj
 0003:00000df0       $SG22497                   00456df0     pcaputil.obj
 0003:00000e48       $SG22499                   00456e48     pcaputil.obj
 0003:00000e9c       $SG22505                   00456e9c     pcaputil.obj
 0003:00000eb4       $SG22512                   00456eb4     pcaputil.obj
 0003:00000ee0       $SG22509                   00456ee0     pcaputil.obj
 0003:00000f28       $SG22515                   00456f28     pcaputil.obj
 0003:00000f40       _g722_op                   00456f40     pjmedia-codec-i386-win32-vc14-release-dynamic:g722.obj
 0003:00000f60       _g722_factory_op           00456f60     pjmedia-codec-i386-win32-vc14-release-dynamic:g722.obj
 0003:00000f78       _gsm_op                    00456f78     pjmedia-codec-i386-win32-vc14-release-dynamic:gsm.obj
 0003:00000f98       _gsm_factory_op            00456f98     pjmedia-codec-i386-win32-vc14-release-dynamic:gsm.obj
 0003:00000fb0       _ilbc_op                   00456fb0     pjmedia-codec-i386-win32-vc14-release-dynamic:ilbc.obj
 0003:00000fd0       _ilbc_factory_op           00456fd0     pjmedia-codec-i386-win32-vc14-release-dynamic:ilbc.obj
 0003:00000fe8       _STR_MODE                  00456fe8     pjmedia-codec-i386-win32-vc14-release-dynamic:ilbc.obj
 0003:00000ff0       _l16_op                    00456ff0     pjmedia-codec-i386-win32-vc14-release-dynamic:l16.obj
 0003:00001010       _l16_factory_op            00457010     pjmedia-codec-i386-win32-vc14-release-dynamic:l16.obj
 0003:00001028       _spx_op                    00457028     pjmedia-codec-i386-win32-vc14-release-dynamic:speex_codec.obj
 0003:00001048       _spx_factory_op            00457048     pjmedia-codec-i386-win32-vc14-release-dynamic:speex_codec.obj
 0003:00001060       _factory_op                00457060     pjmedia-audiodev-i386-win32-vc14-release-dynamic:wmme_dev.obj
 0003:0000107c       _stream_op                 0045707c     pjmedia-audiodev-i386-win32-vc14-release-dynamic:wmme_dev.obj
 0003:00001098       _cap_infos                 00457098     pjmedia-i386-win32-vc14-release-dynamic:audiodev.obj
 0003:00001110       _transport_udp_op          00457110     pjmedia-i386-win32-vc14-release-dynamic:transport_loop.obj
 0003:00001148       _crypto_suites             00457148     pjmedia-i386-win32-vc14-release-dynamic:transport_srtp.obj
 0003:00001224       _transport_srtp_op         00457224     pjmedia-i386-win32-vc14-release-dynamic:transport_srtp.obj
 0003:00001258       _sdes_op                   00457258     pjmedia-i386-win32-vc14-release-dynamic:transport_srtp.obj
 0003:00001290       ?liberr@?1??get_libsrtp_errstr@@9@9 00457290     pjmedia-i386-win32-vc14-release-dynamic:transport_srtp.obj
 0003:000012f4       _g711_op                   004572f4     pjmedia-i386-win32-vc14-release-dynamic:g711.obj
 0003:00001314       _g711_factory_op           00457314     pjmedia-i386-win32-vc14-release-dynamic:g711.obj
 0003:0000132c       _plc_wsola                 0045732c     pjmedia-i386-win32-vc14-release-dynamic:plc_common.obj
 0003:00001340       _thread_tls_id             00457340     pjlib-i386-win32-vc14-release-dynamic:os_core_win32.obj
 0003:00001344       _thread_suspended_tls_id   00457344     pjlib-i386-win32-vc14-release-dynamic:log.obj
 0003:00001348       _thread_indent_tls_id      00457348     pjlib-i386-win32-vc14-release-dynamic:log.obj
 0003:0000134c       _pj_log_max_level          0045734c     pjlib-i386-win32-vc14-release-dynamic:log.obj
 0003:00001350       _log_writer                00457350     pjlib-i386-win32-vc14-release-dynamic:log.obj
 0003:00001354       _log_decor                 00457354     pjlib-i386-win32-vc14-release-dynamic:log.obj
 0003:00001358       _PJ_LOG_COLOR_0            00457358     pjlib-i386-win32-vc14-release-dynamic:log.obj
 0003:0000135c       _PJ_LOG_COLOR_1            0045735c     pjlib-i386-win32-vc14-release-dynamic:log.obj
 0003:00001360       _PJ_LOG_COLOR_2            00457360     pjlib-i386-win32-vc14-release-dynamic:log.obj
 0003:00001364       _PJ_LOG_COLOR_3            00457364     pjlib-i386-win32-vc14-release-dynamic:log.obj
 0003:00001368       _PJ_LOG_COLOR_4            00457368     pjlib-i386-win32-vc14-release-dynamic:log.obj
 0003:0000136c       _PJ_LOG_COLOR_5            0045736c     pjlib-i386-win32-vc14-release-dynamic:log.obj
 0003:00001370       _PJ_LOG_COLOR_6            00457370     pjlib-i386-win32-vc14-release-dynamic:log.obj
 0003:00001374       _PJ_LOG_COLOR_77           00457374     pjlib-i386-win32-vc14-release-dynamic:log.obj
 0003:00001378       ?ltexts@?2??pj_log@@9@9    00457378     pjlib-i386-win32-vc14-release-dynamic:log.obj
 0003:00001394       ?wdays@?3??pj_log@@9@9     00457394     pjlib-i386-win32-vc14-release-dynamic:log.obj
 0003:000013b0       _pool_sizes                004573b0     pjlib-i386-win32-vc14-release-dynamic:pool_caching.obj
 0003:000013f0       _mutex_lock_template       004573f0     pjlib-i386-win32-vc14-release-dynamic:lock.obj
 0003:00001404       _null_lock_template        00457404     pjlib-i386-win32-vc14-release-dynamic:lock.obj
 0003:00001418       _sem_lock_template         00457418     pjlib-i386-win32-vc14-release-dynamic:lock.obj
 0003:0000142c       _thread_local_id           0045742c     pjlib-i386-win32-vc14-release-dynamic:except.obj
 0003:00001430       ?hex@?1??hex2digit@@9@9    00457430     pjlib-i386-win32-vc14-release-dynamic:guid_win32.obj
 0003:00001444       _id                        00457444     pjlib-i386-win32-vc14-release-dynamic:config.obj
 0003:00001448       _tls                       00457448     pjlib-i386-win32-vc14-release-dynamic:pool_buf.obj
 0003:00003158       ?eps@?1??LSF_check@@9@9    00459158     libilbccodec-i386-win32-vc14-release-dynamic:helpfun.obj
 0003:0000315c       ?eps2@?1??LSF_check@@9@9   0045915c     libilbccodec-i386-win32-vc14-release-dynamic:helpfun.obj
 0003:00003160       ?maxlsf@?1??LSF_check@@9@9 00459160     libilbccodec-i386-win32-vc14-release-dynamic:helpfun.obj
 0003:00003164       ?minlsf@?1??LSF_check@@9@9 00459164     libilbccodec-i386-win32-vc14-release-dynamic:helpfun.obj
 0003:00003170       _srtp_event_handler        00459170     libsrtp-i386-win32-vc14-release-dynamic:srtp.obj
 0003:00003600       _app                       00459600     pcaputil.obj
 0003:0000381c       _play_frm_copied           0045981c     pcaputil.obj
 0003:00003820       _play_frm_ready            00459820     pcaputil.obj
 0003:00003824       _g722_codec_factory        00459824     pjmedia-codec-i386-win32-vc14-release-dynamic:g722.obj
 0003:00003858       _gsm_codec_factory         00459858     pjmedia-codec-i386-win32-vc14-release-dynamic:gsm.obj
 0003:00003888       _ilbc_factory              00459888     pjmedia-codec-i386-win32-vc14-release-dynamic:ilbc.obj
 0003:000038a4       _l16_factory               004598a4     pjmedia-codec-i386-win32-vc14-release-dynamic:l16.obj
 0003:000038c0       _spx_factory               004598c0     pjmedia-codec-i386-win32-vc14-release-dynamic:speex_codec.obj
 0003:00003968       ?name@?1??get_fmt_name@@9@9 00459968     pjmedia-audiodev-i386-win32-vc14-release-dynamic:wmme_dev.obj
 0003:00003970       ?rec_cnt@?1??wmme_dev_thread@@9@9 00459970     pjmedia-audiodev-i386-win32-vc14-release-dynamic:wmme_dev.obj
 0003:00003974       ?play_cnt@?1??wmme_dev_thread@@9@9 00459974     pjmedia-audiodev-i386-win32-vc14-release-dynamic:wmme_dev.obj
 0003:00003978       _aud_subsys                00459978     pjmedia-i386-win32-vc14-release-dynamic:audiodev.obj
 0003:00003e48       ?msg@?3??get_libsrtp_errstr@@9@9 00459e48     pjmedia-i386-win32-vc14-release-dynamic:transport_srtp.obj
 0003:00003e68       _libsrtp_initialized       00459e68     pjmedia-i386-win32-vc14-release-dynamic:transport_srtp.obj
 0003:00003e6c       _g711_factory              00459e6c     pjmedia-i386-win32-vc14-release-dynamic:g711.obj
 0003:00003ea0       _event_manager_instance    00459ea0     pjmedia-i386-win32-vc14-release-dynamic:event.obj
 0003:00003ea8       ?ev_queue@?9??pjmedia_event_publish@@9@9 00459ea8     pjmedia-i386-win32-vc14-release-dynamic:event.obj
 0003:00004338       _is_initialized            0045a338     pjmedia-i386-win32-vc14-release-dynamic:sdp.obj
 0003:00004340       _cis_buf                   0045a340     pjmedia-i386-win32-vc14-release-dynamic:sdp.obj
 0003:00004744       _cs_digit                  0045a744     pjmedia-i386-win32-vc14-release-dynamic:sdp.obj
 0003:0000474c       _cs_token                  0045a74c     pjmedia-i386-win32-vc14-release-dynamic:sdp.obj
 0003:00004758       ___getopt_initialized      0045a758     pjlib-util-i386-win32-vc14-release-dynamic:getopt.obj
 0003:0000475c       _nextchar                  0045a75c     pjlib-util-i386-win32-vc14-release-dynamic:getopt.obj
 0003:00004760       _ordering                  0045a760     pjlib-util-i386-win32-vc14-release-dynamic:getopt.obj
 0003:00004764       _posixly_correct           0045a764     pjlib-util-i386-win32-vc14-release-dynamic:getopt.obj
 0003:00004768       _first_nonopt              0045a768     pjlib-util-i386-win32-vc14-release-dynamic:getopt.obj
 0003:0000476c       _last_nonopt               0045a76c     pjlib-util-i386-win32-vc14-release-dynamic:getopt.obj
 0003:00004770       _initialized               0045a770     pjlib-i386-win32-vc14-release-dynamic:os_core_win32.obj
 0003:00004774       _atexit_count              0045a774     pjlib-i386-win32-vc14-release-dynamic:os_core_win32.obj
 0003:00004778       _main_thread               0045a778     pjlib-i386-win32-vc14-release-dynamic:os_core_win32.obj
 0003:00004878       _critical_section_mutex    0045a878     pjlib-i386-win32-vc14-release-dynamic:os_core_win32.obj
 0003:000048b0       _atexit_func               0045a8b0     pjlib-i386-win32-vc14-release-dynamic:os_core_win32.obj
 0003:00004930       ?buf@?1??pj_gethostname@@9@9 0045a930     pjlib-i386-win32-vc14-release-dynamic:sock_bsd.obj
 0003:000049b0       ?hostname@?1??pj_gethostname@@9@9 0045a9b0     pjlib-i386-win32-vc14-release-dynamic:sock_bsd.obj
 0003:000049b8       _err_msg_hnd_cnt           0045a9b8     pjlib-i386-win32-vc14-release-dynamic:errno.obj
 0003:000049c0       _err_msg_hnd               0045a9c0     pjlib-i386-win32-vc14-release-dynamic:errno.obj
 0003:00004a38       _g_last_thread             0045aa38     pjlib-i386-win32-vc14-release-dynamic:log.obj
 0003:00004a40       _base_time                 0045aa40     pjlib-i386-win32-vc14-release-dynamic:os_time_win32.obj
 0003:00004a48       _exception_id_names        0045aa48     pjlib-i386-win32-vc14-release-dynamic:except.obj
 0003:00004a88       ?unknown_name@?1??pj_exception_id_name@@9@9 0045aa88     pjlib-i386-win32-vc14-release-dynamic:except.obj
 0003:00004aa8       _s_hDLL                    0045aaa8     pjlib-i386-win32-vc14-release-dynamic:ip_helper_win32.obj
 0003:00004aac       _s_pfnGetIpAddrTable       0045aaac     pjlib-i386-win32-vc14-release-dynamic:ip_helper_win32.obj
 0003:00004ab0       _s_pfnGetAdapterAddresses  0045aab0     pjlib-i386-win32-vc14-release-dynamic:ip_helper_win32.obj
 0003:00004ab4       _s_pfnGetIpForwardTable    0045aab4     pjlib-i386-win32-vc14-release-dynamic:ip_helper_win32.obj
 0003:00004ab8       _s_pfnGetIfEntry           0045aab8     pjlib-i386-win32-vc14-release-dynamic:ip_helper_win32.obj
 0003:00004abc       _stack_based_factory       0045aabc     pjlib-i386-win32-vc14-release-dynamic:pool_buf.obj
 0003:00004ae0       _is_initialized            0045aae0     pjlib-i386-win32-vc14-release-dynamic:pool_buf.obj
 0003:00004ae4       _srtp_log_handler          0045aae4     libsrtp-i386-win32-vc14-release-dynamic:srtp.obj
 0003:00004ae8       _srtp_log_handler_data     0045aae8     libsrtp-i386-win32-vc14-release-dynamic:srtp.obj
 0003:00004b00       _srtp_aes_icm_128_test_case_0_nonce 0045ab00     libsrtp-i386-win32-vc14-release-dynamic:aes_icm.obj
 0003:00004b10       _srtp_aes_icm_256_test_case_0_nonce 0045ab10     libsrtp-i386-win32-vc14-release-dynamic:aes_icm.obj
 0003:00004b20       _GS_ExceptionRecord        0045ab20     MSVCRT:gs_report.obj
 0003:00004b70       _GS_ContextRecord          0045ab70     MSVCRT:gs_report.obj
 0003:00004e4c       ?module_local_atexit_table@@3U_onexit_table_t@@A 0045ae4c     MSVCRT:utility.obj
 0003:00004e58       ?module_local_at_quick_exit_table@@3U_onexit_table_t@@A 0045ae58     MSVCRT:utility.obj
 0003:00004e64       ?is_initialized_as_dll@@3_NA 0045ae64     MSVCRT:utility.obj
 0004:00000000       __guard_fids__             0045c000     MSVCRT:exe_main.obj
 0004:00000004       __guard_fids__             0045c004     MSVCRT:exe_main.obj
 0004:00000008       __guard_fids__             0045c008     MSVCRT:exe_main.obj
 0004:0000000c       __guard_fids_?pre_c_initialization@@YAHXZ 0045c00c     MSVCRT:exe_main.obj
 0004:00000014       __guard_fids____scrt_set_unhandled_exception_filter 0045c014     MSVCRT:utility_desktop.obj
 0004:00000018       __guard_fids___except_handler4 0045c018     MSVCRT:_chandler4gs_.obj
 0004:0000001c       __guard_fids__             0045c01c     MSVCRT:guard_support.obj
 0005:00000000       _static_const_table        0045d000     MSVCRT:_svml_dcos2_sse2_.obj
 0005:00000200       __e02PI                    0045d200     MSVCRT:_svml_dtrig_.obj
 0005:000003a0       __e04PI                    0045d3a0     MSVCRT:_svml_dtrig_.obj
 0005:00000530       _2il0floatpacket_2         0045d530     MSVCRT:_svml_dtrig_.obj
 0005:00000540       _2il0floatpacket_9         0045d540     MSVCRT:_svml_dtrig_.obj
 0005:00000550       _2il0floatpacket_12        0045d550     MSVCRT:_svml_dtrig_.obj
 0005:00000560       __dPI02                    0045d560     MSVCRT:_svml_dtrig_.obj
 0005:00000570       __d02PI                    0045d570     MSVCRT:_svml_dtrig_.obj
 0005:00000580       __DP4                      0045d580     MSVCRT:_svml_dtrig_.obj
 0005:000005a0       __dPI04                    0045d5a0     MSVCRT:_svml_dtrig_.obj
 0005:000005b0       __d04PI                    0045d5b0     MSVCRT:_svml_dtrig_.obj
 0005:000005c0       __QP4                      0045d5c0     MSVCRT:_svml_dtrig_.obj
