 sipecho

 Timestamp is 5e5eb1ba (Tue Mar  3 15:36:26 2020)

 Preferred load address is 00400000

 Start         Length     Name                   Class
 0001:00000000 0003527aH .text$mn                CODE
 0002:00000000 00000210H .idata$5                DATA
 0002:00000210 00000004H .00cfg                  DATA
 0002:00000214 00000004H .CRT$XCA                DATA
 0002:00000218 00000004H .CRT$XCAA               DATA
 0002:0000021c 00000004H .CRT$XCZ                DATA
 0002:00000220 00000004H .CRT$XIA                DATA
 0002:00000224 00000004H .CRT$XIAA               DATA
 0002:00000228 00000004H .CRT$XIAC               DATA
 0002:0000022c 00000004H .CRT$XIZ                DATA
 0002:00000230 00000004H .CRT$XPA                DATA
 0002:00000234 00000004H .CRT$XPZ                DATA
 0002:00000238 00000004H .CRT$XTA                DATA
 0002:0000023c 00000004H .CRT$XTZ                DATA
 0002:00000240 000073a0H .rdata                  DATA
 0002:000075e0 00000004H .rdata$sxdata           DATA
 0002:000075e4 00000240H .rdata$zzzdbg           DATA
 0002:00007824 00000004H .rtc$IAA                DATA
 0002:00007828 00000004H .rtc$IZZ                DATA
 0002:0000782c 00000004H .rtc$TAA                DATA
 0002:00007830 00000008H .rtc$TZZ                DATA
 0002:00007838 0000003cH .xdata$x                DATA
 0002:00007874 00000000H .edata                  DATA
 0002:00007874 000000f0H .idata$2                DATA
 0002:00007964 00000014H .idata$3                DATA
 0002:00007978 00000210H .idata$4                DATA
 0002:00007b88 000007c2H .idata$6                DATA
 0003:00000000 000011c8H .data                   DATA
 0003:000011c8 000042f8H .bss                    DATA
 0004:00000000 00000020H .gfids$y                DATA

  Address         Publics by Value              Rva+Base       Lib:Object

 0000:00000000       ___guard_fids_count        00000000     <absolute>
 0000:00000000       ___guard_longjmp_count     00000000     <absolute>
 0000:00000000       ___guard_fids_table        00000000     <absolute>
 0000:00000000       ___dynamic_value_reloc_table 00000000     <absolute>
 0000:00000000       ___guard_longjmp_table     00000000     <absolute>
 0000:00000000       ___guard_iat_table         00000000     <absolute>
 0000:00000000       ___guard_iat_count         00000000     <absolute>
 0000:00000001       ___safe_se_handler_count   00000001     <absolute>
 0000:00000100       ___guard_flags             00000100     <absolute>
 0000:00000000       ___ImageBase               00400000     <linker-defined>
 0001:000000d0       _get_snd_options           004010d0 f   sipecho.obj
 0001:000004c0       _dump_pool_usage           004014c0 f   sipecho.obj
 0001:000011b0       _main                      004021b0 f   sipecho.obj
 0001:000015e0       ___local_stdio_printf_options 004025e0 f i sipecho.obj
 0001:000015f0       _printf                    004025f0 f i sipecho.obj
 0001:00001620       _sprintf                   00402620 f i sipecho.obj
 0001:00001710       __matherr                  00402710 f   MSVCRT:matherr.obj
 0001:00001710       __get_startup_commit_mode  00402710 f   MSVCRT:commit_mode.obj
 0001:00001710       __get_startup_new_mode     00402710 f   MSVCRT:new_mode.obj
 0001:00001710       ___scrt_initialize_winrt   00402710 f   MSVCRT:utility_desktop.obj
 0001:00001710       __get_startup_thread_locale_mode 00402710 f   MSVCRT:thread_locale.obj
 0001:00002f20       __snprintf                 00403f20 f i pjsip-ua-i386-win32-vc14-release-dynamic:sip_inv.obj
 0001:000049b0       _pjsip_create_sdp_body     004059b0 f   pjsip-ua-i386-win32-vc14-release-dynamic:sip_inv.obj
 0001:00004a30       _pjsip_inv_add_ref         00405a30 f   pjsip-ua-i386-win32-vc14-release-dynamic:sip_inv.obj
 0001:00004a60       _pjsip_inv_answer          00405a60 f   pjsip-ua-i386-win32-vc14-release-dynamic:sip_inv.obj
 0001:00004b70       _pjsip_inv_cancel_reinvite 00405b70 f   pjsip-ua-i386-win32-vc14-release-dynamic:sip_inv.obj
 0001:00004c30       _pjsip_inv_create_ack      00405c30 f   pjsip-ua-i386-win32-vc14-release-dynamic:sip_inv.obj
 0001:00004d00       _pjsip_inv_create_uac      00405d00 f   pjsip-ua-i386-win32-vc14-release-dynamic:sip_inv.obj
 0001:00004ea0       _pjsip_inv_create_uas      00405ea0 f   pjsip-ua-i386-win32-vc14-release-dynamic:sip_inv.obj
 0001:000050f0       _pjsip_inv_end_session     004060f0 f   pjsip-ua-i386-win32-vc14-release-dynamic:sip_inv.obj
 0001:00005270       _pjsip_inv_initial_answer  00406270 f   pjsip-ua-i386-win32-vc14-release-dynamic:sip_inv.obj
 0001:000053b0       _pjsip_inv_invite          004063b0 f   pjsip-ua-i386-win32-vc14-release-dynamic:sip_inv.obj
 0001:00005610       _pjsip_inv_process_redirect 00406610 f   pjsip-ua-i386-win32-vc14-release-dynamic:sip_inv.obj
 0001:00005940       _pjsip_inv_send_msg        00406940 f   pjsip-ua-i386-win32-vc14-release-dynamic:sip_inv.obj
 0001:00005ae0       _pjsip_inv_set_sdp_answer  00406ae0 f   pjsip-ua-i386-win32-vc14-release-dynamic:sip_inv.obj
 0001:00005b30       _pjsip_inv_state_name      00406b30 f   pjsip-ua-i386-win32-vc14-release-dynamic:sip_inv.obj
 0001:00005b50       _pjsip_inv_uac_restart     00406b50 f   pjsip-ua-i386-win32-vc14-release-dynamic:sip_inv.obj
 0001:00005bc0       _pjsip_inv_update          00406bc0 f   pjsip-ua-i386-win32-vc14-release-dynamic:sip_inv.obj
 0001:00005dd0       _pjsip_inv_usage_init      00406dd0 f   pjsip-ua-i386-win32-vc14-release-dynamic:sip_inv.obj
 0001:00005e30       _pjsip_rdata_get_sdp_info  00406e30 f   pjsip-ua-i386-win32-vc14-release-dynamic:sip_inv.obj
 0001:00006600       _pjsip_100rel_attach       00407600 f   pjsip-ua-i386-win32-vc14-release-dynamic:sip_100rel.obj
 0001:00006670       _pjsip_100rel_create_prack 00407670 f   pjsip-ua-i386-win32-vc14-release-dynamic:sip_100rel.obj
 0001:00006960       _pjsip_100rel_end_session  00407960 f   pjsip-ua-i386-win32-vc14-release-dynamic:sip_100rel.obj
 0001:000069c0       _pjsip_100rel_init_module  004079c0 f   pjsip-ua-i386-win32-vc14-release-dynamic:sip_100rel.obj
 0001:000069f0       _pjsip_100rel_is_reliable  004079f0 f   pjsip-ua-i386-win32-vc14-release-dynamic:sip_100rel.obj
 0001:00006a40       _pjsip_100rel_on_rx_prack  00407a40 f   pjsip-ua-i386-win32-vc14-release-dynamic:sip_100rel.obj
 0001:00006c20       _pjsip_100rel_send_prack   00407c20 f   pjsip-ua-i386-win32-vc14-release-dynamic:sip_100rel.obj
 0001:00006c60       _pjsip_100rel_tx_response  00407c60 f   pjsip-ua-i386-win32-vc14-release-dynamic:sip_100rel.obj
 0001:00007440       _pjsip_sess_expires_hdr_create 00408440 f   pjsip-ua-i386-win32-vc14-release-dynamic:sip_timer.obj
 0001:000074a0       _pjsip_timer_end_session   004084a0 f   pjsip-ua-i386-win32-vc14-release-dynamic:sip_timer.obj
 0001:000074d0       _pjsip_timer_handle_refresh_error 004084d0 f   pjsip-ua-i386-win32-vc14-release-dynamic:sip_timer.obj
 0001:00007660       _pjsip_timer_init_session  00408660 f   pjsip-ua-i386-win32-vc14-release-dynamic:sip_timer.obj
 0001:000076f0       _pjsip_timer_process_req   004086f0 f   pjsip-ua-i386-win32-vc14-release-dynamic:sip_timer.obj
 0001:00007900       _pjsip_timer_process_resp  00408900 f   pjsip-ua-i386-win32-vc14-release-dynamic:sip_timer.obj
 0001:00007ce0       _pjsip_timer_update_req    00408ce0 f   pjsip-ua-i386-win32-vc14-release-dynamic:sip_timer.obj
 0001:00007d70       _pjsip_timer_update_resp   00408d70 f   pjsip-ua-i386-win32-vc14-release-dynamic:sip_timer.obj
 0001:000099c0       _pjsip_accept_hdr_create   0040a9c0 f   pjsip-core-i386-win32-vc14-release-dynamic:sip_msg.obj
 0001:00009a10       _pjsip_allow_hdr_create    0040aa10 f   pjsip-core-i386-win32-vc14-release-dynamic:sip_msg.obj
 0001:00009a60       _pjsip_cid_hdr_create      0040aa60 f   pjsip-core-i386-win32-vc14-release-dynamic:sip_msg.obj
 0001:00009ad0       _pjsip_clen_hdr_create     0040aad0 f   pjsip-core-i386-win32-vc14-release-dynamic:sip_msg.obj
 0001:00009b30       _pjsip_clone_text_data     0040ab30 f   pjsip-core-i386-win32-vc14-release-dynamic:sip_msg.obj
 0001:00009b70       _pjsip_contact_hdr_create  0040ab70 f   pjsip-core-i386-win32-vc14-release-dynamic:sip_msg.obj
 0001:00009b90       _pjsip_contact_hdr_init    0040ab90 f   pjsip-core-i386-win32-vc14-release-dynamic:sip_msg.obj
 0001:00009c00       _pjsip_cseq_hdr_create     0040ac00 f   pjsip-core-i386-win32-vc14-release-dynamic:sip_msg.obj
 0001:00009c60       _pjsip_ctype_hdr_create    0040ac60 f   pjsip-core-i386-win32-vc14-release-dynamic:sip_msg.obj
 0001:00009c80       _pjsip_ctype_hdr_init      0040ac80 f   pjsip-core-i386-win32-vc14-release-dynamic:sip_msg.obj
 0001:00009cf0       _pjsip_expires_hdr_create  0040acf0 f   pjsip-core-i386-win32-vc14-release-dynamic:sip_msg.obj
 0001:00009d40       _pjsip_from_hdr_create     0040ad40 f   pjsip-core-i386-win32-vc14-release-dynamic:sip_msg.obj
 0001:00009d60       _pjsip_from_hdr_init       0040ad60 f   pjsip-core-i386-win32-vc14-release-dynamic:sip_msg.obj
 0001:00009dd0       _pjsip_fromto_hdr_set_from 0040add0 f   pjsip-core-i386-win32-vc14-release-dynamic:sip_msg.obj
 0001:00009e00       _pjsip_fromto_hdr_set_to   0040ae00 f   pjsip-core-i386-win32-vc14-release-dynamic:sip_msg.obj
 0001:00009e30       _pjsip_generic_array_hdr_init 0040ae30 f   pjsip-core-i386-win32-vc14-release-dynamic:sip_msg.obj
 0001:00009ea0       _pjsip_generic_string_hdr_create 0040aea0 f   pjsip-core-i386-win32-vc14-release-dynamic:sip_msg.obj
 0001:00009f10       _pjsip_generic_string_hdr_init2 0040af10 f   pjsip-core-i386-win32-vc14-release-dynamic:sip_msg.obj
 0001:00009f90       _pjsip_get_ack_method      0040af90 f   pjsip-core-i386-win32-vc14-release-dynamic:sip_msg.obj
 0001:00009fa0       _pjsip_get_bye_method      0040afa0 f   pjsip-core-i386-win32-vc14-release-dynamic:sip_msg.obj
 0001:00009fb0       _pjsip_get_cancel_method   0040afb0 f   pjsip-core-i386-win32-vc14-release-dynamic:sip_msg.obj
 0001:00009fc0       _pjsip_get_invite_method   0040afc0 f   pjsip-core-i386-win32-vc14-release-dynamic:sip_msg.obj
 0001:00009fd0       _pjsip_get_status_text     0040afd0 f   pjsip-core-i386-win32-vc14-release-dynamic:sip_msg.obj
 0001:0000a010       _pjsip_hdr_clone           0040b010 f   pjsip-core-i386-win32-vc14-release-dynamic:sip_msg.obj
 0001:0000a030       _pjsip_hdr_print_on        0040b030 f   pjsip-core-i386-win32-vc14-release-dynamic:sip_msg.obj
 0001:0000a050       _pjsip_hdr_shallow_clone   0040b050 f   pjsip-core-i386-win32-vc14-release-dynamic:sip_msg.obj
 0001:0000a070       _pjsip_max_fwd_hdr_create  0040b070 f   pjsip-core-i386-win32-vc14-release-dynamic:sip_msg.obj
 0001:0000a0c0       _pjsip_media_type_cmp      0040b0c0 f   pjsip-core-i386-win32-vc14-release-dynamic:sip_msg.obj
 0001:0000a120       _pjsip_media_type_cp       0040b120 f   pjsip-core-i386-win32-vc14-release-dynamic:sip_msg.obj
 0001:0000a170       _pjsip_media_type_init     0040b170 f   pjsip-core-i386-win32-vc14-release-dynamic:sip_msg.obj
 0001:0000a1c0       _pjsip_media_type_init2    0040b1c0 f   pjsip-core-i386-win32-vc14-release-dynamic:sip_msg.obj
 0001:0000a230       _pjsip_media_type_print    0040b230 f   pjsip-core-i386-win32-vc14-release-dynamic:sip_msg.obj
 0001:0000a240       _pjsip_method_cmp          0040b240 f   pjsip-core-i386-win32-vc14-release-dynamic:sip_msg.obj
 0001:0000a280       _pjsip_method_copy         0040b280 f   pjsip-core-i386-win32-vc14-release-dynamic:sip_msg.obj
 0001:0000a2c0       _pjsip_method_init_np      0040b2c0 f   pjsip-core-i386-win32-vc14-release-dynamic:sip_msg.obj
 0001:0000a330       _pjsip_min_expires_hdr_create 0040b330 f   pjsip-core-i386-win32-vc14-release-dynamic:sip_msg.obj
 0001:0000a380       _pjsip_msg_body_clone      0040b380 f   pjsip-core-i386-win32-vc14-release-dynamic:sip_msg.obj
 0001:0000a3c0       _pjsip_msg_body_copy       0040b3c0 f   pjsip-core-i386-win32-vc14-release-dynamic:sip_msg.obj
 0001:0000a440       _pjsip_msg_create          0040b440 f   pjsip-core-i386-win32-vc14-release-dynamic:sip_msg.obj
 0001:0000a470       _pjsip_msg_find_hdr        0040b470 f   pjsip-core-i386-win32-vc14-release-dynamic:sip_msg.obj
 0001:0000a4a0       _pjsip_msg_find_hdr_by_name 0040b4a0 f   pjsip-core-i386-win32-vc14-release-dynamic:sip_msg.obj
 0001:0000a4f0       _pjsip_msg_find_hdr_by_names 0040b4f0 f   pjsip-core-i386-win32-vc14-release-dynamic:sip_msg.obj
 0001:0000a550       _pjsip_msg_print           0040b550 f   pjsip-core-i386-win32-vc14-release-dynamic:sip_msg.obj
 0001:0000a860       _pjsip_print_text_body     0040b860 f   pjsip-core-i386-win32-vc14-release-dynamic:sip_msg.obj
 0001:0000a890       _pjsip_require_hdr_create  0040b890 f   pjsip-core-i386-win32-vc14-release-dynamic:sip_msg.obj
 0001:0000a8e0       _pjsip_retry_after_hdr_create 0040b8e0 f   pjsip-core-i386-win32-vc14-release-dynamic:sip_msg.obj
 0001:0000a940       _pjsip_route_hdr_create    0040b940 f   pjsip-core-i386-win32-vc14-release-dynamic:sip_msg.obj
 0001:0000a9a0       _pjsip_routing_hdr_set_route 0040b9a0 f   pjsip-core-i386-win32-vc14-release-dynamic:sip_msg.obj
 0001:0000a9d0       _pjsip_rr_hdr_create       0040b9d0 f   pjsip-core-i386-win32-vc14-release-dynamic:sip_msg.obj
 0001:0000aa30       _pjsip_supported_hdr_create 0040ba30 f   pjsip-core-i386-win32-vc14-release-dynamic:sip_msg.obj
 0001:0000aaa0       _pjsip_to_hdr_create       0040baa0 f   pjsip-core-i386-win32-vc14-release-dynamic:sip_msg.obj
 0001:0000aac0       _pjsip_to_hdr_init         0040bac0 f   pjsip-core-i386-win32-vc14-release-dynamic:sip_msg.obj
 0001:0000ab30       _pjsip_unsupported_hdr_create 0040bb30 f   pjsip-core-i386-win32-vc14-release-dynamic:sip_msg.obj
 0001:0000ab80       _pjsip_via_hdr_create      0040bb80 f   pjsip-core-i386-win32-vc14-release-dynamic:sip_msg.obj
 0001:0000aba0       _pjsip_via_hdr_init        0040bba0 f   pjsip-core-i386-win32-vc14-release-dynamic:sip_msg.obj
 0001:0000ac20       _pjsip_warning_hdr_create  0040bc20 f   pjsip-core-i386-win32-vc14-release-dynamic:sip_msg.obj
 0001:0000acc0       _pjsip_warning_hdr_create_from_status 0040bcc0 f   pjsip-core-i386-win32-vc14-release-dynamic:sip_msg.obj
 0001:0000afc0       _pjsip_rx_data_get_info    0040bfc0 f   pjsip-core-i386-win32-vc14-release-dynamic:sip_transport.obj
 0001:0000b050       _pjsip_tpmgr_acquire_transport2 0040c050 f   pjsip-core-i386-win32-vc14-release-dynamic:sip_transport.obj
 0001:0000b340       _pjsip_tpmgr_create        0040c340 f   pjsip-core-i386-win32-vc14-release-dynamic:sip_transport.obj
 0001:0000b490       _pjsip_tpmgr_destroy       0040c490 f   pjsip-core-i386-win32-vc14-release-dynamic:sip_transport.obj
 0001:0000b5b0       _pjsip_tpmgr_get_state_cb  0040c5b0 f   pjsip-core-i386-win32-vc14-release-dynamic:sip_transport.obj
 0001:0000b620       _pjsip_tpmgr_receive_packet 0040c620 f   pjsip-core-i386-win32-vc14-release-dynamic:sip_transport.obj
 0001:0000bbc0       _pjsip_tpmgr_register_tpfactory 0040cbc0 f   pjsip-core-i386-win32-vc14-release-dynamic:sip_transport.obj
 0001:0000bc20       _pjsip_tpmgr_unregister_tpfactory 0040cc20 f   pjsip-core-i386-win32-vc14-release-dynamic:sip_transport.obj
 0001:0000bc50       _pjsip_tpselector_add_ref  0040cc50 f   pjsip-core-i386-win32-vc14-release-dynamic:sip_transport.obj
 0001:0000bc70       _pjsip_tpselector_dec_ref  0040cc70 f   pjsip-core-i386-win32-vc14-release-dynamic:sip_transport.obj
 0001:0000bc90       _pjsip_transport_add_ref   0040cc90 f   pjsip-core-i386-win32-vc14-release-dynamic:sip_transport.obj
 0001:0000bd80       _pjsip_transport_add_state_listener 0040cd80 f   pjsip-core-i386-win32-vc14-release-dynamic:sip_transport.obj
 0001:0000be60       _pjsip_transport_dec_ref   0040ce60 f   pjsip-core-i386-win32-vc14-release-dynamic:sip_transport.obj
 0001:0000bfb0       _pjsip_transport_destroy   0040cfb0 f   pjsip-core-i386-win32-vc14-release-dynamic:sip_transport.obj
 0001:0000c020       _pjsip_transport_get_default_port_for_type 0040d020 f   pjsip-core-i386-win32-vc14-release-dynamic:sip_transport.obj
 0001:0000c060       _pjsip_transport_get_flag_from_type 0040d060 f   pjsip-core-i386-win32-vc14-release-dynamic:sip_transport.obj
 0001:0000c0a0       _pjsip_transport_get_type_desc 0040d0a0 f   pjsip-core-i386-win32-vc14-release-dynamic:sip_transport.obj
 0001:0000c0e0       _pjsip_transport_get_type_from_flag 0040d0e0 f   pjsip-core-i386-win32-vc14-release-dynamic:sip_transport.obj
 0001:0000c120       _pjsip_transport_get_type_from_name 0040d120 f   pjsip-core-i386-win32-vc14-release-dynamic:sip_transport.obj
 0001:0000c180       _pjsip_transport_get_type_name 0040d180 f   pjsip-core-i386-win32-vc14-release-dynamic:sip_transport.obj
 0001:0000c1c0       _pjsip_transport_register  0040d1c0 f   pjsip-core-i386-win32-vc14-release-dynamic:sip_transport.obj
 0001:0000c2d0       _pjsip_transport_remove_state_listener 0040d2d0 f   pjsip-core-i386-win32-vc14-release-dynamic:sip_transport.obj
 0001:0000c370       _pjsip_transport_send      0040d370 f   pjsip-core-i386-win32-vc14-release-dynamic:sip_transport.obj
 0001:0000c4d0       _pjsip_transport_shutdown  0040d4d0 f   pjsip-core-i386-win32-vc14-release-dynamic:sip_transport.obj
 0001:0000c4f0       _pjsip_transport_shutdown2 0040d4f0 f   pjsip-core-i386-win32-vc14-release-dynamic:sip_transport.obj
 0001:0000c600       _pjsip_transport_type_get_af 0040d600 f   pjsip-core-i386-win32-vc14-release-dynamic:sip_transport.obj
 0001:0000c620       _pjsip_tx_data_add_ref     0040d620 f   pjsip-core-i386-win32-vc14-release-dynamic:sip_transport.obj
 0001:0000c640       _pjsip_tx_data_clone       0040d640 f   pjsip-core-i386-win32-vc14-release-dynamic:sip_transport.obj
 0001:0000c780       _pjsip_tx_data_create      0040d780 f   pjsip-core-i386-win32-vc14-release-dynamic:sip_transport.obj
 0001:0000c890       _pjsip_tx_data_dec_ref     0040d890 f   pjsip-core-i386-win32-vc14-release-dynamic:sip_transport.obj
 0001:0000c8d0       _pjsip_tx_data_encode      0040d8d0 f   pjsip-core-i386-win32-vc14-release-dynamic:sip_transport.obj
 0001:0000c9c0       _pjsip_tx_data_get_info    0040d9c0 f   pjsip-core-i386-win32-vc14-release-dynamic:sip_transport.obj
 0001:0000ca20       _pjsip_tx_data_invalidate_msg 0040da20 f   pjsip-core-i386-win32-vc14-release-dynamic:sip_transport.obj
 0001:0000ca40       _pjsip_tx_data_set_transport 0040da40 f   pjsip-core-i386-win32-vc14-release-dynamic:sip_transport.obj
 0001:0000cf10       _pjsip_endpt_acquire_transport2 0040df10 f   pjsip-core-i386-win32-vc14-release-dynamic:sip_endpoint.obj
 0001:0000cf40       _pjsip_endpt_add_capability 0040df40 f   pjsip-core-i386-win32-vc14-release-dynamic:sip_endpoint.obj
 0001:0000d030       _pjsip_endpt_atexit        0040e030 f   pjsip-core-i386-win32-vc14-release-dynamic:sip_endpoint.obj
 0001:0000d090       _pjsip_endpt_cancel_timer  0040e090 f   pjsip-core-i386-win32-vc14-release-dynamic:sip_endpoint.obj
 0001:0000d0b0       _pjsip_endpt_create        0040e0b0 f   pjsip-core-i386-win32-vc14-release-dynamic:sip_endpoint.obj
 0001:0000d360       _pjsip_endpt_create_pool   0040e360 f   pjsip-core-i386-win32-vc14-release-dynamic:sip_endpoint.obj
 0001:0000d3b0       _pjsip_endpt_create_tdata  0040e3b0 f   pjsip-core-i386-win32-vc14-release-dynamic:sip_endpoint.obj
 0001:0000d3d0       _pjsip_endpt_destroy       0040e3d0 f   pjsip-core-i386-win32-vc14-release-dynamic:sip_endpoint.obj
 0001:0000d510       _pjsip_endpt_get_capability 0040e510 f   pjsip-core-i386-win32-vc14-release-dynamic:sip_endpoint.obj
 0001:0000d540       _pjsip_endpt_get_ioqueue   0040e540 f   pjsip-core-i386-win32-vc14-release-dynamic:sip_endpoint.obj
 0001:0000d550       _pjsip_endpt_get_request_headers 0040e550 f   pjsip-core-i386-win32-vc14-release-dynamic:sip_endpoint.obj
 0001:0000d560       _pjsip_endpt_get_timer_heap 0040e560 f   pjsip-core-i386-win32-vc14-release-dynamic:sip_endpoint.obj
 0001:0000d570       _pjsip_endpt_get_tpmgr     0040e570 f   pjsip-core-i386-win32-vc14-release-dynamic:sip_endpoint.obj
 0001:0000d580       _pjsip_endpt_handle_events 0040e580 f   pjsip-core-i386-win32-vc14-release-dynamic:sip_endpoint.obj
 0001:0000d5a0       _pjsip_endpt_handle_events2 0040e5a0 f   pjsip-core-i386-win32-vc14-release-dynamic:sip_endpoint.obj
 0001:0000d6a0       _pjsip_endpt_log_error     0040e6a0 f   pjsip-core-i386-win32-vc14-release-dynamic:sip_endpoint.obj
 0001:0000d780       _pjsip_endpt_name          0040e780 f   pjsip-core-i386-win32-vc14-release-dynamic:sip_endpoint.obj
 0001:0000d790       _pjsip_endpt_process_rx_data 0040e790 f   pjsip-core-i386-win32-vc14-release-dynamic:sip_endpoint.obj
 0001:0000d920       _pjsip_endpt_register_module 0040e920 f   pjsip-core-i386-win32-vc14-release-dynamic:sip_endpoint.obj
 0001:0000da40       _pjsip_endpt_release_pool  0040ea40 f   pjsip-core-i386-win32-vc14-release-dynamic:sip_endpoint.obj
 0001:0000da60       _pjsip_endpt_resolve       0040ea60 f   pjsip-core-i386-win32-vc14-release-dynamic:sip_endpoint.obj
 0001:0000da80       _pjsip_endpt_schedule_timer_dbg 0040ea80 f   pjsip-core-i386-win32-vc14-release-dynamic:sip_endpoint.obj
 0001:0000dab0       _pjsip_endpt_schedule_timer_w_grp_lock_dbg 0040eab0 f   pjsip-core-i386-win32-vc14-release-dynamic:sip_endpoint.obj
 0001:0000dae0       _pjsip_endpt_unregister_module 0040eae0 f   pjsip-core-i386-win32-vc14-release-dynamic:sip_endpoint.obj
 0001:0000de00       _pjsip_endpt_create_ack    0040ee00 f   pjsip-core-i386-win32-vc14-release-dynamic:sip_util.obj
 0001:0000dfb0       _pjsip_endpt_create_cancel 0040efb0 f   pjsip-core-i386-win32-vc14-release-dynamic:sip_util.obj
 0001:0000e1c0       _pjsip_endpt_create_request_from_hdr 0040f1c0 f   pjsip-core-i386-win32-vc14-release-dynamic:sip_util.obj
 0001:0000e3e0       _pjsip_endpt_create_response 0040f3e0 f   pjsip-core-i386-win32-vc14-release-dynamic:sip_util.obj
 0001:0000e640       _pjsip_endpt_respond_stateless 0040f640 f   pjsip-core-i386-win32-vc14-release-dynamic:sip_util.obj
 0001:0000e7c0       _pjsip_endpt_send_request_stateless 0040f7c0 f   pjsip-core-i386-win32-vc14-release-dynamic:sip_util.obj
 0001:0000e8a0       _pjsip_endpt_send_response 0040f8a0 f   pjsip-core-i386-win32-vc14-release-dynamic:sip_util.obj
 0001:0000e990       _pjsip_event_str           0040f990 f   pjsip-core-i386-win32-vc14-release-dynamic:sip_util.obj
 0001:0000e9a0       _pjsip_get_dest_info       0040f9a0 f   pjsip-core-i386-win32-vc14-release-dynamic:sip_util.obj
 0001:0000eb30       _pjsip_get_request_dest    0040fb30 f   pjsip-core-i386-win32-vc14-release-dynamic:sip_util.obj
 0001:0000eba0       _pjsip_get_response_addr   0040fba0 f   pjsip-core-i386-win32-vc14-release-dynamic:sip_util.obj
 0001:0000ece0       _pjsip_process_route_set   0040fce0 f   pjsip-core-i386-win32-vc14-release-dynamic:sip_util.obj
 0001:0000eed0       _pjsip_restore_strict_route_set 0040fed0 f   pjsip-core-i386-win32-vc14-release-dynamic:sip_util.obj
 0001:0000ef70       _pjsip_target_assign_status 0040ff70 f   pjsip-core-i386-win32-vc14-release-dynamic:sip_util.obj
 0001:0000efb0       _pjsip_target_set_add_from_msg 0040ffb0 f   pjsip-core-i386-win32-vc14-release-dynamic:sip_util.obj
 0001:0000f020       _pjsip_target_set_add_uri  00410020 f   pjsip-core-i386-win32-vc14-release-dynamic:sip_util.obj
 0001:0000f0f0       _pjsip_target_set_get_next 004100f0 f   pjsip-core-i386-win32-vc14-release-dynamic:sip_util.obj
 0001:0000f140       _pjsip_target_set_set_current 00410140 f   pjsip-core-i386-win32-vc14-release-dynamic:sip_util.obj
 0001:0000f7d0       _pjsip_endpt_respond       004107d0 f   pjsip-core-i386-win32-vc14-release-dynamic:sip_util_statefull.obj
 0001:0000fb80       _pjsip_udp_transport_restart2 00410b80 f   pjsip-core-i386-win32-vc14-release-dynamic:sip_transport_udp.obj
 0001:0000fd90       _pjsip_udp_transport_start 00410d90 f   pjsip-core-i386-win32-vc14-release-dynamic:sip_transport_udp.obj
 0001:0000fe50       _pjsip_udp_transport_start2 00410e50 f   pjsip-core-i386-win32-vc14-release-dynamic:sip_transport_udp.obj
 0001:0000ff90       _pjsip_udp_transport_start6 00410f90 f   pjsip-core-i386-win32-vc14-release-dynamic:sip_transport_udp.obj
 0001:00011880       _pjsip_tcp_transport_lis_start 00412880 f   pjsip-core-i386-win32-vc14-release-dynamic:sip_transport_tcp.obj
 0001:00011a70       _pjsip_tcp_transport_start 00412a70 f   pjsip-core-i386-win32-vc14-release-dynamic:sip_transport_tcp.obj
 0001:00011a90       _pjsip_tcp_transport_start2 00412a90 f   pjsip-core-i386-win32-vc14-release-dynamic:sip_transport_tcp.obj
 0001:00011b80       _pjsip_tcp_transport_start3 00412b80 f   pjsip-core-i386-win32-vc14-release-dynamic:sip_transport_tcp.obj
 0001:00013420       _pjsip_rdata_get_tsx       00414420 f   pjsip-core-i386-win32-vc14-release-dynamic:sip_transaction.obj
 0001:00013440       _pjsip_tsx_create_key      00414440 f   pjsip-core-i386-win32-vc14-release-dynamic:sip_transaction.obj
 0001:000134b0       _pjsip_tsx_create_uac      004144b0 f   pjsip-core-i386-win32-vc14-release-dynamic:sip_transaction.obj
 0001:000134d0       _pjsip_tsx_create_uac2     004144d0 f   pjsip-core-i386-win32-vc14-release-dynamic:sip_transaction.obj
 0001:00013730       _pjsip_tsx_create_uas      00414730 f   pjsip-core-i386-win32-vc14-release-dynamic:sip_transaction.obj
 0001:00013750       _pjsip_tsx_create_uas2     00414750 f   pjsip-core-i386-win32-vc14-release-dynamic:sip_transaction.obj
 0001:00013980       _pjsip_tsx_layer_find_tsx2 00414980 f   pjsip-core-i386-win32-vc14-release-dynamic:sip_transaction.obj
 0001:000139f0       _pjsip_tsx_layer_init_module 004149f0 f   pjsip-core-i386-win32-vc14-release-dynamic:sip_transaction.obj
 0001:00013b70       _pjsip_tsx_recv_msg        00414b70 f   pjsip-core-i386-win32-vc14-release-dynamic:sip_transaction.obj
 0001:00013bf0       _pjsip_tsx_retransmit_no_state 00414bf0 f   pjsip-core-i386-win32-vc14-release-dynamic:sip_transaction.obj
 0001:00013c50       _pjsip_tsx_send_msg        00414c50 f   pjsip-core-i386-win32-vc14-release-dynamic:sip_transaction.obj
 0001:00013d00       _pjsip_tsx_set_timeout     00414d00 f   pjsip-core-i386-win32-vc14-release-dynamic:sip_transaction.obj
 0001:00013dd0       _pjsip_tsx_set_transport   00414dd0 f   pjsip-core-i386-win32-vc14-release-dynamic:sip_transaction.obj
 0001:00013e30       _pjsip_tsx_state_str       00414e30 f   pjsip-core-i386-win32-vc14-release-dynamic:sip_transaction.obj
 0001:00013e40       _pjsip_tsx_terminate       00414e40 f   pjsip-core-i386-win32-vc14-release-dynamic:sip_transaction.obj
 0001:000169c0       _pjsip_rdata_get_dlg       004179c0 f   pjsip-core-i386-win32-vc14-release-dynamic:sip_ua_layer.obj
 0001:000169e0       _pjsip_tsx_get_dlg         004179e0 f   pjsip-core-i386-win32-vc14-release-dynamic:sip_ua_layer.obj
 0001:00016a00       _pjsip_ua_get_endpt        00417a00 f   pjsip-core-i386-win32-vc14-release-dynamic:sip_ua_layer.obj
 0001:00016a10       _pjsip_ua_init_module      00417a10 f   pjsip-core-i386-win32-vc14-release-dynamic:sip_ua_layer.obj
 0001:00016a40       _pjsip_ua_instance         00417a40 f   pjsip-core-i386-win32-vc14-release-dynamic:sip_ua_layer.obj
 0001:00016a50       _pjsip_ua_register_dlg     00417a50 f   pjsip-core-i386-win32-vc14-release-dynamic:sip_ua_layer.obj
 0001:00016b40       _pjsip_ua_unregister_dlg   00417b40 f   pjsip-core-i386-win32-vc14-release-dynamic:sip_ua_layer.obj
 0001:00016d50       _create_uas_dialog         00417d50 f   pjsip-core-i386-win32-vc14-release-dynamic:sip_dialog.obj
 0001:00017690       _pjsip_dlg_add_usage       00418690 f   pjsip-core-i386-win32-vc14-release-dynamic:sip_dialog.obj
 0001:000177c0       _pjsip_dlg_create_request  004187c0 f   pjsip-core-i386-win32-vc14-release-dynamic:sip_dialog.obj
 0001:000178d0       _pjsip_dlg_create_response 004188d0 f   pjsip-core-i386-win32-vc14-release-dynamic:sip_dialog.obj
 0001:00017990       _pjsip_dlg_create_uac      00418990 f   pjsip-core-i386-win32-vc14-release-dynamic:sip_dialog.obj
 0001:00017a20       _pjsip_dlg_create_uac2     00418a20 f   pjsip-core-i386-win32-vc14-release-dynamic:sip_dialog.obj
 0001:00017e30       _pjsip_dlg_create_uas_and_inc_lock 00418e30 f   pjsip-core-i386-win32-vc14-release-dynamic:sip_dialog.obj
 0001:00017e50       _pjsip_dlg_dec_lock        00418e50 f   pjsip-core-i386-win32-vc14-release-dynamic:sip_dialog.obj
 0001:00017eb0       _pjsip_dlg_dec_session     00418eb0 f   pjsip-core-i386-win32-vc14-release-dynamic:sip_dialog.obj
 0001:00017f30       _pjsip_dlg_get_remote_cap_hdr 00418f30 f   pjsip-core-i386-win32-vc14-release-dynamic:sip_dialog.obj
 0001:00017fe0       _pjsip_dlg_inc_lock        00418fe0 f   pjsip-core-i386-win32-vc14-release-dynamic:sip_dialog.obj
 0001:00018010       _pjsip_dlg_inc_session     00419010 f   pjsip-core-i386-win32-vc14-release-dynamic:sip_dialog.obj
 0001:00018090       _pjsip_dlg_modify_response 00419090 f   pjsip-core-i386-win32-vc14-release-dynamic:sip_dialog.obj
 0001:00018190       _pjsip_dlg_on_rx_request   00419190 f   pjsip-core-i386-win32-vc14-release-dynamic:sip_dialog.obj
 0001:000184f0       _pjsip_dlg_on_rx_response  004194f0 f   pjsip-core-i386-win32-vc14-release-dynamic:sip_dialog.obj
 0001:00018900       _pjsip_dlg_on_tsx_state    00419900 f   pjsip-core-i386-win32-vc14-release-dynamic:sip_dialog.obj
 0001:00018a80       _pjsip_dlg_remote_has_cap  00419a80 f   pjsip-core-i386-win32-vc14-release-dynamic:sip_dialog.obj
 0001:00018b70       _pjsip_dlg_send_request    00419b70 f   pjsip-core-i386-win32-vc14-release-dynamic:sip_dialog.obj
 0001:00018d60       _pjsip_dlg_send_response   00419d60 f   pjsip-core-i386-win32-vc14-release-dynamic:sip_dialog.obj
 0001:00018e70       _pjsip_dlg_set_remote_cap_hdr 00419e70 f   pjsip-core-i386-win32-vc14-release-dynamic:sip_dialog.obj
 0001:00018f80       _pjsip_dlg_try_inc_lock    00419f80 f   pjsip-core-i386-win32-vc14-release-dynamic:sip_dialog.obj
 0001:00018fc0       _pjsip_dlg_update_remote_cap 00419fc0 f   pjsip-core-i386-win32-vc14-release-dynamic:sip_dialog.obj
 0001:000192b0       _pjsip_method_creates_dialog 0041a2b0 f   pjsip-core-i386-win32-vc14-release-dynamic:sip_dialog.obj
 0001:00019820       _pjsip_auth_clt_deinit     0041a820 f   pjsip-core-i386-win32-vc14-release-dynamic:sip_auth_client.obj
 0001:00019870       _pjsip_auth_clt_init       0041a870 f   pjsip-core-i386-win32-vc14-release-dynamic:sip_auth_client.obj
 0001:000198c0       _pjsip_auth_clt_init_req   0041a8c0 f   pjsip-core-i386-win32-vc14-release-dynamic:sip_auth_client.obj
 0001:00019b00       _pjsip_auth_clt_reinit_req 0041ab00 f   pjsip-core-i386-win32-vc14-release-dynamic:sip_auth_client.obj
 0001:00019d20       _pjsip_auth_create_digest  0041ad20 f   pjsip-core-i386-win32-vc14-release-dynamic:sip_auth_client.obj
 0001:0001a560       _deinit_sip_parser         0041b560 f   pjsip-core-i386-win32-vc14-release-dynamic:sip_parser.obj
 0001:0001ae40       _init_sip_parser           0041be40 f   pjsip-core-i386-win32-vc14-release-dynamic:sip_parser.obj
 0001:0001d5b0       _pjsip_find_msg            0041e5b0 f   pjsip-core-i386-win32-vc14-release-dynamic:sip_parser.obj
 0001:0001d8b0       _pjsip_parse_end_hdr_imp   0041e8b0 f   pjsip-core-i386-win32-vc14-release-dynamic:sip_parser.obj
 0001:0001d8e0       _pjsip_parse_hdr           0041e8e0 f   pjsip-core-i386-win32-vc14-release-dynamic:sip_parser.obj
 0001:0001d9e0       _pjsip_parse_headers       0041e9e0 f   pjsip-core-i386-win32-vc14-release-dynamic:sip_parser.obj
 0001:0001dce0       _pjsip_parse_param_imp     0041ece0 f   pjsip-core-i386-win32-vc14-release-dynamic:sip_parser.obj
 0001:0001dd10       _pjsip_parse_rdata         0041ed10 f   pjsip-core-i386-win32-vc14-release-dynamic:sip_parser.obj
 0001:0001dd70       _pjsip_parse_uri           0041ed70 f   pjsip-core-i386-win32-vc14-release-dynamic:sip_parser.obj
 0001:0001de30       _pjsip_parser_const        0041ee30 f   pjsip-core-i386-win32-vc14-release-dynamic:sip_parser.obj
 0001:0001de40       _pjsip_register_hdr_parser 0041ee40 f   pjsip-core-i386-win32-vc14-release-dynamic:sip_parser.obj
 0001:0001df30       _pjsip_register_uri_parser 0041ef30 f   pjsip-core-i386-win32-vc14-release-dynamic:sip_parser.obj
 0001:0001e510       _pjsip_multipart_add_part  0041f510 f   pjsip-core-i386-win32-vc14-release-dynamic:sip_multipart.obj
 0001:0001e560       _pjsip_multipart_create    0041f560 f   pjsip-core-i386-win32-vc14-release-dynamic:sip_multipart.obj
 0001:0001e680       _pjsip_multipart_find_part 0041f680 f   pjsip-core-i386-win32-vc14-release-dynamic:sip_multipart.obj
 0001:0001e6f0       _pjsip_multipart_parse     0041f6f0 f   pjsip-core-i386-win32-vc14-release-dynamic:sip_multipart.obj
 0001:0001f380       _pjsip_name_addr_assign    00420380 f   pjsip-core-i386-win32-vc14-release-dynamic:sip_uri.obj
 0001:0001f3c0       _pjsip_name_addr_create    004203c0 f   pjsip-core-i386-win32-vc14-release-dynamic:sip_uri.obj
 0001:0001f3f0       _pjsip_name_addr_init      004203f0 f   pjsip-core-i386-win32-vc14-release-dynamic:sip_uri.obj
 0001:0001f420       _pjsip_other_uri_create    00420420 f   pjsip-core-i386-win32-vc14-release-dynamic:sip_uri.obj
 0001:0001f440       _pjsip_param_clone         00420440 f   pjsip-core-i386-win32-vc14-release-dynamic:sip_uri.obj
 0001:0001f4b0       _pjsip_param_cmp           004204b0 f   pjsip-core-i386-win32-vc14-release-dynamic:sip_uri.obj
 0001:0001f560       _pjsip_param_find          00420560 f   pjsip-core-i386-win32-vc14-release-dynamic:sip_uri.obj
 0001:0001f5a0       _pjsip_param_print_on      004205a0 f   pjsip-core-i386-win32-vc14-release-dynamic:sip_uri.obj
 0001:0001f680       _pjsip_param_shallow_clone 00420680 f   pjsip-core-i386-win32-vc14-release-dynamic:sip_uri.obj
 0001:0001f6e0       _pjsip_sip_uri_assign      004206e0 f   pjsip-core-i386-win32-vc14-release-dynamic:sip_uri.obj
 0001:0001f790       _pjsip_sip_uri_create      00420790 f   pjsip-core-i386-win32-vc14-release-dynamic:sip_uri.obj
 0001:0001fa90       _pjsip_resolve             00420a90 f   pjsip-core-i386-win32-vc14-release-dynamic:sip_resolve.obj
 0001:00020110       _pjsip_resolver_create     00421110 f   pjsip-core-i386-win32-vc14-release-dynamic:sip_resolve.obj
 0001:00020140       _pjsip_resolver_destroy    00421140 f   pjsip-core-i386-win32-vc14-release-dynamic:sip_resolve.obj
 0001:00020340       _pjsip_strerror            00421340 f   pjsip-core-i386-win32-vc14-release-dynamic:sip_errno.obj
 0001:000207b0       _pjsip_tel_nb_cmp          004217b0 f   pjsip-core-i386-win32-vc14-release-dynamic:sip_tel_uri.obj
 0001:000208b0       _pjsip_tel_uri_subsys_init 004218b0 f   pjsip-core-i386-win32-vc14-release-dynamic:sip_tel_uri.obj
 0001:000210c0       _pjsip_authorization_hdr_create 004220c0 f   pjsip-core-i386-win32-vc14-release-dynamic:sip_auth_msg.obj
 0001:00021130       _pjsip_proxy_authenticate_hdr_create 00422130 f   pjsip-core-i386-win32-vc14-release-dynamic:sip_auth_msg.obj
 0001:000211a0       _pjsip_proxy_authorization_hdr_create 004221a0 f   pjsip-core-i386-win32-vc14-release-dynamic:sip_auth_msg.obj
 0001:00021210       _pjsip_www_authenticate_hdr_create 00422210 f   pjsip-core-i386-win32-vc14-release-dynamic:sip_auth_msg.obj
 0001:00022290       _pjsip_auth_init_parser    00423290 f   pjsip-core-i386-win32-vc14-release-dynamic:sip_auth_parser.obj
 0001:000229e0       _pjmedia_sdp_attr_create   004239e0 f   pjmedia-i386-win32-vc14-release-dynamic:sdp.obj
 0001:00022a40       _pjmedia_sdp_attr_find     00423a40 f   pjmedia-i386-win32-vc14-release-dynamic:sdp.obj
 0001:00022ad0       _pjmedia_sdp_attr_get_rtpmap 00423ad0 f   pjmedia-i386-win32-vc14-release-dynamic:sdp.obj
 0001:00022c80       _pjmedia_sdp_attr_remove   00423c80 f   pjmedia-i386-win32-vc14-release-dynamic:sdp.obj
 0001:00022d10       _pjmedia_sdp_attr_remove_all 00423d10 f   pjmedia-i386-win32-vc14-release-dynamic:sdp.obj
 0001:00022da0       _pjmedia_sdp_conn_clone    00423da0 f   pjmedia-i386-win32-vc14-release-dynamic:sdp.obj
 0001:00022e10       _pjmedia_sdp_media_add_attr 00423e10 f   pjmedia-i386-win32-vc14-release-dynamic:sdp.obj
 0001:00022e50       _pjmedia_sdp_media_clone   00423e50 f   pjmedia-i386-win32-vc14-release-dynamic:sdp.obj
 0001:00023040       _pjmedia_sdp_media_clone_deactivate 00424040 f   pjmedia-i386-win32-vc14-release-dynamic:sdp.obj
 0001:000231a0       _pjmedia_sdp_media_deactivate 004241a0 f   pjmedia-i386-win32-vc14-release-dynamic:sdp.obj
 0001:000231d0       _pjmedia_sdp_media_find_attr 004241d0 f   pjmedia-i386-win32-vc14-release-dynamic:sdp.obj
 0001:00023200       _pjmedia_sdp_media_find_attr2 00424200 f   pjmedia-i386-win32-vc14-release-dynamic:sdp.obj
 0001:00023260       _pjmedia_sdp_media_remove_all_attr 00424260 f   pjmedia-i386-win32-vc14-release-dynamic:sdp.obj
 0001:00023290       _pjmedia_sdp_media_remove_attr 00424290 f   pjmedia-i386-win32-vc14-release-dynamic:sdp.obj
 0001:000232c0       _pjmedia_sdp_parse         004242c0 f   pjmedia-i386-win32-vc14-release-dynamic:sdp.obj
 0001:00023700       _pjmedia_sdp_print         00424700 f   pjmedia-i386-win32-vc14-release-dynamic:sdp.obj
 0001:00023710       _pjmedia_sdp_session_add_attr 00424710 f   pjmedia-i386-win32-vc14-release-dynamic:sdp.obj
 0001:00023750       _pjmedia_sdp_session_clone 00424750 f   pjmedia-i386-win32-vc14-release-dynamic:sdp.obj
 0001:00023950       _pjmedia_sdp_transport_cmp 00424950 f   pjmedia-i386-win32-vc14-release-dynamic:sdp.obj
 0001:000239a0       _pjmedia_sdp_transport_get_proto 004249a0 f   pjmedia-i386-win32-vc14-release-dynamic:sdp.obj
 0001:00023af0       _pjmedia_sdp_validate      00424af0 f   pjmedia-i386-win32-vc14-release-dynamic:sdp.obj
 0001:00023b10       _pjmedia_sdp_validate2     00424b10 f   pjmedia-i386-win32-vc14-release-dynamic:sdp.obj
 0001:00024f20       _pjmedia_sdp_neg_cancel_offer 00425f20 f   pjmedia-i386-win32-vc14-release-dynamic:sdp_neg.obj
 0001:00024f80       _pjmedia_sdp_neg_create_w_local_offer 00425f80 f   pjmedia-i386-win32-vc14-release-dynamic:sdp_neg.obj
 0001:00025010       _pjmedia_sdp_neg_create_w_remote_offer 00426010 f   pjmedia-i386-win32-vc14-release-dynamic:sdp_neg.obj
 0001:000250e0       _pjmedia_sdp_neg_get_active_local 004260e0 f   pjmedia-i386-win32-vc14-release-dynamic:sdp_neg.obj
 0001:00025110       _pjmedia_sdp_neg_get_neg_local 00426110 f   pjmedia-i386-win32-vc14-release-dynamic:sdp_neg.obj
 0001:00025140       _pjmedia_sdp_neg_get_state 00426140 f   pjmedia-i386-win32-vc14-release-dynamic:sdp_neg.obj
 0001:00025150       _pjmedia_sdp_neg_has_local_answer 00426150 f   pjmedia-i386-win32-vc14-release-dynamic:sdp_neg.obj
 0001:00025160       _pjmedia_sdp_neg_modify_local_offer2 00426160 f   pjmedia-i386-win32-vc14-release-dynamic:sdp_neg.obj
 0001:00025380       _pjmedia_sdp_neg_negotiate 00426380 f   pjmedia-i386-win32-vc14-release-dynamic:sdp_neg.obj
 0001:00025460       _pjmedia_sdp_neg_send_local_offer 00426460 f   pjmedia-i386-win32-vc14-release-dynamic:sdp_neg.obj
 0001:000254f0       _pjmedia_sdp_neg_set_local_answer 004264f0 f   pjmedia-i386-win32-vc14-release-dynamic:sdp_neg.obj
 0001:00025580       _pjmedia_sdp_neg_set_remote_answer 00426580 f   pjmedia-i386-win32-vc14-release-dynamic:sdp_neg.obj
 0001:000255d0       _pjmedia_sdp_neg_set_remote_offer 004265d0 f   pjmedia-i386-win32-vc14-release-dynamic:sdp_neg.obj
 0001:00025620       _pjmedia_sdp_neg_state_str 00426620 f   pjmedia-i386-win32-vc14-release-dynamic:sdp_neg.obj
 0001:00025f20       _pjlib_util_init           00426f20 f   pjlib-util-i386-win32-vc14-release-dynamic:errno.obj
 0001:00025f40       _pjlib_util_strerror       00426f40 f   pjlib-util-i386-win32-vc14-release-dynamic:errno.obj
 0001:000268e0       _pj_getopt_long            004278e0 f   pjlib-util-i386-win32-vc14-release-dynamic:getopt.obj
 0001:00026900       _pj_cis_add_alpha          00427900 f   pjlib-util-i386-win32-vc14-release-dynamic:scanner.obj
 0001:00026950       _pj_cis_add_cis            00427950 f   pjlib-util-i386-win32-vc14-release-dynamic:scanner.obj
 0001:00026990       _pj_cis_add_num            00427990 f   pjlib-util-i386-win32-vc14-release-dynamic:scanner.obj
 0001:000269c0       _pj_cis_add_str            004279c0 f   pjlib-util-i386-win32-vc14-release-dynamic:scanner.obj
 0001:000269f0       _pj_cis_buf_init           004279f0 f   pjlib-util-i386-win32-vc14-release-dynamic:scanner.obj
 0001:00026a20       _pj_cis_del_str            00427a20 f   pjlib-util-i386-win32-vc14-release-dynamic:scanner.obj
 0001:00026a50       _pj_cis_dup                00427a50 f   pjlib-util-i386-win32-vc14-release-dynamic:scanner.obj
 0001:00026ab0       _pj_cis_init               00427ab0 f   pjlib-util-i386-win32-vc14-release-dynamic:scanner.obj
 0001:00026b00       _pj_cis_invert             00427b00 f   pjlib-util-i386-win32-vc14-release-dynamic:scanner.obj
 0001:00026b40       _pj_scan_advance_n         00427b40 f   pjlib-util-i386-win32-vc14-release-dynamic:scanner.obj
 0001:00026b80       _pj_scan_fini              00427b80 f   pjlib-util-i386-win32-vc14-release-dynamic:scanner.obj
 0001:00026ba0       _pj_scan_get               00427ba0 f   pjlib-util-i386-win32-vc14-release-dynamic:scanner.obj
 0001:00026c10       _pj_scan_get_char          00427c10 f   pjlib-util-i386-win32-vc14-release-dynamic:scanner.obj
 0001:00026c50       _pj_scan_get_n             00427c50 f   pjlib-util-i386-win32-vc14-release-dynamic:scanner.obj
 0001:00026ca0       _pj_scan_get_newline       00427ca0 f   pjlib-util-i386-win32-vc14-release-dynamic:scanner.obj
 0001:00026ce0       _pj_scan_get_quote         00427ce0 f   pjlib-util-i386-win32-vc14-release-dynamic:scanner.obj
 0001:00026d10       _pj_scan_get_quotes        00427d10 f   pjlib-util-i386-win32-vc14-release-dynamic:scanner.obj
 0001:00026dd0       _pj_scan_get_until_ch      00427dd0 f   pjlib-util-i386-win32-vc14-release-dynamic:scanner.obj
 0001:00026e30       _pj_scan_get_until_chr     00427e30 f   pjlib-util-i386-win32-vc14-release-dynamic:scanner.obj
 0001:00026eb0       _pj_scan_init              00427eb0 f   pjlib-util-i386-win32-vc14-release-dynamic:scanner.obj
 0001:00026f00       _pj_scan_peek              00427f00 f   pjlib-util-i386-win32-vc14-release-dynamic:scanner.obj
 0001:00026f60       _pj_scan_skip_line         00427f60 f   pjlib-util-i386-win32-vc14-release-dynamic:scanner.obj
 0001:00026f90       _pj_scan_skip_whitespace   00427f90 f   pjlib-util-i386-win32-vc14-release-dynamic:scanner.obj
 0001:00027070       _pj_str_unescape           00428070 f   pjlib-util-i386-win32-vc14-release-dynamic:string.obj
 0001:00027170       _pj_strncpy2_escape        00428170 f   pjlib-util-i386-win32-vc14-release-dynamic:string.obj
 0001:000274f0       _pj_dns_parse_addr_response 004284f0 f   pjlib-util-i386-win32-vc14-release-dynamic:resolver.obj
 0001:000277b0       _pj_dns_resolver_cancel_query 004287b0 f   pjlib-util-i386-win32-vc14-release-dynamic:resolver.obj
 0001:00027830       _pj_dns_resolver_destroy   00428830 f   pjlib-util-i386-win32-vc14-release-dynamic:resolver.obj
 0001:000279a0       _pj_dns_resolver_start_query 004289a0 f   pjlib-util-i386-win32-vc14-release-dynamic:resolver.obj
 0001:000288c0       _pj_md5_final              004298c0 f   pjlib-util-i386-win32-vc14-release-dynamic:md5.obj
 0001:00028950       _pj_md5_init               00429950 f   pjlib-util-i386-win32-vc14-release-dynamic:md5.obj
 0001:00028990       _pj_md5_update             00429990 f   pjlib-util-i386-win32-vc14-release-dynamic:md5.obj
 0001:00028a50       _pj_dns_get_type_name      00429a50 f   pjlib-util-i386-win32-vc14-release-dynamic:dns.obj
 0001:00028b00       _pj_dns_make_query         00429b00 f   pjlib-util-i386-win32-vc14-release-dynamic:dns.obj
 0001:00029910       _pj_dns_srv_cancel_query   0042a910 f   pjlib-util-i386-win32-vc14-release-dynamic:srv_resolver.obj
 0001:000299e0       _pj_dns_srv_resolve        0042a9e0 f   pjlib-util-i386-win32-vc14-release-dynamic:srv_resolver.obj
 0001:00029d20       _pj_atexit                 0042ad20 f   pjlib-i386-win32-vc14-release-dynamic:os_core_win32.obj
 0001:00029d50       _pj_atomic_create          0042ad50 f   pjlib-i386-win32-vc14-release-dynamic:os_core_win32.obj
 0001:00029d80       _pj_atomic_dec_and_get     0042ad80 f   pjlib-i386-win32-vc14-release-dynamic:os_core_win32.obj
 0001:00029dd0       _pj_atomic_destroy         0042add0 f   pjlib-i386-win32-vc14-release-dynamic:os_core_win32.obj
 0001:00029df0       _pj_atomic_get             0042adf0 f   pjlib-i386-win32-vc14-release-dynamic:os_core_win32.obj
 0001:00029e40       _pj_atomic_inc             0042ae40 f   pjlib-i386-win32-vc14-release-dynamic:os_core_win32.obj
 0001:00029e90       _pj_atomic_inc_and_get     0042ae90 f   pjlib-i386-win32-vc14-release-dynamic:os_core_win32.obj
 0001:00029ee0       _pj_atomic_set             0042aee0 f   pjlib-i386-win32-vc14-release-dynamic:os_core_win32.obj
 0001:00029f30       _pj_enter_critical_section 0042af30 f   pjlib-i386-win32-vc14-release-dynamic:os_core_win32.obj
 0001:00029f40       _pj_init                   0042af40 f   pjlib-i386-win32-vc14-release-dynamic:os_core_win32.obj
 0001:0002a080       _pj_leave_critical_section 0042b080 f   pjlib-i386-win32-vc14-release-dynamic:os_core_win32.obj
 0001:0002a0d0       _pj_mutex_create           0042b0d0 f   pjlib-i386-win32-vc14-release-dynamic:os_core_win32.obj
 0001:0002a120       _pj_mutex_create_recursive 0042b120 f   pjlib-i386-win32-vc14-release-dynamic:os_core_win32.obj
 0001:0002a120       _pj_mutex_create_simple    0042b120 f   pjlib-i386-win32-vc14-release-dynamic:os_core_win32.obj
 0001:0002a170       _pj_mutex_destroy          0042b170 f   pjlib-i386-win32-vc14-release-dynamic:os_core_win32.obj
 0001:0002a1d0       _pj_mutex_lock             0042b1d0 f   pjlib-i386-win32-vc14-release-dynamic:os_core_win32.obj
 0001:0002a240       _pj_mutex_trylock          0042b240 f   pjlib-i386-win32-vc14-release-dynamic:os_core_win32.obj
 0001:0002a2c0       _pj_mutex_unlock           0042b2c0 f   pjlib-i386-win32-vc14-release-dynamic:os_core_win32.obj
 0001:0002a320       _pj_rwmutex_create         0042b320 f   pjlib-i386-win32-vc14-release-dynamic:os_core_win32.obj
 0001:0002a3e0       _pj_rwmutex_destroy        0042b3e0 f   pjlib-i386-win32-vc14-release-dynamic:os_core_win32.obj
 0001:0002a410       _pj_rwmutex_lock_read      0042b410 f   pjlib-i386-win32-vc14-release-dynamic:os_core_win32.obj
 0001:0002a460       _pj_rwmutex_lock_write     0042b460 f   pjlib-i386-win32-vc14-release-dynamic:os_core_win32.obj
 0001:0002a480       _pj_rwmutex_unlock_read    0042b480 f   pjlib-i386-win32-vc14-release-dynamic:os_core_win32.obj
 0001:0002a4c0       _pj_rwmutex_unlock_write   0042b4c0 f   pjlib-i386-win32-vc14-release-dynamic:os_core_win32.obj
 0001:0002a4e0       _pj_sem_create             0042b4e0 f   pjlib-i386-win32-vc14-release-dynamic:os_core_win32.obj
 0001:0002a5f0       _pj_sem_destroy            0042b5f0 f   pjlib-i386-win32-vc14-release-dynamic:os_core_win32.obj
 0001:0002a680       _pj_sem_post               0042b680 f   pjlib-i386-win32-vc14-release-dynamic:os_core_win32.obj
 0001:0002a710       _pj_sem_trywait            0042b710 f   pjlib-i386-win32-vc14-release-dynamic:os_core_win32.obj
 0001:0002a770       _pj_sem_wait               0042b770 f   pjlib-i386-win32-vc14-release-dynamic:os_core_win32.obj
 0001:0002a880       _pj_term_set_color         0042b880 f   pjlib-i386-win32-vc14-release-dynamic:os_core_win32.obj
 0001:0002a950       _pj_thread_check_stack     0042b950 f   pjlib-i386-win32-vc14-release-dynamic:os_core_win32.obj
 0001:0002a990       _pj_thread_create          0042b990 f   pjlib-i386-win32-vc14-release-dynamic:os_core_win32.obj
 0001:0002aad0       _pj_thread_get_name        0042bad0 f   pjlib-i386-win32-vc14-release-dynamic:os_core_win32.obj
 0001:0002ab20       _pj_thread_init            0042bb20 f   pjlib-i386-win32-vc14-release-dynamic:os_core_win32.obj
 0001:0002ab80       _pj_thread_join            0042bb80 f   pjlib-i386-win32-vc14-release-dynamic:os_core_win32.obj
 0001:0002ac40       _pj_thread_local_alloc     0042bc40 f   pjlib-i386-win32-vc14-release-dynamic:os_core_win32.obj
 0001:0002ac90       _pj_thread_local_free      0042bc90 f   pjlib-i386-win32-vc14-release-dynamic:os_core_win32.obj
 0001:0002ace0       _pj_thread_local_get       0042bce0 f   pjlib-i386-win32-vc14-release-dynamic:os_core_win32.obj
 0001:0002acf0       _pj_thread_local_set       0042bcf0 f   pjlib-i386-win32-vc14-release-dynamic:os_core_win32.obj
 0001:0002ad30       _pj_thread_register        0042bd30 f   pjlib-i386-win32-vc14-release-dynamic:os_core_win32.obj
 0001:0002adf0       _pj_thread_sleep           0042bdf0 f   pjlib-i386-win32-vc14-release-dynamic:os_core_win32.obj
 0001:0002ae40       _pj_thread_this            0042be40 f   pjlib-i386-win32-vc14-release-dynamic:os_core_win32.obj
 0001:0002aef0       _pj_perror                 0042bef0 f   pjlib-i386-win32-vc14-release-dynamic:errno.obj
 0001:0002af10       _pj_perror_1               0042bf10 f   pjlib-i386-win32-vc14-release-dynamic:errno.obj
 0001:0002af30       _pj_perror_2               0042bf30 f   pjlib-i386-win32-vc14-release-dynamic:errno.obj
 0001:0002af50       _pj_perror_3               0042bf50 f   pjlib-i386-win32-vc14-release-dynamic:errno.obj
 0001:0002af70       _pj_perror_4               0042bf70 f   pjlib-i386-win32-vc14-release-dynamic:errno.obj
 0001:0002b030       _pj_register_strerror      0042c030 f   pjlib-i386-win32-vc14-release-dynamic:errno.obj
 0001:0002b110       _pj_strerror               0042c110 f   pjlib-i386-win32-vc14-release-dynamic:errno.obj
 0001:0002b260       _pj_list_erase             0042c260 f   pjlib-i386-win32-vc14-release-dynamic:list.obj
 0001:0002b280       _pj_list_find_node         0042c280 f   pjlib-i386-win32-vc14-release-dynamic:list.obj
 0001:0002b2b0       _pj_list_insert_after      0042c2b0 f   pjlib-i386-win32-vc14-release-dynamic:list.obj
 0001:0002b2d0       _pj_list_insert_before     0042c2d0 f   pjlib-i386-win32-vc14-release-dynamic:list.obj
 0001:0002b2f0       _pj_list_insert_nodes_before 0042c2f0 f   pjlib-i386-win32-vc14-release-dynamic:list.obj
 0001:0002b310       _pj_list_search            0042c310 f   pjlib-i386-win32-vc14-release-dynamic:list.obj
 0001:0002b350       _pj_list_size              0042c350 f   pjlib-i386-win32-vc14-release-dynamic:list.obj
 0001:0002b370       _pj_addr_str_print         0042c370 f   pjlib-i386-win32-vc14-release-dynamic:sock_common.obj
 0001:0002b440       _pj_gethostip              0042c440 f   pjlib-i386-win32-vc14-release-dynamic:sock_common.obj
 0001:0002bde0       _pj_getipinterface         0042cde0 f   pjlib-i386-win32-vc14-release-dynamic:sock_common.obj
 0001:0002bfc0       _pj_sockaddr_cmp           0042cfc0 f   pjlib-i386-win32-vc14-release-dynamic:sock_common.obj
 0001:0002c0e0       _pj_sockaddr_copy_addr     0042d0e0 f   pjlib-i386-win32-vc14-release-dynamic:sock_common.obj
 0001:0002c160       _pj_sockaddr_cp            0042d160 f   pjlib-i386-win32-vc14-release-dynamic:sock_common.obj
 0001:0002c1c0       _pj_sockaddr_get_addr      0042d1c0 f   pjlib-i386-win32-vc14-release-dynamic:sock_common.obj
 0001:0002c200       _pj_sockaddr_get_addr_len  0042d200 f   pjlib-i386-win32-vc14-release-dynamic:sock_common.obj
 0001:0002c240       _pj_sockaddr_get_len       0042d240 f   pjlib-i386-win32-vc14-release-dynamic:sock_common.obj
 0001:0002c280       _pj_sockaddr_get_port      0042d280 f   pjlib-i386-win32-vc14-release-dynamic:sock_common.obj
 0001:0002c2b0       _pj_sockaddr_has_addr      0042d2b0 f   pjlib-i386-win32-vc14-release-dynamic:sock_common.obj
 0001:0002c360       _pj_sockaddr_in_init       0042d360 f   pjlib-i386-win32-vc14-release-dynamic:sock_common.obj
 0001:0002c3b0       _pj_sockaddr_in_set_str_addr 0042d3b0 f   pjlib-i386-win32-vc14-release-dynamic:sock_common.obj
 0001:0002c4a0       _pj_sockaddr_init          0042d4a0 f   pjlib-i386-win32-vc14-release-dynamic:sock_common.obj
 0001:0002c550       _pj_sockaddr_print         0042d550 f   pjlib-i386-win32-vc14-release-dynamic:sock_common.obj
 0001:0002c660       _pj_sockaddr_set_port      0042d660 f   pjlib-i386-win32-vc14-release-dynamic:sock_common.obj
 0001:0002c6b0       _pj_sockaddr_set_str_addr  0042d6b0 f   pjlib-i386-win32-vc14-release-dynamic:sock_common.obj
 0001:0002c7b0       _pj_NO_MEMORY_EXCEPTION    0042d7b0 f   pjlib-i386-win32-vc14-release-dynamic:pool.obj
 0001:0002c7c0       _pj_pool_alloc             0042d7c0 f   pjlib-i386-win32-vc14-release-dynamic:pool.obj
 0001:0002c810       _pj_pool_allocate_find     0042d810 f   pjlib-i386-win32-vc14-release-dynamic:pool.obj
 0001:0002c8f0       _pj_pool_calloc            0042d8f0 f   pjlib-i386-win32-vc14-release-dynamic:pool.obj
 0001:0002c950       _pj_pool_create            0042d950 f   pjlib-i386-win32-vc14-release-dynamic:pool.obj
 0001:0002c9e0       _pj_pool_create_int        0042d9e0 f   pjlib-i386-win32-vc14-release-dynamic:pool.obj
 0001:0002ca90       _pj_pool_destroy_int       0042da90 f   pjlib-i386-win32-vc14-release-dynamic:pool.obj
 0001:0002cad0       _pj_pool_get_capacity      0042dad0 f   pjlib-i386-win32-vc14-release-dynamic:pool.obj
 0001:0002cae0       _pj_pool_get_used_size     0042dae0 f   pjlib-i386-win32-vc14-release-dynamic:pool.obj
 0001:0002cb10       _pj_pool_getobjname        0042db10 f   pjlib-i386-win32-vc14-release-dynamic:pool.obj
 0001:0002cb20       _pj_pool_init_int          0042db20 f   pjlib-i386-win32-vc14-release-dynamic:pool.obj
 0001:0002cb90       _pj_pool_release           0042db90 f   pjlib-i386-win32-vc14-release-dynamic:pool.obj
 0001:0002cbb0       _pj_pool_reset             0042dbb0 f   pjlib-i386-win32-vc14-release-dynamic:pool.obj
 0001:0002cbc0       _pj_pool_safe_release      0042dbc0 f   pjlib-i386-win32-vc14-release-dynamic:pool.obj
 0001:0002cff0       _pj_caching_pool_destroy   0042dff0 f   pjlib-i386-win32-vc14-release-dynamic:pool_caching.obj
 0001:0002d0d0       _pj_caching_pool_init      0042e0d0 f   pjlib-i386-win32-vc14-release-dynamic:pool_caching.obj
 0001:0002d1b0       _pj_str                    0042e1b0 f   pjlib-i386-win32-vc14-release-dynamic:string.obj
 0001:0002d1d0       _pj_strassign              0042e1d0 f   pjlib-i386-win32-vc14-release-dynamic:string.obj
 0001:0002d1f0       _pj_strcat                 0042e1f0 f   pjlib-i386-win32-vc14-release-dynamic:string.obj
 0001:0002d220       _pj_strcat2                0042e220 f   pjlib-i386-win32-vc14-release-dynamic:string.obj
 0001:0002d260       _pj_strcmp                 0042e260 f   pjlib-i386-win32-vc14-release-dynamic:string.obj
 0001:0002d2c0       _pj_strcmp2                0042e2c0 f   pjlib-i386-win32-vc14-release-dynamic:string.obj
 0001:0002d330       _pj_strcpy                 0042e330 f   pjlib-i386-win32-vc14-release-dynamic:string.obj
 0001:0002d360       _pj_strcpy2                0042e360 f   pjlib-i386-win32-vc14-release-dynamic:string.obj
 0001:0002d3a0       _pj_strcspn2               0042e3a0 f   pjlib-i386-win32-vc14-release-dynamic:string.obj
 0001:0002d3e0       _pj_strdup                 0042e3e0 f   pjlib-i386-win32-vc14-release-dynamic:string.obj
 0001:0002d420       _pj_strdup2                0042e420 f   pjlib-i386-win32-vc14-release-dynamic:string.obj
 0001:0002d480       _pj_strdup2_with_null      0042e480 f   pjlib-i386-win32-vc14-release-dynamic:string.obj
 0001:0002d4e0       _pj_strdup_with_null       0042e4e0 f   pjlib-i386-win32-vc14-release-dynamic:string.obj
 0001:0002d530       _pj_stricmp                0042e530 f   pjlib-i386-win32-vc14-release-dynamic:string.obj
 0001:0002d5a0       _pj_stricmp2               0042e5a0 f   pjlib-i386-win32-vc14-release-dynamic:string.obj
 0001:0002d600       _pj_strltrim               0042e600 f   pjlib-i386-win32-vc14-release-dynamic:string.obj
 0001:0002d640       _pj_strncpy                0042e640 f   pjlib-i386-win32-vc14-release-dynamic:string.obj
 0001:0002d680       _pj_strncpy_with_null      0042e680 f   pjlib-i386-win32-vc14-release-dynamic:string.obj
 0001:0002d6c0       _pj_strnicmp               0042e6c0 f   pjlib-i386-win32-vc14-release-dynamic:string.obj
 0001:0002d700       _pj_strrtrim               0042e700 f   pjlib-i386-win32-vc14-release-dynamic:string.obj
 0001:0002d750       _pj_strspn2                0042e750 f   pjlib-i386-win32-vc14-release-dynamic:string.obj
 0001:0002d7b0       _pj_strstr                 0042e7b0 f   pjlib-i386-win32-vc14-release-dynamic:string.obj
 0001:0002d800       _pj_strtok2                0042e800 f   pjlib-i386-win32-vc14-release-dynamic:string.obj
 0001:0002d870       _pj_strtol                 0042e870 f   pjlib-i386-win32-vc14-release-dynamic:string.obj
 0001:0002d8e0       _pj_strtol2                0042e8e0 f   pjlib-i386-win32-vc14-release-dynamic:string.obj
 0001:0002d9f0       _pj_strtoul                0042e9f0 f   pjlib-i386-win32-vc14-release-dynamic:string.obj
 0001:0002da50       _pj_strtoul2               0042ea50 f   pjlib-i386-win32-vc14-release-dynamic:string.obj
 0001:0002db00       _pj_strtoul3               0042eb00 f   pjlib-i386-win32-vc14-release-dynamic:string.obj
 0001:0002dc80       _pj_strtrim                0042ec80 f   pjlib-i386-win32-vc14-release-dynamic:string.obj
 0001:0002dcd0       _pj_utoa                   0042ecd0 f   pjlib-i386-win32-vc14-release-dynamic:string.obj
 0001:0002dcf0       _pj_utoa_pad               0042ecf0 f   pjlib-i386-win32-vc14-release-dynamic:string.obj
 0001:0002dd90       _pj_array_erase            0042ed90 f   pjlib-i386-win32-vc14-release-dynamic:array.obj
 0001:0002ddd0       _pj_array_insert           0042edd0 f   pjlib-i386-win32-vc14-release-dynamic:array.obj
 0001:0002de70       _pj_log                    0042ee70 f   pjlib-i386-win32-vc14-release-dynamic:log.obj
 0001:0002e370       _pj_log_1                  0042f370 f   pjlib-i386-win32-vc14-release-dynamic:log.obj
 0001:0002e390       _pj_log_2                  0042f390 f   pjlib-i386-win32-vc14-release-dynamic:log.obj
 0001:0002e3b0       _pj_log_3                  0042f3b0 f   pjlib-i386-win32-vc14-release-dynamic:log.obj
 0001:0002e3d0       _pj_log_4                  0042f3d0 f   pjlib-i386-win32-vc14-release-dynamic:log.obj
 0001:0002e3f0       _pj_log_5                  0042f3f0 f   pjlib-i386-win32-vc14-release-dynamic:log.obj
 0001:0002e410       _pj_log_get_color          0042f410 f   pjlib-i386-win32-vc14-release-dynamic:log.obj
 0001:0002e480       _pj_log_get_decor          0042f480 f   pjlib-i386-win32-vc14-release-dynamic:log.obj
 0001:0002e490       _pj_log_get_level          0042f490 f   pjlib-i386-win32-vc14-release-dynamic:log.obj
 0001:0002e4a0       _pj_log_init               0042f4a0 f   pjlib-i386-win32-vc14-release-dynamic:log.obj
 0001:0002e510       _pj_log_pop_indent         0042f510 f   pjlib-i386-win32-vc14-release-dynamic:log.obj
 0001:0002e540       _pj_log_push_indent        0042f540 f   pjlib-i386-win32-vc14-release-dynamic:log.obj
 0001:0002e570       _pj_log_set_level          0042f570 f   pjlib-i386-win32-vc14-release-dynamic:log.obj
 0001:0002e580       _pj_gethostname            0042f580 f   pjlib-i386-win32-vc14-release-dynamic:sock_bsd.obj
 0001:0002e600       _pj_htonl                  0042f600 f   pjlib-i386-win32-vc14-release-dynamic:sock_bsd.obj
 0001:0002e610       _pj_htons                  0042f610 f   pjlib-i386-win32-vc14-release-dynamic:sock_bsd.obj
 0001:0002e620       _pj_inet_aton              0042f620 f   pjlib-i386-win32-vc14-release-dynamic:sock_bsd.obj
 0001:0002e6b0       _pj_inet_ntop              0042f6b0 f   pjlib-i386-win32-vc14-release-dynamic:sock_bsd.obj
 0001:0002e7c0       _pj_inet_pton              0042f7c0 f   pjlib-i386-win32-vc14-release-dynamic:sock_bsd.obj
 0001:0002e920       _pj_ntohl                  0042f920 f   pjlib-i386-win32-vc14-release-dynamic:sock_bsd.obj
 0001:0002e930       _pj_ntohs                  0042f930 f   pjlib-i386-win32-vc14-release-dynamic:sock_bsd.obj
 0001:0002e940       _pj_sock_accept            0042f940 f   pjlib-i386-win32-vc14-release-dynamic:sock_bsd.obj
 0001:0002e9b0       _pj_sock_bind              0042f9b0 f   pjlib-i386-win32-vc14-release-dynamic:sock_bsd.obj
 0001:0002ea20       _pj_sock_close             0042fa20 f   pjlib-i386-win32-vc14-release-dynamic:sock_bsd.obj
 0001:0002ea70       _pj_sock_connect           0042fa70 f   pjlib-i386-win32-vc14-release-dynamic:sock_bsd.obj
 0001:0002ead0       _pj_sock_getsockname       0042fad0 f   pjlib-i386-win32-vc14-release-dynamic:sock_bsd.obj
 0001:0002eb30       _pj_sock_getsockopt        0042fb30 f   pjlib-i386-win32-vc14-release-dynamic:sock_bsd.obj
 0001:0002eba0       _pj_sock_listen            0042fba0 f   pjlib-i386-win32-vc14-release-dynamic:sock_bsd.obj
 0001:0002ebf0       _pj_sock_recv              0042fbf0 f   pjlib-i386-win32-vc14-release-dynamic:sock_bsd.obj
 0001:0002ec60       _pj_sock_recvfrom          0042fc60 f   pjlib-i386-win32-vc14-release-dynamic:sock_bsd.obj
 0001:0002ecd0       _pj_sock_send              0042fcd0 f   pjlib-i386-win32-vc14-release-dynamic:sock_bsd.obj
 0001:0002ed40       _pj_sock_sendto            0042fd40 f   pjlib-i386-win32-vc14-release-dynamic:sock_bsd.obj
 0001:0002edb0       _pj_sock_setsockopt        0042fdb0 f   pjlib-i386-win32-vc14-release-dynamic:sock_bsd.obj
 0001:0002ee30       _pj_sock_setsockopt_params 0042fe30 f   pjlib-i386-win32-vc14-release-dynamic:sock_bsd.obj
 0001:0002ef30       _pj_sock_socket            0042ff30 f   pjlib-i386-win32-vc14-release-dynamic:sock_bsd.obj
 0001:0002f290       _pj_grp_lock_acquire       00430290 f   pjlib-i386-win32-vc14-release-dynamic:lock.obj
 0001:0002f2a0       _pj_grp_lock_add_handler   004302a0 f   pjlib-i386-win32-vc14-release-dynamic:lock.obj
 0001:0002f2f0       _pj_grp_lock_add_ref       004302f0 f   pjlib-i386-win32-vc14-release-dynamic:lock.obj
 0001:0002f310       _pj_grp_lock_create        00430310 f   pjlib-i386-win32-vc14-release-dynamic:lock.obj
 0001:0002f400       _pj_grp_lock_create_w_handler 00430400 f   pjlib-i386-win32-vc14-release-dynamic:lock.obj
 0001:0002f460       _pj_grp_lock_dec_ref       00430460 f   pjlib-i386-win32-vc14-release-dynamic:lock.obj
 0001:0002f490       _pj_grp_lock_get_ref       00430490 f   pjlib-i386-win32-vc14-release-dynamic:lock.obj
 0001:0002f4b0       _pj_grp_lock_release       004304b0 f   pjlib-i386-win32-vc14-release-dynamic:lock.obj
 0001:0002f4c0       _pj_grp_lock_tryacquire    004304c0 f   pjlib-i386-win32-vc14-release-dynamic:lock.obj
 0001:0002f4d0       _pj_lock_acquire           004304d0 f   pjlib-i386-win32-vc14-release-dynamic:lock.obj
 0001:0002f4f0       _pj_lock_create_null_mutex 004304f0 f   pjlib-i386-win32-vc14-release-dynamic:lock.obj
 0001:0002f510       _pj_lock_create_recursive_mutex 00430510 f   pjlib-i386-win32-vc14-release-dynamic:lock.obj
 0001:0002f530       _pj_lock_create_simple_mutex 00430530 f   pjlib-i386-win32-vc14-release-dynamic:lock.obj
 0001:0002f550       _pj_lock_destroy           00430550 f   pjlib-i386-win32-vc14-release-dynamic:lock.obj
 0001:0002f570       _pj_lock_release           00430570 f   pjlib-i386-win32-vc14-release-dynamic:lock.obj
 0001:0002f590       _pj_lock_tryacquire        00430590 f   pjlib-i386-win32-vc14-release-dynamic:lock.obj
 0001:0002f5b0       _pj_rand                   004305b0 f   pjlib-i386-win32-vc14-release-dynamic:rand.obj
 0001:0002f5e0       _pj_time_val_normalize     004305e0 f   pjlib-i386-win32-vc14-release-dynamic:types.obj
 0001:0002f870       _pj_timer_entry_init       00430870 f   pjlib-i386-win32-vc14-release-dynamic:timer.obj
 0001:0002f890       _pj_timer_entry_running    00430890 f   pjlib-i386-win32-vc14-release-dynamic:timer.obj
 0001:0002f8b0       _pj_timer_heap_cancel      004308b0 f   pjlib-i386-win32-vc14-release-dynamic:timer.obj
 0001:0002f920       _pj_timer_heap_cancel_if_active 00430920 f   pjlib-i386-win32-vc14-release-dynamic:timer.obj
 0001:0002f9a0       _pj_timer_heap_create      004309a0 f   pjlib-i386-win32-vc14-release-dynamic:timer.obj
 0001:0002faf0       _pj_timer_heap_destroy     00430af0 f   pjlib-i386-win32-vc14-release-dynamic:timer.obj
 0001:0002fb20       _pj_timer_heap_dump        00430b20 f   pjlib-i386-win32-vc14-release-dynamic:timer.obj
 0001:0002fc90       _pj_timer_heap_poll        00430c90 f   pjlib-i386-win32-vc14-release-dynamic:timer.obj
 0001:0002fe80       _pj_timer_heap_schedule_dbg 00430e80 f   pjlib-i386-win32-vc14-release-dynamic:timer.obj
 0001:0002feb0       _pj_timer_heap_schedule_w_grp_lock_dbg 00430eb0 f   pjlib-i386-win32-vc14-release-dynamic:timer.obj
 0001:0002fee0       _pj_timer_heap_set_lock    00430ee0 f   pjlib-i386-win32-vc14-release-dynamic:timer.obj
 0001:0002ff10       _pj_timer_heap_set_max_timed_out_per_poll 00430f10 f   pjlib-i386-win32-vc14-release-dynamic:timer.obj
 0001:000303a0       _pj_gettimeofday           004313a0 f   pjlib-i386-win32-vc14-release-dynamic:os_time_win32.obj
 0001:00030450       _pj_time_decode            00431450 f   pjlib-i386-win32-vc14-release-dynamic:os_time_win32.obj
 0001:000305c0       _ioqueue_dispatch_exception_event 004315c0 f   pjlib-i386-win32-vc14-release-dynamic:ioqueue_select.obj
 0001:00030700       _ioqueue_dispatch_read_event 00431700 f   pjlib-i386-win32-vc14-release-dynamic:ioqueue_select.obj
 0001:00030920       _ioqueue_dispatch_write_event 00431920 f   pjlib-i386-win32-vc14-release-dynamic:ioqueue_select.obj
 0001:00030c90       _pj_ioqueue_accept         00431c90 f   pjlib-i386-win32-vc14-release-dynamic:ioqueue_select.obj
 0001:00030dd0       _pj_ioqueue_connect        00431dd0 f   pjlib-i386-win32-vc14-release-dynamic:ioqueue_select.obj
 0001:00030eb0       _pj_ioqueue_create         00431eb0 f   pjlib-i386-win32-vc14-release-dynamic:ioqueue_select.obj
 0001:00031050       _pj_ioqueue_destroy        00432050 f   pjlib-i386-win32-vc14-release-dynamic:ioqueue_select.obj
 0001:00031110       _pj_ioqueue_get_user_data  00432110 f   pjlib-i386-win32-vc14-release-dynamic:ioqueue_select.obj
 0001:00031130       _pj_ioqueue_is_pending     00432130 f   pjlib-i386-win32-vc14-release-dynamic:ioqueue_select.obj
 0001:00031140       _pj_ioqueue_lock_key       00432140 f   pjlib-i386-win32-vc14-release-dynamic:ioqueue_select.obj
 0001:00031170       _pj_ioqueue_op_key_init    00432170 f   pjlib-i386-win32-vc14-release-dynamic:ioqueue_select.obj
 0001:00031190       _pj_ioqueue_poll           00432190 f   pjlib-i386-win32-vc14-release-dynamic:ioqueue_select.obj
 0001:000314e0       _pj_ioqueue_recv           004324e0 f   pjlib-i386-win32-vc14-release-dynamic:ioqueue_select.obj
 0001:00031610       _pj_ioqueue_recvfrom       00432610 f   pjlib-i386-win32-vc14-release-dynamic:ioqueue_select.obj
 0001:00031750       _pj_ioqueue_register_sock2 00432750 f   pjlib-i386-win32-vc14-release-dynamic:ioqueue_select.obj
 0001:00031870       _pj_ioqueue_send           00432870 f   pjlib-i386-win32-vc14-release-dynamic:ioqueue_select.obj
 0001:00031a10       _pj_ioqueue_sendto         00432a10 f   pjlib-i386-win32-vc14-release-dynamic:ioqueue_select.obj
 0001:00031bb0       _pj_ioqueue_set_concurrency 00432bb0 f   pjlib-i386-win32-vc14-release-dynamic:ioqueue_select.obj
 0001:00031bd0       _pj_ioqueue_set_lock       00432bd0 f   pjlib-i386-win32-vc14-release-dynamic:ioqueue_select.obj
 0001:00031c10       _pj_ioqueue_unlock_key     00432c10 f   pjlib-i386-win32-vc14-release-dynamic:ioqueue_select.obj
 0001:00031c40       _pj_ioqueue_unregister     00432c40 f   pjlib-i386-win32-vc14-release-dynamic:ioqueue_select.obj
 0001:00031e50       _pj_exception_id_alloc     00432e50 f   pjlib-i386-win32-vc14-release-dynamic:except.obj
 0001:00031ea0       _pj_exception_id_free      00432ea0 f   pjlib-i386-win32-vc14-release-dynamic:except.obj
 0001:00031ee0       _pj_exception_id_name      00432ee0 f   pjlib-i386-win32-vc14-release-dynamic:except.obj
 0001:00031f20       _pj_pop_exception_handler_ 00432f20 f   pjlib-i386-win32-vc14-release-dynamic:except.obj
 0001:00031f50       _pj_push_exception_handler_ 00432f50 f   pjlib-i386-win32-vc14-release-dynamic:except.obj
 0001:00031fa0       _pj_throw_exception_       00432fa0 f   pjlib-i386-win32-vc14-release-dynamic:except.obj
 0001:00032040       _pj_get_timestamp          00433040 f   pjlib-i386-win32-vc14-release-dynamic:os_timestamp_win32.obj
 0001:000320a0       _pj_get_timestamp_freq     004330a0 f   pjlib-i386-win32-vc14-release-dynamic:os_timestamp_win32.obj
 0001:00032320       _pj_hash_calc              00433320 f   pjlib-i386-win32-vc14-release-dynamic:hash.obj
 0001:000323b0       _pj_hash_calc_tolower      004333b0 f   pjlib-i386-win32-vc14-release-dynamic:hash.obj
 0001:00032400       _pj_hash_count             00433400 f   pjlib-i386-win32-vc14-release-dynamic:hash.obj
 0001:00032410       _pj_hash_create            00433410 f   pjlib-i386-win32-vc14-release-dynamic:hash.obj
 0001:00032460       _pj_hash_first             00433460 f   pjlib-i386-win32-vc14-release-dynamic:hash.obj
 0001:000324a0       _pj_hash_get               004334a0 f   pjlib-i386-win32-vc14-release-dynamic:hash.obj
 0001:000324d0       _pj_hash_get_lower         004334d0 f   pjlib-i386-win32-vc14-release-dynamic:hash.obj
 0001:00032500       _pj_hash_next              00433500 f   pjlib-i386-win32-vc14-release-dynamic:hash.obj
 0001:00032550       _pj_hash_set               00433550 f   pjlib-i386-win32-vc14-release-dynamic:hash.obj
 0001:000325b0       _pj_hash_set_lower         004335b0 f   pjlib-i386-win32-vc14-release-dynamic:hash.obj
 0001:00032610       _pj_hash_set_np            00433610 f   pjlib-i386-win32-vc14-release-dynamic:hash.obj
 0001:00032670       _pj_hash_set_np_lower      00433670 f   pjlib-i386-win32-vc14-release-dynamic:hash.obj
 0001:000326d0       _pj_hash_this              004336d0 f   pjlib-i386-win32-vc14-release-dynamic:hash.obj
 0001:000326f0       _pj_get_netos_error        004336f0 f   pjlib-i386-win32-vc14-release-dynamic:os_error_win32.obj
 0001:00032710       _platform_strerror         00433710 f   pjlib-i386-win32-vc14-release-dynamic:os_error_win32.obj
 0001:00032870       _pj_GUID_STRING_LENGTH     00433870 f   pjlib-i386-win32-vc14-release-dynamic:guid_win32.obj
 0001:00032880       _pj_generate_unique_string 00433880 f   pjlib-i386-win32-vc14-release-dynamic:guid_win32.obj
 0001:000328d0       _pj_create_unique_string   004338d0 f   pjlib-i386-win32-vc14-release-dynamic:guid.obj
 0001:00032900       _pj_qos_get_params         00433900 f   pjlib-i386-win32-vc14-release-dynamic:sock_qos_common.obj
 0001:00032930       _pj_sock_apply_qos         00433930 f   pjlib-i386-win32-vc14-release-dynamic:sock_qos_common.obj
 0001:000329f0       _pj_sock_apply_qos2        004339f0 f   pjlib-i386-win32-vc14-release-dynamic:sock_qos_common.obj
 0001:00032e30       _pj_activesock_cfg_default 00433e30 f   pjlib-i386-win32-vc14-release-dynamic:activesock.obj
 0001:00032e60       _pj_activesock_close       00433e60 f   pjlib-i386-win32-vc14-release-dynamic:activesock.obj
 0001:00032ec0       _pj_activesock_create      00433ec0 f   pjlib-i386-win32-vc14-release-dynamic:activesock.obj
 0001:00033040       _pj_activesock_get_user_data 00434040 f   pjlib-i386-win32-vc14-release-dynamic:activesock.obj
 0001:00033060       _pj_activesock_send        00434060 f   pjlib-i386-win32-vc14-release-dynamic:activesock.obj
 0001:00033130       _pj_activesock_start_accept 00434130 f   pjlib-i386-win32-vc14-release-dynamic:activesock.obj
 0001:00033200       _pj_activesock_start_connect 00434200 f   pjlib-i386-win32-vc14-release-dynamic:activesock.obj
 0001:00033230       _pj_activesock_start_read2 00434230 f   pjlib-i386-win32-vc14-release-dynamic:activesock.obj
 0001:00033370       _pj_elapsed_time           00434370 f   pjlib-i386-win32-vc14-release-dynamic:os_timestamp_common.obj
 0001:00033420       _pj_gettickcount           00434420 f   pjlib-i386-win32-vc14-release-dynamic:os_timestamp_common.obj
 0001:00033460       _pj_getaddrinfo            00434460 f   pjlib-i386-win32-vc14-release-dynamic:addr_resolv_sock.obj
 0001:00033580       _pj_gethostbyname          00434580 f   pjlib-i386-win32-vc14-release-dynamic:addr_resolv_sock.obj
 0001:00033640       _pj_pool_create_on_buf     00434640 f   pjlib-i386-win32-vc14-release-dynamic:pool_buf.obj
 0001:00033c50       _pj_enum_ip_interface      00434c50 f   pjlib-i386-win32-vc14-release-dynamic:ip_helper_win32.obj
 0001:00033dd0       _pj_log_write              00434dd0 f   pjlib-i386-win32-vc14-release-dynamic:log_writer_stdout.obj
 0001:00033e30       _PJ_FD_CLR                 00434e30 f   pjlib-i386-win32-vc14-release-dynamic:sock_select.obj
 0001:00033eb0       _PJ_FD_COUNT               00434eb0 f   pjlib-i386-win32-vc14-release-dynamic:sock_select.obj
 0001:00033ec0       _PJ_FD_ISSET               00434ec0 f   pjlib-i386-win32-vc14-release-dynamic:sock_select.obj
 0001:00033ef0       _PJ_FD_SET                 00434ef0 f   pjlib-i386-win32-vc14-release-dynamic:sock_select.obj
 0001:00033f60       _PJ_FD_ZERO                00434f60 f   pjlib-i386-win32-vc14-release-dynamic:sock_select.obj
 0001:00033f90       _pj_sock_select            00434f90 f   pjlib-i386-win32-vc14-release-dynamic:sock_select.obj
 0001:00034000       _pj_sock_set_qos_params    00435000 f   pjlib-i386-win32-vc14-release-dynamic:sock_qos_bsd.obj
 0001:00034120       _pj_sock_set_qos_type      00435120 f   pjlib-i386-win32-vc14-release-dynamic:sock_qos_bsd.obj
 0001:0003414c       ___WSAFDIsSet@8            0043514c f   ws2_32:WS2_32.dll
 0001:00034152       @__security_check_cookie@4 00435152 f   MSVCRT:_secchk_.obj
 0001:0003438f       _mainCRTStartup            0043538f f   MSVCRT:exe_main.obj
 0001:00034399       ___raise_securityfailure   00435399 f   MSVCRT:gs_report.obj
 0001:000343c1       ___report_gsfailure        004353c1 f   MSVCRT:gs_report.obj
 0001:000344bc       ___report_rangecheckfailure 004354bc f   MSVCRT:gs_report.obj
 0001:000344c8       ___report_securityfailure  004354c8 f   MSVCRT:gs_report.obj
 0001:00034598       ___isa_available_init      00435598 f   MSVCRT:_cpu_disp_.obj
 0001:00034740       __alldiv                   00435740 f   MSVCRT:lldiv.obj
 0001:000347f0       __allmul                   004357f0 f   MSVCRT:llmul.obj
 0001:00034830       __ftoui3                   00435830 f   MSVCRT:_ftol3_.obj
 0001:0003483f       __ftoul3                   0043583f f   MSVCRT:_ftol3_.obj
 0001:0003484e       __ftol3                    0043584e f   MSVCRT:_ftol3_.obj
 0001:0003485b       __ftol3_NaN                0043585b f   MSVCRT:_ftol3_.obj
 0001:00034873       __ftol3_work               00435873 f   MSVCRT:_ftol3_.obj
 0001:000348f9       __ftol3_common             004358f9 f   MSVCRT:_ftol3_.obj
 0001:000349bb       __ftol3_arg_error          004359bb f   MSVCRT:_ftol3_.obj
 0001:000349cd       __ftol3_except             004359cd f   MSVCRT:_ftol3_.obj
 0001:00034a11       __dtoui3                   00435a11 f   MSVCRT:_ftol3_.obj
 0001:00034a20       __dtoul3                   00435a20 f   MSVCRT:_ftol3_.obj
 0001:00034a2f       __dtol3                    00435a2f f   MSVCRT:_ftol3_.obj
 0001:00034a3c       __dtol3_NaN                00435a3c f   MSVCRT:_ftol3_.obj
 0001:00034a59       __dtol3_work               00435a59 f   MSVCRT:_ftol3_.obj
 0001:00034b40       __ultod3                   00435b40 f   MSVCRT:_ftol3_.obj
 0001:00034b80       __ltod3                    00435b80 f   MSVCRT:_ftol3_.obj
 0001:00034beb       ___scrt_acquire_startup_lock 00435beb f   MSVCRT:utility.obj
 0001:00034c20       ___scrt_initialize_crt     00435c20 f   MSVCRT:utility.obj
 0001:00034c59       ___scrt_initialize_onexit_tables 00435c59 f   MSVCRT:utility.obj
 0001:00034cf0       ___scrt_is_nonwritable_in_current_image 00435cf0 f   MSVCRT:utility.obj
 0001:00034d7a       ___scrt_release_startup_lock 00435d7a f   MSVCRT:utility.obj
 0001:00034d97       ___scrt_uninitialize_crt   00435d97 f   MSVCRT:utility.obj
 0001:00034dbf       __onexit                   00435dbf f   MSVCRT:utility.obj
 0001:00034dfa       _atexit                    00435dfa f   MSVCRT:utility.obj
 0001:00034e0f       ___security_init_cookie    00435e0f f   MSVCRT:gs_support.obj
 0001:00034eab       __get_startup_argv_mode    00435eab f   MSVCRT:argv_mode.obj
 0001:00034eaf       __get_startup_file_mode    00435eaf f   MSVCRT:file_mode.obj
 0001:00034eb5       ?__scrt_initialize_type_info@@YAXXZ 00435eb5 f   MSVCRT:tncleanup.obj
 0001:00034ec1       ___acrt_initialize         00435ec1 f   MSVCRT:ucrt_stubs.obj
 0001:00034ec1       ___scrt_stub_for_acrt_initialize 00435ec1 f   MSVCRT:ucrt_stubs.obj
 0001:00034ec1       __should_initialize_environment 00435ec1 f   MSVCRT:env_mode.obj
 0001:00034ec1       ___scrt_stub_for_acrt_uninitialize 00435ec1 f   MSVCRT:ucrt_stubs.obj
 0001:00034ec1       ___vcrt_uninitialize       00435ec1 f   MSVCRT:ucrt_stubs.obj
 0001:00034ec1       ___vcrt_initialize         00435ec1 f   MSVCRT:ucrt_stubs.obj
 0001:00034ec1       ___acrt_uninitialize       00435ec1 f   MSVCRT:ucrt_stubs.obj
 0001:00034ec4       __initialize_default_precision 00435ec4 f   MSVCRT:default_precision.obj
 0001:00034ee5       __initialize_invalid_parameter_handler 00435ee5 f   MSVCRT:invalid_parameter_handler.obj
 0001:00034ee5       __initialize_denormal_control 00435ee5 f   MSVCRT:denormal_control.obj
 0001:00034ee5       @_guard_check_icall_nop@4  00435ee5 f   MSVCRT:guard_support.obj
 0001:00034ee6       ___local_stdio_scanf_options 00435ee6 f i MSVCRT:default_local_stdio_options.obj
 0001:00034eec       ___scrt_initialize_default_local_stdio_options 00435eec f   MSVCRT:default_local_stdio_options.obj
 0001:00034f09       ___scrt_is_user_matherr_present 00435f09 f   MSVCRT:matherr_detection.obj
 0001:00034f15       ___scrt_get_dyn_tls_init_callback 00435f15 f   MSVCRT:dyn_tls_init.obj
 0001:00034f1b       ___scrt_get_dyn_tls_dtor_callback 00435f1b f   MSVCRT:dyn_tls_dtor.obj
 0001:00034f21       ___scrt_fastfail           00435f21 f   MSVCRT:utility_desktop.obj
 0001:0003503c       ___scrt_is_managed_app     0043603c f   MSVCRT:utility_desktop.obj
 0001:00035080       ___scrt_set_unhandled_exception_filter 00436080 f   MSVCRT:utility_desktop.obj
 0001:0003508c       ___scrt_unhandled_exception_filter@4 0043608c f   MSVCRT:utility_desktop.obj
 0001:000350cd       __RTC_Initialize           004360cd f   MSVCRT:_initsect_.obj
 0001:000350f8       __RTC_Terminate            004360f8 f   MSVCRT:_initsect_.obj
 0001:00035123       @_guard_check_icall@4      00436123 f i MSVCRT:checkcfg.obj
 0001:00035130       __SEH_prolog4              00436130 f   MSVCRT:_sehprolg4_.obj
 0001:00035176       __SEH_epilog4              00436176 f   MSVCRT:_sehprolg4_.obj
 0001:0003518b       __except_handler4          0043618b f   MSVCRT:_chandler4gs_.obj
 0001:000351ae       ___scrt_is_ucrt_dll_in_use 004361ae f   MSVCRT:ucrt_detection.obj
 0001:000351ba       _IsProcessorFeaturePresent@4 004361ba f   kernel32:KERNEL32.dll
 0001:000351c0       _memset                    004361c0 f   vcruntime:VCRUNTIME140.dll
 0001:000351c6       _memcpy                    004361c6 f   vcruntime:VCRUNTIME140.dll
 0001:000351cc       __setjmp3                  004361cc f   vcruntime:VCRUNTIME140.dll
 0001:000351d2       _longjmp                   004361d2 f   vcruntime:VCRUNTIME140.dll
 0001:000351d8       __except_handler4_common   004361d8 f   vcruntime:VCRUNTIME140.dll
 0001:000351de       __CIfmod                   004361de f   ucrt:api-ms-win-crt-math-l1-1-0.dll
 0001:000351e4       __seh_filter_exe           004361e4 f   ucrt:api-ms-win-crt-runtime-l1-1-0.dll
 0001:000351ea       __set_app_type             004361ea f   ucrt:api-ms-win-crt-runtime-l1-1-0.dll
 0001:000351f0       ___setusermatherr          004361f0 f   ucrt:api-ms-win-crt-math-l1-1-0.dll
 0001:000351f6       __configure_narrow_argv    004361f6 f   ucrt:api-ms-win-crt-runtime-l1-1-0.dll
 0001:000351fc       __initialize_narrow_environment 004361fc f   ucrt:api-ms-win-crt-runtime-l1-1-0.dll
 0001:00035202       __get_initial_narrow_environment 00436202 f   ucrt:api-ms-win-crt-runtime-l1-1-0.dll
 0001:00035208       __initterm                 00436208 f   ucrt:api-ms-win-crt-runtime-l1-1-0.dll
 0001:0003520e       __initterm_e               0043620e f   ucrt:api-ms-win-crt-runtime-l1-1-0.dll
 0001:00035214       _exit                      00436214 f   ucrt:api-ms-win-crt-runtime-l1-1-0.dll
 0001:0003521a       __exit                     0043621a f   ucrt:api-ms-win-crt-runtime-l1-1-0.dll
 0001:00035220       __set_fmode                00436220 f   ucrt:api-ms-win-crt-stdio-l1-1-0.dll
 0001:00035226       ___p___argc                00436226 f   ucrt:api-ms-win-crt-runtime-l1-1-0.dll
 0001:0003522c       ___p___argv                0043622c f   ucrt:api-ms-win-crt-runtime-l1-1-0.dll
 0001:00035232       __cexit                    00436232 f   ucrt:api-ms-win-crt-runtime-l1-1-0.dll
 0001:00035238       __c_exit                   00436238 f   ucrt:api-ms-win-crt-runtime-l1-1-0.dll
 0001:0003523e       __register_thread_local_exe_atexit_callback 0043623e f   ucrt:api-ms-win-crt-runtime-l1-1-0.dll
 0001:00035244       __configthreadlocale       00436244 f   ucrt:api-ms-win-crt-locale-l1-1-0.dll
 0001:0003524a       __set_new_mode             0043624a f   ucrt:api-ms-win-crt-heap-l1-1-0.dll
 0001:00035250       ___p__commode              00436250 f   ucrt:api-ms-win-crt-stdio-l1-1-0.dll
 0001:00035256       __except1                  00436256 f   ucrt:api-ms-win-crt-math-l1-1-0.dll
 0001:0003525c       __initialize_onexit_table  0043625c f   ucrt:api-ms-win-crt-runtime-l1-1-0.dll
 0001:00035262       __register_onexit_function 00436262 f   ucrt:api-ms-win-crt-runtime-l1-1-0.dll
 0001:00035268       __crt_atexit               00436268 f   ucrt:api-ms-win-crt-runtime-l1-1-0.dll
 0001:0003526e       __controlfp_s              0043626e f   ucrt:api-ms-win-crt-runtime-l1-1-0.dll
 0001:00035274       _terminate                 00436274 f   ucrt:api-ms-win-crt-runtime-l1-1-0.dll
 0002:00000000       __imp__SetUnhandledExceptionFilter@4 00437000     kernel32:KERNEL32.dll
 0002:00000004       __imp__GetModuleHandleW@4  00437004     kernel32:KERNEL32.dll
 0002:00000008       __imp__IsDebuggerPresent@0 00437008     kernel32:KERNEL32.dll
 0002:0000000c       __imp__InitializeSListHead@4 0043700c     kernel32:KERNEL32.dll
 0002:00000010       __imp__GetSystemTimeAsFileTime@4 00437010     kernel32:KERNEL32.dll
 0002:00000014       __imp__IsProcessorFeaturePresent@4 00437014     kernel32:KERNEL32.dll
 0002:00000018       __imp__TerminateProcess@8  00437018     kernel32:KERNEL32.dll
 0002:0000001c       __imp__GetCurrentProcess@0 0043701c     kernel32:KERNEL32.dll
 0002:00000020       __imp__UnhandledExceptionFilter@4 00437020     kernel32:KERNEL32.dll
 0002:00000024       __imp__LoadLibraryA@4      00437024     kernel32:KERNEL32.dll
 0002:00000028       __imp__GetProcAddress@8    00437028     kernel32:KERNEL32.dll
 0002:0000002c       __imp__FreeLibrary@4       0043702c     kernel32:KERNEL32.dll
 0002:00000030       __imp__FormatMessageA@28   00437030     kernel32:KERNEL32.dll
 0002:00000034       __imp__QueryPerformanceFrequency@4 00437034     kernel32:KERNEL32.dll
 0002:00000038       __imp__QueryPerformanceCounter@4 00437038     kernel32:KERNEL32.dll
 0002:0000003c       __imp__SystemTimeToFileTime@8 0043703c     kernel32:KERNEL32.dll
 0002:00000040       __imp__FileTimeToSystemTime@8 00437040     kernel32:KERNEL32.dll
 0002:00000044       __imp__GetLocalTime@4      00437044     kernel32:KERNEL32.dll
 0002:00000048       __imp__SetConsoleTextAttribute@8 00437048     kernel32:KERNEL32.dll
 0002:0000004c       __imp__CreateSemaphoreA@16 0043704c     kernel32:KERNEL32.dll
 0002:00000050       __imp__TlsFree@4           00437050     kernel32:KERNEL32.dll
 0002:00000054       __imp__TlsSetValue@8       00437054     kernel32:KERNEL32.dll
 0002:00000058       __imp__TlsGetValue@4       00437058     kernel32:KERNEL32.dll
 0002:0000005c       __imp__TlsAlloc@0          0043705c     kernel32:KERNEL32.dll
 0002:00000060       __imp__GetCurrentThreadId@0 00437060     kernel32:KERNEL32.dll
 0002:00000064       __imp__GetCurrentThread@0  00437064     kernel32:KERNEL32.dll
 0002:00000068       __imp__CreateThread@24     00437068     kernel32:KERNEL32.dll
 0002:0000006c       __imp__GetCurrentProcessId@0 0043706c     kernel32:KERNEL32.dll
 0002:00000070       __imp__GetStdHandle@4      00437070     kernel32:KERNEL32.dll
 0002:00000074       __imp__CloseHandle@4       00437074     kernel32:KERNEL32.dll
 0002:00000078       __imp__GetLastError@0      00437078     kernel32:KERNEL32.dll
 0002:0000007c       __imp__InitializeCriticalSection@4 0043707c     kernel32:KERNEL32.dll
 0002:00000080       __imp__EnterCriticalSection@4 00437080     kernel32:KERNEL32.dll
 0002:00000084       __imp__LeaveCriticalSection@4 00437084     kernel32:KERNEL32.dll
 0002:00000088       __imp__TryEnterCriticalSection@4 00437088     kernel32:KERNEL32.dll
 0002:0000008c       __imp__DeleteCriticalSection@4 0043708c     kernel32:KERNEL32.dll
 0002:00000090       __imp__ReleaseSemaphore@12 00437090     kernel32:KERNEL32.dll
 0002:00000094       __imp__WaitForSingleObject@8 00437094     kernel32:KERNEL32.dll
 0002:00000098       __imp__Sleep@4             00437098     kernel32:KERNEL32.dll
 0002:0000009c       \177KERNEL32_NULL_THUNK_DATA 0043709c     kernel32:KERNEL32.dll
 0002:000000a0       __imp__strchr              004370a0     vcruntime:VCRUNTIME140.dll
 0002:000000a4       __imp__memmove             004370a4     vcruntime:VCRUNTIME140.dll
 0002:000000a8       __imp___setjmp3            004370a8     vcruntime:VCRUNTIME140.dll
 0002:000000ac       __imp__memchr              004370ac     vcruntime:VCRUNTIME140.dll
 0002:000000b0       __imp__memcpy              004370b0     vcruntime:VCRUNTIME140.dll
 0002:000000b4       __imp__memset              004370b4     vcruntime:VCRUNTIME140.dll
 0002:000000b8       __imp___except_handler4_common 004370b8     vcruntime:VCRUNTIME140.dll
 0002:000000bc       __imp__longjmp             004370bc     vcruntime:VCRUNTIME140.dll
 0002:000000c0       \177VCRUNTIME140_NULL_THUNK_DATA 004370c0     vcruntime:VCRUNTIME140.dll
 0002:000000c4       __imp__gethostname@8       004370c4     ws2_32:WS2_32.dll
 0002:000000c8       __imp__setsockopt@20       004370c8     ws2_32:WS2_32.dll
 0002:000000cc       __imp__sendto@24           004370cc     ws2_32:WS2_32.dll
 0002:000000d0       __imp__send@16             004370d0     ws2_32:WS2_32.dll
 0002:000000d4       __imp__recvfrom@24         004370d4     ws2_32:WS2_32.dll
 0002:000000d8       __imp__recv@16             004370d8     ws2_32:WS2_32.dll
 0002:000000dc       __imp__ntohs@4             004370dc     ws2_32:WS2_32.dll
 0002:000000e0       __imp__ntohl@4             004370e0     ws2_32:WS2_32.dll
 0002:000000e4       __imp__listen@8            004370e4     ws2_32:WS2_32.dll
 0002:000000e8       __imp__WSAIoctl@36         004370e8     ws2_32:WS2_32.dll
 0002:000000ec       __imp__htons@4             004370ec     ws2_32:WS2_32.dll
 0002:000000f0       __imp__htonl@4             004370f0     ws2_32:WS2_32.dll
 0002:000000f4       __imp__getsockopt@20       004370f4     ws2_32:WS2_32.dll
 0002:000000f8       __imp__getsockname@12      004370f8     ws2_32:WS2_32.dll
 0002:000000fc       __imp__WSASocketA@24       004370fc     ws2_32:WS2_32.dll
 0002:00000100       __imp__connect@12          00437100     ws2_32:WS2_32.dll
 0002:00000104       __imp__closesocket@4       00437104     ws2_32:WS2_32.dll
 0002:00000108       __imp__bind@12             00437108     ws2_32:WS2_32.dll
 0002:0000010c       __imp__accept@12           0043710c     ws2_32:WS2_32.dll
 0002:00000110       __imp__WSAGetLastError@0   00437110     ws2_32:WS2_32.dll
 0002:00000114       __imp__WSAStartup@8        00437114     ws2_32:WS2_32.dll
 0002:00000118       __imp__WSAAddressToStringA@20 00437118     ws2_32:WS2_32.dll
 0002:0000011c       __imp__WSAStringToAddressA@20 0043711c     ws2_32:WS2_32.dll
 0002:00000120       __imp__ioctlsocket@12      00437120     ws2_32:WS2_32.dll
 0002:00000124       __imp__gethostbyname@4     00437124     ws2_32:WS2_32.dll
 0002:00000128       __imp____WSAFDIsSet@8      00437128     ws2_32:WS2_32.dll
 0002:0000012c       __imp__select@20           0043712c     ws2_32:WS2_32.dll
 0002:00000130       __imp__inet_addr@4         00437130     ws2_32:WS2_32.dll
 0002:00000134       \177WS2_32_NULL_THUNK_DATA 00437134     ws2_32:WS2_32.dll
 0002:00000138       __imp__strtol              00437138     ucrt:api-ms-win-crt-convert-l1-1-0.dll
 0002:0000013c       __imp__atoi                0043713c     ucrt:api-ms-win-crt-convert-l1-1-0.dll
 0002:00000140       \177api-ms-win-crt-convert-l1-1-0_NULL_THUNK_DATA 00437140     ucrt:api-ms-win-crt-convert-l1-1-0.dll
 0002:00000144       __imp__malloc              00437144     ucrt:api-ms-win-crt-heap-l1-1-0.dll
 0002:00000148       __imp__free                00437148     ucrt:api-ms-win-crt-heap-l1-1-0.dll
 0002:0000014c       __imp___set_new_mode       0043714c     ucrt:api-ms-win-crt-heap-l1-1-0.dll
 0002:00000150       \177api-ms-win-crt-heap-l1-1-0_NULL_THUNK_DATA 00437150     ucrt:api-ms-win-crt-heap-l1-1-0.dll
 0002:00000154       __imp___configthreadlocale 00437154     ucrt:api-ms-win-crt-locale-l1-1-0.dll
 0002:00000158       \177api-ms-win-crt-locale-l1-1-0_NULL_THUNK_DATA 00437158     ucrt:api-ms-win-crt-locale-l1-1-0.dll
 0002:0000015c       __imp____setusermatherr    0043715c     ucrt:api-ms-win-crt-math-l1-1-0.dll
 0002:00000160       __imp___CIfmod             00437160     ucrt:api-ms-win-crt-math-l1-1-0.dll
 0002:00000164       __imp___except1            00437164     ucrt:api-ms-win-crt-math-l1-1-0.dll
 0002:00000168       \177api-ms-win-crt-math-l1-1-0_NULL_THUNK_DATA 00437168     ucrt:api-ms-win-crt-math-l1-1-0.dll
 0002:0000016c       __imp___crt_atexit         0043716c     ucrt:api-ms-win-crt-runtime-l1-1-0.dll
 0002:00000170       __imp___initialize_onexit_table 00437170     ucrt:api-ms-win-crt-runtime-l1-1-0.dll
 0002:00000174       __imp___controlfp_s        00437174     ucrt:api-ms-win-crt-runtime-l1-1-0.dll
 0002:00000178       __imp__terminate           00437178     ucrt:api-ms-win-crt-runtime-l1-1-0.dll
 0002:0000017c       __imp___register_onexit_function 0043717c     ucrt:api-ms-win-crt-runtime-l1-1-0.dll
 0002:00000180       __imp___seh_filter_exe     00437180     ucrt:api-ms-win-crt-runtime-l1-1-0.dll
 0002:00000184       __imp___set_app_type       00437184     ucrt:api-ms-win-crt-runtime-l1-1-0.dll
 0002:00000188       __imp____p___argc          00437188     ucrt:api-ms-win-crt-runtime-l1-1-0.dll
 0002:0000018c       __imp___configure_narrow_argv 0043718c     ucrt:api-ms-win-crt-runtime-l1-1-0.dll
 0002:00000190       __imp___initialize_narrow_environment 00437190     ucrt:api-ms-win-crt-runtime-l1-1-0.dll
 0002:00000194       __imp___get_initial_narrow_environment 00437194     ucrt:api-ms-win-crt-runtime-l1-1-0.dll
 0002:00000198       __imp___initterm           00437198     ucrt:api-ms-win-crt-runtime-l1-1-0.dll
 0002:0000019c       __imp___initterm_e         0043719c     ucrt:api-ms-win-crt-runtime-l1-1-0.dll
 0002:000001a0       __imp__exit                004371a0     ucrt:api-ms-win-crt-runtime-l1-1-0.dll
 0002:000001a4       __imp___exit               004371a4     ucrt:api-ms-win-crt-runtime-l1-1-0.dll
 0002:000001a8       __imp___register_thread_local_exe_atexit_callback 004371a8     ucrt:api-ms-win-crt-runtime-l1-1-0.dll
 0002:000001ac       __imp___c_exit             004371ac     ucrt:api-ms-win-crt-runtime-l1-1-0.dll
 0002:000001b0       __imp____p___argv          004371b0     ucrt:api-ms-win-crt-runtime-l1-1-0.dll
 0002:000001b4       __imp___cexit              004371b4     ucrt:api-ms-win-crt-runtime-l1-1-0.dll
 0002:000001b8       \177api-ms-win-crt-runtime-l1-1-0_NULL_THUNK_DATA 004371b8     ucrt:api-ms-win-crt-runtime-l1-1-0.dll
 0002:000001bc       __imp____acrt_iob_func     004371bc     ucrt:api-ms-win-crt-stdio-l1-1-0.dll
 0002:000001c0       __imp___set_fmode          004371c0     ucrt:api-ms-win-crt-stdio-l1-1-0.dll
 0002:000001c4       __imp__puts                004371c4     ucrt:api-ms-win-crt-stdio-l1-1-0.dll
 0002:000001c8       __imp__fgets               004371c8     ucrt:api-ms-win-crt-stdio-l1-1-0.dll
 0002:000001cc       __imp____p__commode        004371cc     ucrt:api-ms-win-crt-stdio-l1-1-0.dll
 0002:000001d0       __imp____stdio_common_vfprintf 004371d0     ucrt:api-ms-win-crt-stdio-l1-1-0.dll
 0002:000001d4       __imp____stdio_common_vsprintf 004371d4     ucrt:api-ms-win-crt-stdio-l1-1-0.dll
 0002:000001d8       \177api-ms-win-crt-stdio-l1-1-0_NULL_THUNK_DATA 004371d8     ucrt:api-ms-win-crt-stdio-l1-1-0.dll
 0002:000001dc       __imp__isspace             004371dc     ucrt:api-ms-win-crt-string-l1-1-0.dll
 0002:000001e0       __imp___strnicmp           004371e0     ucrt:api-ms-win-crt-string-l1-1-0.dll
 0002:000001e4       __imp__tolower             004371e4     ucrt:api-ms-win-crt-string-l1-1-0.dll
 0002:000001e8       __imp__toupper             004371e8     ucrt:api-ms-win-crt-string-l1-1-0.dll
 0002:000001ec       __imp__strncpy             004371ec     ucrt:api-ms-win-crt-string-l1-1-0.dll
 0002:000001f0       __imp__isxdigit            004371f0     ucrt:api-ms-win-crt-string-l1-1-0.dll
 0002:000001f4       __imp__strncmp             004371f4     ucrt:api-ms-win-crt-string-l1-1-0.dll
 0002:000001f8       __imp__isdigit             004371f8     ucrt:api-ms-win-crt-string-l1-1-0.dll
 0002:000001fc       \177api-ms-win-crt-string-l1-1-0_NULL_THUNK_DATA 004371fc     ucrt:api-ms-win-crt-string-l1-1-0.dll
 0002:00000200       __imp__rand                00437200     ucrt:api-ms-win-crt-utility-l1-1-0.dll
 0002:00000204       \177api-ms-win-crt-utility-l1-1-0_NULL_THUNK_DATA 00437204     ucrt:api-ms-win-crt-utility-l1-1-0.dll
 0002:00000208       __imp__CoCreateGuid@4      00437208     ole32:ole32.dll
 0002:0000020c       \177ole32_NULL_THUNK_DATA  0043720c     ole32:ole32.dll
 0002:00000210       ___guard_check_icall_fptr  00437210     MSVCRT:guard_support.obj
 0002:00000214       ___xc_a                    00437214     MSVCRT:initializers.obj
 0002:0000021c       ___xc_z                    0043721c     MSVCRT:initializers.obj
 0002:00000220       ___xi_a                    00437220     MSVCRT:initializers.obj
 0002:0000022c       ___xi_z                    0043722c     MSVCRT:initializers.obj
 0002:00000230       ___xp_a                    00437230     MSVCRT:initializers.obj
 0002:00000234       ___xp_z                    00437234     MSVCRT:initializers.obj
 0002:00000238       ___xt_a                    00437238     MSVCRT:initializers.obj
 0002:0000023c       ___xt_z                    0043723c     MSVCRT:initializers.obj
 0002:00000240       __xmm@00000000000000620000000000000001 00437240     sipecho.obj
 0002:00000250       ??_C@_0FL@EKGBDOF@Secure?5dialog?5requires?5SIPS?5sche@ 00437250     pjsip-ua-i386-win32-vc14-release-dynamic:sip_inv.obj
 0002:000002b0       ??_C@_0FH@KHNGIOMA@Secure?5dialog?5requires?5SIPS?5sche@ 004372b0     pjsip-ua-i386-win32-vc14-release-dynamic:sip_inv.obj
 0002:00000314       ??_C@_06HHJABCJL@UPDATE?$AA@ 00437314     pjsip-ua-i386-win32-vc14-release-dynamic:sip_inv.obj
 0002:0000031c       ??_C@_05MMFAAGKE@early?$AA@ 0043731c     pjsip-ua-i386-win32-vc14-release-dynamic:sip_inv.obj
 0002:00000324       ??_C@_05FPBGKCKL@final?$AA@ 00437324     pjsip-ua-i386-win32-vc14-release-dynamic:sip_inv.obj
 0002:00000330       ??_C@_0FN@JNKNAMO@Received?5?$CFs?5response?5after?5SDP?5n@ 00437330     pjsip-ua-i386-win32-vc14-release-dynamic:sip_inv.obj
 0002:00000390       ??_C@_0EA@DMMNFDGN@Error?5updating?5local?5offer?5for?5f@ 00437390     pjsip-ua-i386-win32-vc14-release-dynamic:sip_inv.obj
 0002:000003d0       ??_C@_0CO@JFCENHLK@SDP?5negotiation?5done?0?5message?5bo@ 004373d0     pjsip-ua-i386-win32-vc14-release-dynamic:sip_inv.obj
 0002:00000400       ??_C@_0BI@BGFFELKE@Error?5parsing?5SDP?5in?5?$CFs?$AA@ 00437400     pjsip-ua-i386-win32-vc14-release-dynamic:sip_inv.obj
 0002:00000418       ??_C@_0BE@EPLINLEA@Got?5SDP?5offer?5in?5?$CFs?$AA@ 00437418     pjsip-ua-i386-win32-vc14-release-dynamic:sip_inv.obj
 0002:0000042c       ??_C@_0CA@NKIPLGEL@Error?5processing?5SDP?5offer?5in?5?$CF?$AA@ 0043742c     pjsip-ua-i386-win32-vc14-release-dynamic:sip_inv.obj
 0002:0000044c       ??_C@_0L@BLDGPIGK@mod?9invite?$AA@ 0043744c     pjsip-ua-i386-win32-vc14-release-dynamic:sip_inv.obj
 0002:00000458       ??_C@_0EG@MIAPKNNJ@Ignoring?5on_rx_offer?$CI?$CJ?5status?5be@ 00437458     pjsip-ua-i386-win32-vc14-release-dynamic:sip_inv.obj
 0002:000004a0       ??_C@_0BF@NJIJAPGF@Got?5SDP?5answer?5in?5?$CFs?$AA@ 004374a0     pjsip-ua-i386-win32-vc14-release-dynamic:sip_inv.obj
 0002:000004b8       ??_C@_0CC@MICCHKNP@Error?5processing?5SDP?5answer?5in?5?$CF@ 004374b8     pjsip-ua-i386-win32-vc14-release-dynamic:sip_inv.obj
 0002:000004dc       ??_C@_0CK@CNMHAOHC@Ignored?5SDP?5in?5?$CFs?3?5negotiator?5st@ 004374dc     pjsip-ua-i386-win32-vc14-release-dynamic:sip_inv.obj
 0002:00000508       ??_C@_06DBKGGLMH@INVITE?$AA@ 00437508     pjsip-ua-i386-win32-vc14-release-dynamic:sip_inv.obj
 0002:00000510       ??_C@_03JMECLKOM@ACK?$AA@  00437510     pjsip-ua-i386-win32-vc14-release-dynamic:sip_inv.obj
 0002:00000514       ??_C@_03BMFBOCK@BYE?$AA@   00437514     pjsip-ua-i386-win32-vc14-release-dynamic:sip_inv.obj
 0002:00000518       ??_C@_06JHILMIHF@CANCEL?$AA@ 00437518     pjsip-ua-i386-win32-vc14-release-dynamic:sip_inv.obj
 0002:00000520       ??_C@_0BA@MJOOLNNM@application?1sdp?$AA@ 00437520     pjsip-ua-i386-win32-vc14-release-dynamic:sip_inv.obj
 0002:00000530       ??_C@_0CH@BBKLGGDE@Another?5INVITE?5transaction?5in?5pr@ 00437530     pjsip-ua-i386-win32-vc14-release-dynamic:sip_inv.obj
 0002:00000558       ??_C@_0BM@KEOGGKDD@on_rx_reinvite?$CI?$CJ?5returns?5?$CFd?$AA@ 00437558     pjsip-ua-i386-win32-vc14-release-dynamic:sip_inv.obj
 0002:00000574       ??_C@_0BH@GJLJMANH@SDP?5negotiation?5failed?$AA@ 00437574     pjsip-ua-i386-win32-vc14-release-dynamic:sip_inv.obj
 0002:0000058c       ??_C@_0BE@OEKCNCCE@Sending?5pending?5BYE?$AA@ 0043758c     pjsip-ua-i386-win32-vc14-release-dynamic:sip_inv.obj
 0002:000005a0       ??_C@_0BL@KNCDOFEH@Failed?5sending?5pending?5BYE?$AA@ 004375a0     pjsip-ua-i386-win32-vc14-release-dynamic:sip_inv.obj
 0002:000005bc       ??_C@_0BJ@DIELNPDA@Received?5?$CFs?0?5sending?5ACK?$AA@ 004375bc     pjsip-ua-i386-win32-vc14-release-dynamic:sip_inv.obj
 0002:000005d8       ??_C@_0CM@GCDEGPO@Received?5?$CFs?0?5notifying?5applicati@ 004375d8     pjsip-ua-i386-win32-vc14-release-dynamic:sip_inv.obj
 0002:00000604       ??_C@_09LDKIKNFD@sip_inv?4c?$AA@ 00437604     pjsip-ua-i386-win32-vc14-release-dynamic:sip_inv.obj
 0002:00000610       ??_C@_04JBGCGIBB@sips?$AA@ 00437610     pjsip-ua-i386-win32-vc14-release-dynamic:sip_inv.obj
 0002:00000618       ??_C@_03MPAIKGMI@sip?$AA@  00437618     pjsip-ua-i386-win32-vc14-release-dynamic:sip_inv.obj
 0002:0000061c       ??_C@_03HPDJAPFJ@tls?$AA@  0043761c     pjsip-ua-i386-win32-vc14-release-dynamic:sip_inv.obj
 0002:00000620       ??_C@_0O@BCIKELEF@SIPS?5Required?$AA@ 00437620     pjsip-ua-i386-win32-vc14-release-dynamic:sip_inv.obj
 0002:00000630       ??_C@_0DG@BKONCIHK@Ignored?5message?5body?5in?5?$CFs?5as?5no@ 00437630     pjsip-ua-i386-win32-vc14-release-dynamic:sip_inv.obj
 0002:00000668       ??_C@_04HIBGFPH@NULL?$AA@  00437668     pjsip-ua-i386-win32-vc14-release-dynamic:sip_inv.obj
 0002:00000670       ??_C@_07BJAKIKLF@CALLING?$AA@ 00437670     pjsip-ua-i386-win32-vc14-release-dynamic:sip_inv.obj
 0002:00000678       ??_C@_08FPHOKLMI@INCOMING?$AA@ 00437678     pjsip-ua-i386-win32-vc14-release-dynamic:sip_inv.obj
 0002:00000684       ??_C@_05HMGOBOK@EARLY?$AA@ 00437684     pjsip-ua-i386-win32-vc14-release-dynamic:sip_inv.obj
 0002:0000068c       ??_C@_0L@OPGIEADC@CONNECTING?$AA@ 0043768c     pjsip-ua-i386-win32-vc14-release-dynamic:sip_inv.obj
 0002:00000698       ??_C@_09JCKBPFKF@CONFIRMED?$AA@ 00437698     pjsip-ua-i386-win32-vc14-release-dynamic:sip_inv.obj
 0002:000006a4       ??_C@_0L@GKFIMDLD@DISCONNCTD?$AA@ 004376a4     pjsip-ua-i386-win32-vc14-release-dynamic:sip_inv.obj
 0002:000006b0       ??_C@_0L@ONMJOFAN@TERMINATED?$AA@ 004376b0     pjsip-ua-i386-win32-vc14-release-dynamic:sip_inv.obj
 0002:000006bc       ??_C@_0DA@CNKPLCJK@SDP?5offer?1answer?5incomplete?0?5end@ 004376bc     pjsip-ua-i386-win32-vc14-release-dynamic:sip_inv.obj
 0002:000006ec       ??_C@_0BF@HOOGIPCC@Normal?5call?5clearing?$AA@ 004376ec     pjsip-ua-i386-win32-vc14-release-dynamic:sip_inv.obj
 0002:00000704       ??_C@_03MHNADFJL@sdp?$AA@  00437704     pjsip-ua-i386-win32-vc14-release-dynamic:sip_inv.obj
 0002:00000708       ??_C@_0M@MBDKLJIJ@application?$AA@ 00437708     pjsip-ua-i386-win32-vc14-release-dynamic:sip_inv.obj
 0002:00000714       ??_C@_09FEKOPBOI@multipart?$AA@ 00437714     pjsip-ua-i386-win32-vc14-release-dynamic:sip_inv.obj
 0002:00000720       ??_C@_05IPHDHIPP@mixed?$AA@ 00437720     pjsip-ua-i386-win32-vc14-release-dynamic:sip_inv.obj
 0002:00000728       ??_C@_0M@HAJLPECN@alternative?$AA@ 00437728     pjsip-ua-i386-win32-vc14-release-dynamic:sip_inv.obj
 0002:00000734       ??_C@_02HHFHKOHM@?$DP?$DP?$AA@ 00437734     pjsip-ua-i386-win32-vc14-release-dynamic:sip_inv.obj
 0002:00000738       ??_C@_05BICJMLFP@inv?$CFp?$AA@ 00437738     pjsip-ua-i386-win32-vc14-release-dynamic:sip_inv.obj
 0002:00000740       ??_C@_0CJ@HLKGBANI@UAC?5invite?5session?5created?5for?5d@ 00437740     pjsip-ua-i386-win32-vc14-release-dynamic:sip_inv.obj
 0002:0000076c       ??_C@_0CC@MAIPFFMN@Error?5parsing?1validating?5SDP?5bod@ 0043776c     pjsip-ua-i386-win32-vc14-release-dynamic:sip_inv.obj
 0002:00000790       ??_C@_06IPLOHEDL@100rel?$AA@ 00437790     pjsip-ua-i386-win32-vc14-release-dynamic:sip_inv.obj
 0002:00000798       ??_C@_05NAPFDJNG@timer?$AA@ 00437798     pjsip-ua-i386-win32-vc14-release-dynamic:sip_inv.obj
 0002:000007a0       ??_C@_0CJ@EIBALPMO@UAS?5invite?5session?5created?5for?5d@ 004377a0     pjsip-ua-i386-win32-vc14-release-dynamic:sip_inv.obj
 0002:000007cc       ??_C@_05ECJJFAAP@PRACK?$AA@ 004377cc     pjsip-ua-i386-win32-vc14-release-dynamic:sip_inv.obj
 0002:000007d4       ??_C@_0BF@KBACJJBP@SDP?5negotiation?5done?$AA@ 004377d4     pjsip-ua-i386-win32-vc14-release-dynamic:sip_inv.obj
 0002:000007ec       ??_C@_0BC@DKICHHDF@Initial?5answer?5?$CFs?$AA@ 004377ec     pjsip-ua-i386-win32-vc14-release-dynamic:sip_inv.obj
 0002:00000800       ??_C@_0DO@HEALFLEC@Delaying?5CANCEL?5since?5no?5provisi@ 00437800     pjsip-ua-i386-win32-vc14-release-dynamic:sip_inv.obj
 0002:00000840       ??_C@_0BI@DIMJOHLK@?$DM?9error?3?5uri?5too?5long?9?$DO?$AA@ 00437840     pjsip-ua-i386-win32-vc14-release-dynamic:sip_inv.obj
 0002:00000858       ??_C@_07PMMFKIFM@Contact?$AA@ 00437858     pjsip-ua-i386-win32-vc14-release-dynamic:sip_inv.obj
 0002:00000860       ??_C@_0CK@INPGLEAA@Invalid?5SDP?5offer?1answer?5state?5f@ 00437860     pjsip-ua-i386-win32-vc14-release-dynamic:sip_inv.obj
 0002:0000088c       ??_C@_0L@BPIOADDE@Sending?5?$CFs?$AA@ 0043788c     pjsip-ua-i386-win32-vc14-release-dynamic:sip_inv.obj
 0002:00000898       ??_C@_0CL@IIMHLPDD@Delaying?5BYE?5request?5until?5ACK?5i@ 00437898     pjsip-ua-i386-win32-vc14-release-dynamic:sip_inv.obj
 0002:000008d0       __xmm@00000000000000000000000000000006 004378d0     pjsip-ua-i386-win32-vc14-release-dynamic:sip_inv.obj
 0002:000008f8       _pjsip_prack_method        004378f8     pjsip-ua-i386-win32-vc14-release-dynamic:sip_100rel.obj
 0002:00000904       ??_C@_04NKIOHFHJ@RSeq?$AA@ 00437904     pjsip-ua-i386-win32-vc14-release-dynamic:sip_100rel.obj
 0002:0000090c       ??_C@_04JEDOGMAE@RAck?$AA@ 0043790c     pjsip-ua-i386-win32-vc14-release-dynamic:sip_100rel.obj
 0002:00000914       ??_C@_0L@KBAFDJEE@mod?9100rel?$AA@ 00437914     pjsip-ua-i386-win32-vc14-release-dynamic:sip_100rel.obj
 0002:00000920       ??_C@_0BH@ONPFCEOK@100rel?5module?5attached?$AA@ 00437920     pjsip-ua-i386-win32-vc14-release-dynamic:sip_100rel.obj
 0002:00000938       ??_C@_0CN@FOEJAHIE@Ignoring?5100rel?5response?5with?5no@ 00437938     pjsip-ua-i386-win32-vc14-release-dynamic:sip_100rel.obj
 0002:00000968       ??_C@_0EC@BLMHGGJH@Ignoring?5100rel?5response?5because@ 00437968     pjsip-ua-i386-win32-vc14-release-dynamic:sip_100rel.obj
 0002:000009ac       ??_C@_0DL@FCLLNCLO@Ignoring?5100rel?5response?5with?5no@ 004379ac     pjsip-ua-i386-win32-vc14-release-dynamic:sip_100rel.obj
 0002:000009e8       ??_C@_0L@IBEMKGAL@?$CFu?5?$CFu?5?$CF?4?$CKs?$AA@ 004379e8     pjsip-ua-i386-win32-vc14-release-dynamic:sip_100rel.obj
 0002:000009f4       ??_C@_0BB@IEDINMFC@Unexpected?5PRACK?$AA@ 004379f4     pjsip-ua-i386-win32-vc14-release-dynamic:sip_100rel.obj
 0002:00000a08       ??_C@_0CE@PLNFEICH@PRACK?5ignored?5?9?5no?5pending?5respo@ 00437a08     pjsip-ua-i386-win32-vc14-release-dynamic:sip_100rel.obj
 0002:00000a2c       ??_C@_0P@BPOGJPKH@No?5RAck?5header?$AA@ 00437a2c     pjsip-ua-i386-win32-vc14-release-dynamic:sip_100rel.obj
 0002:00000a3c       ??_C@_0CM@DOMMHELC@Rx?5PRACK?5with?5no?5matching?5reliab@ 00437a3c     pjsip-ua-i386-win32-vc14-release-dynamic:sip_100rel.obj
 0002:00000a68       ??_C@_0BM@HPALGIGM@Reliable?5response?5timed?5out?$AA@ 00437a68     pjsip-ua-i386-win32-vc14-release-dynamic:sip_100rel.obj
 0002:00000a84       ??_C@_0BN@BIEECPPD@?4?4?2src?2pjsip?9ua?2sip_100rel?4c?$AA@ 00437a84     pjsip-ua-i386-win32-vc14-release-dynamic:sip_100rel.obj
 0002:00000aa4       ??_C@_0CG@JIMKEDOL@2xx?5response?5will?5be?5sent?5after?5@ 00437aa4     pjsip-ua-i386-win32-vc14-release-dynamic:sip_100rel.obj
 0002:00000acc       ??_C@_0CE@BEBCMEH@No?5SDP?5sent?5so?5far?0?5sending?52xx?5@ 00437acc     pjsip-ua-i386-win32-vc14-release-dynamic:sip_100rel.obj
 0002:00000af0       ??_C@_02GMHACPFF@?$CFu?$AA@ 00437af0     pjsip-ua-i386-win32-vc14-release-dynamic:sip_100rel.obj
 0002:00000af4       ??_C@_0CL@JLPOAJFO@Reliable?5?$CFd?5response?5enqueued?5?$CI?$CF@ 00437af4     pjsip-ua-i386-win32-vc14-release-dynamic:sip_100rel.obj
 0002:00000b58       _pjsip_update_method       00437b58     pjsip-ua-i386-win32-vc14-release-dynamic:sip_timer.obj
 0002:00000b64       ??_C@_0BA@HCNJNBAB@Session?9Expires?$AA@ 00437b64     pjsip-ua-i386-win32-vc14-release-dynamic:sip_timer.obj
 0002:00000b74       ??_C@_01FJMABOPO@x?$AA@    00437b74     pjsip-ua-i386-win32-vc14-release-dynamic:sip_timer.obj
 0002:00000b78       ??_C@_06PPBKPPMM@Min?9SE?$AA@ 00437b78     pjsip-ua-i386-win32-vc14-release-dynamic:sip_timer.obj
 0002:00000b80       ??_C@_09NOICKHFM@refresher?$AA@ 00437b80     pjsip-ua-i386-win32-vc14-release-dynamic:sip_timer.obj
 0002:00000b8c       ??_C@_03IFJPOJDO@uac?$AA@  00437b8c     pjsip-ua-i386-win32-vc14-release-dynamic:sip_timer.obj
 0002:00000b90       ??_C@_03MPFNPLGP@uas?$AA@  00437b90     pjsip-ua-i386-win32-vc14-release-dynamic:sip_timer.obj
 0002:00000b94       ??_C@_0BM@GJDEIDKD@?4?4?2src?2pjsip?9ua?2sip_timer?4c?$AA@ 00437b94     pjsip-ua-i386-win32-vc14-release-dynamic:sip_timer.obj
 0002:00000bb0       ??_C@_0DF@MFNPLMLE@Refreshing?5session?5after?5?$CFds?5?$CIex@ 00437bb0     pjsip-ua-i386-win32-vc14-release-dynamic:sip_timer.obj
 0002:00000be8       ??_C@_0BB@FFFNADMG@refresh?5response?$AA@ 00437be8     pjsip-ua-i386-win32-vc14-release-dynamic:sip_timer.obj
 0002:00000bfc       ??_C@_07HPCLKEG@refresh?$AA@ 00437bfc     pjsip-ua-i386-win32-vc14-release-dynamic:sip_timer.obj
 0002:00000c08       ??_C@_0FA@NNHOKPAC@No?5session?5?$CFs?5received?5after?5?$CFds@ 00437c08     pjsip-ua-i386-win32-vc14-release-dynamic:sip_timer.obj
 0002:00000c58       ??_C@_0L@BHFFIHLE@refreshing?$AA@ 00437c58     pjsip-ua-i386-win32-vc14-release-dynamic:sip_timer.obj
 0002:00000c64       ??_C@_0M@CIHJDPCM@terminating?$AA@ 00437c64     pjsip-ua-i386-win32-vc14-release-dynamic:sip_timer.obj
 0002:00000c70       ??_C@_0BK@JNGKHHHE@Error?5in?5?$CFs?5session?5timer?$AA@ 00437c70     pjsip-ua-i386-win32-vc14-release-dynamic:sip_timer.obj
 0002:00000c90       ??_C@_0EK@JCMLCMLM@Received?5422?5?$CISession?5Interval?5T@ 00437c90     pjsip-ua-i386-win32-vc14-release-dynamic:sip_timer.obj
 0002:00000ce0       ??_C@_0IG@FLJLCDDH@Peer?5responds?5with?5bad?5Session?9E@ 00437ce0     pjsip-ua-i386-win32-vc14-release-dynamic:sip_timer.obj
 0002:00000d68       ??_C@_0DC@MANPDFEB@Receive?5error?5?$CFd?5for?5refresh?5req@ 00437d68     pjsip-ua-i386-win32-vc14-release-dynamic:sip_timer.obj
 0002:00000d9c       ??_C@_0DH@MMOHCGLD@Scheduling?5to?5retry?5refresh?5requ@ 00437d9c     pjsip-ua-i386-win32-vc14-release-dynamic:sip_timer.obj
 0002:00000dd4       ??_C@_0BD@KGAJMAJC@Ending?5session?5now?$AA@ 00437dd4     pjsip-ua-i386-win32-vc14-release-dynamic:sip_timer.obj
 0002:00000de8       ??_C@_04IBOFHAPJ@hide?$AA@ 00437de8     pjsip-core-i386-win32-vc14-release-dynamic:sip_msg.obj
 0002:00000df0       ??_C@_08BMKPPPGG@SIP?12?40?1?$AA@ 00437df0     pjsip-core-i386-win32-vc14-release-dynamic:sip_msg.obj
 0002:00000df9       ??_C@_00CNPNBAHC@?$AA@     00437df9     pjsip-core-i386-win32-vc14-release-dynamic:sip_msg.obj
 0002:00000dfc       ??_C@_05ODKKKCAM@?$DLttl?$DN?$AA@ 00437dfc     pjsip-core-i386-win32-vc14-release-dynamic:sip_msg.obj
 0002:00000e04       ??_C@_06IKMHKLF@?$DLrport?$AA@ 00437e04     pjsip-core-i386-win32-vc14-release-dynamic:sip_msg.obj
 0002:00000e0c       ??_C@_07IONINLDO@?$DLmaddr?$DN?$AA@ 00437e0c     pjsip-core-i386-win32-vc14-release-dynamic:sip_msg.obj
 0002:00000e14       ??_C@_0L@IMDGLAJB@?$DLreceived?$DN?$AA@ 00437e14     pjsip-core-i386-win32-vc14-release-dynamic:sip_msg.obj
 0002:00000e20       ??_C@_08LMLOEMIC@?$DLbranch?$DN?$AA@ 00437e20     pjsip-core-i386-win32-vc14-release-dynamic:sip_msg.obj
 0002:00000e2c       ??_C@_02KEGNLNML@?0?5?$AA@ 00437e2c     pjsip-core-i386-win32-vc14-release-dynamic:sip_msg.obj
 0002:00000e30       _pjsip_invite_method       00437e30     pjsip-core-i386-win32-vc14-release-dynamic:sip_msg.obj
 0002:00000e3c       _pjsip_cancel_method       00437e3c     pjsip-core-i386-win32-vc14-release-dynamic:sip_msg.obj
 0002:00000e48       _pjsip_ack_method          00437e48     pjsip-core-i386-win32-vc14-release-dynamic:sip_msg.obj
 0002:00000e54       _pjsip_bye_method          00437e54     pjsip-core-i386-win32-vc14-release-dynamic:sip_msg.obj
 0002:00000e60       _pjsip_register_method     00437e60     pjsip-core-i386-win32-vc14-release-dynamic:sip_msg.obj
 0002:00000e6c       _pjsip_options_method      00437e6c     pjsip-core-i386-win32-vc14-release-dynamic:sip_msg.obj
 0002:00000e78       _pjsip_hdr_names           00437e78     pjsip-core-i386-win32-vc14-release-dynamic:sip_msg.obj
 0002:00001094       ??_C@_03MGEKBFJK@?$DLq?$DN?$AA@ 00438094     pjsip-core-i386-win32-vc14-release-dynamic:sip_msg.obj
 0002:00001098       ??_C@_09JFABAEBI@?$DLexpires?$DN?$AA@ 00438098     pjsip-core-i386-win32-vc14-release-dynamic:sip_msg.obj
 0002:000010a4       ??_C@_08EINEADGI@REGISTER?$AA@ 004380a4     pjsip-core-i386-win32-vc14-release-dynamic:sip_msg.obj
 0002:000010b0       ??_C@_07KDKMIPIP@OPTIONS?$AA@ 004380b0     pjsip-core-i386-win32-vc14-release-dynamic:sip_msg.obj
 0002:000010b8       ??_C@_06MDEHPNLG@Accept?$AA@ 004380b8     pjsip-core-i386-win32-vc14-release-dynamic:sip_msg.obj
 0002:000010c0       ??_C@_0BA@KDJCHKHJ@Accept?9Encoding?$AA@ 004380c0     pjsip-core-i386-win32-vc14-release-dynamic:sip_msg.obj
 0002:000010d0       ??_C@_0BA@POEGPCPD@Accept?9Language?$AA@ 004380d0     pjsip-core-i386-win32-vc14-release-dynamic:sip_msg.obj
 0002:000010e0       ??_C@_0L@DDNEKGOG@Alert?9Info?$AA@ 004380e0     pjsip-core-i386-win32-vc14-release-dynamic:sip_msg.obj
 0002:000010ec       ??_C@_05IEPODGEO@Allow?$AA@ 004380ec     pjsip-core-i386-win32-vc14-release-dynamic:sip_msg.obj
 0002:000010f4       ??_C@_0BE@KPJFGFDH@Authentication?9Info?$AA@ 004380f4     pjsip-core-i386-win32-vc14-release-dynamic:sip_msg.obj
 0002:00001108       ??_C@_0O@NAFGPKMI@Authorization?$AA@ 00438108     pjsip-core-i386-win32-vc14-release-dynamic:sip_msg.obj
 0002:00001118       ??_C@_07IKPMLMAJ@Call?9ID?$AA@ 00438118     pjsip-core-i386-win32-vc14-release-dynamic:sip_msg.obj
 0002:00001120       ??_C@_01KBJDNOO@i?$AA@     00438120     pjsip-core-i386-win32-vc14-release-dynamic:sip_msg.obj
 0002:00001124       ??_C@_09HCKFEBLC@Call?9Info?$AA@ 00438124     pjsip-core-i386-win32-vc14-release-dynamic:sip_msg.obj
 0002:00001130       ??_C@_01GOHFPIOK@m?$AA@    00438130     pjsip-core-i386-win32-vc14-release-dynamic:sip_msg.obj
 0002:00001134       ??_C@_0BE@LMOOGHBG@Content?9Disposition?$AA@ 00438134     pjsip-core-i386-win32-vc14-release-dynamic:sip_msg.obj
 0002:00001148       ??_C@_0BB@KFPPKJHF@Content?9Encoding?$AA@ 00438148     pjsip-core-i386-win32-vc14-release-dynamic:sip_msg.obj
 0002:0000115c       ??_C@_01KGKMHCOC@e?$AA@    0043815c     pjsip-core-i386-win32-vc14-release-dynamic:sip_msg.obj
 0002:00001160       ??_C@_0BB@PICLCBPP@Content?9Language?$AA@ 00438160     pjsip-core-i386-win32-vc14-release-dynamic:sip_msg.obj
 0002:00001174       ??_C@_0P@HOJGPHBA@Content?9Length?$AA@ 00438174     pjsip-core-i386-win32-vc14-release-dynamic:sip_msg.obj
 0002:00001184       ??_C@_01HHGOMJKL@l?$AA@    00438184     pjsip-core-i386-win32-vc14-release-dynamic:sip_msg.obj
 0002:00001188       ??_C@_0N@LAFFMKKA@Content?9Type?$AA@ 00438188     pjsip-core-i386-win32-vc14-release-dynamic:sip_msg.obj
 0002:00001198       ??_C@_01PAPGNFGE@c?$AA@    00438198     pjsip-core-i386-win32-vc14-release-dynamic:sip_msg.obj
 0002:0000119c       ??_C@_04IHAOMLEL@CSeq?$AA@ 0043819c     pjsip-core-i386-win32-vc14-release-dynamic:sip_msg.obj
 0002:000011a4       ??_C@_04FMEGDJGD@Date?$AA@ 004381a4     pjsip-core-i386-win32-vc14-release-dynamic:sip_msg.obj
 0002:000011ac       ??_C@_0L@PGKFFKEH@Error?9Info?$AA@ 004381ac     pjsip-core-i386-win32-vc14-release-dynamic:sip_msg.obj
 0002:000011b8       ??_C@_07DABPCBEH@Expires?$AA@ 004381b8     pjsip-core-i386-win32-vc14-release-dynamic:sip_msg.obj
 0002:000011c0       ??_C@_04LMIAFEOL@From?$AA@ 004381c0     pjsip-core-i386-win32-vc14-release-dynamic:sip_msg.obj
 0002:000011c8       ??_C@_01INIBCBCB@f?$AA@    004381c8     pjsip-core-i386-win32-vc14-release-dynamic:sip_msg.obj
 0002:000011cc       ??_C@_0M@OJFKFNND@In?9Reply?9To?$AA@ 004381cc     pjsip-core-i386-win32-vc14-release-dynamic:sip_msg.obj
 0002:000011d8       ??_C@_0N@KAKEBINL@Max?9Forwards?$AA@ 004381d8     pjsip-core-i386-win32-vc14-release-dynamic:sip_msg.obj
 0002:000011e8       ??_C@_0N@PNJFOFFK@MIME?9Version?$AA@ 004381e8     pjsip-core-i386-win32-vc14-release-dynamic:sip_msg.obj
 0002:000011f8       ??_C@_0M@BHCNHHNF@Min?9Expires?$AA@ 004381f8     pjsip-core-i386-win32-vc14-release-dynamic:sip_msg.obj
 0002:00001204       ??_C@_0N@MHPBIIPD@Organization?$AA@ 00438204     pjsip-core-i386-win32-vc14-release-dynamic:sip_msg.obj
 0002:00001214       ??_C@_08KGEIBGG@Priority?$AA@ 00438214     pjsip-core-i386-win32-vc14-release-dynamic:sip_msg.obj
 0002:00001220       ??_C@_0BD@GKJFGNG@Proxy?9Authenticate?$AA@ 00438220     pjsip-core-i386-win32-vc14-release-dynamic:sip_msg.obj
 0002:00001234       ??_C@_0BE@DCLKKIPG@Proxy?9Authorization?$AA@ 00438234     pjsip-core-i386-win32-vc14-release-dynamic:sip_msg.obj
 0002:00001248       ??_C@_0O@ICDCLCHE@Proxy?9Require?$AA@ 00438248     pjsip-core-i386-win32-vc14-release-dynamic:sip_msg.obj
 0002:00001258       ??_C@_0N@KJFPNEHF@Record?9Route?$AA@ 00438258     pjsip-core-i386-win32-vc14-release-dynamic:sip_msg.obj
 0002:00001268       ??_C@_08GBENDHCN@Reply?9To?$AA@ 00438268     pjsip-core-i386-win32-vc14-release-dynamic:sip_msg.obj
 0002:00001274       ??_C@_07KMMNJNOB@Require?$AA@ 00438274     pjsip-core-i386-win32-vc14-release-dynamic:sip_msg.obj
 0002:0000127c       ??_C@_0M@CMFFKFHP@Retry?9After?$AA@ 0043827c     pjsip-core-i386-win32-vc14-release-dynamic:sip_msg.obj
 0002:00001288       ??_C@_05DIKBIPM@Route?$AA@ 00438288     pjsip-core-i386-win32-vc14-release-dynamic:sip_msg.obj
 0002:00001290       ??_C@_06LGMEBDBC@Server?$AA@ 00438290     pjsip-core-i386-win32-vc14-release-dynamic:sip_msg.obj
 0002:00001298       ??_C@_07GEKACEDI@Subject?$AA@ 00438298     pjsip-core-i386-win32-vc14-release-dynamic:sip_msg.obj
 0002:000012a0       ??_C@_01LKDEMHDF@s?$AA@    004382a0     pjsip-core-i386-win32-vc14-release-dynamic:sip_msg.obj
 0002:000012a4       ??_C@_09GFDKPDGA@Supported?$AA@ 004382a4     pjsip-core-i386-win32-vc14-release-dynamic:sip_msg.obj
 0002:000012b0       ??_C@_01DICPFPGM@k?$AA@    004382b0     pjsip-core-i386-win32-vc14-release-dynamic:sip_msg.obj
 0002:000012b4       ??_C@_09KDGENIOP@Timestamp?$AA@ 004382b4     pjsip-core-i386-win32-vc14-release-dynamic:sip_msg.obj
 0002:000012c0       ??_C@_05IIDIOKEA@?$DLtag?$DN?$AA@ 004382c0     pjsip-core-i386-win32-vc14-release-dynamic:sip_msg.obj
 0002:000012c8       ??_C@_02IJGONHOJ@To?$AA@   004382c8     pjsip-core-i386-win32-vc14-release-dynamic:sip_msg.obj
 0002:000012cc       ??_C@_01PFHFFBPC@t?$AA@    004382cc     pjsip-core-i386-win32-vc14-release-dynamic:sip_msg.obj
 0002:000012d0       ??_C@_0M@BEECMOIL@Unsupported?$AA@ 004382d0     pjsip-core-i386-win32-vc14-release-dynamic:sip_msg.obj
 0002:000012dc       ??_C@_0L@DMPACEMJ@User?9Agent?$AA@ 004382dc     pjsip-core-i386-win32-vc14-release-dynamic:sip_msg.obj
 0002:000012e8       ??_C@_03LDNNKNE@Via?$AA@   004382e8     pjsip-core-i386-win32-vc14-release-dynamic:sip_msg.obj
 0002:000012ec       ??_C@_01MHEDDDHA@v?$AA@    004382ec     pjsip-core-i386-win32-vc14-release-dynamic:sip_msg.obj
 0002:000012f0       ??_C@_07KGMMFLDN@Warning?$AA@ 004382f0     pjsip-core-i386-win32-vc14-release-dynamic:sip_msg.obj
 0002:000012f8       ??_C@_0BB@KEDJJIFI@WWW?9Authenticate?$AA@ 004382f8     pjsip-core-i386-win32-vc14-release-dynamic:sip_msg.obj
 0002:0000130c       ??_C@_0BA@MKEDBJEA@_Unknown?9Header?$AA@ 0043830c     pjsip-core-i386-win32-vc14-release-dynamic:sip_msg.obj
 0002:0000131c       ??_C@_0BH@JEAOBKFE@Default?5status?5message?$AA@ 0043831c     pjsip-core-i386-win32-vc14-release-dynamic:sip_msg.obj
 0002:00001334       ??_C@_06CJPKGAJC@Trying?$AA@ 00438334     pjsip-core-i386-win32-vc14-release-dynamic:sip_msg.obj
 0002:0000133c       ??_C@_07KEMHLLKP@Ringing?$AA@ 0043833c     pjsip-core-i386-win32-vc14-release-dynamic:sip_msg.obj
 0002:00001344       ??_C@_0BI@HBFDMPGA@Call?5Is?5Being?5Forwarded?$AA@ 00438344     pjsip-core-i386-win32-vc14-release-dynamic:sip_msg.obj
 0002:0000135c       ??_C@_06POGAFBAL@Queued?$AA@ 0043835c     pjsip-core-i386-win32-vc14-release-dynamic:sip_msg.obj
 0002:00001364       ??_C@_0BB@FKJCNOGD@Session?5Progress?$AA@ 00438364     pjsip-core-i386-win32-vc14-release-dynamic:sip_msg.obj
 0002:00001378       ??_C@_02GIPFHKNO@OK?$AA@   00438378     pjsip-core-i386-win32-vc14-release-dynamic:sip_msg.obj
 0002:0000137c       ??_C@_08DOBOODLA@Accepted?$AA@ 0043837c     pjsip-core-i386-win32-vc14-release-dynamic:sip_msg.obj
 0002:00001388       ??_C@_0BB@HLFEHKPE@Multiple?5Choices?$AA@ 00438388     pjsip-core-i386-win32-vc14-release-dynamic:sip_msg.obj
 0002:0000139c       ??_C@_0BC@BPBCNFPI@Moved?5Permanently?$AA@ 0043839c     pjsip-core-i386-win32-vc14-release-dynamic:sip_msg.obj
 0002:000013b0       ??_C@_0BC@LODIMCJL@Moved?5Temporarily?$AA@ 004383b0     pjsip-core-i386-win32-vc14-release-dynamic:sip_msg.obj
 0002:000013c4       ??_C@_09JFBGBFIM@Use?5Proxy?$AA@ 004383c4     pjsip-core-i386-win32-vc14-release-dynamic:sip_msg.obj
 0002:000013d0       ??_C@_0BE@MCFGMBHK@Alternative?5Service?$AA@ 004383d0     pjsip-core-i386-win32-vc14-release-dynamic:sip_msg.obj
 0002:000013e4       ??_C@_0M@LNAIDEEG@Bad?5Request?$AA@ 004383e4     pjsip-core-i386-win32-vc14-release-dynamic:sip_msg.obj
 0002:000013f0       ??_C@_0N@OOAPMOJA@Unauthorized?$AA@ 004383f0     pjsip-core-i386-win32-vc14-release-dynamic:sip_msg.obj
 0002:00001400       ??_C@_0BB@LMPIHCBH@Payment?5Required?$AA@ 00438400     pjsip-core-i386-win32-vc14-release-dynamic:sip_msg.obj
 0002:00001414       ??_C@_09LMDIMFJD@Forbidden?$AA@ 00438414     pjsip-core-i386-win32-vc14-release-dynamic:sip_msg.obj
 0002:00001420       ??_C@_09CFCBFJND@Not?5Found?$AA@ 00438420     pjsip-core-i386-win32-vc14-release-dynamic:sip_msg.obj
 0002:0000142c       ??_C@_0BD@CCIPIALO@Method?5Not?5Allowed?$AA@ 0043842c     pjsip-core-i386-win32-vc14-release-dynamic:sip_msg.obj
 0002:00001440       ??_C@_0P@HHIDFAOI@Not?5Acceptable?$AA@ 00438440     pjsip-core-i386-win32-vc14-release-dynamic:sip_msg.obj
 0002:00001450       ??_C@_0BO@ONPAAOGI@Proxy?5Authentication?5Required?$AA@ 00438450     pjsip-core-i386-win32-vc14-release-dynamic:sip_msg.obj
 0002:00001470       ??_C@_0BA@HALFGGF@Request?5Timeout?$AA@ 00438470     pjsip-core-i386-win32-vc14-release-dynamic:sip_msg.obj
 0002:00001480       ??_C@_04OKIIBCCG@Gone?$AA@ 00438480     pjsip-core-i386-win32-vc14-release-dynamic:sip_msg.obj
 0002:00001488       ??_C@_0BJ@MMEIEOIG@Request?5Entity?5Too?5Large?$AA@ 00438488     pjsip-core-i386-win32-vc14-release-dynamic:sip_msg.obj
 0002:000014a4       ??_C@_0BF@LPICFNOC@Request?5URI?5Too?5Long?$AA@ 004384a4     pjsip-core-i386-win32-vc14-release-dynamic:sip_msg.obj
 0002:000014bc       ??_C@_0BH@HLJJIAEN@Unsupported?5Media?5Type?$AA@ 004384bc     pjsip-core-i386-win32-vc14-release-dynamic:sip_msg.obj
 0002:000014d4       ??_C@_0BH@HMDPMBIK@Unsupported?5URI?5Scheme?$AA@ 004384d4     pjsip-core-i386-win32-vc14-release-dynamic:sip_msg.obj
 0002:000014ec       ??_C@_0O@EABFLJJG@Bad?5Extension?$AA@ 004384ec     pjsip-core-i386-win32-vc14-release-dynamic:sip_msg.obj
 0002:000014fc       ??_C@_0BD@LEDCNIMD@Extension?5Required?$AA@ 004384fc     pjsip-core-i386-win32-vc14-release-dynamic:sip_msg.obj
 0002:00001510       ??_C@_0BI@DEDCGMIH@Session?5Timer?5Too?5Small?$AA@ 00438510     pjsip-core-i386-win32-vc14-release-dynamic:sip_msg.obj
 0002:00001528       ??_C@_0BD@NHGMJMLN@Interval?5Too?5Brief?$AA@ 00438528     pjsip-core-i386-win32-vc14-release-dynamic:sip_msg.obj
 0002:0000153c       ??_C@_0BI@JBJKOKGE@Temporarily?5Unavailable?$AA@ 0043853c     pjsip-core-i386-win32-vc14-release-dynamic:sip_msg.obj
 0002:00001554       ??_C@_0CA@DPKMEAMP@Call?1Transaction?5Does?5Not?5Exist?$AA@ 00438554     pjsip-core-i386-win32-vc14-release-dynamic:sip_msg.obj
 0002:00001574       ??_C@_0O@KJBLEGOO@Loop?5Detected?$AA@ 00438574     pjsip-core-i386-win32-vc14-release-dynamic:sip_msg.obj
 0002:00001584       ??_C@_0O@CFHODMHD@Too?5Many?5Hops?$AA@ 00438584     pjsip-core-i386-win32-vc14-release-dynamic:sip_msg.obj
 0002:00001594       ??_C@_0BD@HOIPLGB@Address?5Incomplete?$AA@ 00438594     pjsip-core-i386-win32-vc14-release-dynamic:sip_msg.obj
 0002:000015a8       ??_C@_09FNGPAEJC@Ambiguous?$AA@ 004385a8     pjsip-core-i386-win32-vc14-release-dynamic:sip_msg.obj
 0002:000015b4       ??_C@_09ELAJPHFG@Busy?5Here?$AA@ 004385b4     pjsip-core-i386-win32-vc14-release-dynamic:sip_msg.obj
 0002:000015c0       ??_C@_0BD@IGJOBDDO@Request?5Terminated?$AA@ 004385c0     pjsip-core-i386-win32-vc14-release-dynamic:sip_msg.obj
 0002:000015d4       ??_C@_0BE@HMIMPLAH@Not?5Acceptable?5Here?$AA@ 004385d4     pjsip-core-i386-win32-vc14-release-dynamic:sip_msg.obj
 0002:000015e8       ??_C@_09HKNLJBHH@Bad?5Event?$AA@ 004385e8     pjsip-core-i386-win32-vc14-release-dynamic:sip_msg.obj
 0002:000015f4       ??_C@_0BA@DKJEBJFB@Request?5Updated?$AA@ 004385f4     pjsip-core-i386-win32-vc14-release-dynamic:sip_msg.obj
 0002:00001604       ??_C@_0BA@KLOCDLCK@Request?5Pending?$AA@ 00438604     pjsip-core-i386-win32-vc14-release-dynamic:sip_msg.obj
 0002:00001614       ??_C@_0P@EIPIHDNL@Undecipherable?$AA@ 00438614     pjsip-core-i386-win32-vc14-release-dynamic:sip_msg.obj
 0002:00001624       ??_C@_0BG@NJGANGCC@Internal?5Server?5Error?$AA@ 00438624     pjsip-core-i386-win32-vc14-release-dynamic:sip_msg.obj
 0002:0000163c       ??_C@_0BA@JGKGKAME@Not?5Implemented?$AA@ 0043863c     pjsip-core-i386-win32-vc14-release-dynamic:sip_msg.obj
 0002:0000164c       ??_C@_0M@BNCNLPGM@Bad?5Gateway?$AA@ 0043864c     pjsip-core-i386-win32-vc14-release-dynamic:sip_msg.obj
 0002:00001658       ??_C@_0BE@NGHLFKBN@Service?5Unavailable?$AA@ 00438658     pjsip-core-i386-win32-vc14-release-dynamic:sip_msg.obj
 0002:0000166c       ??_C@_0P@KPHBHCBP@Server?5Timeout?$AA@ 0043866c     pjsip-core-i386-win32-vc14-release-dynamic:sip_msg.obj
 0002:0000167c       ??_C@_0BG@DGJHJFEF@Version?5Not?5Supported?$AA@ 0043867c     pjsip-core-i386-win32-vc14-release-dynamic:sip_msg.obj
 0002:00001694       ??_C@_0BC@FOIGPIGF@Message?5Too?5Large?$AA@ 00438694     pjsip-core-i386-win32-vc14-release-dynamic:sip_msg.obj
 0002:000016a8       ??_C@_0BF@PJIFKKPF@Precondition?5Failure?$AA@ 004386a8     pjsip-core-i386-win32-vc14-release-dynamic:sip_msg.obj
 0002:000016c0       ??_C@_0BA@BNEEJKIK@Busy?5Everywhere?$AA@ 004386c0     pjsip-core-i386-win32-vc14-release-dynamic:sip_msg.obj
 0002:000016d0       ??_C@_07CAMLKJDK@Decline?$AA@ 004386d0     pjsip-core-i386-win32-vc14-release-dynamic:sip_msg.obj
 0002:000016d8       ??_C@_0BI@JILKKJAA@Does?5Not?5Exist?5Anywhere?$AA@ 004386d8     pjsip-core-i386-win32-vc14-release-dynamic:sip_msg.obj
 0002:000016f0       ??_C@_0CE@LJDLADFN@No?5response?5from?5destination?5ser@ 004386f0     pjsip-core-i386-win32-vc14-release-dynamic:sip_msg.obj
 0002:00001714       ??_C@_0CF@KIECMFPG@Unable?5to?5resolve?5destination?5se@ 00438714     pjsip-core-i386-win32-vc14-release-dynamic:sip_msg.obj
 0002:0000173c       ??_C@_0CM@KOHFAKJI@Error?5sending?5message?5to?5destina@ 0043873c     pjsip-core-i386-win32-vc14-release-dynamic:sip_msg.obj
 0002:00001768       ??_C@_0BB@NFGDEPJM@Content?9Length?3?5?$AA@ 00438768     pjsip-core-i386-win32-vc14-release-dynamic:sip_msg.obj
 0002:0000177c       ??_C@_03BDDDCMLM@l?3?5?$AA@ 0043877c     pjsip-core-i386-win32-vc14-release-dynamic:sip_msg.obj
 0002:00001780       ??_C@_0L@GLHKEHNL@?5SIP?12?40?$AN?6?$AA@ 00438780     pjsip-core-i386-win32-vc14-release-dynamic:sip_msg.obj
 0002:0000178c       ??_C@_08JLDHODKJ@SIP?12?40?5?$AA@ 0043878c     pjsip-core-i386-win32-vc14-release-dynamic:sip_msg.obj
 0002:00001798       ??_C@_0DH@DHKJLILJ@Header?5with?5no?5vptr?5encountered?$CB@ 00438798     pjsip-core-i386-win32-vc14-release-dynamic:sip_msg.obj
 0002:000017d0       ??_C@_07KCAKOOLP@sip_msg?$AA@ 004387d0     pjsip-core-i386-win32-vc14-release-dynamic:sip_msg.obj
 0002:000017d8       ??_C@_0P@GJMOGDPG@Content?9Type?3?5?$AA@ 004387d8     pjsip-core-i386-win32-vc14-release-dynamic:sip_msg.obj
 0002:000017e8       ??_C@_03ELFADMOK@c?3?5?$AA@ 004387e8     pjsip-core-i386-win32-vc14-release-dynamic:sip_msg.obj
 0002:000017ec       ??_C@_0P@DNLLBOJA@?$CFu?5?$CF?4?$CKs?5?$CC?$CF?4?$CKs?$CC?$AA@ 004387ec     pjsip-core-i386-win32-vc14-release-dynamic:sip_msg.obj
 0002:000017fc       ??_C@_0O@EMLDOJH@mod?9msg?9print?$AA@ 004387fc     pjsip-core-i386-win32-vc14-release-dynamic:sip_transport.obj
 0002:0000180c       ??_C@_0M@NNPCGPMF@Unspecified?$AA@ 0043880c     pjsip-core-i386-win32-vc14-release-dynamic:sip_transport.obj
 0002:00001818       ??_C@_03OPEAKHDL@UDP?$AA@  00438818     pjsip-core-i386-win32-vc14-release-dynamic:sip_transport.obj
 0002:0000181c       ??_C@_0O@KHAHCMDL@UDP?5transport?$AA@ 0043881c     pjsip-core-i386-win32-vc14-release-dynamic:sip_transport.obj
 0002:0000182c       ??_C@_03FCLDNGNL@TCP?$AA@  0043882c     pjsip-core-i386-win32-vc14-release-dynamic:sip_transport.obj
 0002:00001830       ??_C@_0O@EHHLMLBF@TCP?5transport?$AA@ 00438830     pjsip-core-i386-win32-vc14-release-dynamic:sip_transport.obj
 0002:00001840       ??_C@_03HCMCMCCF@TLS?$AA@  00438840     pjsip-core-i386-win32-vc14-release-dynamic:sip_transport.obj
 0002:00001844       ??_C@_0O@BHJFMMNA@TLS?5transport?$AA@ 00438844     pjsip-core-i386-win32-vc14-release-dynamic:sip_transport.obj
 0002:00001854       ??_C@_04DINHBEKN@DTLS?$AA@ 00438854     pjsip-core-i386-win32-vc14-release-dynamic:sip_transport.obj
 0002:0000185c       ??_C@_0P@FBHKKIOO@DTLS?5transport?$AA@ 0043885c     pjsip-core-i386-win32-vc14-release-dynamic:sip_transport.obj
 0002:0000186c       ??_C@_04BOMBJBBC@SCTP?$AA@ 0043886c     pjsip-core-i386-win32-vc14-release-dynamic:sip_transport.obj
 0002:00001874       ??_C@_0P@BEPMAJFA@SCTP?5transport?$AA@ 00438874     pjsip-core-i386-win32-vc14-release-dynamic:sip_transport.obj
 0002:00001884       ??_C@_04KGNEGCGI@LOOP?$AA@ 00438884     pjsip-core-i386-win32-vc14-release-dynamic:sip_transport.obj
 0002:0000188c       ??_C@_0BD@IJLEDLFM@Loopback?5transport?$AA@ 0043888c     pjsip-core-i386-win32-vc14-release-dynamic:sip_transport.obj
 0002:000018a0       ??_C@_0L@PGGNCDOP@LOOP?9DGRAM?$AA@ 004388a0     pjsip-core-i386-win32-vc14-release-dynamic:sip_transport.obj
 0002:000018ac       ??_C@_0BM@JFHDLEFO@Loopback?5datagram?5transport?$AA@ 004388ac     pjsip-core-i386-win32-vc14-release-dynamic:sip_transport.obj
 0002:000018c8       ??_C@_0BD@LIBJHFGK@UDP?5IPv6?5transport?$AA@ 004388c8     pjsip-core-i386-win32-vc14-release-dynamic:sip_transport.obj
 0002:000018dc       ??_C@_0BD@IONFPPFG@TCP?5IPv6?5transport?$AA@ 004388dc     pjsip-core-i386-win32-vc14-release-dynamic:sip_transport.obj
 0002:000018f0       ??_C@_0BD@CLDAAALK@TLS?5IPv6?5transport?$AA@ 004388f0     pjsip-core-i386-win32-vc14-release-dynamic:sip_transport.obj
 0002:00001904       ??_C@_0BE@IFPIBJBH@DTLS?5IPv6?5transport?$AA@ 00438904     pjsip-core-i386-win32-vc14-release-dynamic:sip_transport.obj
 0002:00001918       ??_C@_06HHKALCGB@tdta?$CFp?$AA@ 00438918     pjsip-core-i386-win32-vc14-release-dynamic:sip_transport.obj
 0002:00001920       ??_C@_0BF@FNAOFPOF@Destroying?5txdata?5?$CFs?$AA@ 00438920     pjsip-core-i386-win32-vc14-release-dynamic:sip_transport.obj
 0002:00001938       ??_C@_0M@JCCICOOO@INVALID?5MSG?$AA@ 00438938     pjsip-core-i386-win32-vc14-release-dynamic:sip_transport.obj
 0002:00001944       ??_C@_0BO@FBJFIDDA@Request?5msg?5?$CF?4?$CKs?1cseq?$DN?$CFd?5?$CI?$CFs?$CJ?$AA@ 00438944     pjsip-core-i386-win32-vc14-release-dynamic:sip_transport.obj
 0002:00001964       ??_C@_0CC@DIPPPFIF@Response?5msg?5?$CFd?1?$CF?4?$CKs?1cseq?$DN?$CFd?5?$CI?$CFs@ 00438964     pjsip-core-i386-win32-vc14-release-dynamic:sip_transport.obj
 0002:00001988       ??_C@_0BC@NHBNMNGO@Tx?5data?5?$CFs?5cloned?$AA@ 00438988     pjsip-core-i386-win32-vc14-release-dynamic:sip_transport.obj
 0002:0000199c       ??_C@_0BA@BCOMPIDA@sip_transport?4c?$AA@ 0043899c     pjsip-core-i386-win32-vc14-release-dynamic:sip_transport.obj
 0002:000019ac       ??_C@_05MIOBCJBH@rdata?$AA@ 004389ac     pjsip-core-i386-win32-vc14-release-dynamic:sip_transport.obj
 0002:000019b4       ??_C@_02BBAHNLBA@?$CFp?$AA@ 004389b4     pjsip-core-i386-win32-vc14-release-dynamic:sip_transport.obj
 0002:000019b8       ??_C@_05KBHICJDA@rtd?$CFp?$AA@ 004389b8     pjsip-core-i386-win32-vc14-release-dynamic:sip_transport.obj
 0002:000019c0       ??_C@_0CG@GHPNJCCG@Unable?5to?5send?5?$CFs?3?5message?5is?5pe@ 004389c0     pjsip-core-i386-win32-vc14-release-dynamic:sip_transport.obj
 0002:000019e8       ??_C@_0BN@KDCNGIHE@?4?4?2src?2pjsip?2sip_transport?4c?$AA@ 004389e8     pjsip-core-i386-win32-vc14-release-dynamic:sip_transport.obj
 0002:00001a08       ??_C@_0DI@CNFAMKAC@Warning?3?5transport?5?$CFs?5being?5dest@ 00438a08     pjsip-core-i386-win32-vc14-release-dynamic:sip_transport.obj
 0002:00001a40       ??_C@_0EF@KMMKIKKG@Warning?3?5transport?5?$CFs?5being?5dest@ 00438a40     pjsip-core-i386-win32-vc14-release-dynamic:sip_transport.obj
 0002:00001a88       ??_C@_0CF@OPJOJNIN@Transport?5?$CFs?5shutting?5down?0?5forc@ 00438a88     pjsip-core-i386-win32-vc14-release-dynamic:sip_transport.obj
 0002:00001ab0       ??_C@_05LOIBBIEL@tpmgr?$AA@ 00438ab0     pjsip-core-i386-win32-vc14-release-dynamic:sip_transport.obj
 0002:00001ab8       ??_C@_06DFEDPGIK@tmgr?$CFp?$AA@ 00438ab8     pjsip-core-i386-win32-vc14-release-dynamic:sip_transport.obj
 0002:00001ac0       ??_C@_0BL@FCLJOKON@Transport?5manager?5created?4?$AA@ 00438ac0     pjsip-core-i386-win32-vc14-release-dynamic:sip_transport.obj
 0002:00001adc       ??_C@_0BN@ICLNKKAJ@Destroying?5transport?5manager?$AA@ 00438adc     pjsip-core-i386-win32-vc14-release-dynamic:sip_transport.obj
 0002:00001afc       ??_C@_0CI@HJKHOKAG@Cleaned?5up?5dangling?5transmit?5buf@ 00438afc     pjsip-core-i386-win32-vc14-release-dynamic:sip_transport.obj
 0002:00001b24       ??_C@_0DM@LJBJFPEI@?3?5?$CFs?5exception?5when?5parsing?5?8?$CF?4?$CK@ 00438b24     pjsip-core-i386-win32-vc14-release-dynamic:sip_transport.obj
 0002:00001b60       ??_C@_0EM@JMILNFHN@Error?5processing?5?$CFd?5bytes?5packet@ 00438b60     pjsip-core-i386-win32-vc14-release-dynamic:sip_transport.obj
 0002:00001bac       ??_C@_0DG@FPJFHIHG@Specified?5factory?5for?5creating?5t@ 00438bac     pjsip-core-i386-win32-vc14-release-dynamic:sip_transport.obj
 0002:00001be4       ??_C@_01LBDDMOBJ@?$FN?$AA@ 00438be4     pjsip-core-i386-win32-vc14-release-dynamic:sip_transport.obj
 0002:00001be8       ??_C@_0BJ@MGECBGBK@Module?5?$CC?$CF?4?$CKs?$CC?5registered?$AA@ 00438be8     pjsip-core-i386-win32-vc14-release-dynamic:sip_endpoint.obj
 0002:00001c04       ??_C@_0P@EGLGAFCL@sip_endpoint?4c?$AA@ 00438c04     pjsip-core-i386-win32-vc14-release-dynamic:sip_endpoint.obj
 0002:00001c14       ??_C@_0CK@DNCAODEI@Module?5?$CC?$CF?4?$CKs?$CC?5can?5not?5be?5unregis@ 00438c14     pjsip-core-i386-win32-vc14-release-dynamic:sip_endpoint.obj
 0002:00001c40       ??_C@_0BL@HDLPHBNM@Module?5?$CC?$CF?4?$CKs?$CC?5unregistered?$AA@ 00438c40     pjsip-core-i386-win32-vc14-release-dynamic:sip_endpoint.obj
 0002:00001c5c       ??_C@_0BO@COOMMINE@Creating?5endpoint?5instance?4?4?4?$AA@ 00438c5c     pjsip-core-i386-win32-vc14-release-dynamic:sip_endpoint.obj
 0002:00001c7c       ??_C@_06NKPEEELK@pept?$CFp?$AA@ 00438c7c     pjsip-core-i386-win32-vc14-release-dynamic:sip_endpoint.obj
 0002:00001c84       ??_C@_05BKDCOKEM@ept?$CFp?$AA@ 00438c84     pjsip-core-i386-win32-vc14-release-dynamic:sip_endpoint.obj
 0002:00001c8c       ??_C@_06CEEOCEHG@edpt?$CFp?$AA@ 00438c8c     pjsip-core-i386-win32-vc14-release-dynamic:sip_endpoint.obj
 0002:00001c94       ??_C@_0CB@HGCDKNNC@Error?5creating?5resolver?5instance@ 00438c94     pjsip-core-i386-win32-vc14-release-dynamic:sip_endpoint.obj
 0002:00001cb8       ??_C@_0BI@MLLMLNGM@Error?5creating?5endpoint?$AA@ 00438cb8     pjsip-core-i386-win32-vc14-release-dynamic:sip_endpoint.obj
 0002:00001cd0       ??_C@_0BP@CHMMIAFL@Destroying?5endpoint?5instance?4?4?$AA@ 00438cd0     pjsip-core-i386-win32-vc14-release-dynamic:sip_endpoint.obj
 0002:00001cf0       ??_C@_0BG@NIAFLHGE@Endpoint?5?$CFp?5destroyed?$AA@ 00438cf0     pjsip-core-i386-win32-vc14-release-dynamic:sip_endpoint.obj
 0002:00001d08       ??_C@_0BK@KKFMILKM@Unable?5to?5create?5pool?5?$CFs?$CB?$AA@ 00438d08     pjsip-core-i386-win32-vc14-release-dynamic:sip_endpoint.obj
 0002:00001d24       ??_C@_0CC@POJNFGFL@Distributing?5rdata?5to?5modules?3?5?$CF@ 00438d24     pjsip-core-i386-win32-vc14-release-dynamic:sip_endpoint.obj
 0002:00001d48       ??_C@_05MMMMAHGD@?5From?$AA@ 00438d48     pjsip-core-i386-win32-vc14-release-dynamic:sip_endpoint.obj
 0002:00001d50       ??_C@_03PHFJHONJ@?5To?$AA@ 00438d50     pjsip-core-i386-win32-vc14-release-dynamic:sip_endpoint.obj
 0002:00001d54       ??_C@_04CNJKNNNB@?5Via?$AA@ 00438d54     pjsip-core-i386-win32-vc14-release-dynamic:sip_endpoint.obj
 0002:00001d5c       ??_C@_05PHECJIMD@?5CSeq?$AA@ 00438d5c     pjsip-core-i386-win32-vc14-release-dynamic:sip_endpoint.obj
 0002:00001d68       ??_C@_0EM@MDGMOKGH@Error?5processing?5packet?5from?5?$CFs?3@ 00438d68     pjsip-core-i386-win32-vc14-release-dynamic:sip_endpoint.obj
 0002:00001db4       ??_C@_0CA@HOLDFAO@Processing?5incoming?5message?3?5?$CFs?$AA@ 00438db4     pjsip-core-i386-win32-vc14-release-dynamic:sip_endpoint.obj
 0002:00001dd4       ??_C@_0DD@CJCKLIHE@?$CFs?5from?5?$CFs?3?$CFd?5was?5dropped?1unhand@ 00438dd4     pjsip-core-i386-win32-vc14-release-dynamic:sip_endpoint.obj
 0002:00001e08       ??_C@_0M@HFADNKMO@?3?5?$FLerr?5?$CFd?$FN?5?$AA@ 00438e08     pjsip-core-i386-win32-vc14-release-dynamic:sip_endpoint.obj
 0002:00001e14       ??_C@_0N@IDBMKGKC@UNIDENTIFIED?$AA@ 00438e14     pjsip-core-i386-win32-vc14-release-dynamic:sip_util.obj
 0002:00001e24       ??_C@_05BLGDNOJI@TIMER?$AA@ 00438e24     pjsip-core-i386-win32-vc14-release-dynamic:sip_util.obj
 0002:00001e2c       ??_C@_06FHCLPGGO@TX_MSG?$AA@ 00438e2c     pjsip-core-i386-win32-vc14-release-dynamic:sip_util.obj
 0002:00001e34       ??_C@_06DEPLMDFE@RX_MSG?$AA@ 00438e34     pjsip-core-i386-win32-vc14-release-dynamic:sip_util.obj
 0002:00001e3c       ??_C@_0BA@DJFINPGH@TRANSPORT_ERROR?$AA@ 00438e3c     pjsip-core-i386-win32-vc14-release-dynamic:sip_util.obj
 0002:00001e4c       ??_C@_09DGJBKMAD@TSX_STATE?$AA@ 00438e4c     pjsip-core-i386-win32-vc14-release-dynamic:sip_util.obj
 0002:00001e58       ??_C@_04OOEKJIOI@USER?$AA@ 00438e58     pjsip-core-i386-win32-vc14-release-dynamic:sip_util.obj
 0002:00001e60       ??_C@_04CIMGMMMG@text?$AA@ 00438e60     pjsip-core-i386-win32-vc14-release-dynamic:sip_util.obj
 0002:00001e68       ??_C@_05CGDPOPDB@plain?$AA@ 00438e68     pjsip-core-i386-win32-vc14-release-dynamic:sip_util.obj
 0002:00001e70       ??_C@_0M@PJOLBNIF@?$CFs?5created?4?$AA@ 00438e70     pjsip-core-i386-win32-vc14-release-dynamic:sip_util.obj
 0002:00001e7c       ??_C@_08OKOOPKMJ@endpoint?$AA@ 00438e7c     pjsip-core-i386-win32-vc14-release-dynamic:sip_util.obj
 0002:00001e88       ??_C@_0L@IOBEOHFD@?$CFs?5created?$AA@ 00438e88     pjsip-core-i386-win32-vc14-release-dynamic:sip_util.obj
 0002:00001e98       ??_C@_0ED@BNKEGDBC@Automatic?5switch?5to?5TLS?5transpor@ 00438e98     pjsip-core-i386-win32-vc14-release-dynamic:sip_util.obj
 0002:00001edc       ??_C@_07LDFFKCFH@z9hG4bK?$AA@ 00438edc     pjsip-core-i386-win32-vc14-release-dynamic:sip_util.obj
 0002:00001ee4       ??_C@_05NKHOCLEE@alias?$AA@ 00438ee4     pjsip-core-i386-win32-vc14-release-dynamic:sip_util.obj
 0002:00001eec       ??_C@_0DF@HEHPNNHP@?$CFs?5exceeds?5UDP?5size?5threshold?5?$CI?$CF@ 00438eec     pjsip-core-i386-win32-vc14-release-dynamic:sip_util.obj
 0002:00001f24       ??_C@_0DO@JCGKHENM@?$CFs?3?5skipping?5target?5resolution?5b@ 00438f24     pjsip-core-i386-win32-vc14-release-dynamic:sip_util.obj
 0002:00001f64       ??_C@_0BC@OBBFELDN@mod?9stateful?9util?$AA@ 00438f64     pjsip-core-i386-win32-vc14-release-dynamic:sip_util_statefull.obj
 0002:00001f78       ??_C@_0BN@EPNAIMHL@Restarting?5SIP?5UDP?5transport?$AA@ 00438f78     pjsip-core-i386-win32-vc14-release-dynamic:sip_transport_udp.obj
 0002:00001f98       ??_C@_0CD@IKKKNOLK@Error?5restarting?5SIP?5UDP?5transpo@ 00438f98     pjsip-core-i386-win32-vc14-release-dynamic:sip_transport_udp.obj
 0002:00001fbc       ??_C@_0BE@KOJAAPOH@sip_transport_udp?4c?$AA@ 00438fbc     pjsip-core-i386-win32-vc14-release-dynamic:sip_transport_udp.obj
 0002:00001fd0       ??_C@_0BN@BEFELMIM@Warning?3?5pj_ioqueue_recvfrom?$AA@ 00438fd0     pjsip-core-i386-win32-vc14-release-dynamic:sip_transport_udp.obj
 0002:00001ff0       ??_C@_0EC@ICGMJAB@FATAL?3?5pj_ioqueue_recvfrom?$CI?$CJ?5err@ 00438ff0     pjsip-core-i386-win32-vc14-release-dynamic:sip_transport_udp.obj
 0002:00002034       ??_C@_0BM@INPFFNPD@SIP?5UDP?5transport?5destroyed?$AA@ 00439034     pjsip-core-i386-win32-vc14-release-dynamic:sip_transport_udp.obj
 0002:00002050       ??_C@_0BJ@MMFAKBFN@udp?5?$CFs?5?$FLpublished?5as?5?$CFs?$FN?$AA@ 00439050     pjsip-core-i386-win32-vc14-release-dynamic:sip_transport_udp.obj
 0002:0000206c       ??_C@_07LINNJFLK@udpv6?$CFp?$AA@ 0043906c     pjsip-core-i386-win32-vc14-release-dynamic:sip_transport_udp.obj
 0002:00002074       ??_C@_01OHGJGJJP@?$FL?$AA@ 00439074     pjsip-core-i386-win32-vc14-release-dynamic:sip_transport_udp.obj
 0002:00002078       ??_C@_05DOGEOMC@udp?$CFp?$AA@ 00439078     pjsip-core-i386-win32-vc14-release-dynamic:sip_transport_udp.obj
 0002:00002080       ??_C@_07OHKHACFK@0?40?40?40?$AA@ 00439080     pjsip-core-i386-win32-vc14-release-dynamic:sip_transport_udp.obj
 0002:00002088       ??_C@_03LHJHGOJD@?3?30?$AA@ 00439088     pjsip-core-i386-win32-vc14-release-dynamic:sip_transport_udp.obj
 0002:0000208c       ??_C@_0DB@MDELAJDF@SIP?5?$CFs?5started?0?5published?5addres@ 0043908c     pjsip-core-i386-win32-vc14-release-dynamic:sip_transport_udp.obj
 0002:000020c0       ??_C@_0BC@BDGDHMHI@SIP?5UDP?5transport?$AA@ 004390c0     pjsip-core-i386-win32-vc14-release-dynamic:sip_transport_udp.obj
 0002:000020d4       ??_C@_0DF@PEKBCPJC@SIP?5UDP?5transport?5restarted?0?5pub@ 004390d4     pjsip-core-i386-win32-vc14-release-dynamic:sip_transport_udp.obj
 0002:0000210c       ??_C@_0O@JMLIDGHN@?$CFs?3?5?$FLcode?$DN?$CFd?$FN?$AA@ 0043910c     pjsip-core-i386-win32-vc14-release-dynamic:sip_transport_tcp.obj
 0002:0000211c       ??_C@_08MPFFJDIO@tcptp?3?$CFd?$AA@ 0043911c     pjsip-core-i386-win32-vc14-release-dynamic:sip_transport_tcp.obj
 0002:00002128       ??_C@_0BJ@FIMDAGCE@tcp?5?$CFs?5?$FLpublished?5as?5?$CFs?$FN?$AA@ 00439128     pjsip-core-i386-win32-vc14-release-dynamic:sip_transport_tcp.obj
 0002:00002144       ??_C@_0DG@DPHCIHLF@SIP?5TCP?5listener?5ready?5for?5incom@ 00439144     pjsip-core-i386-win32-vc14-release-dynamic:sip_transport_tcp.obj
 0002:0000217c       ??_C@_0BP@LNLAIFOB@SIP?5TCP?5is?5ready?5?$CIclient?5only?$CJ?$AA@ 0043917c     pjsip-core-i386-win32-vc14-release-dynamic:sip_transport_tcp.obj
 0002:0000219c       ??_C@_05BHOEAFPA@tcptp?$AA@ 0043919c     pjsip-core-i386-win32-vc14-release-dynamic:sip_transport_tcp.obj
 0002:000021a4       ??_C@_01DHDKHMHF@6?$AA@    004391a4     pjsip-core-i386-win32-vc14-release-dynamic:sip_transport_tcp.obj
 0002:000021a8       ??_C@_0BM@HKGJKAHK@SIP?5TCP?5transport?5destroyed?$AA@ 004391a8     pjsip-core-i386-win32-vc14-release-dynamic:sip_transport_tcp.obj
 0002:000021c4       ??_C@_04FMMHFHOO@?$AN?6?$AN?6?$AA@ 004391c4     pjsip-core-i386-win32-vc14-release-dynamic:sip_transport_tcp.obj
 0002:000021cc       ??_C@_03FPEIBLKH@tcp?$AA@  004391cc     pjsip-core-i386-win32-vc14-release-dynamic:sip_transport_tcp.obj
 0002:000021d0       ??_C@_06GFDFLLAN@tcps?$CFp?$AA@ 004391d0     pjsip-core-i386-win32-vc14-release-dynamic:sip_transport_tcp.obj
 0002:000021d8       ??_C@_06DFCMOMJC@tcpc?$CFp?$AA@ 004391d8     pjsip-core-i386-win32-vc14-release-dynamic:sip_transport_tcp.obj
 0002:000021e0       ??_C@_08CNIFCNBJ@?$CFs?5to?5?$CFs?$AA@ 004391e0     pjsip-core-i386-win32-vc14-release-dynamic:sip_transport_tcp.obj
 0002:000021ec       ??_C@_0CB@FAAOBCNN@?4?4?2src?2pjsip?2sip_transport_tcp?4c@ 004391ec     pjsip-core-i386-win32-vc14-release-dynamic:sip_transport_tcp.obj
 0002:00002210       ??_C@_06HJHJCKIO@server?$AA@ 00439210     pjsip-core-i386-win32-vc14-release-dynamic:sip_transport_tcp.obj
 0002:00002218       ??_C@_06DGDLPBAN@client?$AA@ 00439218     pjsip-core-i386-win32-vc14-release-dynamic:sip_transport_tcp.obj
 0002:00002220       ??_C@_0BJ@DFHDKEKC@TCP?5?$CFs?5transport?5created?$AA@ 00439220     pjsip-core-i386-win32-vc14-release-dynamic:sip_transport_tcp.obj
 0002:0000223c       ??_C@_0CL@FENNCGAI@TCP?5transport?5destroyed?5with?5rea@ 0043923c     pjsip-core-i386-win32-vc14-release-dynamic:sip_transport_tcp.obj
 0002:00002268       ??_C@_0CB@PCGILDE@TCP?5transport?5destroyed?5normally@ 00439268     pjsip-core-i386-win32-vc14-release-dynamic:sip_transport_tcp.obj
 0002:0000228c       ??_C@_0BG@HHDCAEDN@Unable?5to?5create?5pool?$AA@ 0043928c     pjsip-core-i386-win32-vc14-release-dynamic:sip_transport_tcp.obj
 0002:000022a4       ??_C@_0CB@CONBMDOO@pj_activesock_start_read?$CI?$CJ?5error@ 004392a4     pjsip-core-i386-win32-vc14-release-dynamic:sip_transport_tcp.obj
 0002:000022c8       ??_C@_0BI@FPEGINLL@outgoing?5SIP?5TCP?5socket?$AA@ 004392c8     pjsip-core-i386-win32-vc14-release-dynamic:sip_transport_tcp.obj
 0002:000022e0       ??_C@_0CI@ILHHONCL@TCP?5transport?5?$CFs?5is?5connecting?5t@ 004392e0     pjsip-core-i386-win32-vc14-release-dynamic:sip_transport_tcp.obj
 0002:00002308       ??_C@_0DO@EBBJGFLM@TCP?5listener?5?$CFs?3?5got?5incoming?5TC@ 00439308     pjsip-core-i386-win32-vc14-release-dynamic:sip_transport_tcp.obj
 0002:00002348       ??_C@_0BI@LLEHCIEH@incoming?5SIP?5TCP?5socket?$AA@ 00439348     pjsip-core-i386-win32-vc14-release-dynamic:sip_transport_tcp.obj
 0002:00002360       ??_C@_0BI@EPFKOGCB@New?5transport?5cancelled?$AA@ 00439360     pjsip-core-i386-win32-vc14-release-dynamic:sip_transport_tcp.obj
 0002:00002378       ??_C@_0BK@CIEPOKAA@TCP?5send?$CI?$CJ?5error?0?5sent?$DN?$CFd?$AA@ 00439378     pjsip-core-i386-win32-vc14-release-dynamic:sip_transport_tcp.obj
 0002:00002394       ??_C@_0BG@IILKCFP@TCP?5connection?5closed?$AA@ 00439394     pjsip-core-i386-win32-vc14-release-dynamic:sip_transport_tcp.obj
 0002:000023ac       ??_C@_0BE@FIBBDPPG@TCP?5connect?$CI?$CJ?5error?$AA@ 004393ac     pjsip-core-i386-win32-vc14-release-dynamic:sip_transport_tcp.obj
 0002:000023c0       ??_C@_0CE@BPIOHMBA@TCP?5transport?5?$CFs?5is?5connected?5to@ 004393c0     pjsip-core-i386-win32-vc14-release-dynamic:sip_transport_tcp.obj
 0002:000023e4       ??_C@_0CE@CHIBLCGN@Sending?5?$CFd?5byte?$CIs?$CJ?5keep?9alive?5to@ 004393e4     pjsip-core-i386-win32-vc14-release-dynamic:sip_transport_tcp.obj
 0002:00002408       ??_C@_0CA@COAPONPJ@Error?5sending?5keep?9alive?5packet?$AA@ 00439408     pjsip-core-i386-win32-vc14-release-dynamic:sip_transport_tcp.obj
 0002:00002428       ??_C@_0BI@POMKCEN@SIP?5TCP?5listener?5socket?$AA@ 00439428     pjsip-core-i386-win32-vc14-release-dynamic:sip_transport_tcp.obj
 0002:00002440       ??_C@_0CF@JENAKNGB@Warning?3?5error?5applying?5SO_REUSE@ 00439440     pjsip-core-i386-win32-vc14-release-dynamic:sip_transport_tcp.obj
 0002:00002468       ??_C@_0O@CDKJIHHI@mod?9tsx?9layer?$AA@ 00439468     pjsip-core-i386-win32-vc14-release-dynamic:sip_transaction.obj
 0002:00002478       ??_C@_0BC@LHFGMDJJ@sip_transaction?4c?$AA@ 00439478     pjsip-core-i386-win32-vc14-release-dynamic:sip_transaction.obj
 0002:0000248c       ??_C@_0CC@CEIKILH@Stopping?5transaction?5layer?5modul@ 0043948c     pjsip-core-i386-win32-vc14-release-dynamic:sip_transaction.obj
 0002:000024b0       ??_C@_0CB@HOMFNBLL@Stopped?5transaction?5layer?5module@ 004394b0     pjsip-core-i386-win32-vc14-release-dynamic:sip_transaction.obj
 0002:000024d4       ??_C@_0CD@MKMHPCL@Transaction?5layer?5module?5destroy@ 004394d4     pjsip-core-i386-win32-vc14-release-dynamic:sip_transaction.obj
 0002:000024f8       ??_C@_0DF@EFJDAPKP@Failed?5to?5register?5transaction?5l@ 004394f8     pjsip-core-i386-win32-vc14-release-dynamic:sip_transaction.obj
 0002:00002530       ??_C@_04KHKKIIL@Null?$AA@  00439530     pjsip-core-i386-win32-vc14-release-dynamic:sip_transaction.obj
 0002:00002538       ??_C@_07BNCBFEGH@Calling?$AA@ 00439538     pjsip-core-i386-win32-vc14-release-dynamic:sip_transaction.obj
 0002:00002540       ??_C@_0L@BKKAFK@Proceeding?$AA@ 00439540     pjsip-core-i386-win32-vc14-release-dynamic:sip_transaction.obj
 0002:0000254c       ??_C@_09MIJAKHKB@Completed?$AA@ 0043954c     pjsip-core-i386-win32-vc14-release-dynamic:sip_transaction.obj
 0002:00002558       ??_C@_09ONANMLIC@Confirmed?$AA@ 00439558     pjsip-core-i386-win32-vc14-release-dynamic:sip_transaction.obj
 0002:00002564       ??_C@_0L@NNDINIPK@Terminated?$AA@ 00439564     pjsip-core-i386-win32-vc14-release-dynamic:sip_transaction.obj
 0002:00002570       ??_C@_09KDBKJCNL@Destroyed?$AA@ 00439570     pjsip-core-i386-win32-vc14-release-dynamic:sip_transaction.obj
 0002:0000257c       ??_C@_03IIGECEEC@UAC?$AA@  0043957c     pjsip-core-i386-win32-vc14-release-dynamic:sip_transaction.obj
 0002:00002580       ??_C@_03MCKGDGBD@UAS?$AA@  00439580     pjsip-core-i386-win32-vc14-release-dynamic:sip_transaction.obj
 0002:00002584       ??_C@_08NHKHBNMC@tsxlayer?$AA@ 00439584     pjsip-core-i386-win32-vc14-release-dynamic:sip_transaction.obj
 0002:00002590       ??_C@_0DB@ELBLLJGF@Unable?5to?5register?5?$CF?4?$CKs?5transact@ 00439590     pjsip-core-i386-win32-vc14-release-dynamic:sip_transaction.obj
 0002:000025c4       ??_C@_0BP@NDEMGLBN@?4?4?2src?2pjsip?2sip_transaction?4c?$AA@ 004395c4     pjsip-core-i386-win32-vc14-release-dynamic:sip_transaction.obj
 0002:000025e4       ??_C@_03ILLHDCNP@tsx?$AA@  004395e4     pjsip-core-i386-win32-vc14-release-dynamic:sip_transaction.obj
 0002:000025e8       ??_C@_05NPMOPOBK@tsx?$CFp?$AA@ 004395e8     pjsip-core-i386-win32-vc14-release-dynamic:sip_transaction.obj
 0002:000025f0       ??_C@_0BH@PDBDIMMK@Transaction?5destroyed?$CB?$AA@ 004395f0     pjsip-core-i386-win32-vc14-release-dynamic:sip_transaction.obj
 0002:00002608       ??_C@_0DE@PFNICBJL@Will?5destroy?5later?5because?5trans@ 00439608     pjsip-core-i386-win32-vc14-release-dynamic:sip_transaction.obj
 0002:0000263c       ??_C@_0L@KEAKDBBB@Retransmit?$AA@ 0043963c     pjsip-core-i386-win32-vc14-release-dynamic:sip_transaction.obj
 0002:00002648       ??_C@_07MKALMBDJ@Timeout?$AA@ 00439648     pjsip-core-i386-win32-vc14-release-dynamic:sip_transaction.obj
 0002:00002650       ??_C@_0P@ICKHIBGF@?$CFs?5timer?5event?$AA@ 00439650     pjsip-core-i386-win32-vc14-release-dynamic:sip_transaction.obj
 0002:00002660       ??_C@_0CG@BHDJKKPD@State?5changed?5from?5?$CFs?5to?5?$CFs?0?5eve@ 00439660     pjsip-core-i386-win32-vc14-release-dynamic:sip_transaction.obj
 0002:00002688       ??_C@_0BL@NELPIPFA@Transaction?5created?5for?5?$CFs?$AA@ 00439688     pjsip-core-i386-win32-vc14-release-dynamic:sip_transaction.obj
 0002:000026a8       ??_C@_0ED@IJNOFMME@Error?3?5CSeq?5header?5contains?5diff@ 004396a8     pjsip-core-i386-win32-vc14-release-dynamic:sip_transaction.obj
 0002:000026ec       ??_C@_0CB@LPCILHMH@Request?5to?5terminate?5transaction@ 004396ec     pjsip-core-i386-win32-vc14-release-dynamic:sip_transaction.obj
 0002:00002710       ??_C@_0BH@NJDAONCL@Sending?5?$CFs?5in?5state?5?$CFs?$AA@ 00439710     pjsip-core-i386-win32-vc14-release-dynamic:sip_transaction.obj
 0002:00002728       ??_C@_0BI@PADDBGDM@Incoming?5?$CFs?5in?5state?5?$CFs?$AA@ 00439728     pjsip-core-i386-win32-vc14-release-dynamic:sip_transaction.obj
 0002:00002740       ??_C@_0BP@MFDMMFDJ@Failed?5to?5send?5?$CFs?$CB?5err?$DN?$CFd?5?$CI?$CFs?$CJ?$AA@ 00439740     pjsip-core-i386-win32-vc14-release-dynamic:sip_transaction.obj
 0002:00002760       ??_C@_0DG@HCJJGEJB@Temporary?5failure?5in?5sending?5?$CFs?0@ 00439760     pjsip-core-i386-win32-vc14-release-dynamic:sip_transaction.obj
 0002:00002798       ??_C@_0BN@PMBJJBK@Transport?5failed?5to?5send?5?$CFs?$CB?$AA@ 00439798     pjsip-core-i386-win32-vc14-release-dynamic:sip_transaction.obj
 0002:000027b8       ??_C@_0BB@HMFOJBGF@Error?5sending?5?$CFs?$AA@ 004397b8     pjsip-core-i386-win32-vc14-release-dynamic:sip_transaction.obj
 0002:000027cc       ??_C@_0DG@EDJHIGCF@Transport?5error?0?5terminating?5tra@ 004397cc     pjsip-core-i386-win32-vc14-release-dynamic:sip_transaction.obj
 0002:00002804       ??_C@_0CI@CEFAFFOL@Retransmiting?5?$CFs?0?5count?$DN?$CFd?0?5rest@ 00439804     pjsip-core-i386-win32-vc14-release-dynamic:sip_transaction.obj
 0002:0000282c       ??_C@_0CK@BFJIAGKI@Received?5illegal?5ACK?5for?5?$CF?4?$CKs?5tr@ 0043982c     pjsip-core-i386-win32-vc14-release-dynamic:sip_transaction.obj
 0002:00002858       ??_C@_06GBGGOGBI@mod?9ua?$AA@ 00439858     pjsip-core-i386-win32-vc14-release-dynamic:sip_ua_layer.obj
 0002:00002860       ??_C@_04JKMMAKMG@ua?$CFp?$AA@ 00439860     pjsip-core-i386-win32-vc14-release-dynamic:sip_ua_layer.obj
 0002:00002868       ??_C@_05OKIAFJEO@?5ua?$CFp?$AA@ 00439868     pjsip-core-i386-win32-vc14-release-dynamic:sip_ua_layer.obj
 0002:00002870       ??_C@_0DE@OALAGOOG@Unable?5to?5find?5dialogset?5for?5?$CFs?0@ 00439870     pjsip-core-i386-win32-vc14-release-dynamic:sip_ua_layer.obj
 0002:000028a4       ??_C@_0P@JPGJPHAN@sip_ua_layer?4c?$AA@ 004398a4     pjsip-core-i386-win32-vc14-release-dynamic:sip_ua_layer.obj
 0002:000028b4       ??_C@_0DB@GAIHGHNL@Unable?5to?5find?5dialog?5for?5?$CFs?0?5an@ 004398b4     pjsip-core-i386-win32-vc14-release-dynamic:sip_ua_layer.obj
 0002:000028e8       ??_C@_0BN@IDPPCIAF@Unable?5to?5find?5dialog?5for?5?$CFs?$AA@ 004398e8     pjsip-core-i386-win32-vc14-release-dynamic:sip_ua_layer.obj
 0002:00002908       ??_C@_0EC@DDCMMPIA@Received?5strayed?52xx?5response?5?$CIn@ 00439908     pjsip-core-i386-win32-vc14-release-dynamic:sip_ua_layer.obj
 0002:0000294c       ??_C@_0CK@KFGINAJM@Received?5forked?5?$CFs?5for?5existing?5@ 0043994c     pjsip-core-i386-win32-vc14-release-dynamic:sip_ua_layer.obj
 0002:00002978       ??_C@_0FB@ELNGKJEC@Unhandled?5forked?5?$CFs?5from?5?$CFs?3?$CFd?0?5@ 00439978     pjsip-core-i386-win32-vc14-release-dynamic:sip_ua_layer.obj
 0002:000029cc       ??_C@_02DKCKIIND@?$CFs?$AA@ 004399cc     pjsip-core-i386-win32-vc14-release-dynamic:sip_ua_layer.obj
 0002:000029d8       ??_C@_09NMAFIJHB@SUBSCRIBE?$AA@ 004399d8     pjsip-core-i386-win32-vc14-release-dynamic:sip_dialog.obj
 0002:000029e4       ??_C@_05NPMLFHIF@REFER?$AA@ 004399e4     pjsip-core-i386-win32-vc14-release-dynamic:sip_dialog.obj
 0002:000029ec       ??_C@_06LMEIPPMP@NOTIFY?$AA@ 004399ec     pjsip-core-i386-win32-vc14-release-dynamic:sip_dialog.obj
 0002:000029f4       ??_C@_0BC@JFFBENNO@Dialog?5destroyed?$CB?$AA@ 004399f4     pjsip-core-i386-win32-vc14-release-dynamic:sip_dialog.obj
 0002:00002a08       ??_C@_05DGNCLLBL@dlg?$CFp?$AA@ 00439a08     pjsip-core-i386-win32-vc14-release-dynamic:sip_dialog.obj
 0002:00002a10       ??_C@_0BD@BNDBFEIG@UAC?5dialog?5created?$AA@ 00439a10     pjsip-core-i386-win32-vc14-release-dynamic:sip_dialog.obj
 0002:00002a24       ??_C@_0BD@KGAMNPL@UAS?5dialog?5created?$AA@ 00439a24     pjsip-core-i386-win32-vc14-release-dynamic:sip_dialog.obj
 0002:00002a38       ??_C@_0CA@PEKDEADC@Session?5count?5inc?5to?5?$CFd?5by?5?$CF?4?$CKs?$AA@ 00439a38     pjsip-core-i386-win32-vc14-release-dynamic:sip_dialog.obj
 0002:00002a58       ??_C@_0CA@LCICJLMD@Session?5count?5dec?5to?5?$CFd?5by?5?$CF?4?$CKs?$AA@ 00439a58     pjsip-core-i386-win32-vc14-release-dynamic:sip_dialog.obj
 0002:00002a78       ??_C@_0CL@CCAGPMOP@Module?5?$CF?4?$CKs?5added?5as?5dialog?5usag@ 00439a78     pjsip-core-i386-win32-vc14-release-dynamic:sip_dialog.obj
 0002:00002aa8       ??_C@_0EF@MJEHGCLG@Module?5?$CF?4?$CKs?5already?5registered?5a@ 00439aa8     pjsip-core-i386-win32-vc14-release-dynamic:sip_dialog.obj
 0002:00002af0       ??_C@_0N@KJDPOPHI@sip_dialog?4c?$AA@ 00439af0     pjsip-core-i386-win32-vc14-release-dynamic:sip_dialog.obj
 0002:00002b00       ??_C@_0BD@BIMNNBFF@Failed?5to?5send?5?$CFs?$CB?$AA@ 00439b00     pjsip-core-i386-win32-vc14-release-dynamic:sip_dialog.obj
 0002:00002b14       ??_C@_0M@LHPMKMAE@Received?5?$CFs?$AA@ 00439b14     pjsip-core-i386-win32-vc14-release-dynamic:sip_dialog.obj
 0002:00002b20       ??_C@_0N@JADHANJP@Invalid?5CSeq?$AA@ 00439b20     pjsip-core-i386-win32-vc14-release-dynamic:sip_dialog.obj
 0002:00002b30       ??_C@_0BL@HAJOOCAF@Unhandled?5by?5dialog?5usages?$AA@ 00439b30     pjsip-core-i386-win32-vc14-release-dynamic:sip_dialog.obj
 0002:00002b4c       ??_C@_0DI@GPBFFFGN@?$CFs?5was?5unhandled?5by?5dialog?5usage@ 00439b4c     pjsip-core-i386-win32-vc14-release-dynamic:sip_dialog.obj
 0002:00002b84       ??_C@_0BC@PCHBAKGP@Route?9set?5updated?$AA@ 00439b84     pjsip-core-i386-win32-vc14-release-dynamic:sip_dialog.obj
 0002:00002b98       ??_C@_0BB@EMPDFCEJ@Route?9set?5frozen?$AA@ 00439b98     pjsip-core-i386-win32-vc14-release-dynamic:sip_dialog.obj
 0002:00002bac       ??_C@_0CD@PIHECLAB@Transaction?5?$CFs?5state?5changed?5to?5@ 00439bac     pjsip-core-i386-win32-vc14-release-dynamic:sip_dialog.obj
 0002:00002bd0       ??_C@_0BB@JCEFLFJE@0123456789abcdef?$AA@ 00439bd0     pjsip-core-i386-win32-vc14-release-dynamic:sip_auth_client.obj
 0002:00002be4       ??_C@_01JLIPDDHJ@?3?$AA@   00439be4     pjsip-core-i386-win32-vc14-release-dynamic:sip_auth_client.obj
 0002:00002be8       ??_C@_09BBOOBJFI@AKAv1?9MD5?$AA@ 00439be8     pjsip-core-i386-win32-vc14-release-dynamic:sip_auth_client.obj
 0002:00002bf4       ??_C@_0CE@PAGGDDKM@Unsupported?5digest?5algorithm?5?$CC?$CF?4@ 00439bf4     pjsip-core-i386-win32-vc14-release-dynamic:sip_auth_client.obj
 0002:00002c18       ??_C@_0BC@IFICLNCF@sip_auth_client?4c?$AA@ 00439c18     pjsip-core-i386-win32-vc14-release-dynamic:sip_auth_client.obj
 0002:00002c2c       ??_C@_04LIOHGJKM@?$CF08u?$AA@ 00439c2c     pjsip-core-i386-win32-vc14-release-dynamic:sip_auth_client.obj
 0002:00002c34       ??_C@_06DKDPJBDF@b39971?$AA@ 00439c34     pjsip-core-i386-win32-vc14-release-dynamic:sip_auth_client.obj
 0002:00002c3c       ??_C@_0BL@DHABBKFJ@Unsupported?5qop?5offer?5?$CF?4?$CKs?$AA@ 00439c3c     pjsip-core-i386-win32-vc14-release-dynamic:sip_auth_client.obj
 0002:00002c58       ??_C@_0L@OLKLFLHC@auth_cli?$CFp?$AA@ 00439c58     pjsip-core-i386-win32-vc14-release-dynamic:sip_auth_client.obj
 0002:00002c68       ??_C@_0EF@GMAJJJPM@Authorization?5failed?5for?5?$CF?4?$CKs?$EA?$CF?4@ 00439c68     pjsip-core-i386-win32-vc14-release-dynamic:sip_auth_client.obj
 0002:00002cb0       ??_C@_0EN@FFFABAE@Authorization?5failed?5for?5?$CF?4?$CKs?$EA?$CF?4@ 00439cb0     pjsip-core-i386-win32-vc14-release-dynamic:sip_auth_client.obj
 0002:00002d00       ??_C@_0EB@PMHMAEL@Unable?5to?5set?5auth?5for?5?$CFs?3?5can?5n@ 00439d00     pjsip-core-i386-win32-vc14-release-dynamic:sip_auth_client.obj
 0002:00002d44       ??_C@_04CCHAHKJA@user?$AA@ 00439d44     pjsip-core-i386-win32-vc14-release-dynamic:sip_parser.obj
 0002:00002d4c       ??_C@_06GABBCIBA@method?$AA@ 00439d4c     pjsip-core-i386-win32-vc14-release-dynamic:sip_parser.obj
 0002:00002d54       ??_C@_09PBENLGJM@transport?$AA@ 00439d54     pjsip-core-i386-win32-vc14-release-dynamic:sip_parser.obj
 0002:00002d60       ??_C@_05LIJGAEPJ@maddr?$AA@ 00439d60     pjsip-core-i386-win32-vc14-release-dynamic:sip_parser.obj
 0002:00002d68       ??_C@_02FMHKAPNN@lr?$AA@   00439d68     pjsip-core-i386-win32-vc14-release-dynamic:sip_parser.obj
 0002:00002d6c       ??_C@_03LNLCDKEI@tel?$AA@  00439d6c     pjsip-core-i386-win32-vc14-release-dynamic:sip_parser.obj
 0002:00002d70       ??_C@_06KAEOJLJM@branch?$AA@ 00439d70     pjsip-core-i386-win32-vc14-release-dynamic:sip_parser.obj
 0002:00002d78       ??_C@_03KAFGPDAP@ttl?$AA@  00439d78     pjsip-core-i386-win32-vc14-release-dynamic:sip_parser.obj
 0002:00002d7c       ??_C@_08CIDECLFI@received?$AA@ 00439d7c     pjsip-core-i386-win32-vc14-release-dynamic:sip_parser.obj
 0002:00002d88       ??_C@_01IIACKFLH@q?$AA@    00439d88     pjsip-core-i386-win32-vc14-release-dynamic:sip_parser.obj
 0002:00002d8c       ??_C@_07MJGJEDBB@expires?$AA@ 00439d8c     pjsip-core-i386-win32-vc14-release-dynamic:sip_parser.obj
 0002:00002d94       ??_C@_03FJEPELFP@tag?$AA@  00439d94     pjsip-core-i386-win32-vc14-release-dynamic:sip_parser.obj
 0002:00002d98       ??_C@_05IOGGPFMA@rport?$AA@ 00439d98     pjsip-core-i386-win32-vc14-release-dynamic:sip_parser.obj
 0002:00002da0       ??_C@_0EG@NDDOOCLK@NULL?5input?5string?0?5invalid?5input@ 00439da0     pjsip-core-i386-win32-vc14-release-dynamic:sip_parser.obj
 0002:00002de8       ??_C@_0DG@PAKEPEOC@String?5value?5was?5less?5than?5the?5m@ 00439de8     pjsip-core-i386-win32-vc14-release-dynamic:sip_parser.obj
 0002:00002e20       ??_C@_0DJ@LBDEGIMP@String?5value?5was?5greater?5than?5th@ 00439e20     pjsip-core-i386-win32-vc14-release-dynamic:sip_parser.obj
 0002:00002e5c       ??_C@_0O@NIPGCINC@Unknown?5error?$AA@ 00439e5c     pjsip-core-i386-win32-vc14-release-dynamic:sip_parser.obj
 0002:00002e6c       ??_C@_0BJ@JCIGOHAI@Error?5parsing?5?8?$CF?4?$CKs?8?3?5?$CFs?$AA@ 00439e6c     pjsip-core-i386-win32-vc14-release-dynamic:sip_parser.obj
 0002:00002e88       ??_C@_0N@CDHGOKB@sip_parser?4c?$AA@ 00439e88     pjsip-core-i386-win32-vc14-release-dynamic:sip_parser.obj
 0002:00002e98       ??_C@_0BN@NMLJIDND@Can?8t?5parse?5input?5string?3?5?$CFs?$AA@ 00439e98     pjsip-core-i386-win32-vc14-release-dynamic:sip_parser.obj
 0002:00002eb8       ??_C@_0BD@IGJCFAAL@PJSIP?5syntax?5error?$AA@ 00439eb8     pjsip-core-i386-win32-vc14-release-dynamic:sip_parser.obj
 0002:00002ecc       ??_C@_0BK@PNNGKLIN@PJSIP?5invalid?5value?5error?$AA@ 00439ecc     pjsip-core-i386-win32-vc14-release-dynamic:sip_parser.obj
 0002:00002ee8       ??_C@_02PCIJFNDE@?$AN?6?$AA@ 00439ee8     pjsip-core-i386-win32-vc14-release-dynamic:sip_parser.obj
 0002:00002eec       ??_C@_03MGGIELLM@?0?$AN?6?$AA@ 00439eec     pjsip-core-i386-win32-vc14-release-dynamic:sip_parser.obj
 0002:00002ef0       ??_C@_0L@LGCFMBHL@?9?4?$CB?$CF?$CK_?$GA?8?$HO?$CL?$AA@ 00439ef0     pjsip-core-i386-win32-vc14-release-dynamic:sip_parser.obj
 0002:00002efc       ??_C@_01FGNFDNOH@?$CF?$AA@ 00439efc     pjsip-core-i386-win32-vc14-release-dynamic:sip_parser.obj
 0002:00002f00       ??_C@_03OEFOOLBP@?$FL?3?$FN?$AA@ 00439f00     pjsip-core-i386-win32-vc14-release-dynamic:sip_parser.obj
 0002:00002f04       ??_C@_03HGEHODII@_?9?4?$AA@ 00439f04     pjsip-core-i386-win32-vc14-release-dynamic:sip_parser.obj
 0002:00002f08       ??_C@_0N@INHGOOCE@abcdefABCDEF?$AA@ 00439f08     pjsip-core-i386-win32-vc14-release-dynamic:sip_parser.obj
 0002:00002f18       ??_C@_0BC@EIHPKHIH@?$FL?$FN?1?3?$CG?$CL$?9_?4?$CB?$HO?$CK?8?$CI?$CJ?$CF?$AA@ 00439f18     pjsip-core-i386-win32-vc14-release-dynamic:sip_parser.obj
 0002:00002f2c       ??_C@_0BC@DHLPLEEN@?$FL?$FN?1?$DP?3?$CL$?9_?4?$CB?$HO?$CK?8?$CI?$CJ?$CF?$AA@ 00439f2c     pjsip-core-i386-win32-vc14-release-dynamic:sip_parser.obj
 0002:00002f40       ??_C@_0BD@FAKEDBHK@?9_?4?$CB?$HO?$CK?8?$CI?$CJ?$CF?$CG?$DN?$CL$?0?$DL?$DP?1?$AA@ 00439f40     pjsip-core-i386-win32-vc14-release-dynamic:sip_parser.obj
 0002:00002f54       ??_C@_01IPJKGB@?$CD?$AA@   00439f54     pjsip-core-i386-win32-vc14-release-dynamic:sip_parser.obj
 0002:00002f58       ??_C@_0BA@GJPAFF@?9_?4?$CB?$HO?$CK?8?$CI?$CJ?$CF?$CG?$DN?$CL$?0?$AA@ 00439f58     pjsip-core-i386-win32-vc14-release-dynamic:sip_parser.obj
 0002:00002f68       ??_C@_04INEOGBDO@?$EA?5?6?$DO?$AA@ 00439f68     pjsip-core-i386-win32-vc14-release-dynamic:sip_parser.obj
 0002:00002f70       ??_C@_04FOECIMDB@?3?$AN?6?$DM?$AA@ 00439f70     pjsip-core-i386-win32-vc14-release-dynamic:sip_parser.obj
 0002:00002f78       ??_C@_0BH@KMKLEGFJ@?$CD?$DP?$DL?3?$EA?$CG?$DN?$CL?9_?4?$CB?$HO?$CK?8?$CI?$CJ?$CF$?0?1?$CF?$AA@ 00439f78     pjsip-core-i386-win32-vc14-release-dynamic:sip_parser.obj
 0002:00002f90       ??_C@_03EDDBLLFO@?6?$AN?6?$AA@ 00439f90     pjsip-core-i386-win32-vc14-release-dynamic:sip_parser.obj
 0002:00002f94       ??_C@_03MCPDGLLE@SIP?$AA@  00439f94     pjsip-core-i386-win32-vc14-release-dynamic:sip_parser.obj
 0002:00002f98       ??_C@_03GJAMENNA@2?40?$AA@ 00439f98     pjsip-core-i386-win32-vc14-release-dynamic:sip_parser.obj
 0002:00002f9c       ??_C@_0N@KMCODECP@Request?5Line?$AA@ 00439f9c     pjsip-core-i386-win32-vc14-release-dynamic:sip_parser.obj
 0002:00002fac       ??_C@_0M@KNCMEJPH@Status?5Line?$AA@ 00439fac     pjsip-core-i386-win32-vc14-release-dynamic:sip_parser.obj
 0002:00002fb8       ??_C@_01CLKCMJKC@?5?$AA@   00439fb8     pjsip-core-i386-win32-vc14-release-dynamic:sip_parser.obj
 0002:00002fbc       ??_C@_0CM@MBFLJJMP@Error?5parsing?5header?3?5?8?$CF?4?$CKs?8?5lin@ 00439fbc     pjsip-core-i386-win32-vc14-release-dynamic:sip_parser.obj
 0002:00002fe8       ??_C@_08KIKGFOKI@boundary?$AA@ 00439fe8     pjsip-core-i386-win32-vc14-release-dynamic:sip_multipart.obj
 0002:00002ff4       ??_C@_0CI@MEJEAPPA@Warning?3?5error?5parsing?5multipart@ 00439ff4     pjsip-core-i386-win32-vc14-release-dynamic:sip_multipart.obj
 0002:0000301c       ??_C@_0BA@LBAHDFBC@sip_multipart?4c?$AA@ 0043a01c     pjsip-core-i386-win32-vc14-release-dynamic:sip_multipart.obj
 0002:0000302c       ??_C@_06IJPNAHC@digest?$AA@ 0043a02c     pjsip-core-i386-win32-vc14-release-dynamic:sip_multipart.obj
 0002:00003034       ??_C@_07ONPBMBOP@message?$AA@ 0043a034     pjsip-core-i386-win32-vc14-release-dynamic:sip_multipart.obj
 0002:0000303c       ??_C@_06OGFLLFJI@rfc822?$AA@ 0043a03c     pjsip-core-i386-win32-vc14-release-dynamic:sip_multipart.obj
 0002:00003048       ??_C@_0FD@FFFCNLOH@Warning?3?5boundary?5parameter?5not?5@ 0043a048     pjsip-core-i386-win32-vc14-release-dynamic:sip_multipart.obj
 0002:000030a0       ??_C@_0EO@HHPEFGCJ@Error?3?5multipart?5boundary?5not?5sp@ 0043a0a0     pjsip-core-i386-win32-vc14-release-dynamic:sip_multipart.obj
 0002:000030f0       ??_C@_06BMAPCEPF@?$DLuser?$DN?$AA@ 0043a0f0     pjsip-core-i386-win32-vc14-release-dynamic:sip_uri.obj
 0002:000030f8       ??_C@_08FIHANMDK@?$DLmethod?$DN?$AA@ 0043a0f8     pjsip-core-i386-win32-vc14-release-dynamic:sip_uri.obj
 0002:00003104       ??_C@_0M@OGEJDPOO@?$DLtransport?$DN?$AA@ 0043a104     pjsip-core-i386-win32-vc14-release-dynamic:sip_uri.obj
 0002:00003110       ??_C@_03KFFFHGHD@?$DLlr?$AA@ 0043a110     pjsip-core-i386-win32-vc14-release-dynamic:sip_uri.obj
 0002:00003118       ??_C@_0FJ@MFGCGKIL@DNS?5resolver?5not?5available?0?5targ@ 0043a118     pjsip-core-i386-win32-vc14-release-dynamic:sip_resolve.obj
 0002:00003174       ??_C@_0O@DMBGNNMG@sip_resolve?4c?$AA@ 0043a174     pjsip-core-i386-win32-vc14-release-dynamic:sip_resolve.obj
 0002:00003184       ??_C@_0DH@DPGIKKNN@Target?5?8?$CF?4?$CKs?3?$CFd?8?5type?$DN?$CFs?5resolve@ 0043a184     pjsip-core-i386-win32-vc14-release-dynamic:sip_resolve.obj
 0002:000031bc       ??_C@_0M@EKOGDFHO@_sips?4_tcp?4?$AA@ 0043a1bc     pjsip-core-i386-win32-vc14-release-dynamic:sip_resolve.obj
 0002:000031c8       ??_C@_0L@CGLNHIHI@_sip?4_tcp?4?$AA@ 0043a1c8     pjsip-core-i386-win32-vc14-release-dynamic:sip_resolve.obj
 0002:000031d4       ??_C@_0L@IGAKGJHB@_sip?4_udp?4?$AA@ 0043a1d4     pjsip-core-i386-win32-vc14-release-dynamic:sip_resolve.obj
 0002:000031e0       ??_C@_0EE@KKBDDFND@Starting?5async?5DNS?5?$CFs?5query?3?5tar@ 0043a1e0     pjsip-core-i386-win32-vc14-release-dynamic:sip_resolve.obj
 0002:00003224       ??_C@_0BJ@LIPABGDO@Failed?5to?5resolve?5?8?$CF?4?$CKs?8?$AA@ 0043a224     pjsip-core-i386-win32-vc14-release-dynamic:sip_resolve.obj
 0002:00003240       ??_C@_0BP@NGGNJHPJ@DNS?5A?5record?5resolution?5failed?$AA@ 0043a240     pjsip-core-i386-win32-vc14-release-dynamic:sip_resolve.obj
 0002:00003260       ??_C@_0CC@PEAOFPBC@DNS?5AAAA?5record?5resolution?5faile@ 0043a260     pjsip-core-i386-win32-vc14-release-dynamic:sip_resolve.obj
 0002:00003284       ??_C@_0CE@PFLKGBGN@DNS?5A?1AAAA?5record?5resolution?5fai@ 0043a284     pjsip-core-i386-win32-vc14-release-dynamic:sip_resolve.obj
 0002:00003510       ??_C@_0BN@NDHPCAAG@Object?5is?5busy?5?$CIPJSIP_EBUSY?$CJ?$AA@ 0043a510     pjsip-core-i386-win32-vc14-release-dynamic:sip_errno.obj
 0002:00003530       ??_C@_0DF@LHIGDAHP@Object?5with?5the?5same?5type?5exists@ 0043a530     pjsip-core-i386-win32-vc14-release-dynamic:sip_errno.obj
 0002:00003568       ??_C@_0CK@JJDNDGNE@SIP?5stack?5shutting?5down?5?$CIPJSIP_E@ 0043a568     pjsip-core-i386-win32-vc14-release-dynamic:sip_errno.obj
 0002:00003594       ??_C@_0DH@GEJHNFDM@SIP?5object?5is?5not?5initialized?4?5?$CI@ 0043a594     pjsip-core-i386-win32-vc14-release-dynamic:sip_errno.obj
 0002:000035cc       ??_C@_0DF@DFCKLJD@Missing?5route?5set?5?$CIfor?5tel?3?5URI?$CJ@ 0043a5cc     pjsip-core-i386-win32-vc14-release-dynamic:sip_errno.obj
 0002:00003604       ??_C@_0DB@LNGCHBD@Invalid?5message?1syntax?5error?5?$CIPJ@ 0043a604     pjsip-core-i386-win32-vc14-release-dynamic:sip_errno.obj
 0002:00003638       ??_C@_0DB@NNKMNMEK@Expecting?5request?5message?5?$CIPJSIP@ 0043a638     pjsip-core-i386-win32-vc14-release-dynamic:sip_errno.obj
 0002:0000366c       ??_C@_0DD@MODFKCPK@Expecting?5response?5message?5?$CIPJSI@ 0043a66c     pjsip-core-i386-win32-vc14-release-dynamic:sip_errno.obj
 0002:000036a0       ??_C@_0CF@NOACODOC@Message?5too?5long?5?$CIPJSIP_EMSGTOOL@ 0043a6a0     pjsip-core-i386-win32-vc14-release-dynamic:sip_errno.obj
 0002:000036c8       ??_C@_0CE@FONCLLMK@Partial?5message?5?$CIPJSIP_EPARTIALM@ 0043a6c8     pjsip-core-i386-win32-vc14-release-dynamic:sip_errno.obj
 0002:000036ec       ??_C@_0DK@HMGLEHFD@Invalid?1unexpected?5SIP?5status?5co@ 0043a6ec     pjsip-core-i386-win32-vc14-release-dynamic:sip_errno.obj
 0002:00003728       ??_C@_0CA@ICJGNPBL@Invalid?5URI?5?$CIPJSIP_EINVALIDURI?$CJ?$AA@ 0043a728     pjsip-core-i386-win32-vc14-release-dynamic:sip_errno.obj
 0002:00003748       ??_C@_0CK@PDIHHAGH@Invalid?5URI?5scheme?5?$CIPJSIP_EINVAL@ 0043a748     pjsip-core-i386-win32-vc14-release-dynamic:sip_errno.obj
 0002:00003774       ??_C@_0CL@FGPCAKCH@Missing?5Request?9URI?5?$CIPJSIP_EMISS@ 0043a774     pjsip-core-i386-win32-vc14-release-dynamic:sip_errno.obj
 0002:000037a0       ??_C@_0CL@JOKFDOLI@Invalid?5Request?5URI?5?$CIPJSIP_EINVA@ 0043a7a0     pjsip-core-i386-win32-vc14-release-dynamic:sip_errno.obj
 0002:000037cc       ??_C@_0CE@NBJPLEOO@URI?5is?5too?5long?5?$CIPJSIP_EURITOOLO@ 0043a7cc     pjsip-core-i386-win32-vc14-release-dynamic:sip_errno.obj
 0002:000037f0       ??_C@_0CP@PNHNBIME@Missing?5required?5header?$CIs?$CJ?5?$CIPJSI@ 0043a7f0     pjsip-core-i386-win32-vc14-release-dynamic:sip_errno.obj
 0002:00003820       ??_C@_0CJ@GFIBJIAO@Invalid?5header?5field?5?$CIPJSIP_EINV@ 0043a820     pjsip-core-i386-win32-vc14-release-dynamic:sip_errno.obj
 0002:0000384c       ??_C@_0CH@NDGOCBBP@Invalid?5Via?5header?5?$CIPJSIP_EINVAL@ 0043a84c     pjsip-core-i386-win32-vc14-release-dynamic:sip_errno.obj
 0002:00003874       ??_C@_0DG@HLMABLPG@Multiple?5Via?5headers?5in?5response@ 0043a874     pjsip-core-i386-win32-vc14-release-dynamic:sip_errno.obj
 0002:000038ac       ??_C@_0CK@LJCOFGPN@Missing?5message?5body?5?$CIPJSIP_EMIS@ 0043a8ac     pjsip-core-i386-win32-vc14-release-dynamic:sip_errno.obj
 0002:000038d8       ??_C@_0DB@NINEONMP@Invalid?1unexpected?5method?5?$CIPJSIP@ 0043a8d8     pjsip-core-i386-win32-vc14-release-dynamic:sip_errno.obj
 0002:0000390c       ??_C@_0CO@MKNJKJDL@Unsupported?5transport?5?$CIPJSIP_EUN@ 0043a90c     pjsip-core-i386-win32-vc14-release-dynamic:sip_errno.obj
 0002:0000393c       ??_C@_0DD@FMJGJHHJ@Transmit?5buffer?5already?5pending?5@ 0043a93c     pjsip-core-i386-win32-vc14-release-dynamic:sip_errno.obj
 0002:00003970       ??_C@_0CH@FGKEPDFL@Rx?5buffer?5overflow?5?$CIPJSIP_ERXOVE@ 0043a970     pjsip-core-i386-win32-vc14-release-dynamic:sip_errno.obj
 0002:00003998       ??_C@_0CH@IPJBAOPN@Buffer?5destroyed?5?$CIPJSIP_EBUFDEST@ 0043a998     pjsip-core-i386-win32-vc14-release-dynamic:sip_errno.obj
 0002:000039c0       ??_C@_0DF@PBAMDOH@Unsuitable?5transport?5selected?5?$CIP@ 0043a9c0     pjsip-core-i386-win32-vc14-release-dynamic:sip_errno.obj
 0002:000039f8       ??_C@_0DE@NJLNEKOM@Transport?5not?5available?5for?5use?5@ 0043a9f8     pjsip-core-i386-win32-vc14-release-dynamic:sip_errno.obj
 0002:00003a2c       ??_C@_0DF@DPMOHHML@Transaction?5has?5been?5destroyed?5?$CI@ 0043aa2c     pjsip-core-i386-win32-vc14-release-dynamic:sip_errno.obj
 0002:00003a68       ??_C@_0FM@JGDLJGMK@No?5transaction?5is?5associated?5wit@ 0043aa68     pjsip-core-i386-win32-vc14-release-dynamic:sip_errno.obj
 0002:00003ac4       ??_C@_0CH@EBPFAGMB@URI?5scheme?5mismatch?5?$CIPJSIP_ECMPS@ 0043aac4     pjsip-core-i386-win32-vc14-release-dynamic:sip_errno.obj
 0002:00003aec       ??_C@_0CI@DCNDLDIL@URI?5user?5part?5mismatch?5?$CIPJSIP_EC@ 0043aaec     pjsip-core-i386-win32-vc14-release-dynamic:sip_errno.obj
 0002:00003b14       ??_C@_0CO@NLCBDNGP@URI?5password?5part?5mismatch?5?$CIPJSI@ 0043ab14     pjsip-core-i386-win32-vc14-release-dynamic:sip_errno.obj
 0002:00003b44       ??_C@_0CI@CAAENIBN@URI?5host?5part?5mismatch?5?$CIPJSIP_EC@ 0043ab44     pjsip-core-i386-win32-vc14-release-dynamic:sip_errno.obj
 0002:00003b6c       ??_C@_0CD@LGFLCNGN@URI?5port?5mismatch?5?$CIPJSIP_ECMPPOR@ 0043ab6c     pjsip-core-i386-win32-vc14-release-dynamic:sip_errno.obj
 0002:00003b90       ??_C@_0DG@KAIIGJOM@URI?5transport?5param?5mismatch?5?$CIPJ@ 0043ab90     pjsip-core-i386-win32-vc14-release-dynamic:sip_errno.obj
 0002:00003bc8       ??_C@_0CM@PONOAHFI@URI?5ttl?5param?5mismatch?5?$CIPJSIP_EC@ 0043abc8     pjsip-core-i386-win32-vc14-release-dynamic:sip_errno.obj
 0002:00003bf4       ??_C@_0CO@PNILAMMK@URI?5user?5param?5mismatch?5?$CIPJSIP_E@ 0043abf4     pjsip-core-i386-win32-vc14-release-dynamic:sip_errno.obj
 0002:00003c24       ??_C@_0DC@BPANLPFC@URI?5method?5param?5mismatch?5?$CIPJSIP@ 0043ac24     pjsip-core-i386-win32-vc14-release-dynamic:sip_errno.obj
 0002:00003c58       ??_C@_0DA@HIHPGKKA@URI?5maddr?5param?5mismatch?5?$CIPJSIP_@ 0043ac58     pjsip-core-i386-win32-vc14-release-dynamic:sip_errno.obj
 0002:00003c88       ??_C@_0DA@DADPPELC@URI?5other?5param?5mismatch?5?$CIPJSIP_@ 0043ac88     pjsip-core-i386-win32-vc14-release-dynamic:sip_errno.obj
 0002:00003cb8       ??_C@_0DG@CFNMFPOM@URI?5header?5parameter?5mismatch?5?$CIP@ 0043acb8     pjsip-core-i386-win32-vc14-release-dynamic:sip_errno.obj
 0002:00003cf0       ??_C@_0DM@LOOBEDNN@Credential?5failed?5to?5authenticat@ 0043acf0     pjsip-core-i386-win32-vc14-release-dynamic:sip_errno.obj
 0002:00003d2c       ??_C@_0CN@IIEEILJJ@No?5suitable?5credential?5?$CIPJSIP_EN@ 0043ad2c     pjsip-core-i386-win32-vc14-release-dynamic:sip_errno.obj
 0002:00003d5c       ??_C@_0DP@NGPGIDFF@Invalid?1unsupported?5digest?5algor@ 0043ad5c     pjsip-core-i386-win32-vc14-release-dynamic:sip_errno.obj
 0002:00003d9c       ??_C@_0DD@GJOGBLMF@Invalid?1unsupported?5digest?5qop?5?$CI@ 0043ad9c     pjsip-core-i386-win32-vc14-release-dynamic:sip_errno.obj
 0002:00003dd0       ??_C@_0DN@GPEKONDD@Unsupported?5authentication?5schem@ 0043add0     pjsip-core-i386-win32-vc14-release-dynamic:sip_errno.obj
 0002:00003e10       ??_C@_0CO@BMGFFPME@No?5previous?5challenge?5?$CIPJSIP_EAU@ 0043ae10     pjsip-core-i386-win32-vc14-release-dynamic:sip_errno.obj
 0002:00003e40       ??_C@_0DF@DNNICPPN@No?5suitable?5authorization?5header@ 0043ae40     pjsip-core-i386-win32-vc14-release-dynamic:sip_errno.obj
 0002:00003e78       ??_C@_0DJ@LPEDCKOO@Account?5or?5credential?5not?5found?5@ 0043ae78     pjsip-core-i386-win32-vc14-release-dynamic:sip_errno.obj
 0002:00003eb4       ??_C@_0DL@CMLHLLPG@Account?5or?5credential?5is?5disable@ 0043aeb4     pjsip-core-i386-win32-vc14-release-dynamic:sip_errno.obj
 0002:00003ef0       ??_C@_0DG@HIIKPIBJ@Invalid?5authorization?5realm?5?$CIPJS@ 0043aef0     pjsip-core-i386-win32-vc14-release-dynamic:sip_errno.obj
 0002:00003f28       ??_C@_0DI@MHHCMF@Invalid?5authorization?5digest?5?$CIPJ@ 0043af28     pjsip-core-i386-win32-vc14-release-dynamic:sip_errno.obj
 0002:00003f60       ??_C@_0EB@JCHOOAEG@Maximum?5number?5of?5stale?5retries?5@ 0043af60     pjsip-core-i386-win32-vc14-release-dynamic:sip_errno.obj
 0002:00003fa8       ??_C@_0EF@LIONEPAL@Invalid?5nonce?5value?5in?5authentic@ 0043afa8     pjsip-core-i386-win32-vc14-release-dynamic:sip_errno.obj
 0002:00003ff0       ??_C@_0CO@PNJFNJKN@Invalid?5AKA?5credential?5?$CIPJSIP_EA@ 0043aff0     pjsip-core-i386-win32-vc14-release-dynamic:sip_errno.obj
 0002:00004020       ??_C@_0CK@IIJPHHCN@No?5challenge?5is?5found?5?$CIPJSIP_EAU@ 0043b020     pjsip-core-i386-win32-vc14-release-dynamic:sip_errno.obj
 0002:0000404c       ??_C@_0DC@HLPJEBKI@Missing?5From?1To?5tag?5parameter?5?$CIP@ 0043b04c     pjsip-core-i386-win32-vc14-release-dynamic:sip_errno.obj
 0002:00004080       ??_C@_0CK@NLEHMEII@Expecting?5REFER?5request?5?$CIPJSIP_E@ 0043b080     pjsip-core-i386-win32-vc14-release-dynamic:sip_errno.obj
 0002:000040ac       ??_C@_0DP@GMKFENNH@Not?5associated?5with?5REFER?5subscr@ 0043b0ac     pjsip-core-i386-win32-vc14-release-dynamic:sip_errno.obj
 0002:000040ec       ??_C@_0DN@EOKOKJCK@INVITE?5session?5already?5terminate@ 0043b0ec     pjsip-core-i386-win32-vc14-release-dynamic:sip_errno.obj
 0002:0000412c       ??_C@_0DD@DMBFAKPC@Invalid?5INVITE?5session?5state?5?$CIPJ@ 0043b12c     pjsip-core-i386-win32-vc14-release-dynamic:sip_errno.obj
 0002:00004160       ??_C@_0DK@CJAGEDOD@Require?5secure?5session?1transport@ 0043b160     pjsip-core-i386-win32-vc14-release-dynamic:sip_errno.obj
 0002:0000419c       ??_C@_0CH@HBADBAEP@Unknown?5TLS?5error?5?$CIPJSIP_TLS_EUN@ 0043b19c     pjsip-core-i386-win32-vc14-release-dynamic:sip_errno.obj
 0002:000041c4       ??_C@_0DD@NFLPGFPJ@Invalid?5SSL?5protocol?5method?5?$CIPJS@ 0043b1c4     pjsip-core-i386-win32-vc14-release-dynamic:sip_errno.obj
 0002:000041f8       ??_C@_0DN@LHDHPIOK@Error?5loading?1verifying?5SSL?5CA?5l@ 0043b1f8     pjsip-core-i386-win32-vc14-release-dynamic:sip_errno.obj
 0002:00004238       ??_C@_0DP@NPMNFNID@Error?5loading?5SSL?5certificate?5ch@ 0043b238     pjsip-core-i386-win32-vc14-release-dynamic:sip_errno.obj
 0002:00004278       ??_C@_0EI@PNDINLEB@Error?5adding?5private?5key?5from?5SS@ 0043b278     pjsip-core-i386-win32-vc14-release-dynamic:sip_errno.obj
 0002:000042c0       ??_C@_0DC@HMDIEPNK@Error?5setting?5SSL?5cipher?5list?5?$CIP@ 0043b2c0     pjsip-core-i386-win32-vc14-release-dynamic:sip_errno.obj
 0002:000042f4       ??_C@_0CM@KJHKFFIL@Error?5creating?5SSL?5context?5?$CIPJSI@ 0043b2f4     pjsip-core-i386-win32-vc14-release-dynamic:sip_errno.obj
 0002:00004320       ??_C@_0DK@GBGOJKMK@Error?5creating?5SSL?5connection?5ob@ 0043b320     pjsip-core-i386-win32-vc14-release-dynamic:sip_errno.obj
 0002:00004360       ??_C@_0EB@LOJLDGBN@Unknown?5error?5when?5performing?5SS@ 0043b360     pjsip-core-i386-win32-vc14-release-dynamic:sip_errno.obj
 0002:000043a4       ??_C@_0DP@CGFDGHCM@Unknown?5error?5when?5performing?5SS@ 0043b3a4     pjsip-core-i386-win32-vc14-release-dynamic:sip_errno.obj
 0002:000043e4       ??_C@_0DG@LGELLHGA@Unknown?5error?5when?5sending?5SSL?5d@ 0043b3e4     pjsip-core-i386-win32-vc14-release-dynamic:sip_errno.obj
 0002:0000441c       ??_C@_0DG@GNCBAFL@Unknown?5error?5when?5reading?5SSL?5d@ 0043b41c     pjsip-core-i386-win32-vc14-release-dynamic:sip_errno.obj
 0002:00004454       ??_C@_0DE@NMMHGAJD@SSL?5negotiation?5has?5timed?5out?5?$CIP@ 0043b454     pjsip-core-i386-win32-vc14-release-dynamic:sip_errno.obj
 0002:00004488       ??_C@_0DK@PDMPPIHB@SSL?5certificate?5verification?5err@ 0043b488     pjsip-core-i386-win32-vc14-release-dynamic:sip_errno.obj
 0002:000044c4       ??_C@_0BH@IINGFMKF@Unknown?5pjsip?5error?5?$CFd?$AA@ 0043b4c4     pjsip-core-i386-win32-vc14-release-dynamic:sip_errno.obj
 0002:000044dc       ??_C@_04NBIELBDC@isub?$AA@ 0043b4dc     pjsip-core-i386-win32-vc14-release-dynamic:sip_tel_uri.obj
 0002:000044e4       ??_C@_03MDPCKCMI@ext?$AA@  0043b4e4     pjsip-core-i386-win32-vc14-release-dynamic:sip_tel_uri.obj
 0002:000044e8       ??_C@_0O@IMLAOJJD@phone?9context?$AA@ 0043b4e8     pjsip-core-i386-win32-vc14-release-dynamic:sip_tel_uri.obj
 0002:000044f8       ??_C@_05OGMJFBEO@?$DLext?$DN?$AA@ 0043b4f8     pjsip-core-i386-win32-vc14-release-dynamic:sip_tel_uri.obj
 0002:00004500       ??_C@_06CECEBCPK@?$DLisub?$DN?$AA@ 0043b500     pjsip-core-i386-win32-vc14-release-dynamic:sip_tel_uri.obj
 0002:00004508       ??_C@_0BA@JDMJBMEF@?$DLphone?9context?$DN?$AA@ 0043b508     pjsip-core-i386-win32-vc14-release-dynamic:sip_tel_uri.obj
 0002:00004518       ??_C@_0P@KBNHNABO@0123456789?9?4?$CI?$CJ?$AA@ 0043b518     pjsip-core-i386-win32-vc14-release-dynamic:sip_tel_uri.obj
 0002:00004528       ??_C@_0CM@MMELMJHM@0123456789aAbBcCdDeEfF?$CK?$CD?9?4?$CI?$CJ?$CL012@ 0043b528     pjsip-core-i386-win32-vc14-release-dynamic:sip_tel_uri.obj
 0002:00004554       ??_C@_04DCHJLDOJ@?9?4?$CI?$CJ?$AA@ 0043b554     pjsip-core-i386-win32-vc14-release-dynamic:sip_tel_uri.obj
 0002:0000455c       ??_C@_0BA@NHFLMIGM@?$CL0123456789?9?4?$CI?$CJ?$AA@ 0043b55c     pjsip-core-i386-win32-vc14-release-dynamic:sip_tel_uri.obj
 0002:0000456c       ??_C@_0BP@LJHGJILO@?1?3?$EA?$CG$?0?$CL0123456789?9_?4?$CB?$HO?$CK?8?$CI?$CJ?$CF?$FL?$FN?$CL?$AA@ 0043b56c     pjsip-core-i386-win32-vc14-release-dynamic:sip_tel_uri.obj
 0002:0000458c       ??_C@_01JOAMLHOP@?9?$AA@   0043b58c     pjsip-core-i386-win32-vc14-release-dynamic:sip_tel_uri.obj
 0002:00004590       ??_C@_0BM@IILGPONN@?$FL?$FN?1?3?$CG?$CL$0123456789?9_?4?$CB?$HO?$CK?8?$CI?$CJ?$CF?$AA@ 0043b590     pjsip-core-i386-win32-vc14-release-dynamic:sip_tel_uri.obj
 0002:000045ac       ??_C@_01NEMOKFLO@?$DN?$AA@ 0043b5ac     pjsip-core-i386-win32-vc14-release-dynamic:sip_tel_uri.obj
 0002:000045b0       ??_C@_09FNNDBHOE@username?$DN?$AA@ 0043b5b0     pjsip-core-i386-win32-vc14-release-dynamic:sip_auth_msg.obj
 0002:000045bc       ??_C@_08FIMOKBNA@?0?5realm?$DN?$AA@ 0043b5bc     pjsip-core-i386-win32-vc14-release-dynamic:sip_auth_msg.obj
 0002:000045c8       ??_C@_08INALKCDD@?0?5nonce?$DN?$AA@ 0043b5c8     pjsip-core-i386-win32-vc14-release-dynamic:sip_auth_msg.obj
 0002:000045d4       ??_C@_06LAMIMJOG@?0?5uri?$DN?$AA@ 0043b5d4     pjsip-core-i386-win32-vc14-release-dynamic:sip_auth_msg.obj
 0002:000045dc       ??_C@_0M@LHKMMNIM@?0?5response?$DN?$AA@ 0043b5dc     pjsip-core-i386-win32-vc14-release-dynamic:sip_auth_msg.obj
 0002:000045e8       ??_C@_0N@CGBNHFEJ@?0?5algorithm?$DN?$AA@ 0043b5e8     pjsip-core-i386-win32-vc14-release-dynamic:sip_auth_msg.obj
 0002:000045f8       ??_C@_09JMMPALKP@?0?5cnonce?$DN?$AA@ 0043b5f8     pjsip-core-i386-win32-vc14-release-dynamic:sip_auth_msg.obj
 0002:00004604       ??_C@_09FBEJJABD@?0?5opaque?$DN?$AA@ 0043b604     pjsip-core-i386-win32-vc14-release-dynamic:sip_auth_msg.obj
 0002:00004610       ??_C@_06PEMMHIJL@?0?5qop?$DN?$AA@ 0043b610     pjsip-core-i386-win32-vc14-release-dynamic:sip_auth_msg.obj
 0002:00004618       ??_C@_05EBCAJOC@?0?5nc?$DN?$AA@ 0043b618     pjsip-core-i386-win32-vc14-release-dynamic:sip_auth_msg.obj
 0002:00004620       ??_C@_06EJKNIGMP@token?$DN?$AA@ 0043b620     pjsip-core-i386-win32-vc14-release-dynamic:sip_auth_msg.obj
 0002:00004628       ??_C@_0M@FOCLKAFD@?0?5username?$DN?$AA@ 0043b628     pjsip-core-i386-win32-vc14-release-dynamic:sip_auth_msg.obj
 0002:00004634       ??_C@_03NHCDCECM@pgp?$AA@  0043b634     pjsip-core-i386-win32-vc14-release-dynamic:sip_auth_msg.obj
 0002:00004638       ??_C@_06LOBIHJOB@realm?$DN?$AA@ 0043b638     pjsip-core-i386-win32-vc14-release-dynamic:sip_auth_msg.obj
 0002:00004640       ??_C@_08CKNLFMMP@?0domain?$DN?$AA@ 0043b640     pjsip-core-i386-win32-vc14-release-dynamic:sip_auth_msg.obj
 0002:0000464c       ??_C@_07DNEKANAM@?0nonce?$DN?$AA@ 0043b64c     pjsip-core-i386-win32-vc14-release-dynamic:sip_auth_msg.obj
 0002:00004654       ??_C@_08OHJPPMIB@?0opaque?$DN?$AA@ 0043b654     pjsip-core-i386-win32-vc14-release-dynamic:sip_auth_msg.obj
 0002:00004660       ??_C@_04LOAJBDKD@true?$AA@ 0043b660     pjsip-core-i386-win32-vc14-release-dynamic:sip_auth_msg.obj
 0002:00004668       ??_C@_07IIGBIFNN@?0stale?$DN?$AA@ 0043b668     pjsip-core-i386-win32-vc14-release-dynamic:sip_auth_msg.obj
 0002:00004670       ??_C@_0M@HOHCEKCL@?0algorithm?$DN?$AA@ 0043b670     pjsip-core-i386-win32-vc14-release-dynamic:sip_auth_msg.obj
 0002:0000467c       ??_C@_05KHLNJFNF@?0qop?$DN?$AA@ 0043b67c     pjsip-core-i386-win32-vc14-release-dynamic:sip_auth_msg.obj
 0002:00004684       ??_C@_08ODGEKKOL@username?$AA@ 0043b684     pjsip-core-i386-win32-vc14-release-dynamic:sip_auth_parser.obj
 0002:00004690       ??_C@_05ELABLNGD@realm?$AA@ 0043b690     pjsip-core-i386-win32-vc14-release-dynamic:sip_auth_parser.obj
 0002:00004698       ??_C@_05OOEDLKEB@nonce?$AA@ 0043b698     pjsip-core-i386-win32-vc14-release-dynamic:sip_auth_parser.obj
 0002:000046a0       ??_C@_03GBBABMJN@uri?$AA@  0043b6a0     pjsip-core-i386-win32-vc14-release-dynamic:sip_auth_parser.obj
 0002:000046a4       ??_C@_08HKMEAON@response?$AA@ 0043b6a4     pjsip-core-i386-win32-vc14-release-dynamic:sip_auth_parser.obj
 0002:000046b0       ??_C@_09JPNFBOJG@algorithm?$AA@ 0043b6b0     pjsip-core-i386-win32-vc14-release-dynamic:sip_auth_parser.obj
 0002:000046bc       ??_C@_06LKIIGAOE@domain?$AA@ 0043b6bc     pjsip-core-i386-win32-vc14-release-dynamic:sip_auth_parser.obj
 0002:000046c4       ??_C@_05BFAEFKPM@stale?$AA@ 0043b6c4     pjsip-core-i386-win32-vc14-release-dynamic:sip_auth_parser.obj
 0002:000046cc       ??_C@_03GBIMBCPB@qop?$AA@  0043b6cc     pjsip-core-i386-win32-vc14-release-dynamic:sip_auth_parser.obj
 0002:000046d0       ??_C@_06HILDJCOE@cnonce?$AA@ 0043b6d0     pjsip-core-i386-win32-vc14-release-dynamic:sip_auth_parser.obj
 0002:000046d8       ??_C@_06CJCOLNBB@opaque?$AA@ 0043b6d8     pjsip-core-i386-win32-vc14-release-dynamic:sip_auth_parser.obj
 0002:000046e0       ??_C@_02MCHPIKD@nc?$AA@    0043b6e0     pjsip-core-i386-win32-vc14-release-dynamic:sip_auth_parser.obj
 0002:000046e4       _pjsip_QUOTED_TRUE_STR     0043b6e4     pjsip-core-i386-win32-vc14-release-dynamic:sip_auth_parser.obj
 0002:000046ec       _pjsip_QUOTED_FALSE_STR    0043b6ec     pjsip-core-i386-win32-vc14-release-dynamic:sip_auth_parser.obj
 0002:000046f4       _pjsip_QUOTED_DIGEST_STR   0043b6f4     pjsip-core-i386-win32-vc14-release-dynamic:sip_auth_parser.obj
 0002:000046fc       _pjsip_QUOTED_PGP_STR      0043b6fc     pjsip-core-i386-win32-vc14-release-dynamic:sip_auth_parser.obj
 0002:00004704       _pjsip_QUOTED_MD5_STR      0043b704     pjsip-core-i386-win32-vc14-release-dynamic:sip_auth_parser.obj
 0002:0000470c       _pjsip_QUOTED_AUTH_STR     0043b70c     pjsip-core-i386-win32-vc14-release-dynamic:sip_auth_parser.obj
 0002:00004714       _pjsip_USERNAME_STR        0043b714     pjsip-core-i386-win32-vc14-release-dynamic:sip_auth_parser.obj
 0002:0000471c       _pjsip_REALM_STR           0043b71c     pjsip-core-i386-win32-vc14-release-dynamic:sip_auth_parser.obj
 0002:00004724       _pjsip_NONCE_STR           0043b724     pjsip-core-i386-win32-vc14-release-dynamic:sip_auth_parser.obj
 0002:0000472c       _pjsip_URI_STR             0043b72c     pjsip-core-i386-win32-vc14-release-dynamic:sip_auth_parser.obj
 0002:00004734       _pjsip_RESPONSE_STR        0043b734     pjsip-core-i386-win32-vc14-release-dynamic:sip_auth_parser.obj
 0002:0000473c       _pjsip_ALGORITHM_STR       0043b73c     pjsip-core-i386-win32-vc14-release-dynamic:sip_auth_parser.obj
 0002:00004744       _pjsip_DOMAIN_STR          0043b744     pjsip-core-i386-win32-vc14-release-dynamic:sip_auth_parser.obj
 0002:0000474c       _pjsip_STALE_STR           0043b74c     pjsip-core-i386-win32-vc14-release-dynamic:sip_auth_parser.obj
 0002:00004754       _pjsip_QOP_STR             0043b754     pjsip-core-i386-win32-vc14-release-dynamic:sip_auth_parser.obj
 0002:0000475c       _pjsip_CNONCE_STR          0043b75c     pjsip-core-i386-win32-vc14-release-dynamic:sip_auth_parser.obj
 0002:00004764       _pjsip_OPAQUE_STR          0043b764     pjsip-core-i386-win32-vc14-release-dynamic:sip_auth_parser.obj
 0002:0000476c       _pjsip_NC_STR              0043b76c     pjsip-core-i386-win32-vc14-release-dynamic:sip_auth_parser.obj
 0002:00004774       _pjsip_TRUE_STR            0043b774     pjsip-core-i386-win32-vc14-release-dynamic:sip_auth_parser.obj
 0002:0000477c       _pjsip_FALSE_STR           0043b77c     pjsip-core-i386-win32-vc14-release-dynamic:sip_auth_parser.obj
 0002:00004784       _pjsip_DIGEST_STR          0043b784     pjsip-core-i386-win32-vc14-release-dynamic:sip_auth_parser.obj
 0002:0000478c       _pjsip_PGP_STR             0043b78c     pjsip-core-i386-win32-vc14-release-dynamic:sip_auth_parser.obj
 0002:00004794       _pjsip_BEARER_STR          0043b794     pjsip-core-i386-win32-vc14-release-dynamic:sip_auth_parser.obj
 0002:0000479c       _pjsip_MD5_STR             0043b79c     pjsip-core-i386-win32-vc14-release-dynamic:sip_auth_parser.obj
 0002:000047a4       _pjsip_AUTH_STR            0043b7a4     pjsip-core-i386-win32-vc14-release-dynamic:sip_auth_parser.obj
 0002:000047ac       ??_C@_06JMFPOLAJ@?$CCtrue?$CC?$AA@ 0043b7ac     pjsip-core-i386-win32-vc14-release-dynamic:sip_auth_parser.obj
 0002:000047b4       ??_C@_05LAPONLG@false?$AA@ 0043b7b4     pjsip-core-i386-win32-vc14-release-dynamic:sip_auth_parser.obj
 0002:000047bc       ??_C@_07MGKGDKEI@?$CCfalse?$CC?$AA@ 0043b7bc     pjsip-core-i386-win32-vc14-release-dynamic:sip_auth_parser.obj
 0002:000047c4       ??_C@_06MHCCOJOO@Digest?$AA@ 0043b7c4     pjsip-core-i386-win32-vc14-release-dynamic:sip_auth_parser.obj
 0002:000047cc       ??_C@_08MPOLMKFE@?$CCDigest?$CC?$AA@ 0043b7cc     pjsip-core-i386-win32-vc14-release-dynamic:sip_auth_parser.obj
 0002:000047d8       ??_C@_03NKNIOJFA@PGP?$AA@  0043b7d8     pjsip-core-i386-win32-vc14-release-dynamic:sip_auth_parser.obj
 0002:000047dc       ??_C@_05PBIHDNLO@?$CCPGP?$CC?$AA@ 0043b7dc     pjsip-core-i386-win32-vc14-release-dynamic:sip_auth_parser.obj
 0002:000047e4       ??_C@_06NPEPPOGN@Bearer?$AA@ 0043b7e4     pjsip-core-i386-win32-vc14-release-dynamic:sip_auth_parser.obj
 0002:000047ec       ??_C@_03PKBIKOHH@md5?$AA@  0043b7ec     pjsip-core-i386-win32-vc14-release-dynamic:sip_auth_parser.obj
 0002:000047f0       ??_C@_05FEKNEIJC@?$CCmd5?$CC?$AA@ 0043b7f0     pjsip-core-i386-win32-vc14-release-dynamic:sip_auth_parser.obj
 0002:000047f8       ??_C@_04DPLCCHJC@auth?$AA@ 0043b7f8     pjsip-core-i386-win32-vc14-release-dynamic:sip_auth_parser.obj
 0002:00004800       ??_C@_06MNAAFAAH@?$CCauth?$CC?$AA@ 0043b800     pjsip-core-i386-win32-vc14-release-dynamic:sip_auth_parser.obj
 0002:00004808       ??_C@_0BC@KMLOGCBL@?$CB?$CD$?$CF?$CG?8?$CK?$CL?9?4?$FO_?$GA?$HL?$HM?$HN?$HO?$AA@ 0043b808     pjmedia-i386-win32-vc14-release-dynamic:sdp.obj
 0002:0000481c       ??_C@_06NPGDLJKE@rtpmap?$AA@ 0043b81c     pjmedia-i386-win32-vc14-release-dynamic:sdp.obj
 0002:00004824       ??_C@_04JKCEBMKL@fmtp?$AA@ 0043b824     pjmedia-i386-win32-vc14-release-dynamic:sdp.obj
 0002:0000482c       ??_C@_05PGDJPCOI@?1?5?7?$AN?6?$AA@ 0043b82c     pjmedia-i386-win32-vc14-release-dynamic:sdp.obj
 0002:00004834       ??_C@_01KMDKNFGN@?1?$AA@   0043b834     pjmedia-i386-win32-vc14-release-dynamic:sdp.obj
 0002:00004838       ??_C@_0BD@NGNJPLJA@c?$DN?$CF?4?$CKs?5?$CF?4?$CKs?5?$CF?4?$CKs?$AN?6?$AA@ 0043b838     pjmedia-i386-win32-vc14-release-dynamic:sdp.obj
 0002:0000484c       ??_C@_05MIOLEPMP@v?$DN0?$AN?6?$AA@ 0043b84c     pjmedia-i386-win32-vc14-release-dynamic:sdp.obj
 0002:00004854       ??_C@_04HHCDBDLF@?5?7?$AN?6?$AA@ 0043b854     pjmedia-i386-win32-vc14-release-dynamic:sdp.obj
 0002:0000485c       ??_C@_0DG@FMMLOIKL@Error?5adding?5SDP?5media?5format?5?$CF?4@ 0043b85c     pjmedia-i386-win32-vc14-release-dynamic:sdp.obj
 0002:00004894       ??_C@_05LIAFADKM@sdp?4c?$AA@ 0043b894     pjmedia-i386-win32-vc14-release-dynamic:sdp.obj
 0002:0000489c       ??_C@_08INHMCBAE@inactive?$AA@ 0043b89c     pjmedia-i386-win32-vc14-release-dynamic:sdp.obj
 0002:000048a8       ??_C@_08HPJEFADN@sendonly?$AA@ 0043b8a8     pjmedia-i386-win32-vc14-release-dynamic:sdp.obj
 0002:000048b4       ??_C@_08EHCGIGCO@recvonly?$AA@ 0043b8b4     pjmedia-i386-win32-vc14-release-dynamic:sdp.obj
 0002:000048c0       ??_C@_08LMCBNPPN@sendrecv?$AA@ 0043b8c0     pjmedia-i386-win32-vc14-release-dynamic:sdp.obj
 0002:000048cc       ??_C@_0DD@EJNOLNM@Error?5adding?5media?5attribute?0?5at@ 0043b8cc     pjmedia-i386-win32-vc14-release-dynamic:sdp.obj
 0002:00004900       ??_C@_0DF@GDECOCN@Error?5adding?5session?5attribute?0?5@ 0043b900     pjmedia-i386-win32-vc14-release-dynamic:sdp.obj
 0002:00004938       ??_C@_0CF@NCOGEPJF@Error?5adding?5media?0?5media?5is?5ign@ 0043b938     pjmedia-i386-win32-vc14-release-dynamic:sdp.obj
 0002:00004960       ??_C@_0DD@FDBIEIFP@Error?5adding?5media?5bandwidth?5inf@ 0043b960     pjmedia-i386-win32-vc14-release-dynamic:sdp.obj
 0002:00004994       ??_C@_0DF@FBLBINKO@Error?5adding?5session?5bandwidth?5i@ 0043b994     pjmedia-i386-win32-vc14-release-dynamic:sdp.obj
 0002:000049cc       ??_C@_0CE@BFJMCBLI@Error?5parsing?5SDP?5in?5line?5?$CFd?5col@ 0043b9cc     pjmedia-i386-win32-vc14-release-dynamic:sdp.obj
 0002:000049f0       ??_C@_02BBAPPCCJ@IN?$AA@   0043b9f0     pjmedia-i386-win32-vc14-release-dynamic:sdp.obj
 0002:000049f4       ??_C@_03OPDBOKBD@IP4?$AA@  0043b9f4     pjmedia-i386-win32-vc14-release-dynamic:sdp.obj
 0002:000049f8       ??_C@_03NNAHIIJB@IP6?$AA@  0043b9f8     pjmedia-i386-win32-vc14-release-dynamic:sdp.obj
 0002:000049fc       ??_C@_03GOLBDMPC@RTP?$AA@  0043b9fc     pjmedia-i386-win32-vc14-release-dynamic:sdp.obj
 0002:00004a00       ??_C@_03CPJJBAON@AVP?$AA@  0043ba00     pjmedia-i386-win32-vc14-release-dynamic:sdp.obj
 0002:00004a04       ??_C@_04LHEMINPH@SAVP?$AA@ 0043ba04     pjmedia-i386-win32-vc14-release-dynamic:sdp.obj
 0002:00004a0c       ??_C@_04HILHOPFG@AVPF?$AA@ 0043ba0c     pjmedia-i386-win32-vc14-release-dynamic:sdp.obj
 0002:00004a14       ??_C@_05IFENMDLB@SAVPF?$AA@ 0043ba14     pjmedia-i386-win32-vc14-release-dynamic:sdp.obj
 0002:00004a1c       ??_C@_0N@IFKNLCBO@TLS?1RTP?1SAVP?$AA@ 0043ba1c     pjmedia-i386-win32-vc14-release-dynamic:sdp.obj
 0002:00004a2c       ??_C@_0O@FMKJHIFC@TLS?1RTP?1SAVPF?$AA@ 0043ba2c     pjmedia-i386-win32-vc14-release-dynamic:sdp.obj
 0002:00004a3c       ??_C@_0L@IOJLEJF@STATE_NULL?$AA@ 0043ba3c     pjmedia-i386-win32-vc14-release-dynamic:sdp_neg.obj
 0002:00004a48       ??_C@_0BC@LOEMBHAD@STATE_LOCAL_OFFER?$AA@ 0043ba48     pjmedia-i386-win32-vc14-release-dynamic:sdp_neg.obj
 0002:00004a5c       ??_C@_0BD@EIDNGBFC@STATE_REMOTE_OFFER?$AA@ 0043ba5c     pjmedia-i386-win32-vc14-release-dynamic:sdp_neg.obj
 0002:00004a70       ??_C@_0BA@GHLPEJJC@STATE_WAIT_NEGO?$AA@ 0043ba70     pjmedia-i386-win32-vc14-release-dynamic:sdp_neg.obj
 0002:00004a80       ??_C@_0L@KPLLHEOI@STATE_DONE?$AA@ 0043ba80     pjmedia-i386-win32-vc14-release-dynamic:sdp_neg.obj
 0002:00004a8c       ??_C@_0M@GGDBIFHF@?$DM?$DPUNKNOWN?$DP?$DO?$AA@ 0043ba8c     pjmedia-i386-win32-vc14-release-dynamic:sdp_neg.obj
 0002:00004a98       ??_C@_09PFCHIMEP@127?40?40?41?$AA@ 0043ba98     pjmedia-i386-win32-vc14-release-dynamic:sdp_neg.obj
 0002:00004aa4       ??_C@_0BA@LLGGBELL@telephone?9event?$AA@ 0043baa4     pjmedia-i386-win32-vc14-release-dynamic:sdp_neg.obj
 0002:00004c98       ??_C@_0DI@FPKNFLPC@Unable?5to?5resolve?5STUN?5server?5?$CIP@ 0043bc98     pjlib-util-i386-win32-vc14-release-dynamic:errno.obj
 0002:00004cd0       ??_C@_0DG@MLIAHJMC@Unknown?5STUN?5message?5type?5?$CIPJLIB@ 0043bcd0     pjlib-util-i386-win32-vc14-release-dynamic:errno.obj
 0002:00004d08       ??_C@_0DH@BGLGMNML@Invalid?5STUN?5message?5length?5?$CIPJL@ 0043bd08     pjlib-util-i386-win32-vc14-release-dynamic:errno.obj
 0002:00004d40       ??_C@_0DI@MNKBLDCO@STUN?5attribute?5length?5error?5?$CIPJL@ 0043bd40     pjlib-util-i386-win32-vc14-release-dynamic:errno.obj
 0002:00004d78       ??_C@_0DJ@GEFJCPHI@Invalid?5STUN?5attribute?5type?5?$CIPJL@ 0043bd78     pjlib-util-i386-win32-vc14-release-dynamic:errno.obj
 0002:00004db4       ??_C@_0DL@JFEBBJAB@Invalid?5STUN?5server?1socket?5index@ 0043bdb4     pjlib-util-i386-win32-vc14-release-dynamic:errno.obj
 0002:00004df0       ??_C@_0EE@OMBAKMPD@No?5STUN?5binding?5response?5in?5the?5@ 0043bdf0     pjlib-util-i386-win32-vc14-release-dynamic:errno.obj
 0002:00004e34       ??_C@_0DM@JJJKHKHH@Received?5STUN?5error?5attribute?5?$CIP@ 0043be34     pjlib-util-i386-win32-vc14-release-dynamic:errno.obj
 0002:00004e70       ??_C@_0DJ@BDPKKDEL@No?5STUN?5mapped?5address?5attribute@ 0043be70     pjlib-util-i386-win32-vc14-release-dynamic:errno.obj
 0002:00004eb0       ??_C@_0ED@MIOBPJDH@Received?5no?5response?5from?5STUN?5s@ 0043beb0     pjlib-util-i386-win32-vc14-release-dynamic:errno.obj
 0002:00004ef4       ??_C@_0DK@OILEGGA@Symetric?5NAT?5detected?5by?5STUN?5?$CIP@ 0043bef4     pjlib-util-i386-win32-vc14-release-dynamic:errno.obj
 0002:00004f30       ??_C@_0CI@OKGDIDF@Invalid?5XML?5message?5?$CIPJLIB_UTIL_@ 0043bf30     pjlib-util-i386-win32-vc14-release-dynamic:errno.obj
 0002:00004f58       ??_C@_0CL@IPLFEOJE@Invalid?5JSON?5document?5?$CIPJLIB_UTI@ 0043bf58     pjlib-util-i386-win32-vc14-release-dynamic:errno.obj
 0002:00004f88       ??_C@_0EC@KJLJANIE@DNS?5query?5packet?5buffer?5is?5too?5s@ 0043bf88     pjlib-util-i386-win32-vc14-release-dynamic:errno.obj
 0002:00004fcc       ??_C@_0DC@JFKHADAC@Invalid?5DNS?5packet?5length?5?$CIPJLIB@ 0043bfcc     pjlib-util-i386-win32-vc14-release-dynamic:errno.obj
 0002:00005000       ??_C@_0CL@OCFDFFNM@Invalid?5DNS?5class?5?$CIPJLIB_UTIL_ED@ 0043c000     pjlib-util-i386-win32-vc14-release-dynamic:errno.obj
 0002:0000502c       ??_C@_0DE@FIPILDGP@Invalid?5DNS?5name?5pointer?5?$CIPJLIB_@ 0043c02c     pjlib-util-i386-win32-vc14-release-dynamic:errno.obj
 0002:00005060       ??_C@_0DJ@NBOGGJL@Invalid?5DNS?5nameserver?5address?5?$CI@ 0043c060     pjlib-util-i386-win32-vc14-release-dynamic:errno.obj
 0002:0000509c       ??_C@_0DH@LFJGDOHB@No?5nameserver?5is?5in?5DNS?5resolver@ 0043c09c     pjlib-util-i386-win32-vc14-release-dynamic:errno.obj
 0002:000050d4       ??_C@_0DH@PHJBLCKD@No?5working?5DNS?5nameserver?5?$CIPJLIB@ 0043c0d4     pjlib-util-i386-win32-vc14-release-dynamic:errno.obj
 0002:00005110       ??_C@_0EC@HJFBNLFC@No?5answer?5record?5in?5the?5DNS?5resp@ 0043c110     pjlib-util-i386-win32-vc14-release-dynamic:errno.obj
 0002:00005154       ??_C@_0CN@DEFBDJKF@Invalid?5DNS?5answer?5?$CIPJLIB_UTIL_E@ 0043c154     pjlib-util-i386-win32-vc14-release-dynamic:errno.obj
 0002:00005184       ??_C@_0CN@BCAAPMPM@DNS?5?$CCFormat?5error?$CC?5?$CIPJLIB_UTIL_E@ 0043c184     pjlib-util-i386-win32-vc14-release-dynamic:errno.obj
 0002:000051b4       ??_C@_0DA@NBPIIAHM@DNS?5?$CCServer?5failure?$CC?5?$CIPJLIB_UTIL@ 0043c1b4     pjlib-util-i386-win32-vc14-release-dynamic:errno.obj
 0002:000051e4       ??_C@_0CM@CNNJNBCA@DNS?5?$CCName?5Error?$CC?5?$CIPJLIB_UTIL_EDN@ 0043c1e4     pjlib-util-i386-win32-vc14-release-dynamic:errno.obj
 0002:00005210       ??_C@_0DA@DIMDKHPM@DNS?5?$CCNot?5Implemented?$CC?5?$CIPJLIB_UTI@ 0043c210     pjlib-util-i386-win32-vc14-release-dynamic:errno.obj
 0002:00005240       ??_C@_0CI@LDMKLLKJ@DNS?5?$CCRefused?$CC?5?$CIPJLIB_UTIL_EDNS_R@ 0043c240     pjlib-util-i386-win32-vc14-release-dynamic:errno.obj
 0002:00005268       ??_C@_0DB@PFAMNHPJ@DNS?5?$CCThe?5name?5exists?$CC?5?$CIPJLIB_UTI@ 0043c268     pjlib-util-i386-win32-vc14-release-dynamic:errno.obj
 0002:0000529c       ??_C@_0DO@OIIHMCI@DNS?5?$CCThe?5RRset?5?$CIname?0?5type?$CJ?5exis@ 0043c29c     pjlib-util-i386-win32-vc14-release-dynamic:errno.obj
 0002:000052e0       ??_C@_0EG@OMHMBNML@DNS?5?$CCThe?5RRset?5?$CIname?0?5type?$CJ?5does@ 0043c2e0     pjlib-util-i386-win32-vc14-release-dynamic:errno.obj
 0002:00005328       ??_C@_0CP@HJODAHHO@DNS?5?$CCNot?5authorized?$CC?5?$CIPJLIB_UTIL@ 0043c328     pjlib-util-i386-win32-vc14-release-dynamic:errno.obj
 0002:00005358       ??_C@_0EB@GKEHOPAE@DNS?5?$CCThe?5zone?5specified?5is?5not?5a@ 0043c358     pjlib-util-i386-win32-vc14-release-dynamic:errno.obj
 0002:0000539c       ??_C@_0DH@EMGNELGL@Too?5many?5STUN?5attributes?5?$CIPJLIB_@ 0043c39c     pjlib-util-i386-win32-vc14-release-dynamic:errno.obj
 0002:000053d4       ??_C@_0DF@KMIPDCMM@Unknown?5STUN?5attribute?5?$CIPJLIB_UT@ 0043c3d4     pjlib-util-i386-win32-vc14-release-dynamic:errno.obj
 0002:0000540c       ??_C@_0DP@PDBNFLFH@Invalid?5STUN?5socket?5address?5leng@ 0043c40c     pjlib-util-i386-win32-vc14-release-dynamic:errno.obj
 0002:00005450       ??_C@_0EA@NAKPKGDE@STUN?5IPv6?5attribute?5not?5supporte@ 0043c450     pjlib-util-i386-win32-vc14-release-dynamic:errno.obj
 0002:00005490       ??_C@_0DO@LEKPMIHP@Expecting?5STUN?5response?5message?5@ 0043c490     pjlib-util-i386-win32-vc14-release-dynamic:errno.obj
 0002:000054d0       ??_C@_0DJ@DDEJFFIL@STUN?5transaction?5ID?5mismatch?5?$CIPJ@ 0043c4d0     pjlib-util-i386-win32-vc14-release-dynamic:errno.obj
 0002:00005510       ??_C@_0EI@BNLBFIKH@Unable?5to?5find?5STUN?5handler?5for?5@ 0043c510     pjlib-util-i386-win32-vc14-release-dynamic:errno.obj
 0002:00005558       ??_C@_0FA@DIAPLEFD@Found?5non?9FINGERPRINT?5attr?4?5afte@ 0043c558     pjlib-util-i386-win32-vc14-release-dynamic:errno.obj
 0002:000055a8       ??_C@_0ED@CNMDGMPD@Found?5STUN?5attribute?5after?5FINGE@ 0043c5a8     pjlib-util-i386-win32-vc14-release-dynamic:errno.obj
 0002:000055ec       ??_C@_0DN@JLMAJAKN@Missing?5STUN?5USERNAME?5attribute?5@ 0043c5ec     pjlib-util-i386-win32-vc14-release-dynamic:errno.obj
 0002:00005630       ??_C@_0EK@LMHKLKC@Missing?1invalid?5STUN?5MESSAGE?9INT@ 0043c630     pjlib-util-i386-win32-vc14-release-dynamic:errno.obj
 0002:0000567c       ??_C@_0DJ@BCFNCGF@Found?5duplicate?5STUN?5attribute?5?$CI@ 0043c67c     pjlib-util-i386-win32-vc14-release-dynamic:errno.obj
 0002:000056b8       ??_C@_0DH@MMHMOPBG@Missing?5STUN?5REALM?5attribute?5?$CIPJ@ 0043c6b8     pjlib-util-i386-win32-vc14-release-dynamic:errno.obj
 0002:000056f0       ??_C@_0EB@FGOGNHPO@Missing?1stale?5STUN?5NONCE?5attribu@ 0043c6f0     pjlib-util-i386-win32-vc14-release-dynamic:errno.obj
 0002:00005738       ??_C@_0EF@HAPLEMIK@STUN?5transaction?5terminates?5with@ 0043c738     pjlib-util-i386-win32-vc14-release-dynamic:errno.obj
 0002:00005780       ??_C@_0CL@GOOAEBLJ@Invalid?5URL?5format?5?$CIPJLIB_UTIL_E@ 0043c780     pjlib-util-i386-win32-vc14-release-dynamic:errno.obj
 0002:000057ac       ??_C@_0DB@BDFJPAOA@Invalid?5URL?5port?5number?5?$CIPJLIB_U@ 0043c7ac     pjlib-util-i386-win32-vc14-release-dynamic:errno.obj
 0002:000057e0       ??_C@_0DN@CABCKELB@Incomplete?5response?5header?5recei@ 0043c7e0     pjlib-util-i386-win32-vc14-release-dynamic:errno.obj
 0002:00005820       ??_C@_0CN@MKMAKFDH@Insufficient?5buffer?5?$CIPJLIB_UTIL_@ 0043c820     pjlib-util-i386-win32-vc14-release-dynamic:errno.obj
 0002:00005850       ??_C@_0CH@JNBFBBKA@Connection?5lost?5?$CIPJLIB_UTIL_EHTT@ 0043c850     pjlib-util-i386-win32-vc14-release-dynamic:errno.obj
 0002:00005878       ??_C@_0CE@DHMMOEGP@Exit?5current?5session?5?$CIPJ_CLI_EEX@ 0043c878     pjlib-util-i386-win32-vc14-release-dynamic:errno.obj
 0002:0000589c       ??_C@_0CG@LEDMCEME@Missing?5argument?5?$CIPJ_CLI_EMISSIN@ 0043c89c     pjlib-util-i386-win32-vc14-release-dynamic:errno.obj
 0002:000058c4       ??_C@_0CJ@ECODGDHL@Too?5many?5arguments?5?$CIPJ_CLI_ETOOM@ 0043c8c4     pjlib-util-i386-win32-vc14-release-dynamic:errno.obj
 0002:000058f0       ??_C@_0CC@NLPGOLED@Invalid?5argument?5?$CIPJ_CLI_EINVARG@ 0043c8f0     pjlib-util-i386-win32-vc14-release-dynamic:errno.obj
 0002:00005914       ??_C@_0CO@OOEOBCH@Command?5name?5already?5exists?5?$CIPJ_@ 0043c914     pjlib-util-i386-win32-vc14-release-dynamic:errno.obj
 0002:00005944       ??_C@_0CK@MKOACJP@Command?5id?5already?5exists?5?$CIPJ_CL@ 0043c944     pjlib-util-i386-win32-vc14-release-dynamic:errno.obj
 0002:00005970       ??_C@_0CE@LHHCBFML@Invalid?5XML?5format?5?$CIPJ_CLI_EBADX@ 0043c970     pjlib-util-i386-win32-vc14-release-dynamic:errno.obj
 0002:00005994       ??_C@_0CF@CKMLJLLP@Connection?5lost?5?$CIPJ_CLI_ETELNETL@ 0043c994     pjlib-util-i386-win32-vc14-release-dynamic:errno.obj
 0002:000059bc       ??_C@_0BM@LDLEGOFO@Unknown?5pjlib?9util?5error?5?$CFd?$AA@ 0043c9bc     pjlib-util-i386-win32-vc14-release-dynamic:errno.obj
 0002:000059d8       ??_C@_02BAABKJLB@?9?9?$AA@ 0043c9d8     pjlib-util-i386-win32-vc14-release-dynamic:getopt.obj
 0002:000059dc       ??_C@_0BM@HBCIEFJJ@?4?4?2src?2pjlib?9util?2scanner?4c?$AA@ 0043c9dc     pjlib-util-i386-win32-vc14-release-dynamic:scanner.obj
 0002:000059f8       ??_C@_07IAIHCIDD@Probing?$AA@ 0043c9f8     pjlib-util-i386-win32-vc14-release-dynamic:resolver.obj
 0002:00005a00       ??_C@_06MAFFGDO@Active?$AA@ 0043ca00     pjlib-util-i386-win32-vc14-release-dynamic:resolver.obj
 0002:00005a08       ??_C@_03KHCCLPOB@Bad?$AA@  0043ca08     pjlib-util-i386-win32-vc14-release-dynamic:resolver.obj
 0002:00005a0c       ??_C@_0BN@HMPKHKCI@?4?4?2src?2pjlib?9util?2resolver?4c?$AA@ 0043ca0c     pjlib-util-i386-win32-vc14-release-dynamic:resolver.obj
 0002:00005a2c       ??_C@_0BH@PPEBBIFJ@?0?5will?5try?5again?5later?$AA@ 0043ca2c     pjlib-util-i386-win32-vc14-release-dynamic:resolver.obj
 0002:00005a44       ??_C@_0DC@GOFLGJND@Socket?5busy?5in?5transmitting?5DNS?5@ 0043ca44     pjlib-util-i386-win32-vc14-release-dynamic:resolver.obj
 0002:00005a78       ??_C@_0N@IBGJGPJN@Transmitting?$AA@ 0043ca78     pjlib-util-i386-win32-vc14-release-dynamic:resolver.obj
 0002:00005a88       ??_C@_0BA@JFAGDHFD@Re?9transmitting?$AA@ 0043ca88     pjlib-util-i386-win32-vc14-release-dynamic:resolver.obj
 0002:00005a98       ??_C@_0DC@PBGKNNLN@?$CFs?5?$CFd?5bytes?5to?5NS?5?$CFd?5?$CI?$CFs?3?$CFd?$CJ?3?5DN@ 0043ca98     pjlib-util-i386-win32-vc14-release-dynamic:resolver.obj
 0002:00005acc       ??_C@_0DE@LLACOPGB@Picked?5up?5DNS?5?$CFs?5record?5for?5?$CF?4?$CKs@ 0043cacc     pjlib-util-i386-win32-vc14-release-dynamic:resolver.obj
 0002:00005b00       ??_C@_0CJ@MMDCPKPE@Nameserver?5?$CFs?3?$CFd?5state?5changed?5?$CF@ 0043cb00     pjlib-util-i386-win32-vc14-release-dynamic:resolver.obj
 0002:00005b2c       ??_C@_0BL@DBKKFGCL@Error?5transmitting?5request?$AA@ 0043cb2c     pjlib-util-i386-win32-vc14-release-dynamic:resolver.obj
 0002:00005b50       __xmm@ffffffffffffffffffffffffffffffff 0043cb50     pjlib-util-i386-win32-vc14-release-dynamic:resolver.obj
 0002:00005b60       ??_C@_01FHEEJDEE@A?$AA@    0043cb60     pjlib-util-i386-win32-vc14-release-dynamic:dns.obj
 0002:00005b64       ??_C@_04OHNMNPPA@AAAA?$AA@ 0043cb64     pjlib-util-i386-win32-vc14-release-dynamic:dns.obj
 0002:00005b6c       ??_C@_03IENKIAKD@SRV?$AA@  0043cb6c     pjlib-util-i386-win32-vc14-release-dynamic:dns.obj
 0002:00005b70       ??_C@_02OLCMIILA@NS?$AA@   0043cb70     pjlib-util-i386-win32-vc14-release-dynamic:dns.obj
 0002:00005b74       ??_C@_05PGNGFKDN@CNAME?$AA@ 0043cb74     pjlib-util-i386-win32-vc14-release-dynamic:dns.obj
 0002:00005b7c       ??_C@_03PGIOJGPL@PTR?$AA@  0043cb7c     pjlib-util-i386-win32-vc14-release-dynamic:dns.obj
 0002:00005b80       ??_C@_02KJOOPCC@MX?$AA@    0043cb80     pjlib-util-i386-win32-vc14-release-dynamic:dns.obj
 0002:00005b84       ??_C@_03CGKMFPEO@TXT?$AA@  0043cb84     pjlib-util-i386-win32-vc14-release-dynamic:dns.obj
 0002:00005b88       ??_C@_05DGMJPCKB@NAPTR?$AA@ 0043cb88     pjlib-util-i386-win32-vc14-release-dynamic:dns.obj
 0002:00005b90       ??_C@_09ONJBBFFA@?$CIUnknown?$CJ?$AA@ 0043cb90     pjlib-util-i386-win32-vc14-release-dynamic:dns.obj
 0002:00005b9c       ??_C@_01LFCBOECM@?4?$AA@   0043cb9c     pjlib-util-i386-win32-vc14-release-dynamic:srv_resolver.obj
 0002:00005ba0       ??_C@_0DA@GGGKMBOI@Starting?5async?5DNS?5?$CFs?5query_job?3@ 0043cba0     pjlib-util-i386-win32-vc14-release-dynamic:srv_resolver.obj
 0002:00005bd0       ??_C@_0CL@ICCMMEFF@Received?5non?5SRV?5answer?5for?5SRV?5@ 0043cbd0     pjlib-util-i386-win32-vc14-release-dynamic:srv_resolver.obj
 0002:00005bfc       ??_C@_0BG@OENDJHLB@Hostname?5is?5too?5long?$CB?$AA@ 0043cbfc     pjlib-util-i386-win32-vc14-release-dynamic:srv_resolver.obj
 0002:00005c14       ??_C@_0BD@DHMAIAEI@Hostname?5is?5empty?$CB?$AA@ 0043cc14     pjlib-util-i386-win32-vc14-release-dynamic:srv_resolver.obj
 0002:00005c28       ??_C@_0CJ@IGNPBKGN@Could?5not?5find?5SRV?5record?5in?5DNS@ 0043cc28     pjlib-util-i386-win32-vc14-release-dynamic:srv_resolver.obj
 0002:00005c58       ??_C@_0EE@LPMFAMKM@SRV?5query_job?5for?5?$CF?4?$CKs?5completed@ 0043cc58     pjlib-util-i386-win32-vc14-release-dynamic:srv_resolver.obj
 0002:00005c9c       ??_C@_0BM@MJBLDIAG@?5?$CFd?3?5SRV?5?$CFd?5?$CFd?5?$CFd?5?$CF?4?$CKs?5?$CI?$CFs?$CJ?$AA@ 0043cc9c     pjlib-util-i386-win32-vc14-release-dynamic:srv_resolver.obj
 0002:00005cb8       ??_C@_0CI@IBPJGCBL@Starting?5async?5DNS?5A?5query_job?5f@ 0043ccb8     pjlib-util-i386-win32-vc14-release-dynamic:srv_resolver.obj
 0002:00005ce0       ??_C@_0CM@EKCLKLC@Discard?5truncated?5DNS?5SRV?5respon@ 0043cce0     pjlib-util-i386-win32-vc14-release-dynamic:srv_resolver.obj
 0002:00005d0c       ??_C@_0CH@COCLGFLO@DNS?5SRV?5resolution?5failed?5for?5?$CF?4@ 0043cd0c     pjlib-util-i386-win32-vc14-release-dynamic:srv_resolver.obj
 0002:00005d38       ??_C@_0EM@PBBBMOKP@DNS?5SRV?5resolution?5failed?5for?5?$CF?4@ 0043cd38     pjlib-util-i386-win32-vc14-release-dynamic:srv_resolver.obj
 0002:00005d84       ??_C@_0CG@JECPCAPF@DNS?5?$CFs?5record?5parse?5error?5for?5?8?$CF@ 0043cd84     pjlib-util-i386-win32-vc14-release-dynamic:srv_resolver.obj
 0002:00005dac       ??_C@_0CM@GNPJLEOH@Bad?5address?5family?5in?5DNS?5?$CFs?5que@ 0043cdac     pjlib-util-i386-win32-vc14-release-dynamic:srv_resolver.obj
 0002:00005dd8       ??_C@_0BE@BLHHGJAP@DNS?5?$CFs?5for?5?$CF?4?$CKs?3?5?$CFs?$AA@ 0043cdd8     pjlib-util-i386-win32-vc14-release-dynamic:srv_resolver.obj
 0002:00005dec       ??_C@_0CA@PGHOBDIK@DNS?5?$CFs?5record?5resolution?5failed?$AA@ 0043cdec     pjlib-util-i386-win32-vc14-release-dynamic:srv_resolver.obj
 0002:00005e0c       ??_C@_0DF@NMOAKAGH@Server?5resolution?5complete?0?5?$CFd?5s@ 0043ce0c     pjlib-util-i386-win32-vc14-release-dynamic:srv_resolver.obj
 0002:00005e44       ??_C@_0CL@MGFFFLJG@DNS?5?$CFs?5record?5resolution?5error?5f@ 0043ce44     pjlib-util-i386-win32-vc14-release-dynamic:srv_resolver.obj
 0002:00005e70       ??_C@_04IFCNACLH@pj?$CFp?$AA@ 0043ce70     pjlib-i386-win32-vc14-release-dynamic:os_core_win32.obj
 0002:00005e78       ??_C@_0BA@NGJFHJA@PJLIB?1No?5memory?$AA@ 0043ce78     pjlib-i386-win32-vc14-release-dynamic:os_core_win32.obj
 0002:00005e88       ??_C@_0BP@NGEKBPIB@pjlib?5?$CFs?5for?5win32?5initialized?$AA@ 0043ce88     pjlib-i386-win32-vc14-release-dynamic:os_core_win32.obj
 0002:00005ea8       ??_C@_0BA@FNCACAIG@os_core_win32?4c?$AA@ 0043cea8     pjlib-i386-win32-vc14-release-dynamic:os_core_win32.obj
 0002:00005eb8       ??_C@_0BK@BHGJHPMG@?4?4?2src?2pj?2os_core_win32?4c?$AA@ 0043ceb8     pjlib-i386-win32-vc14-release-dynamic:os_core_win32.obj
 0002:00005ed4       ??_C@_05KHEDLION@thr?$CFp?$AA@ 0043ced4     pjlib-i386-win32-vc14-release-dynamic:os_core_win32.obj
 0002:00005edc       ??_C@_0CD@GPHECFNA@Thread?5stack?5max?5usage?$DN?$CFu?5by?5?$CFs?3@ 0043cedc     pjlib-i386-win32-vc14-release-dynamic:os_core_win32.obj
 0002:00005f00       ??_C@_05EJDHHBFJ@mtx?$CFp?$AA@ 0043cf00     pjlib-i386-win32-vc14-release-dynamic:os_core_win32.obj
 0002:00005f08       ??_C@_05EKKMALCN@sem?$CFp?$AA@ 0043cf08     pjlib-i386-win32-vc14-release-dynamic:os_core_win32.obj
 0002:00005fd0       ??_C@_0BM@FLPPOGAG@Unknown?5Error?5?$CIPJ_EUNKNOWN?$CJ?$AA@ 0043cfd0     pjlib-i386-win32-vc14-release-dynamic:errno.obj
 0002:00005fec       ??_C@_0CA@DCLOOJGD@Pending?5operation?5?$CIPJ_EPENDING?$CJ?$AA@ 0043cfec     pjlib-i386-win32-vc14-release-dynamic:errno.obj
 0002:0000600c       ??_C@_0CO@GABEOAFF@Too?5many?5connecting?5sockets?5?$CIPJ_@ 0043d00c     pjlib-i386-win32-vc14-release-dynamic:errno.obj
 0002:0000603c       ??_C@_0CG@CBCJBJGD@Invalid?5value?5or?5argument?5?$CIPJ_EI@ 0043d03c     pjlib-i386-win32-vc14-release-dynamic:errno.obj
 0002:00006064       ??_C@_0CA@GJABNEKD@Name?5too?5long?5?$CIPJ_ENAMETOOLONG?$CJ?$AA@ 0043d064     pjlib-i386-win32-vc14-release-dynamic:errno.obj
 0002:00006084       ??_C@_0BJ@JNKLPII@Not?5found?5?$CIPJ_ENOTFOUND?$CJ?$AA@ 0043d084     pjlib-i386-win32-vc14-release-dynamic:errno.obj
 0002:000060a0       ??_C@_0BO@GOLCMJKK@Not?5enough?5memory?5?$CIPJ_ENOMEM?$CJ?$AA@ 0043d0a0     pjlib-i386-win32-vc14-release-dynamic:errno.obj
 0002:000060c0       ??_C@_0BI@HHGDCAID@BUG?5DETECTED?$CB?5?$CIPJ_EBUG?$CJ?$AA@ 0043d0c0     pjlib-i386-win32-vc14-release-dynamic:errno.obj
 0002:000060d8       ??_C@_0CD@JOGIDHPJ@Operation?5timed?5out?5?$CIPJ_ETIMEDOU@ 0043d0d8     pjlib-i386-win32-vc14-release-dynamic:errno.obj
 0002:000060fc       ??_C@_0DF@MIFNAIHL@Too?5many?5objects?5of?5the?5specifie@ 0043d0fc     pjlib-i386-win32-vc14-release-dynamic:errno.obj
 0002:00006134       ??_C@_0BK@OMPILOH@Object?5is?5busy?5?$CIPJ_EBUSY?$CJ?$AA@ 0043d134     pjlib-i386-win32-vc14-release-dynamic:errno.obj
 0002:00006150       ??_C@_0CP@BAIBJOJE@Option?1operation?5is?5not?5supporte@ 0043d150     pjlib-i386-win32-vc14-release-dynamic:errno.obj
 0002:00006180       ??_C@_0CC@OEEEEEML@Invalid?5operation?5?$CIPJ_EINVALIDOP@ 0043d180     pjlib-i386-win32-vc14-release-dynamic:errno.obj
 0002:000061a4       ??_C@_0CE@KDDMJLGF@Operation?5cancelled?5?$CIPJ_ECANCELL@ 0043d1a4     pjlib-i386-win32-vc14-release-dynamic:errno.obj
 0002:000061c8       ??_C@_0CD@LODOFNLC@Object?5already?5exists?5?$CIPJ_EEXIST@ 0043d1c8     pjlib-i386-win32-vc14-release-dynamic:errno.obj
 0002:000061ec       ??_C@_0BG@GMBDFNLN@End?5of?5file?5?$CIPJ_EEOF?$CJ?$AA@ 0043d1ec     pjlib-i386-win32-vc14-release-dynamic:errno.obj
 0002:00006204       ??_C@_0BN@PCCNBFLN@Size?5is?5too?5big?5?$CIPJ_ETOOBIG?$CJ?$AA@ 0043d204     pjlib-i386-win32-vc14-release-dynamic:errno.obj
 0002:00006224       ??_C@_0DB@FDCHLEID@gethostbyname?$CI?$CJ?5has?5returned?5err@ 0043d224     pjlib-i386-win32-vc14-release-dynamic:errno.obj
 0002:00006258       ??_C@_0CB@MGGLJMNO@Size?5is?5too?5short?5?$CIPJ_ETOOSMALL?$CJ@ 0043d258     pjlib-i386-win32-vc14-release-dynamic:errno.obj
 0002:0000627c       ??_C@_0BG@NBDJGAFI@Ignored?5?$CIPJ_EIGNORED?$CJ?$AA@ 0043d27c     pjlib-i386-win32-vc14-release-dynamic:errno.obj
 0002:00006294       ??_C@_0CH@OGOOBJBE@IPv6?5is?5not?5supported?5?$CIPJ_EIPV6N@ 0043d294     pjlib-i386-win32-vc14-release-dynamic:errno.obj
 0002:000062bc       ??_C@_0CK@DJAHHNOI@Unsupported?5address?5family?5?$CIPJ_E@ 0043d2bc     pjlib-i386-win32-vc14-release-dynamic:errno.obj
 0002:000062e8       ??_C@_0CD@PDGCJOJH@Object?5no?5longer?5exists?5?$CIPJ_EGON@ 0043d2e8     pjlib-i386-win32-vc14-release-dynamic:errno.obj
 0002:0000630c       ??_C@_0CI@LBHALONI@Socket?5is?5in?5bad?5state?5?$CIPJ_ESOCK@ 0043d30c     pjlib-i386-win32-vc14-release-dynamic:errno.obj
 0002:00006334       ??_C@_0BH@ONDLFCEA@Unknown?5pjlib?5error?5?$CFd?$AA@ 0043d334     pjlib-i386-win32-vc14-release-dynamic:errno.obj
 0002:0000634c       ??_C@_07PBILKAFL@Success?$AA@ 0043d34c     pjlib-i386-win32-vc14-release-dynamic:errno.obj
 0002:00006354       ??_C@_0BB@BIKLJNJD@Unknown?5error?5?$CFd?$AA@ 0043d354     pjlib-i386-win32-vc14-release-dynamic:errno.obj
 0002:00006368       ??_C@_05NAOIJFC@Error?$AA@ 0043d368     pjlib-i386-win32-vc14-release-dynamic:errno.obj
 0002:00006370       ??_C@_06DJHOIPC@?$CFs?3?5?$CFs?$AA@ 0043d370     pjlib-i386-win32-vc14-release-dynamic:errno.obj
 0002:00006378       ??_C@_03HODKBCIO@?3?$CFd?$AA@ 0043d378     pjlib-i386-win32-vc14-release-dynamic:sock_common.obj
 0002:0000637c       ??_C@_08KJEDNCKC@?$CFs?$CFs?$CFs?$CFs?$AA@ 0043d37c     pjlib-i386-win32-vc14-release-dynamic:sock_common.obj
 0002:00006388       ??_C@_0BI@IIPAIKDD@?4?4?2src?2pj?2sock_common?4c?$AA@ 0043d388     pjlib-i386-win32-vc14-release-dynamic:sock_common.obj
 0002:000063a0       ??_C@_07EBPGIHEF@1?41?41?41?$AA@ 0043d3a0     pjlib-i386-win32-vc14-release-dynamic:sock_common.obj
 0002:000063a8       ??_C@_04NFKLOGOF@1?3?31?$AA@ 0043d3a8     pjlib-i386-win32-vc14-release-dynamic:sock_common.obj
 0002:000063b0       ??_C@_0M@HMJLLIPA@?$CFs?$CF?4?$CKs?$CFs?3?$CFd?$AA@ 0043d3b0     pjlib-i386-win32-vc14-release-dynamic:sock_common.obj
 0002:000063bc       ??_C@_08JLADFOFK@?$CFs?$CF?4?$CKs?$CFs?$AA@ 0043d3bc     pjlib-i386-win32-vc14-release-dynamic:sock_common.obj
 0002:000063c8       ??_C@_0BB@PKFOFEEC@?4?4?2src?2pj?2pool?4c?$AA@ 0043d3c8     pjlib-i386-win32-vc14-release-dynamic:pool.obj
 0002:000063dc       ??_C@_0BJ@MJKAJPML@?4?4?2src?2pj?2pool_caching?4c?$AA@ 0043d3dc     pjlib-i386-win32-vc14-release-dynamic:pool_caching.obj
 0002:000063f8       ??_C@_0M@IGFPEOLJ@cachingpool?$AA@ 0043d3f8     pjlib-i386-win32-vc14-release-dynamic:pool_caching.obj
 0002:00006404       ??_C@_0DD@ECGDPCBA@Pool?5is?5not?5released?5by?5applicat@ 0043d404     pjlib-i386-win32-vc14-release-dynamic:pool_caching.obj
 0002:00006438       ??_C@_0BH@BBPHJKOA@?5Dumping?5caching?5pool?3?$AA@ 0043d438     pjlib-i386-win32-vc14-release-dynamic:pool_caching.obj
 0002:00006450       ??_C@_08COPEICHG@cachpool?$AA@ 0043d450     pjlib-i386-win32-vc14-release-dynamic:pool_caching.obj
 0002:0000645c       ??_C@_0CN@DOKPIIOH@?5?5?5Capacity?$DN?$CFu?0?5max_capacity?$DN?$CFu?0@ 0043d45c     pjlib-i386-win32-vc14-release-dynamic:pool_caching.obj
 0002:0000648c       ??_C@_0BM@IDLDGCC@?5?5Dumping?5all?5active?5pools?3?$AA@ 0043d48c     pjlib-i386-win32-vc14-release-dynamic:pool_caching.obj
 0002:000064a8       ??_C@_0CA@MMLIKIEG@?5?5?5?$CF16s?3?5?$CF8d?5of?5?$CF8d?5?$CI?$CFd?$CF?$CF?$CJ?5used?$AA@ 0043d4a8     pjlib-i386-win32-vc14-release-dynamic:pool_caching.obj
 0002:000064c8       ??_C@_0CB@GKBJPDKG@?5?5Total?5?$CF9d?5of?5?$CF9d?5?$CI?$CFd?5?$CF?$CF?$CJ?5used?$CB@ 0043d4c8     pjlib-i386-win32-vc14-release-dynamic:pool_caching.obj
 0002:000064ec       ??_C@_0BD@ELEDKDKB@?4?4?2src?2pj?2string?4c?$AA@ 0043d4ec     pjlib-i386-win32-vc14-release-dynamic:string.obj
 0002:00006500       ??_C@_0BA@CLLJDBF@?4?4?2src?2pj?2log?4c?$AA@ 0043d500     pjlib-i386-win32-vc14-release-dynamic:log.obj
 0002:00006510       ??_C@_06DDFOEFIF@FATAL?3?$AA@ 0043d510     pjlib-i386-win32-vc14-release-dynamic:log.obj
 0002:00006518       ??_C@_06PONDCDME@ERROR?3?$AA@ 0043d518     pjlib-i386-win32-vc14-release-dynamic:log.obj
 0002:00006520       ??_C@_06OHJPOJDB@?5WARN?3?$AA@ 0043d520     pjlib-i386-win32-vc14-release-dynamic:log.obj
 0002:00006528       ??_C@_06ICKKLHPE@?5INFO?3?$AA@ 0043d528     pjlib-i386-win32-vc14-release-dynamic:log.obj
 0002:00006530       ??_C@_06DNOFLLB@DEBUG?3?$AA@ 0043d530     pjlib-i386-win32-vc14-release-dynamic:log.obj
 0002:00006538       ??_C@_06ELIFFDKB@TRACE?3?$AA@ 0043d538     pjlib-i386-win32-vc14-release-dynamic:log.obj
 0002:00006540       ??_C@_06HGKAKJPG@DETRC?3?$AA@ 0043d540     pjlib-i386-win32-vc14-release-dynamic:log.obj
 0002:00006548       ??_C@_03KOEHGMDN@Sun?$AA@  0043d548     pjlib-i386-win32-vc14-release-dynamic:log.obj
 0002:0000654c       ??_C@_03PDAGKDH@Mon?$AA@   0043d54c     pjlib-i386-win32-vc14-release-dynamic:log.obj
 0002:00006550       ??_C@_03NAGEINEP@Tue?$AA@  0043d550     pjlib-i386-win32-vc14-release-dynamic:log.obj
 0002:00006554       ??_C@_03MHOMLAJA@Wed?$AA@  0043d554     pjlib-i386-win32-vc14-release-dynamic:log.obj
 0002:00006558       ??_C@_03IOFIKPDN@Thu?$AA@  0043d558     pjlib-i386-win32-vc14-release-dynamic:log.obj
 0002:0000655c       ??_C@_03IDIOELNC@Fri?$AA@  0043d55c     pjlib-i386-win32-vc14-release-dynamic:log.obj
 0002:00006560       ??_C@_03FEFJNEK@Sat?$AA@   0043d560     pjlib-i386-win32-vc14-release-dynamic:log.obj
 0002:00006564       ??_C@_0BO@BGMDCDKP@?$DMlogging?5error?3?5msg?5too?5long?$DO?$AA@ 0043d564     pjlib-i386-win32-vc14-release-dynamic:log.obj
 0002:00006584       _PJ_MSG_OOB                0043d584     pjlib-i386-win32-vc14-release-dynamic:sock_bsd.obj
 0002:00006588       _PJ_MSG_PEEK               0043d588     pjlib-i386-win32-vc14-release-dynamic:sock_bsd.obj
 0002:0000658c       _PJ_MSG_DONTROUTE          0043d58c     pjlib-i386-win32-vc14-release-dynamic:sock_bsd.obj
 0002:00006590       _PJ_AF_UNSPEC              0043d590     pjlib-i386-win32-vc14-release-dynamic:sock_bsd.obj
 0002:00006594       _PJ_AF_UNIX                0043d594     pjlib-i386-win32-vc14-release-dynamic:sock_bsd.obj
 0002:00006598       _PJ_AF_INET                0043d598     pjlib-i386-win32-vc14-release-dynamic:sock_bsd.obj
 0002:0000659c       _PJ_AF_INET6               0043d59c     pjlib-i386-win32-vc14-release-dynamic:sock_bsd.obj
 0002:000065a0       _PJ_AF_PACKET              0043d5a0     pjlib-i386-win32-vc14-release-dynamic:sock_bsd.obj
 0002:000065a4       _PJ_AF_IRDA                0043d5a4     pjlib-i386-win32-vc14-release-dynamic:sock_bsd.obj
 0002:000065a8       _PJ_SOCK_STREAM            0043d5a8     pjlib-i386-win32-vc14-release-dynamic:sock_bsd.obj
 0002:000065ac       _PJ_SOCK_DGRAM             0043d5ac     pjlib-i386-win32-vc14-release-dynamic:sock_bsd.obj
 0002:000065b0       _PJ_SOCK_RAW               0043d5b0     pjlib-i386-win32-vc14-release-dynamic:sock_bsd.obj
 0002:000065b4       _PJ_SOCK_RDM               0043d5b4     pjlib-i386-win32-vc14-release-dynamic:sock_bsd.obj
 0002:000065b8       _PJ_SOL_SOCKET             0043d5b8     pjlib-i386-win32-vc14-release-dynamic:sock_bsd.obj
 0002:000065bc       _PJ_SOL_IP                 0043d5bc     pjlib-i386-win32-vc14-release-dynamic:sock_bsd.obj
 0002:000065c0       _PJ_SOL_TCP                0043d5c0     pjlib-i386-win32-vc14-release-dynamic:sock_bsd.obj
 0002:000065c4       _PJ_SOL_UDP                0043d5c4     pjlib-i386-win32-vc14-release-dynamic:sock_bsd.obj
 0002:000065c8       _PJ_SOL_IPV6               0043d5c8     pjlib-i386-win32-vc14-release-dynamic:sock_bsd.obj
 0002:000065cc       _PJ_IP_TOS                 0043d5cc     pjlib-i386-win32-vc14-release-dynamic:sock_bsd.obj
 0002:000065d0       _PJ_IPTOS_LOWDELAY         0043d5d0     pjlib-i386-win32-vc14-release-dynamic:sock_bsd.obj
 0002:000065d4       _PJ_IPTOS_THROUGHPUT       0043d5d4     pjlib-i386-win32-vc14-release-dynamic:sock_bsd.obj
 0002:000065d8       _PJ_IPTOS_RELIABILITY      0043d5d8     pjlib-i386-win32-vc14-release-dynamic:sock_bsd.obj
 0002:000065dc       _PJ_IPTOS_MINCOST          0043d5dc     pjlib-i386-win32-vc14-release-dynamic:sock_bsd.obj
 0002:000065e0       _PJ_IPV6_TCLASS            0043d5e0     pjlib-i386-win32-vc14-release-dynamic:sock_bsd.obj
 0002:000065e4       _PJ_SO_TYPE                0043d5e4     pjlib-i386-win32-vc14-release-dynamic:sock_bsd.obj
 0002:000065e8       _PJ_SO_RCVBUF              0043d5e8     pjlib-i386-win32-vc14-release-dynamic:sock_bsd.obj
 0002:000065ec       _PJ_SO_SNDBUF              0043d5ec     pjlib-i386-win32-vc14-release-dynamic:sock_bsd.obj
 0002:000065f0       _PJ_TCP_NODELAY            0043d5f0     pjlib-i386-win32-vc14-release-dynamic:sock_bsd.obj
 0002:000065f4       _PJ_SO_REUSEADDR           0043d5f4     pjlib-i386-win32-vc14-release-dynamic:sock_bsd.obj
 0002:000065f8       _PJ_SO_NOSIGPIPE           0043d5f8     pjlib-i386-win32-vc14-release-dynamic:sock_bsd.obj
 0002:000065fc       _PJ_SO_PRIORITY            0043d5fc     pjlib-i386-win32-vc14-release-dynamic:sock_bsd.obj
 0002:00006600       _PJ_IP_MULTICAST_IF        0043d600     pjlib-i386-win32-vc14-release-dynamic:sock_bsd.obj
 0002:00006604       _PJ_IP_MULTICAST_TTL       0043d604     pjlib-i386-win32-vc14-release-dynamic:sock_bsd.obj
 0002:00006608       _PJ_IP_MULTICAST_LOOP      0043d608     pjlib-i386-win32-vc14-release-dynamic:sock_bsd.obj
 0002:0000660c       _PJ_IP_ADD_MEMBERSHIP      0043d60c     pjlib-i386-win32-vc14-release-dynamic:sock_bsd.obj
 0002:00006610       _PJ_IP_DROP_MEMBERSHIP     0043d610     pjlib-i386-win32-vc14-release-dynamic:sock_bsd.obj
 0002:00006614       ??_C@_0BF@KBJNEAPB@?4?4?2src?2pj?2sock_bsd?4c?$AA@ 0043d614     pjlib-i386-win32-vc14-release-dynamic:sock_bsd.obj
 0002:0000662c       ??_C@_0CE@IJGJDCPP@Warning?3?5error?5applying?5sock?5opt@ 0043d62c     pjlib-i386-win32-vc14-release-dynamic:sock_bsd.obj
 0002:00006650       ??_C@_0L@NNKPLKFK@sock_bsd?4c?$AA@ 0043d650     pjlib-i386-win32-vc14-release-dynamic:sock_bsd.obj
 0002:0000665c       ??_C@_06HALIBNKJ@glck?$CFp?$AA@ 0043d65c     pjlib-i386-win32-vc14-release-dynamic:lock.obj
 0002:00006664       ??_C@_0BB@KPBPCFEE@?4?4?2src?2pj?2rand?4c?$AA@ 0043d664     pjlib-i386-win32-vc14-release-dynamic:rand.obj
 0002:00006678       ??_C@_0BC@OIAJPKFB@?4?4?2src?2pj?2types?4c?$AA@ 0043d678     pjlib-i386-win32-vc14-release-dynamic:types.obj
 0002:0000668c       ??_C@_0BC@IICDBALP@?4?4?2src?2pj?2timer?4c?$AA@ 0043d68c     pjlib-i386-win32-vc14-release-dynamic:timer.obj
 0002:000066a0       ??_C@_0GD@IKDOJBHK@Bug?$CB?5Trying?5to?5remove?5entry?5?$CFp?5f@ 0043d6a0     pjlib-i386-win32-vc14-release-dynamic:timer.obj
 0002:00006704       ??_C@_07PEGEGJOK@timer?4c?$AA@ 0043d704     pjlib-i386-win32-vc14-release-dynamic:timer.obj
 0002:0000670c       ??_C@_0CN@BCAOBBMI@Warning?$CB?5Rescheduling?5outstandin@ 0043d70c     pjlib-i386-win32-vc14-release-dynamic:timer.obj
 0002:00006740       ??_C@_0FD@OKAOJAGN@Bug?$CB?5Polling?5entry?5?$CFp?5from?5?$CFs?5li@ 0043d740     pjlib-i386-win32-vc14-release-dynamic:timer.obj
 0002:00006794       ??_C@_0BE@PEPBNPID@Dumping?5timer?5heap?3?$AA@ 0043d794     pjlib-i386-win32-vc14-release-dynamic:timer.obj
 0002:000067a8       ??_C@_0CA@GBHLCEHA@?5?5Cur?5size?3?5?$CFd?5entries?0?5max?3?5?$CFd?$AA@ 0043d7a8     pjlib-i386-win32-vc14-release-dynamic:timer.obj
 0002:000067c8       ??_C@_0M@BOIDEIDM@?5?5Entries?3?5?$AA@ 0043d7c8     pjlib-i386-win32-vc14-release-dynamic:timer.obj
 0002:000067d4       ??_C@_0BK@HKHOIEEA@?5?5?5?5_id?7Id?7Elapsed?7Source?$AA@ 0043d7d4     pjlib-i386-win32-vc14-release-dynamic:timer.obj
 0002:000067f0       ??_C@_0CH@INDCMHLK@?5?5?5?5?9?9?9?9?9?9?9?9?9?9?9?9?9?9?9?9?9?9?9?9?9?9?9?9?9?9?9?9@ 0043d7f0     pjlib-i386-win32-vc14-release-dynamic:timer.obj
 0002:00006818       ??_C@_0BI@MDGGFDFM@?5?5?5?5?$CFd?7?$CFd?7?$CFd?4?$CF03d?7?$CFs?3?$CFd?$AA@ 0043d818     pjlib-i386-win32-vc14-release-dynamic:timer.obj
 0002:00006830       __xmm@00000003000000020000000100000000 0043d830     pjlib-i386-win32-vc14-release-dynamic:timer.obj
 0002:00006840       ??_C@_0FF@NDLOAMHM@c?3?2users?2dlobato?2desktop?2pjproje@ 0043d840     pjlib-i386-win32-vc14-release-dynamic:ioqueue_select.obj
 0002:00006898       ??_C@_05LIJONKFG@ioq?$CFp?$AA@ 0043d898     pjlib-i386-win32-vc14-release-dynamic:ioqueue_select.obj
 0002:000068a0       ??_C@_0CA@IMDCINDN@select?$CI?$CJ?5I?1O?5Queue?5created?5?$CI?$CFp?$CJ?$AA@ 0043d8a0     pjlib-i386-win32-vc14-release-dynamic:ioqueue_select.obj
 0002:000068c0       ??_C@_05PHKAINEA@pjlib?$AA@ 0043d8c0     pjlib-i386-win32-vc14-release-dynamic:ioqueue_select.obj
 0002:000068c8       ??_C@_0CJ@NPMLHLI@Bad?5ioqueue?5count?5in?5key?5unregis@ 0043d8c8     pjlib-i386-win32-vc14-release-dynamic:ioqueue_select.obj
 0002:000068f4       ??_C@_0L@CAJCIPAG@ioq_select?$AA@ 0043d8f4     pjlib-i386-win32-vc14-release-dynamic:ioqueue_select.obj
 0002:00006900       ??_C@_0CD@KFHCCJFN@?$CB?$CB?$CBFATAL?3?5unhandled?5exception?5?$CFs@ 0043d900     pjlib-i386-win32-vc14-release-dynamic:except.obj
 0002:00006924       ??_C@_08PDFMOJIE@except?4c?$AA@ 0043d924     pjlib-i386-win32-vc14-release-dynamic:except.obj
 0002:00006930       ??_C@_0N@GJOLEKJC@?$DMInvalid?5ID?$DO?$AA@ 0043d930     pjlib-i386-win32-vc14-release-dynamic:except.obj
 0002:00006940       ??_C@_0N@LJPLLMIL@exception?5?$CFd?$AA@ 0043d940     pjlib-i386-win32-vc14-release-dynamic:except.obj
 0002:00006950       ??_C@_0BB@LOBHAKEP@?4?4?2src?2pj?2hash?4c?$AA@ 0043d950     pjlib-i386-win32-vc14-release-dynamic:hash.obj
 0002:00006af8       ??_C@_0CD@FNMHLHMI@Interrupted?5system?5call?5?$CIWSAEINT@ 0043daf8     pjlib-i386-win32-vc14-release-dynamic:os_error_win32.obj
 0002:00006b1c       ??_C@_0BL@OKPDNKLH@Bad?5file?5number?5?$CIWSAEBADF?$CJ?$AA@ 0043db1c     pjlib-i386-win32-vc14-release-dynamic:os_error_win32.obj
 0002:00006b38       ??_C@_0BO@BMBEEPBP@Permission?5denied?5?$CIWSAEACCES?$CJ?$AA@ 0043db38     pjlib-i386-win32-vc14-release-dynamic:os_error_win32.obj
 0002:00006b58       ??_C@_0BI@LAKHPJJ@Bad?5address?5?$CIWSAEFAULT?$CJ?$AA@ 0043db58     pjlib-i386-win32-vc14-release-dynamic:os_error_win32.obj
 0002:00006b70       ??_C@_0BN@FEIDINKH@Invalid?5argument?5?$CIWSAEINVAL?$CJ?$AA@ 0043db70     pjlib-i386-win32-vc14-release-dynamic:os_error_win32.obj
 0002:00006b90       ??_C@_0CC@HMKKNDGL@Too?5many?5open?5sockets?5?$CIWSAEMFILE@ 0043db90     pjlib-i386-win32-vc14-release-dynamic:os_error_win32.obj
 0002:00006bb4       ??_C@_0CH@GCPPFMGM@Operation?5would?5block?5?$CIWSAEWOULD@ 0043dbb4     pjlib-i386-win32-vc14-release-dynamic:os_error_win32.obj
 0002:00006bdc       ??_C@_0CL@DKGHEPCD@Operation?5now?5in?5progress?5?$CIWSAEI@ 0043dbdc     pjlib-i386-win32-vc14-release-dynamic:os_error_win32.obj
 0002:00006c08       ??_C@_0CM@BEMCBKDH@Operation?5already?5in?5progress?5?$CIW@ 0043dc08     pjlib-i386-win32-vc14-release-dynamic:os_error_win32.obj
 0002:00006c34       ??_C@_0CN@PAFKDEBN@Socket?5operation?5on?5non?9socket?5?$CI@ 0043dc34     pjlib-i386-win32-vc14-release-dynamic:os_error_win32.obj
 0002:00006c64       ??_C@_0CP@HCDICECK@Destination?5address?5required?5?$CIWS@ 0043dc64     pjlib-i386-win32-vc14-release-dynamic:os_error_win32.obj
 0002:00006c94       ??_C@_0BP@LNFPBFEK@Message?5too?5long?5?$CIWSAEMSGSIZE?$CJ?$AA@ 0043dc94     pjlib-i386-win32-vc14-release-dynamic:os_error_win32.obj
 0002:00006cb4       ??_C@_0CP@MMIMIEMF@Protocol?5wrong?5type?5for?5socket?5?$CI@ 0043dcb4     pjlib-i386-win32-vc14-release-dynamic:os_error_win32.obj
 0002:00006ce4       ??_C@_0CF@HNFLHOHA@Bad?5protocol?5option?5?$CIWSAENOPROTO@ 0043dce4     pjlib-i386-win32-vc14-release-dynamic:os_error_win32.obj
 0002:00006d0c       ??_C@_0CM@HPGHEHCE@Protocol?5not?5supported?5?$CIWSAEPROT@ 0043dd0c     pjlib-i386-win32-vc14-release-dynamic:os_error_win32.obj
 0002:00006d38       ??_C@_0CP@JLBNHCOL@Socket?5type?5not?5supported?5?$CIWSAES@ 0043dd38     pjlib-i386-win32-vc14-release-dynamic:os_error_win32.obj
 0002:00006d68       ??_C@_0DC@GJMFANID@Operation?5not?5supported?5on?5socke@ 0043dd68     pjlib-i386-win32-vc14-release-dynamic:os_error_win32.obj
 0002:00006d9c       ??_C@_0DA@GFNBENIG@Protocol?5family?5not?5supported?5?$CIW@ 0043dd9c     pjlib-i386-win32-vc14-release-dynamic:os_error_win32.obj
 0002:00006dcc       ??_C@_0CP@MMKHGIFC@Address?5family?5not?5supported?5?$CIWS@ 0043ddcc     pjlib-i386-win32-vc14-release-dynamic:os_error_win32.obj
 0002:00006dfc       ??_C@_0CH@OCKNFBKE@Address?5already?5in?5use?5?$CIWSAEADDR@ 0043ddfc     pjlib-i386-win32-vc14-release-dynamic:os_error_win32.obj
 0002:00006e24       ??_C@_0DC@FJJPJPOD@Can?8t?5assign?5requested?5address?5?$CI@ 0043de24     pjlib-i386-win32-vc14-release-dynamic:os_error_win32.obj
 0002:00006e58       ??_C@_0BO@IICKDHLJ@Network?5is?5down?5?$CIWSAENETDOWN?$CJ?$AA@ 0043de58     pjlib-i386-win32-vc14-release-dynamic:os_error_win32.obj
 0002:00006e78       ??_C@_0CI@NKJAACME@Network?5is?5unreachable?5?$CIWSAENETU@ 0043de78     pjlib-i386-win32-vc14-release-dynamic:os_error_win32.obj
 0002:00006ea0       ??_C@_0CE@LJEEEFEC@Net?5connection?5reset?5?$CIWSAENETRES@ 0043dea0     pjlib-i386-win32-vc14-release-dynamic:os_error_win32.obj
 0002:00006ec4       ??_C@_0DD@PGDIHOBG@Software?5caused?5connection?5abort@ 0043dec4     pjlib-i386-win32-vc14-release-dynamic:os_error_win32.obj
 0002:00006ef8       ??_C@_0CJ@PJHCFAAN@Connection?5reset?5by?5peer?5?$CIWSAECO@ 0043def8     pjlib-i386-win32-vc14-release-dynamic:os_error_win32.obj
 0002:00006f24       ??_C@_0CH@EKNGIMKN@No?5buffer?5space?5available?5?$CIWSAEN@ 0043df24     pjlib-i386-win32-vc14-release-dynamic:os_error_win32.obj
 0002:00006f4c       ??_C@_0CJ@JOPBNNOD@Socket?5is?5already?5connected?5?$CIWSA@ 0043df4c     pjlib-i386-win32-vc14-release-dynamic:os_error_win32.obj
 0002:00006f78       ??_C@_0CG@CECDMHLL@Socket?5is?5not?5connected?5?$CIWSAENOT@ 0043df78     pjlib-i386-win32-vc14-release-dynamic:os_error_win32.obj
 0002:00006fa0       ??_C@_0DA@JGJMJPNM@Can?8t?5send?5after?5socket?5shutdown@ 0043dfa0     pjlib-i386-win32-vc14-release-dynamic:os_error_win32.obj
 0002:00006fd0       ??_C@_0DE@CAILNFFE@Too?5many?5references?0?5can?8t?5splic@ 0043dfd0     pjlib-i386-win32-vc14-release-dynamic:os_error_win32.obj
 0002:00007004       ??_C@_0CE@IIKHBGF@Connection?5timed?5out?5?$CIWSAETIMEDO@ 0043e004     pjlib-i386-win32-vc14-release-dynamic:os_error_win32.obj
 0002:00007028       ??_C@_0CF@JMKFBJH@Connection?5refused?5?$CIWSAECONNREFU@ 0043e028     pjlib-i386-win32-vc14-release-dynamic:os_error_win32.obj
 0002:00007050       ??_C@_0CN@FCKBNFMB@Too?5many?5levels?5of?5symbolic?5link@ 0043e050     pjlib-i386-win32-vc14-release-dynamic:os_error_win32.obj
 0002:00007080       ??_C@_0CF@MOFKOMBB@File?5name?5too?5long?5?$CIWSAENAMETOOL@ 0043e080     pjlib-i386-win32-vc14-release-dynamic:os_error_win32.obj
 0002:000070a8       ??_C@_0BM@NCJCEEDP@Host?5is?5down?5?$CIWSAEHOSTDOWN?$CJ?$AA@ 0043e0a8     pjlib-i386-win32-vc14-release-dynamic:os_error_win32.obj
 0002:000070c4       ??_C@_0CD@ECJOJHBH@No?5route?5to?5host?5?$CIWSAEHOSTUNREAC@ 0043e0c4     pjlib-i386-win32-vc14-release-dynamic:os_error_win32.obj
 0002:000070e8       ??_C@_0CD@NEFLEHEG@Directory?5not?5empty?5?$CIWSAENOTEMPT@ 0043e0e8     pjlib-i386-win32-vc14-release-dynamic:os_error_win32.obj
 0002:0000710c       ??_C@_0CB@GPCGLHOJ@Too?5many?5processes?5?$CIWSAEPROCLIM?$CJ@ 0043e10c     pjlib-i386-win32-vc14-release-dynamic:os_error_win32.obj
 0002:00007130       ??_C@_0BL@IGHJMJKO@Too?5many?5users?5?$CIWSAEUSERS?$CJ?$AA@ 0043e130     pjlib-i386-win32-vc14-release-dynamic:os_error_win32.obj
 0002:0000714c       ??_C@_0CA@MIOFDKMA@Disc?5quota?5exceeded?5?$CIWSAEDQUOT?$CJ?$AA@ 0043e14c     pjlib-i386-win32-vc14-release-dynamic:os_error_win32.obj
 0002:0000716c       ??_C@_0CC@IMLIDHNH@Stale?5NFS?5file?5handle?5?$CIWSAESTALE@ 0043e16c     pjlib-i386-win32-vc14-release-dynamic:os_error_win32.obj
 0002:00007190       ??_C@_0CP@MLAFGPOA@Too?5many?5levels?5of?5remote?5in?5pat@ 0043e190     pjlib-i386-win32-vc14-release-dynamic:os_error_win32.obj
 0002:000071c0       ??_C@_0CP@IBAEMKGH@Network?5system?5is?5unavailable?5?$CIW@ 0043e1c0     pjlib-i386-win32-vc14-release-dynamic:os_error_win32.obj
 0002:000071f0       ??_C@_0DC@BLAKHMMJ@Winsock?5version?5out?5of?5range?5?$CIWS@ 0043e1f0     pjlib-i386-win32-vc14-release-dynamic:os_error_win32.obj
 0002:00007224       ??_C@_0CO@HPDHHDHA@WSAStartup?5not?5yet?5called?5?$CIWSANO@ 0043e224     pjlib-i386-win32-vc14-release-dynamic:os_error_win32.obj
 0002:00007254       ??_C@_0CL@GFDHEKLB@Graceful?5shutdown?5in?5progress?5?$CIW@ 0043e254     pjlib-i386-win32-vc14-release-dynamic:os_error_win32.obj
 0002:00007280       ??_C@_0CD@OEALOMDH@Host?5not?5found?5?$CIWSAHOST_NOT_FOUN@ 0043e280     pjlib-i386-win32-vc14-release-dynamic:os_error_win32.obj
 0002:000072a4       ??_C@_0DB@KFPHELLI@No?5host?5data?5of?5that?5type?5was?5fo@ 0043e2a4     pjlib-i386-win32-vc14-release-dynamic:os_error_win32.obj
 0002:000072d8       ??_C@_0BE@JPHLLAEM@Win32?5error?5code?5?$CFu?$AA@ 0043e2d8     pjlib-i386-win32-vc14-release-dynamic:os_error_win32.obj
 0002:000072ec       _PJ_GUID_STRING_LENGTH     0043e2ec     pjlib-i386-win32-vc14-release-dynamic:guid_win32.obj
 0002:000072f0       ??_C@_0BH@DLOCENPK@?4?4?2src?2pj?2guid_win32?4c?$AA@ 0043e2f0     pjlib-i386-win32-vc14-release-dynamic:guid_win32.obj
 0002:00007338       ??_C@_0BC@GPHMAKPK@sock_qos_common?4c?$AA@ 0043e338     pjlib-i386-win32-vc14-release-dynamic:sock_qos_common.obj
 0002:0000734c       ??_C@_06HBELJPBO@socket?$AA@ 0043e34c     pjlib-i386-win32-vc14-release-dynamic:sock_qos_common.obj
 0002:00007354       ??_C@_0CA@EBJCMLJI@Error?5setting?5QoS?5type?5?$CFd?5to?5?$CFs?$AA@ 0043e354     pjlib-i386-win32-vc14-release-dynamic:sock_qos_common.obj
 0002:00007374       ??_C@_0CK@CGDCCPNL@Error?5setting?5QoS?5params?5?$CIflags?$DN@ 0043e374     pjlib-i386-win32-vc14-release-dynamic:sock_qos_common.obj
 0002:000073a0       ??_C@_0GB@HHNNKDBF@Received?5?$CFd?5consecutive?5errors?3?5@ 0043e3a0     pjlib-i386-win32-vc14-release-dynamic:activesock.obj
 0002:00007408       __real@3ff0000000000000    0043e408     pjlib-i386-win32-vc14-release-dynamic:os_timestamp_common.obj
 0002:00007410       __real@408f400000000000    0043e410     pjlib-i386-win32-vc14-release-dynamic:os_timestamp_common.obj
 0002:00007418       ??_C@_04FIDOICFN@2?410?$AA@ 0043e418     pjlib-i386-win32-vc14-release-dynamic:config.obj
 0002:00007420       ??_C@_08DOCHLGNA@config?4c?$AA@ 0043e420     pjlib-i386-win32-vc14-release-dynamic:config.obj
 0002:0000742c       ??_C@_08PFPBFMIL@IpHlpApi?$AA@ 0043e42c     pjlib-i386-win32-vc14-release-dynamic:ip_helper_win32.obj
 0002:00007438       ??_C@_0P@PMIJPFPM@GetIpAddrTable?$AA@ 0043e438     pjlib-i386-win32-vc14-release-dynamic:ip_helper_win32.obj
 0002:00007448       ??_C@_0BF@LHFCIIHE@GetAdaptersAddresses?$AA@ 0043e448     pjlib-i386-win32-vc14-release-dynamic:ip_helper_win32.obj
 0002:00007460       ??_C@_0L@BLHMKEDC@GetIfEntry?$AA@ 0043e460     pjlib-i386-win32-vc14-release-dynamic:ip_helper_win32.obj
 0002:0000746c       ??_C@_0BP@JMMENEAD@?4?4?2src?2pj?2pool_policy_malloc?4c?$AA@ 0043e46c     pjlib-i386-win32-vc14-release-dynamic:pool_policy_malloc.obj
 0002:0000748c       ??_C@_0BO@KBBNBAFA@?4?4?2src?2pj?2log_writer_stdout?4c?$AA@ 0043e48c     pjlib-i386-win32-vc14-release-dynamic:log_writer_stdout.obj
 0002:000074ac       ??_C@_0BI@FIAAHKJ@?4?4?2src?2pj?2sock_select?4c?$AA@ 0043e4ac     pjlib-i386-win32-vc14-release-dynamic:sock_select.obj
 0002:00007580       __load_config_used         0043e580     MSVCRT:loadcfg.obj
 0002:000075e0       ___safe_se_handler_table   0043e5e0     <linker-defined>
 0002:00007824       ___rtc_iaa                 0043e824     MSVCRT:_initsect_.obj
 0002:00007828       ___rtc_izz                 0043e828     MSVCRT:_initsect_.obj
 0002:0000782c       ___rtc_taa                 0043e82c     MSVCRT:_initsect_.obj
 0002:00007830       ___rtc_tzz                 0043e830     MSVCRT:_initsect_.obj
 0002:00007874       __IMPORT_DESCRIPTOR_ole32  0043e874     ole32:ole32.dll
 0002:00007888       __IMPORT_DESCRIPTOR_WS2_32 0043e888     ws2_32:WS2_32.dll
 0002:0000789c       __IMPORT_DESCRIPTOR_KERNEL32 0043e89c     kernel32:KERNEL32.dll
 0002:000078b0       __IMPORT_DESCRIPTOR_VCRUNTIME140 0043e8b0     vcruntime:VCRUNTIME140.dll
 0002:000078c4       __IMPORT_DESCRIPTOR_api-ms-win-crt-stdio-l1-1-0 0043e8c4     ucrt:api-ms-win-crt-stdio-l1-1-0.dll
 0002:000078d8       __IMPORT_DESCRIPTOR_api-ms-win-crt-convert-l1-1-0 0043e8d8     ucrt:api-ms-win-crt-convert-l1-1-0.dll
 0002:000078ec       __IMPORT_DESCRIPTOR_api-ms-win-crt-string-l1-1-0 0043e8ec     ucrt:api-ms-win-crt-string-l1-1-0.dll
 0002:00007900       __IMPORT_DESCRIPTOR_api-ms-win-crt-utility-l1-1-0 0043e900     ucrt:api-ms-win-crt-utility-l1-1-0.dll
 0002:00007914       __IMPORT_DESCRIPTOR_api-ms-win-crt-math-l1-1-0 0043e914     ucrt:api-ms-win-crt-math-l1-1-0.dll
 0002:00007928       __IMPORT_DESCRIPTOR_api-ms-win-crt-heap-l1-1-0 0043e928     ucrt:api-ms-win-crt-heap-l1-1-0.dll
 0002:0000793c       __IMPORT_DESCRIPTOR_api-ms-win-crt-runtime-l1-1-0 0043e93c     ucrt:api-ms-win-crt-runtime-l1-1-0.dll
 0002:00007950       __IMPORT_DESCRIPTOR_api-ms-win-crt-locale-l1-1-0 0043e950     ucrt:api-ms-win-crt-locale-l1-1-0.dll
 0002:00007964       __NULL_IMPORT_DESCRIPTOR   0043e964     ole32:ole32.dll
 0003:00000c84       _mod_stateful_util         00440c84     pjsip-core-i386-win32-vc14-release-dynamic:sip_util_statefull.obj
 0003:00000e14       _pjsip_include_allow_hdr_in_dlg 00440e14     pjsip-core-i386-win32-vc14-release-dynamic:sip_dialog.obj
 0003:00000f50       _PJSIP_SYN_ERR_EXCEPTION   00440f50     pjsip-core-i386-win32-vc14-release-dynamic:sip_parser.obj
 0003:00000f54       _PJSIP_EINVAL_ERR_EXCEPTION 00440f54     pjsip-core-i386-win32-vc14-release-dynamic:sip_parser.obj
 0003:00000f58       _pjsip_sip_cfg_var         00440f58     pjsip-core-i386-win32-vc14-release-dynamic:sip_config.obj
 0003:00001064       _pj_optind                 00441064     pjlib-util-i386-win32-vc14-release-dynamic:getopt.obj
 0003:00001068       _pj_optopt                 00441068     pjlib-util-i386-win32-vc14-release-dynamic:getopt.obj
 0003:00001180       _PJ_VERSION                00441180     pjlib-i386-win32-vc14-release-dynamic:config.obj
 0003:00001188       _pj_pool_factory_default_policy 00441188     pjlib-i386-win32-vc14-release-dynamic:pool_policy_malloc.obj
 0003:00001198       ___security_cookie_complement 00441198     MSVCRT:gs_cookie.obj
 0003:0000119c       ___security_cookie         0044119c     MSVCRT:gs_cookie.obj
 0003:000011a0       ___isa_enabled             004411a0     MSVCRT:_cpu_disp_.obj
 0003:000011a4       __fltused                  004411a4     MSVCRT:fltused.obj
 0003:000011b0       ___scrt_native_dllmain_reason 004411b0     MSVCRT:utility.obj
 0003:000011b4       ___scrt_default_matherr    004411b4     MSVCRT:matherr.obj
 0003:000011c0       ___scrt_ucrt_dll_is_in_use 004411c0     MSVCRT:ucrt_stubs.obj
 0003:00004db0       _pj_optarg                 00444db0     pjlib-util-i386-win32-vc14-release-dynamic:getopt.obj
 0003:00005464       ___isa_available           00445464     MSVCRT:_cpu_disp_.obj
 0003:00005468       ___favor                   00445468     MSVCRT:_cpu_disp_.obj
 0003:0000546c       ___scrt_current_native_startup_state 0044546c     MSVCRT:utility.obj
 0003:00005470       ___scrt_native_startup_lock 00445470     MSVCRT:utility.obj
 0003:00005490       ?__type_info_root_node@@3U__type_info_node@@A 00445490     MSVCRT:tncleanup.obj
 0003:00005498       ?_OptionsStorage@?1??__local_stdio_scanf_options@@9@4_KA 00445498     MSVCRT:default_local_stdio_options.obj
 0003:000054a0       ___scrt_debugger_hook_flag 004454a0     MSVCRT:utility_desktop.obj
 0003:000054a8       ?_OptionsStorage@?1??__local_stdio_printf_options@@9@9 004454a8     <common>
 0003:000054b0       _pjsip_dlg_lock_tls_id     004454b0     <common>
 0003:000054b4       _PJ_NO_MEMORY_EXCEPTION    004454b4     <common>
 0003:000054b8       ___dyn_tls_dtor_callback   004454b8     <common>
 0003:000054bc       ___dyn_tls_init_callback   004454bc     <common>

 entry point at        0001:0003438f

 Static symbols

 0001:00000000       _pj_list_init              00401000 f   sipecho.obj
 0001:00000010       _pj_list_push_back         00401010 f   sipecho.obj
 0001:00000020       _pj_pool_zalloc            00401020 f   sipecho.obj
 0001:00000040       _pj_bzero                  00401040 f   sipecho.obj
 0001:00000060       _app_perror                00401060 f   sipecho.obj
 0001:0000048c       $LN67                      0040148c     sipecho.obj
 0001:000004a4       $LN64                      004014a4     sipecho.obj
 0001:00000530       _call_on_media_update      00401530 f   sipecho.obj
 0001:00000540       _call_on_state_changed     00401540 f   sipecho.obj
 0001:000005d0       _call_on_rx_offer          004015d0 f   sipecho.obj
 0001:00000600       _call_on_forked            00401600 f   sipecho.obj
 0001:00000610       _on_rx_request             00401610 f   sipecho.obj
 0001:000009e0       _logging_on_rx_msg         004019e0 f   sipecho.obj
 0001:00000a40       _logging_on_tx_msg         00401a40 f   sipecho.obj
 0001:00000ab0       _worker_proc               00401ab0 f   sipecho.obj
 0001:00000af0       _hangup_all                00401af0 f   sipecho.obj
 0001:00000b40       _destroy_stack             00401b40 f   sipecho.obj
 0001:00000c70       _init_stack                00401c70 f   sipecho.obj
 0001:00000eb0       _destroy_call              00401eb0 f   sipecho.obj
 0001:00000ec0       _find_remove_sdp_attrs     00401ec0 f   sipecho.obj
 0001:00000f50       _create_answer             00401f50 f   sipecho.obj
 0001:00001160       _usage                     00402160 f   sipecho.obj
 0001:00001588       $LN57                      00402588     sipecho.obj
 0001:0000159c       $LN48                      0040259c     sipecho.obj
 0001:00001660       _mod_inv_load              00402660 f   pjsip-ua-i386-win32-vc14-release-dynamic:sip_inv.obj
 0001:00001710       _mod_inv_unload            00402710 f   pjsip-ua-i386-win32-vc14-release-dynamic:sip_inv.obj
 0001:00001710       _null_op                   00402710 f   pjlib-i386-win32-vc14-release-dynamic:lock.obj
 0001:00001710       _mod_tsx_layer_start       00402710 f   pjsip-core-i386-win32-vc14-release-dynamic:sip_transaction.obj
 0001:00001710       _mod_tsx_layer_load        00402710 f   pjsip-core-i386-win32-vc14-release-dynamic:sip_transaction.obj
 0001:00001720       _mod_inv_on_rx_request     00402720 f   pjsip-ua-i386-win32-vc14-release-dynamic:sip_inv.obj
 0001:00001850       _mod_inv_on_rx_response    00402850 f   pjsip-ua-i386-win32-vc14-release-dynamic:sip_inv.obj
 0001:000018f0       _mod_inv_on_tsx_state      004028f0 f   pjsip-ua-i386-win32-vc14-release-dynamic:sip_inv.obj
 0001:000019b0       _inv_on_state_null         004029b0 f   pjsip-ua-i386-win32-vc14-release-dynamic:sip_inv.obj
 0001:00001b50       _inv_on_state_calling      00402b50 f   pjsip-ua-i386-win32-vc14-release-dynamic:sip_inv.obj
 0001:00001ec4       $LN163                     00402ec4     pjsip-ua-i386-win32-vc14-release-dynamic:sip_inv.obj
 0001:00001ee0       _inv_on_state_incoming     00402ee0 f   pjsip-ua-i386-win32-vc14-release-dynamic:sip_inv.obj
 0001:00002000       $LN141                     00403000     pjsip-ua-i386-win32-vc14-release-dynamic:sip_inv.obj
 0001:00002020       _inv_on_state_early        00403020 f   pjsip-ua-i386-win32-vc14-release-dynamic:sip_inv.obj
 0001:00002418       $LN169                     00403418     pjsip-ua-i386-win32-vc14-release-dynamic:sip_inv.obj
 0001:00002430       _inv_on_state_connecting   00403430 f   pjsip-ua-i386-win32-vc14-release-dynamic:sip_inv.obj
 0001:00002700       _inv_on_state_confirmed    00403700 f   pjsip-ua-i386-win32-vc14-release-dynamic:sip_inv.obj
 0001:00002e80       _inv_on_state_disconnected 00403e80 f   pjsip-ua-i386-win32-vc14-release-dynamic:sip_inv.obj
 0001:00002f60       _cleanup_allow_sup_hdr     00403f60 f   pjsip-ua-i386-win32-vc14-release-dynamic:sip_inv.obj
 0001:00003030       _clone_sdp                 00404030 f   pjsip-ua-i386-win32-vc14-release-dynamic:sip_inv.obj
 0001:00003050       _create_sdp_body           00404050 f   pjsip-ua-i386-win32-vc14-release-dynamic:sip_inv.obj
 0001:00003090       _handle_timer_response     00404090 f   pjsip-ua-i386-win32-vc14-release-dynamic:sip_inv.obj
 0001:000030f0       _handle_uac_call_rejection 004040f0 f   pjsip-ua-i386-win32-vc14-release-dynamic:sip_inv.obj
 0001:000032c0       _handle_uac_tsx_response   004042c0 f   pjsip-ua-i386-win32-vc14-release-dynamic:sip_inv.obj
 0001:00003480       _inv_check_sdp_in_incoming_msg 00404480 f   pjsip-ua-i386-win32-vc14-release-dynamic:sip_inv.obj
 0001:00003910       _inv_check_secure_dlg      00404910 f   pjsip-ua-i386-win32-vc14-release-dynamic:sip_inv.obj
 0001:00003bb0       _inv_handle_bye_response   00404bb0 f   pjsip-ua-i386-win32-vc14-release-dynamic:sip_inv.obj
 0001:00003d10       _inv_handle_incoming_reliable_response 00404d10 f   pjsip-ua-i386-win32-vc14-release-dynamic:sip_inv.obj
 0001:00003d90       _inv_handle_update_response 00404d90 f   pjsip-ua-i386-win32-vc14-release-dynamic:sip_inv.obj
 0001:00003f40       _inv_has_pending_answer    00404f40 f   pjsip-ua-i386-win32-vc14-release-dynamic:sip_inv.obj
 0001:00003fd0       _inv_negotiate_sdp         00404fd0 f   pjsip-ua-i386-win32-vc14-release-dynamic:sip_inv.obj
 0001:00004060       _inv_perform_pending_bye   00405060 f   pjsip-ua-i386-win32-vc14-release-dynamic:sip_inv.obj
 0001:000040c0       _inv_respond_incoming_bye  004050c0 f   pjsip-ua-i386-win32-vc14-release-dynamic:sip_inv.obj
 0001:00004140       _inv_respond_incoming_cancel 00405140 f   pjsip-ua-i386-win32-vc14-release-dynamic:sip_inv.obj
 0001:00004250       _inv_respond_incoming_prack 00405250 f   pjsip-ua-i386-win32-vc14-release-dynamic:sip_inv.obj
 0001:000042e0       _inv_respond_incoming_update 004052e0 f   pjsip-ua-i386-win32-vc14-release-dynamic:sip_inv.obj
 0001:000044f0       _inv_send_ack              004054f0 f   pjsip-ua-i386-win32-vc14-release-dynamic:sip_inv.obj
 0001:00004600       _inv_session_destroy       00405600 f   pjsip-ua-i386-win32-vc14-release-dynamic:sip_inv.obj
 0001:000046a0       _inv_set_cause             004056a0 f   pjsip-ua-i386-win32-vc14-release-dynamic:sip_inv.obj
 0001:00004710       _inv_set_state             00405710 f   pjsip-ua-i386-win32-vc14-release-dynamic:sip_inv.obj
 0001:00004860       _inv_uac_recurse           00405860 f   pjsip-ua-i386-win32-vc14-release-dynamic:sip_inv.obj
 0001:00004998       $LN32                      00405998     pjsip-ua-i386-win32-vc14-release-dynamic:sip_inv.obj
 0001:00005254       $LN38                      00406254     pjsip-ua-i386-win32-vc14-release-dynamic:sip_inv.obj
 0001:00005924       $LN87                      00406924     pjsip-ua-i386-win32-vc14-release-dynamic:sip_inv.obj
 0001:00005fb0       _print_sdp                 00406fb0 f   pjsip-ua-i386-win32-vc14-release-dynamic:sip_inv.obj
 0001:00005fd0       _process_answer            00406fd0 f   pjsip-ua-i386-win32-vc14-release-dynamic:sip_inv.obj
 0001:00006170       _remove_val_from_array_hdr 00407170 f   pjsip-ua-i386-win32-vc14-release-dynamic:sip_inv.obj
 0001:000061c0       _tx_data_has_sdp           004071c0 f   pjsip-ua-i386-win32-vc14-release-dynamic:sip_inv.obj
 0001:00006280       _mod_100rel_load           00407280 f   pjsip-ua-i386-win32-vc14-release-dynamic:sip_100rel.obj
 0001:000062d0       _clear_all_responses       004072d0 f   pjsip-ua-i386-win32-vc14-release-dynamic:sip_100rel.obj
 0001:00006310       _find_req_hdr              00407310 f   pjsip-ua-i386-win32-vc14-release-dynamic:sip_100rel.obj
 0001:00006390       _has_sdp                   00407390 f   pjsip-ua-i386-win32-vc14-release-dynamic:sip_100rel.obj
 0001:000063d0       _on_retransmit             004073d0 f   pjsip-ua-i386-win32-vc14-release-dynamic:sip_100rel.obj
 0001:00006540       _parse_rack                00407540 f   pjsip-ua-i386-win32-vc14-release-dynamic:sip_100rel.obj
 0001:00007090       _se_hdr_print              00408090 f   pjsip-ua-i386-win32-vc14-release-dynamic:sip_timer.obj
 0001:000071a0       _se_hdr_clone              004081a0 f   pjsip-ua-i386-win32-vc14-release-dynamic:sip_timer.obj
 0001:00007230       _min_se_hdr_print          00408230 f   pjsip-ua-i386-win32-vc14-release-dynamic:sip_timer.obj
 0001:000072d0       _min_se_hdr_clone          004082d0 f   pjsip-ua-i386-win32-vc14-release-dynamic:sip_timer.obj
 0001:00007330       _min_se_hdr_shallow_clone  00408330 f   pjsip-ua-i386-win32-vc14-release-dynamic:sip_timer.obj
 0001:00007370       _add_timer_headers         00408370 f   pjsip-ua-i386-win32-vc14-release-dynamic:sip_timer.obj
 0001:00007f30       _start_timer               00408f30 f   pjsip-ua-i386-win32-vc14-release-dynamic:sip_timer.obj
 0001:00008060       _stop_timer                00409060 f   pjsip-ua-i386-win32-vc14-release-dynamic:sip_timer.obj
 0001:000080c0       _timer_cb                  004090c0 f   pjsip-ua-i386-win32-vc14-release-dynamic:sip_timer.obj
 0001:000083a0       _pjsip_retry_after_hdr_print 004093a0 f   pjsip-core-i386-win32-vc14-release-dynamic:sip_msg.obj
 0001:00008470       _pjsip_retry_after_hdr_clone 00409470 f   pjsip-core-i386-win32-vc14-release-dynamic:sip_msg.obj
 0001:000084f0       _pjsip_retry_after_hdr_shallow_clone 004094f0 f   pjsip-core-i386-win32-vc14-release-dynamic:sip_msg.obj
 0001:00008530       _pjsip_via_hdr_print       00409530 f   pjsip-core-i386-win32-vc14-release-dynamic:sip_msg.obj
 0001:000088c0       _pjsip_via_hdr_clone       004098c0 f   pjsip-core-i386-win32-vc14-release-dynamic:sip_msg.obj
 0001:00008950       _pjsip_via_hdr_shallow_clone 00409950 f   pjsip-core-i386-win32-vc14-release-dynamic:sip_msg.obj
 0001:00008990       _pjsip_generic_string_hdr_print 00409990 f   pjsip-core-i386-win32-vc14-release-dynamic:sip_msg.obj
 0001:00008a00       _pjsip_generic_string_hdr_clone 00409a00 f   pjsip-core-i386-win32-vc14-release-dynamic:sip_msg.obj
 0001:00008a40       _pjsip_generic_string_hdr_shallow_clone 00409a40 f   pjsip-core-i386-win32-vc14-release-dynamic:sip_msg.obj
 0001:00008a70       _pjsip_generic_int_hdr_print 00409a70 f   pjsip-core-i386-win32-vc14-release-dynamic:sip_msg.obj
 0001:00008ad0       _pjsip_generic_int_hdr_clone 00409ad0 f   pjsip-core-i386-win32-vc14-release-dynamic:sip_msg.obj
 0001:00008ad0       _pjsip_generic_int_hdr_shallow_clone 00409ad0 f   pjsip-core-i386-win32-vc14-release-dynamic:sip_msg.obj
 0001:00008b00       _pjsip_generic_array_hdr_print 00409b00 f   pjsip-core-i386-win32-vc14-release-dynamic:sip_msg.obj
 0001:00008bf0       _pjsip_generic_array_hdr_clone 00409bf0 f   pjsip-core-i386-win32-vc14-release-dynamic:sip_msg.obj
 0001:00008c60       _pjsip_generic_array_hdr_shallow_clone 00409c60 f   pjsip-core-i386-win32-vc14-release-dynamic:sip_msg.obj
 0001:00008c90       _pjsip_clen_hdr_print      00409c90 f   pjsip-core-i386-win32-vc14-release-dynamic:sip_msg.obj
 0001:00008d00       _pjsip_clen_hdr_clone      00409d00 f   pjsip-core-i386-win32-vc14-release-dynamic:sip_msg.obj
 0001:00008d20       _pjsip_cseq_hdr_print      00409d20 f   pjsip-core-i386-win32-vc14-release-dynamic:sip_msg.obj
 0001:00008d90       _pjsip_cseq_hdr_clone      00409d90 f   pjsip-core-i386-win32-vc14-release-dynamic:sip_msg.obj
 0001:00008de0       _pjsip_cseq_hdr_shallow_clone 00409de0 f   pjsip-core-i386-win32-vc14-release-dynamic:sip_msg.obj
 0001:00008e10       _pjsip_contact_hdr_print   00409e10 f   pjsip-core-i386-win32-vc14-release-dynamic:sip_msg.obj
 0001:00008ff0       _pjsip_contact_hdr_clone   00409ff0 f   pjsip-core-i386-win32-vc14-release-dynamic:sip_msg.obj
 0001:00009050       _pjsip_routing_hdr_shallow_clone 0040a050 f   pjsip-core-i386-win32-vc14-release-dynamic:sip_msg.obj
 0001:00009050       _pjsip_contact_hdr_shallow_clone 0040a050 f   pjsip-core-i386-win32-vc14-release-dynamic:sip_msg.obj
 0001:00009090       _pjsip_ctype_hdr_print     0040a090 f   pjsip-core-i386-win32-vc14-release-dynamic:sip_msg.obj
 0001:00009110       _pjsip_ctype_hdr_clone     0040a110 f   pjsip-core-i386-win32-vc14-release-dynamic:sip_msg.obj
 0001:00009170       _pjsip_fromto_hdr_print    0040a170 f   pjsip-core-i386-win32-vc14-release-dynamic:sip_msg.obj
 0001:00009270       _pjsip_fromto_hdr_clone    0040a270 f   pjsip-core-i386-win32-vc14-release-dynamic:sip_msg.obj
 0001:000092e0       _se_hdr_shallow_clone      0040a2e0 f   pjsip-ua-i386-win32-vc14-release-dynamic:sip_timer.obj
 0001:000092e0       _pjsip_fromto_hdr_shallow_clone 0040a2e0 f   pjsip-core-i386-win32-vc14-release-dynamic:sip_msg.obj
 0001:00009320       _pjsip_routing_hdr_print   0040a320 f   pjsip-core-i386-win32-vc14-release-dynamic:sip_msg.obj
 0001:00009450       _pjsip_routing_hdr_clone   0040a450 f   pjsip-core-i386-win32-vc14-release-dynamic:sip_msg.obj
 0001:000094a0       _init_hdr                  0040a4a0 f   pjsip-core-i386-win32-vc14-release-dynamic:sip_msg.obj
 0001:00009500       _init_status_phrase        0040a500 f   pjsip-core-i386-win32-vc14-release-dynamic:sip_msg.obj
 0001:0000ad10       _print_media_type          0040bd10 f   pjsip-core-i386-win32-vc14-release-dynamic:sip_msg.obj
 0001:0000ad80       _mod_on_tx_msg             0040bd80 f   pjsip-core-i386-win32-vc14-release-dynamic:sip_transport.obj
 0001:0000ad90       _destroy_transport         0040bd90 f   pjsip-core-i386-win32-vc14-release-dynamic:sip_transport.obj
 0001:0000aef0       _get_msg_info              0040bef0 f   pjsip-core-i386-win32-vc14-release-dynamic:sip_transport.obj
 0001:0000b5d0       _pjsip_tpmgr_is_tpfactory_valid 0040c5d0 f   pjsip-core-i386-win32-vc14-release-dynamic:sip_transport.obj
 0001:0000cad0       _tp_state_callback         0040dad0 f   pjsip-core-i386-win32-vc14-release-dynamic:sip_transport.obj
 0001:0000cb40       _transport_idle_callback   0040db40 f   pjsip-core-i386-win32-vc14-release-dynamic:sip_transport.obj
 0001:0000cb60       _transport_send_callback   0040db60 f   pjsip-core-i386-win32-vc14-release-dynamic:sip_transport.obj
 0001:0000cbb0       _tx_data_destroy           0040dbb0 f   pjsip-core-i386-win32-vc14-release-dynamic:sip_transport.obj
 0001:0000cc70       _cmp_mod_name              0040dc70 f   pjsip-core-i386-win32-vc14-release-dynamic:sip_endpoint.obj
 0001:0000cc90       _endpt_on_rx_msg           0040dc90 f   pjsip-core-i386-win32-vc14-release-dynamic:sip_endpoint.obj
 0001:0000ce80       _endpt_on_tx_msg           0040de80 f   pjsip-core-i386-win32-vc14-release-dynamic:sip_endpoint.obj
 0001:0000dba0       _pool_callback             0040eba0 f   pjsip-core-i386-win32-vc14-release-dynamic:sip_endpoint.obj
 0001:0000dbb0       _unload_module             0040ebb0 f   pjsip-core-i386-win32-vc14-release-dynamic:sip_endpoint.obj
 0001:0000dc10       _init_request_throw        0040ec10 f   pjsip-core-i386-win32-vc14-release-dynamic:sip_util.obj
 0001:0000f180       _send_response_resolver_cb 00410180 f   pjsip-core-i386-win32-vc14-release-dynamic:sip_util.obj
 0001:0000f280       _send_response_transport_cb 00410280 f   pjsip-core-i386-win32-vc14-release-dynamic:sip_util.obj
 0001:0000f2c0       _stateless_send_resolver_callback 004102c0 f   pjsip-core-i386-win32-vc14-release-dynamic:sip_util.obj
 0001:0000f450       _stateless_send_transport_cb 00410450 f   pjsip-core-i386-win32-vc14-release-dynamic:sip_util.obj
 0001:0000f780       _mod_util_on_tsx_state     00410780 f   pjsip-core-i386-win32-vc14-release-dynamic:sip_util_statefull.obj
 0001:0000f910       _create_socket             00410910 f   pjsip-core-i386-win32-vc14-release-dynamic:sip_transport_udp.obj
 0001:0000f9e0       _get_published_name        004109e0 f   pjsip-core-i386-win32-vc14-release-dynamic:sip_transport_udp.obj
 0001:0000fb20       _init_rdata                00410b20 f   pjsip-core-i386-win32-vc14-release-dynamic:sip_transport_udp.obj
 0001:00010050       _register_to_ioqueue       00411050 f   pjsip-core-i386-win32-vc14-release-dynamic:sip_transport_udp.obj
 0001:00010100       _start_async_read          00411100 f   pjsip-core-i386-win32-vc14-release-dynamic:sip_transport_udp.obj
 0001:00010400       _transport_attach          00411400 f   pjsip-core-i386-win32-vc14-release-dynamic:sip_transport_udp.obj
 0001:00010730       _udp_destroy               00411730 f   pjsip-core-i386-win32-vc14-release-dynamic:sip_transport_udp.obj
 0001:00010890       _udp_on_destroy            00411890 f   pjsip-core-i386-win32-vc14-release-dynamic:sip_transport_udp.obj
 0001:00010910       _udp_on_read_complete      00411910 f   pjsip-core-i386-win32-vc14-release-dynamic:sip_transport_udp.obj
 0001:00010b60       _udp_on_write_complete     00411b60 f   pjsip-core-i386-win32-vc14-release-dynamic:sip_transport_udp.obj
 0001:00010bf0       _udp_send_msg              00411bf0 f   pjsip-core-i386-win32-vc14-release-dynamic:sip_transport_udp.obj
 0001:00010cf0       _udp_set_pub_name          00411cf0 f   pjsip-core-i386-win32-vc14-release-dynamic:sip_transport_udp.obj
 0001:00010db0       _udp_shutdown              00411db0 f   pjsip-core-i386-win32-vc14-release-dynamic:sip_transport_udp.obj
 0001:00010dc0       _lis_create_transport      00411dc0 f   pjsip-core-i386-win32-vc14-release-dynamic:sip_transport_tcp.obj
 0001:00011120       _lis_destroy               00412120 f   pjsip-core-i386-win32-vc14-release-dynamic:sip_transport_tcp.obj
 0001:000111d0       _lis_on_destroy            004121d0 f   pjsip-core-i386-win32-vc14-release-dynamic:sip_transport_tcp.obj
 0001:00011220       _on_accept_complete        00412220 f   pjsip-core-i386-win32-vc14-release-dynamic:sip_transport_tcp.obj
 0001:00011460       _on_connect_complete       00412460 f   pjsip-core-i386-win32-vc14-release-dynamic:sip_transport_tcp.obj
 0001:000116d0       _on_data_read              004126d0 f   pjsip-core-i386-win32-vc14-release-dynamic:sip_transport_tcp.obj
 0001:000117d0       _on_data_sent              004127d0 f   pjsip-core-i386-win32-vc14-release-dynamic:sip_transport_tcp.obj
 0001:00011d50       _sockaddr_to_host_port     00412d50 f   pjsip-core-i386-win32-vc14-release-dynamic:sip_transport_tcp.obj
 0001:00011da0       _tcp_create                00412da0 f   pjsip-core-i386-win32-vc14-release-dynamic:sip_transport_tcp.obj
 0001:00012170       _tcp_destroy               00413170 f   pjsip-core-i386-win32-vc14-release-dynamic:sip_transport_tcp.obj
 0001:000122b0       _tcp_destroy_transport     004132b0 f   pjsip-core-i386-win32-vc14-release-dynamic:sip_transport_tcp.obj
 0001:000122e0       _tcp_flush_pending_tx      004132e0 f   pjsip-core-i386-win32-vc14-release-dynamic:sip_transport_tcp.obj
 0001:00012440       _tcp_init_shutdown         00413440 f   pjsip-core-i386-win32-vc14-release-dynamic:sip_transport_tcp.obj
 0001:000124e0       _tcp_initial_timer         004134e0 f   pjsip-core-i386-win32-vc14-release-dynamic:sip_transport_tcp.obj
 0001:00012500       _tcp_keep_alive_timer      00413500 f   pjsip-core-i386-win32-vc14-release-dynamic:sip_transport_tcp.obj
 0001:00012690       _tcp_on_destroy            00413690 f   pjsip-core-i386-win32-vc14-release-dynamic:sip_transport_tcp.obj
 0001:00012770       _tcp_send_msg              00413770 f   pjsip-core-i386-win32-vc14-release-dynamic:sip_transport_tcp.obj
 0001:00012900       _tcp_shutdown              00413900 f   pjsip-core-i386-win32-vc14-release-dynamic:sip_transport_tcp.obj
 0001:00012960       _tcp_start_read            00413960 f   pjsip-core-i386-win32-vc14-release-dynamic:sip_transport_tcp.obj
 0001:00012a80       _update_bound_addr         00413a80 f   pjsip-core-i386-win32-vc14-release-dynamic:sip_transport_tcp.obj
 0001:00012ae0       _update_factory_addr       00413ae0 f   pjsip-core-i386-win32-vc14-release-dynamic:sip_transport_tcp.obj
 0001:00012c40       _update_transport_info     00413c40 f   pjsip-core-i386-win32-vc14-release-dynamic:sip_transport_tcp.obj
 0001:00012d30       _mod_tsx_layer_stop        00413d30 f   pjsip-core-i386-win32-vc14-release-dynamic:sip_transaction.obj
 0001:00012ea0       _mod_tsx_layer_unload      00413ea0 f   pjsip-core-i386-win32-vc14-release-dynamic:sip_transaction.obj
 0001:00012f40       _mod_tsx_layer_on_rx_request 00413f40 f   pjsip-core-i386-win32-vc14-release-dynamic:sip_transaction.obj
 0001:00013030       _mod_tsx_layer_on_rx_response 00414030 f   pjsip-core-i386-win32-vc14-release-dynamic:sip_transaction.obj
 0001:00013120       _create_tsx_key_2543       00414120 f   pjsip-core-i386-win32-vc14-release-dynamic:sip_transaction.obj
 0001:00013290       _create_tsx_key_3261       00414290 f   pjsip-core-i386-win32-vc14-release-dynamic:sip_transaction.obj
 0001:00013340       _mod_tsx_layer_register_tsx 00414340 f   pjsip-core-i386-win32-vc14-release-dynamic:sip_transaction.obj
 0001:000133d0       _mod_tsx_layer_unregister_tsx 004143d0 f   pjsip-core-i386-win32-vc14-release-dynamic:sip_transaction.obj
 0001:00013ef0       _send_msg_callback         00414ef0 f   pjsip-core-i386-win32-vc14-release-dynamic:sip_transaction.obj
 0001:00014390       _transport_callback        00415390 f   pjsip-core-i386-win32-vc14-release-dynamic:sip_transaction.obj
 0001:00014460       _tsx_cancel_timer          00415460 f   pjsip-core-i386-win32-vc14-release-dynamic:sip_transaction.obj
 0001:00014480       _tsx_create                00415480 f   pjsip-core-i386-win32-vc14-release-dynamic:sip_transaction.obj
 0001:000145c0       _tsx_layer_destroy         004155c0 f   pjsip-core-i386-win32-vc14-release-dynamic:sip_transaction.obj
 0001:00014610       _tsx_on_destroy            00415610 f   pjsip-core-i386-win32-vc14-release-dynamic:sip_transaction.obj
 0001:00014650       _tsx_on_state_calling      00415650 f   pjsip-core-i386-win32-vc14-release-dynamic:sip_transaction.obj
 0001:000147c0       _tsx_on_state_completed_uac 004157c0 f   pjsip-core-i386-win32-vc14-release-dynamic:sip_transaction.obj
 0001:00014840       _tsx_on_state_completed_uas 00415840 f   pjsip-core-i386-win32-vc14-release-dynamic:sip_transaction.obj
 0001:00014b00       _tsx_on_state_confirmed    00415b00 f   pjsip-core-i386-win32-vc14-release-dynamic:sip_transaction.obj
 0001:00014b60       _tsx_on_state_destroyed    00415b60 f   pjsip-core-i386-win32-vc14-release-dynamic:sip_transaction.obj
 0001:00014b70       _tsx_on_state_null         00415b70 f   pjsip-core-i386-win32-vc14-release-dynamic:sip_transaction.obj
 0001:00014db0       _tsx_on_state_proceeding_uac 00415db0 f   pjsip-core-i386-win32-vc14-release-dynamic:sip_transaction.obj
 0001:00015280       _tsx_on_state_proceeding_uas 00416280 f   pjsip-core-i386-win32-vc14-release-dynamic:sip_transaction.obj
 0001:000157d0       _tsx_on_state_terminated   004167d0 f   pjsip-core-i386-win32-vc14-release-dynamic:sip_transaction.obj
 0001:00015800       _tsx_on_state_trying       00416800 f   pjsip-core-i386-win32-vc14-release-dynamic:sip_transaction.obj
 0001:000158d0       _tsx_resched_retransmission 004168d0 f   pjsip-core-i386-win32-vc14-release-dynamic:sip_transaction.obj
 0001:00015980       _tsx_retransmit            00416980 f   pjsip-core-i386-win32-vc14-release-dynamic:sip_transaction.obj
 0001:00015a40       _tsx_schedule_timer        00416a40 f   pjsip-core-i386-win32-vc14-release-dynamic:sip_transaction.obj
 0001:00015a80       _tsx_send_msg              00416a80 f   pjsip-core-i386-win32-vc14-release-dynamic:sip_transaction.obj
 0001:00015d50       _tsx_set_state             00416d50 f   pjsip-core-i386-win32-vc14-release-dynamic:sip_transaction.obj
 0001:00015f30       _tsx_set_status_code       00416f30 f   pjsip-core-i386-win32-vc14-release-dynamic:sip_transaction.obj
 0001:00015f70       _tsx_shutdown              00416f70 f   pjsip-core-i386-win32-vc14-release-dynamic:sip_transaction.obj
 0001:00016070       _tsx_timer_callback        00417070 f   pjsip-core-i386-win32-vc14-release-dynamic:sip_transaction.obj
 0001:00016230       _tsx_tp_state_callback     00417230 f   pjsip-core-i386-win32-vc14-release-dynamic:sip_transaction.obj
 0001:000162c0       _tsx_update_transport      004172c0 f   pjsip-core-i386-win32-vc14-release-dynamic:sip_transaction.obj
 0001:00016360       _mod_ua_load               00417360 f   pjsip-core-i386-win32-vc14-release-dynamic:sip_ua_layer.obj
 0001:00016400       _mod_ua_unload             00417400 f   pjsip-core-i386-win32-vc14-release-dynamic:sip_ua_layer.obj
 0001:00016440       _mod_ua_on_rx_request      00417440 f   pjsip-core-i386-win32-vc14-release-dynamic:sip_ua_layer.obj
 0001:00016640       _mod_ua_on_rx_response     00417640 f   pjsip-core-i386-win32-vc14-release-dynamic:sip_ua_layer.obj
 0001:000168b0       _mod_ua_on_tsx_state       004178b0 f   pjsip-core-i386-win32-vc14-release-dynamic:sip_ua_layer.obj
 0001:000168e0       _alloc_dlgset_node         004178e0 f   pjsip-core-i386-win32-vc14-release-dynamic:sip_ua_layer.obj
 0001:00016910       _find_dlg_set_for_msg      00417910 f   pjsip-core-i386-win32-vc14-release-dynamic:sip_ua_layer.obj
 0001:00016c10       _create_dialog             00417c10 f   pjsip-core-i386-win32-vc14-release-dynamic:sip_dialog.obj
 0001:00017220       _destroy_dialog            00418220 f   pjsip-core-i386-win32-vc14-release-dynamic:sip_dialog.obj
 0001:00017280       _dlg_beautify_response     00418280 f   pjsip-core-i386-win32-vc14-release-dynamic:sip_dialog.obj
 0001:00017430       _dlg_create_request_throw  00418430 f   pjsip-core-i386-win32-vc14-release-dynamic:sip_dialog.obj
 0001:00017520       _dlg_on_destroy            00418520 f   pjsip-core-i386-win32-vc14-release-dynamic:sip_dialog.obj
 0001:00017560       _dlg_update_routeset       00418560 f   pjsip-core-i386-win32-vc14-release-dynamic:sip_dialog.obj
 0001:00019370       _send_ack_callback         0041a370 f   pjsip-core-i386-win32-vc14-release-dynamic:sip_dialog.obj
 0001:000193d0       _unregister_and_destroy_dialog 0041a3d0 f   pjsip-core-i386-win32-vc14-release-dynamic:sip_dialog.obj
 0001:00019420       _auth_find_cred            0041a420 f   pjsip-core-i386-win32-vc14-release-dynamic:sip_auth_client.obj
 0001:000194a0       _auth_respond              0041a4a0 f   pjsip-core-i386-win32-vc14-release-dynamic:sip_auth_client.obj
 0001:00019690       _digest2str                0041a690 f   pjsip-core-i386-win32-vc14-release-dynamic:sip_auth_client.obj
 0001:00019740       _find_cached_auth          0041a740 f   pjsip-core-i386-win32-vc14-release-dynamic:sip_auth_client.obj
 0001:00019780       _has_auth_qop              0041a780 f   pjsip-core-i386-win32-vc14-release-dynamic:sip_auth_client.obj
 0001:00019fd0       _process_auth              0041afd0 f   pjsip-core-i386-win32-vc14-release-dynamic:sip_auth_client.obj
 0001:0001a180       _recreate_cached_auth_pool 0041b180 f   pjsip-core-i386-win32-vc14-release-dynamic:sip_auth_client.obj
 0001:0001a220       _respond_digest            0041b220 f   pjsip-core-i386-win32-vc14-release-dynamic:sip_auth_client.obj
 0001:0001a440       _update_digest_session     0041b440 f   pjsip-core-i386-win32-vc14-release-dynamic:sip_auth_client.obj
 0001:0001a5e0       _find_handler              0041b5e0 f   pjsip-core-i386-win32-vc14-release-dynamic:sip_parser.obj
 0001:0001a660       _find_handler_imp          0041b660 f   pjsip-core-i386-win32-vc14-release-dynamic:sip_parser.obj
 0001:0001a760       _find_uri_handler          0041b760 f   pjsip-core-i386-win32-vc14-release-dynamic:sip_parser.obj
 0001:0001a7c0       _init_parser               0041b7c0 f   pjsip-core-i386-win32-vc14-release-dynamic:sip_parser.obj
 0001:0001ae60       _int_parse_contact_param   0041be60 f   pjsip-core-i386-win32-vc14-release-dynamic:sip_parser.obj
 0001:0001b0e0       _int_parse_hparam          0041c0e0 f   pjsip-core-i386-win32-vc14-release-dynamic:sip_parser.obj
 0001:0001b180       _int_parse_msg             0041c180 f   pjsip-core-i386-win32-vc14-release-dynamic:sip_parser.obj
 0001:0001b670       _int_parse_name_addr       0041c670 f   pjsip-core-i386-win32-vc14-release-dynamic:sip_parser.obj
 0001:0001b780       _int_parse_other_uri       0041c780 f   pjsip-core-i386-win32-vc14-release-dynamic:sip_parser.obj
 0001:0001b7f0       _int_parse_req_line        0041c7f0 f   pjsip-core-i386-win32-vc14-release-dynamic:sip_parser.obj
 0001:0001b870       _int_parse_sip_url         0041c870 f   pjsip-core-i386-win32-vc14-release-dynamic:sip_parser.obj
 0001:0001bbf0       _int_parse_status_line     0041cbf0 f   pjsip-core-i386-win32-vc14-release-dynamic:sip_parser.obj
 0001:0001bcd0       _int_parse_uri_host_port   0041ccd0 f   pjsip-core-i386-win32-vc14-release-dynamic:sip_parser.obj
 0001:0001bd60       _int_parse_uri_or_name_addr 0041cd60 f   pjsip-core-i386-win32-vc14-release-dynamic:sip_parser.obj
 0001:0001be10       _int_parse_user_pass       0041ce10 f   pjsip-core-i386-win32-vc14-release-dynamic:sip_parser.obj
 0001:0001be90       _int_parse_via_param       0041ce90 f   pjsip-core-i386-win32-vc14-release-dynamic:sip_parser.obj
 0001:0001c120       _int_register_parser       0041d120 f   pjsip-core-i386-win32-vc14-release-dynamic:sip_parser.obj
 0001:0001c270       _is_next_sip_version       0041d270 f   pjsip-core-i386-win32-vc14-release-dynamic:sip_parser.obj
 0001:0001c2d0       _on_str_parse_error        0041d2d0 f   pjsip-core-i386-win32-vc14-release-dynamic:sip_parser.obj
 0001:0001c360       _on_syntax_error           0041d360 f   pjsip-core-i386-win32-vc14-release-dynamic:sip_parser.obj
 0001:0001c370       _parse_generic_array_hdr   0041d370 f   pjsip-core-i386-win32-vc14-release-dynamic:sip_parser.obj
 0001:0001c420       _parse_generic_string_hdr  0041d420 f   pjsip-core-i386-win32-vc14-release-dynamic:sip_parser.obj
 0001:0001c550       _parse_hdr_accept          0041d550 f   pjsip-core-i386-win32-vc14-release-dynamic:sip_parser.obj
 0001:0001c580       _parse_hdr_allow           0041d580 f   pjsip-core-i386-win32-vc14-release-dynamic:sip_parser.obj
 0001:0001c5b0       _parse_hdr_call_id         0041d5b0 f   pjsip-core-i386-win32-vc14-release-dynamic:sip_parser.obj
 0001:0001c610       _parse_hdr_contact         0041d610 f   pjsip-core-i386-win32-vc14-release-dynamic:sip_parser.obj
 0001:0001c740       _parse_hdr_content_len     0041d740 f   pjsip-core-i386-win32-vc14-release-dynamic:sip_parser.obj
 0001:0001c7b0       _parse_hdr_content_type    0041d7b0 f   pjsip-core-i386-win32-vc14-release-dynamic:sip_parser.obj
 0001:0001c910       _parse_hdr_cseq            0041d910 f   pjsip-core-i386-win32-vc14-release-dynamic:sip_parser.obj
 0001:0001c9d0       _parse_hdr_expires         0041d9d0 f   pjsip-core-i386-win32-vc14-release-dynamic:sip_parser.obj
 0001:0001ca40       _parse_hdr_from            0041da40 f   pjsip-core-i386-win32-vc14-release-dynamic:sip_parser.obj
 0001:0001ca80       _parse_hdr_fromto          0041da80 f   pjsip-core-i386-win32-vc14-release-dynamic:sip_parser.obj
 0001:0001cbf0       _parse_hdr_max_forwards    0041dbf0 f   pjsip-core-i386-win32-vc14-release-dynamic:sip_parser.obj
 0001:0001cc60       _parse_hdr_min_expires     0041dc60 f   pjsip-core-i386-win32-vc14-release-dynamic:sip_parser.obj
 0001:0001ccd0       _parse_hdr_require         0041dcd0 f   pjsip-core-i386-win32-vc14-release-dynamic:sip_parser.obj
 0001:0001cd40       _parse_hdr_retry_after     0041dd40 f   pjsip-core-i386-win32-vc14-release-dynamic:sip_parser.obj
 0001:0001cf30       _parse_hdr_route           0041df30 f   pjsip-core-i386-win32-vc14-release-dynamic:sip_parser.obj
 0001:0001cfc0       _parse_hdr_rr              0041dfc0 f   pjsip-core-i386-win32-vc14-release-dynamic:sip_parser.obj
 0001:0001d050       _parse_hdr_rr_route        0041e050 f   pjsip-core-i386-win32-vc14-release-dynamic:sip_parser.obj
 0001:0001d150       _parse_hdr_supported       0041e150 f   pjsip-core-i386-win32-vc14-release-dynamic:sip_parser.obj
 0001:0001d1c0       _parse_hdr_to              0041e1c0 f   pjsip-core-i386-win32-vc14-release-dynamic:sip_parser.obj
 0001:0001d200       _parse_hdr_unsupported     0041e200 f   pjsip-core-i386-win32-vc14-release-dynamic:sip_parser.obj
 0001:0001d230       _parse_hdr_via             0041e230 f   pjsip-core-i386-win32-vc14-release-dynamic:sip_parser.obj
 0001:0001d3f0       _parse_param_imp           0041e3f0 f   pjsip-core-i386-win32-vc14-release-dynamic:sip_parser.obj
 0001:0001d4a0       _parse_sip_version         0041e4a0 f   pjsip-core-i386-win32-vc14-release-dynamic:sip_parser.obj
 0001:0001d540       _pj_memcmp                 0041e540 f   pjlib-i386-win32-vc14-release-dynamic:string.obj
 0001:0001d540       _pj_memcmp                 0041e540 f   pjsip-core-i386-win32-vc14-release-dynamic:sip_parser.obj
 0001:0001d540       _pj_memcmp                 0041e540 f   pjlib-i386-win32-vc14-release-dynamic:sock_common.obj
 0001:0001d540       _pj_memcmp                 0041e540 f   pjsip-core-i386-win32-vc14-release-dynamic:sip_transport_udp.obj
 0001:0001df80       _strtoi_validate           0041ef80 f   pjsip-core-i386-win32-vc14-release-dynamic:sip_parser.obj
 0001:0001dff0       _multipart_clone_data      0041eff0 f   pjsip-core-i386-win32-vc14-release-dynamic:sip_multipart.obj
 0001:0001e0c0       _multipart_print_body      0041f0c0 f   pjsip-core-i386-win32-vc14-release-dynamic:sip_multipart.obj
 0001:0001e340       _parse_multipart_part      0041f340 f   pjsip-core-i386-win32-vc14-release-dynamic:sip_multipart.obj
 0001:0001e970       _pjsip_url_get_scheme      0041f970 f   pjsip-core-i386-win32-vc14-release-dynamic:sip_uri.obj
 0001:0001e980       _pjsips_url_get_scheme     0041f980 f   pjsip-core-i386-win32-vc14-release-dynamic:sip_uri.obj
 0001:0001e990       _pjsip_name_addr_get_scheme 0041f990 f   pjsip-core-i386-win32-vc14-release-dynamic:sip_uri.obj
 0001:0001e9b0       _pjsip_name_addr_get_uri   0041f9b0 f   pjsip-core-i386-win32-vc14-release-dynamic:sip_uri.obj
 0001:0001e9d0       _pjsip_name_addr_clone     0041f9d0 f   pjsip-core-i386-win32-vc14-release-dynamic:sip_uri.obj
 0001:0001ea40       _pjsip_name_addr_print     0041fa40 f   pjsip-core-i386-win32-vc14-release-dynamic:sip_uri.obj
 0001:0001eb30       _pjsip_name_addr_compare   0041fb30 f   pjsip-core-i386-win32-vc14-release-dynamic:sip_uri.obj
 0001:0001eb80       _pjsip_url_print           0041fb80 f   pjsip-core-i386-win32-vc14-release-dynamic:sip_uri.obj
 0001:0001f050       _pjsip_url_compare         00420050 f   pjsip-core-i386-win32-vc14-release-dynamic:sip_uri.obj
 0001:0001f1e0       _pjsip_url_clone           004201e0 f   pjsip-core-i386-win32-vc14-release-dynamic:sip_uri.obj
 0001:0001f250       _other_uri_get_scheme      00420250 f   pjsip-core-i386-win32-vc14-release-dynamic:sip_uri.obj
 0001:0001f260       _pjsip_get_uri             00420260 f   pjsip-core-i386-win32-vc14-release-dynamic:sip_uri.obj
 0001:0001f260       _tel_uri_get_uri           00420260 f   pjsip-core-i386-win32-vc14-release-dynamic:sip_tel_uri.obj
 0001:0001f260       _other_uri_get_uri         00420260 f   pjsip-core-i386-win32-vc14-release-dynamic:sip_uri.obj
 0001:0001f270       _other_uri_print           00420270 f   pjsip-core-i386-win32-vc14-release-dynamic:sip_uri.obj
 0001:0001f2e0       _other_uri_cmp             004202e0 f   pjsip-core-i386-win32-vc14-release-dynamic:sip_uri.obj
 0001:0001f330       _other_uri_clone           00420330 f   pjsip-core-i386-win32-vc14-release-dynamic:sip_uri.obj
 0001:0001f7e0       _dns_a_callback            004207e0 f   pjsip-core-i386-win32-vc14-release-dynamic:sip_resolve.obj
 0001:0001f930       _dns_aaaa_callback         00420930 f   pjsip-core-i386-win32-vc14-release-dynamic:sip_resolve.obj
 0001:00020170       _srv_resolver_cb           00421170 f   pjsip-core-i386-win32-vc14-release-dynamic:sip_resolve.obj
 0001:00020460       _tel_uri_get_scheme        00421460 f   pjsip-core-i386-win32-vc14-release-dynamic:sip_tel_uri.obj
 0001:00020470       _tel_uri_print             00421470 f   pjsip-core-i386-win32-vc14-release-dynamic:sip_tel_uri.obj
 0001:00020600       _tel_uri_cmp               00421600 f   pjsip-core-i386-win32-vc14-release-dynamic:sip_tel_uri.obj
 0001:00020730       _tel_uri_clone             00421730 f   pjsip-core-i386-win32-vc14-release-dynamic:sip_tel_uri.obj
 0001:00020ab0       _tel_uri_parse             00421ab0 f   pjsip-core-i386-win32-vc14-release-dynamic:sip_tel_uri.obj
 0001:00020ca0       _pjsip_authorization_hdr_clone 00421ca0 f   pjsip-core-i386-win32-vc14-release-dynamic:sip_auth_msg.obj
 0001:00020dc0       _pjsip_authorization_hdr_shallow_clone 00421dc0 f   pjsip-core-i386-win32-vc14-release-dynamic:sip_auth_msg.obj
 0001:00020e00       _pjsip_authorization_hdr_print 00421e00 f   pjsip-core-i386-win32-vc14-release-dynamic:sip_auth_msg.obj
 0001:00020ee0       _pjsip_www_authenticate_hdr_print 00421ee0 f   pjsip-core-i386-win32-vc14-release-dynamic:sip_auth_msg.obj
 0001:00020fa0       _pjsip_www_authenticate_hdr_clone 00421fa0 f   pjsip-core-i386-win32-vc14-release-dynamic:sip_auth_msg.obj
 0001:00021080       _pjsip_www_authenticate_hdr_shallow_clone 00422080 f   pjsip-core-i386-win32-vc14-release-dynamic:sip_auth_msg.obj
 0001:00021280       _print_digest_challenge    00422280 f   pjsip-core-i386-win32-vc14-release-dynamic:sip_auth_msg.obj
 0001:000215d0       _print_digest_credential   004225d0 f   pjsip-core-i386-win32-vc14-release-dynamic:sip_auth_msg.obj
 0001:00021a80       _print_oauth_credential    00422a80 f   pjsip-core-i386-win32-vc14-release-dynamic:sip_auth_msg.obj
 0001:00021d10       _int_parse_hdr_authenticate 00422d10 f   pjsip-core-i386-win32-vc14-release-dynamic:sip_auth_parser.obj
 0001:00021da0       _int_parse_hdr_authorization 00422da0 f   pjsip-core-i386-win32-vc14-release-dynamic:sip_auth_parser.obj
 0001:00021e30       _parse_digest_challenge    00422e30 f   pjsip-core-i386-win32-vc14-release-dynamic:sip_auth_parser.obj
 0001:00021fe0       _parse_digest_credential   00422fe0 f   pjsip-core-i386-win32-vc14-release-dynamic:sip_auth_parser.obj
 0001:000221d0       _parse_hdr_authorization   004231d0 f   pjsip-core-i386-win32-vc14-release-dynamic:sip_auth_parser.obj
 0001:00022200       _parse_hdr_proxy_authenticate 00423200 f   pjsip-core-i386-win32-vc14-release-dynamic:sip_auth_parser.obj
 0001:00022230       _parse_hdr_proxy_authorization 00423230 f   pjsip-core-i386-win32-vc14-release-dynamic:sip_auth_parser.obj
 0001:00022260       _parse_hdr_www_authenticate 00423260 f   pjsip-core-i386-win32-vc14-release-dynamic:sip_auth_parser.obj
 0001:000222f0       _apply_media_direction     004232f0 f   pjmedia-i386-win32-vc14-release-dynamic:sdp.obj
 0001:00022490       _init_sdp_parser           00423490 f   pjmedia-i386-win32-vc14-release-dynamic:sdp.obj
 0001:00022520       _on_scanner_error          00423520 f   pjmedia-i386-win32-vc14-release-dynamic:sdp.obj
 0001:00022530       _parse_attr                00423530 f   pjmedia-i386-win32-vc14-release-dynamic:sdp.obj
 0001:000225f0       _parse_bandwidth_info      004235f0 f   pjmedia-i386-win32-vc14-release-dynamic:sdp.obj
 0001:00022650       _parse_connection_info     00423650 f   pjmedia-i386-win32-vc14-release-dynamic:sdp.obj
 0001:000226b0       _parse_generic_line        004236b0 f   pjmedia-i386-win32-vc14-release-dynamic:sdp.obj
 0001:00022700       _parse_media               00423700 f   pjmedia-i386-win32-vc14-release-dynamic:sdp.obj
 0001:00022850       _parse_origin              00423850 f   pjmedia-i386-win32-vc14-release-dynamic:sdp.obj
 0001:00022920       _parse_time                00423920 f   pjmedia-i386-win32-vc14-release-dynamic:sdp.obj
 0001:000229a0       _parse_version             004239a0 f   pjmedia-i386-win32-vc14-release-dynamic:sdp.obj
 0001:00023664       $LN119                     00424664     pjmedia-i386-win32-vc14-release-dynamic:sdp.obj
 0001:0002368c       $LN110                     0042468c     pjmedia-i386-win32-vc14-release-dynamic:sdp.obj
 0001:00023d10       _print_connection_info     00424d10 f   pjmedia-i386-win32-vc14-release-dynamic:sdp.obj
 0001:00023d50       _print_media_desc          00424d50 f   pjmedia-i386-win32-vc14-release-dynamic:sdp.obj
 0001:00023f90       _print_session             00424f90 f   pjmedia-i386-win32-vc14-release-dynamic:sdp.obj
 0001:00024250       _validate_sdp_conn         00425250 f   pjmedia-i386-win32-vc14-release-dynamic:sdp.obj
 0001:000242c0       _apply_answer_symmetric_pt 004252c0 f   pjmedia-i386-win32-vc14-release-dynamic:sdp_neg.obj
 0001:00024430       _create_answer             00425430 f   pjmedia-i386-win32-vc14-release-dynamic:sdp_neg.obj
 0001:00024600       _custom_fmt_match          00425600 f   pjmedia-i386-win32-vc14-release-dynamic:sdp_neg.obj
 0001:00024660       _match_offer               00425660 f   pjmedia-i386-win32-vc14-release-dynamic:sdp_neg.obj
 0001:00025640       _process_answer            00426640 f   pjmedia-i386-win32-vc14-release-dynamic:sdp_neg.obj
 0001:00025790       _process_m_answer          00426790 f   pjmedia-i386-win32-vc14-release-dynamic:sdp_neg.obj
 0001:00025c80       _rewrite_pt                00426c80 f   pjmedia-i386-win32-vc14-release-dynamic:sdp_neg.obj
 0001:00025d10       _sdp_media_clone_deactivate 00426d10 f   pjmedia-i386-win32-vc14-release-dynamic:sdp_neg.obj
 0001:00025dd0       _update_media_direction    00426dd0 f   pjmedia-i386-win32-vc14-release-dynamic:sdp_neg.obj
 0001:00026010       __getopt_initialize        00427010 f   pjlib-util-i386-win32-vc14-release-dynamic:getopt.obj
 0001:00026070       __getopt_internal          00427070 f   pjlib-util-i386-win32-vc14-release-dynamic:getopt.obj
 0001:000267c0       _exchange                  004277c0 f   pjlib-util-i386-win32-vc14-release-dynamic:getopt.obj
 0001:000268b0       _my_index                  004278b0 f   pjlib-util-i386-win32-vc14-release-dynamic:getopt.obj
 0001:00027220       _alloc_qnode               00428220 f   pjlib-util-i386-win32-vc14-release-dynamic:resolver.obj
 0001:000272a0       _close_sock                004282a0 f   pjlib-util-i386-win32-vc14-release-dynamic:resolver.obj
 0001:00027300       _init_res_key              00428300 f   pjlib-util-i386-win32-vc14-release-dynamic:resolver.obj
 0001:00027370       _on_timeout                00428370 f   pjlib-util-i386-win32-vc14-release-dynamic:resolver.obj
 0001:00027ce0       _select_nameservers        00428ce0 f   pjlib-util-i386-win32-vc14-release-dynamic:resolver.obj
 0001:00027e40       _set_nameserver_state      00428e40 f   pjlib-util-i386-win32-vc14-release-dynamic:resolver.obj
 0001:00027f20       _transmit_query            00428f20 f   pjlib-util-i386-win32-vc14-release-dynamic:resolver.obj
 0001:00028240       _MD5Transform              00429240 f   pjlib-util-i386-win32-vc14-release-dynamic:md5.obj
 0001:00028ab0       $LN16                      00429ab0     pjlib-util-i386-win32-vc14-release-dynamic:dns.obj
 0001:00028ad8       $LN14                      00429ad8     pjlib-util-i386-win32-vc14-release-dynamic:dns.obj
 0001:00028bf0       _build_server_entries      00429bf0 f   pjlib-util-i386-win32-vc14-release-dynamic:srv_resolver.obj
 0001:00029260       _dns_callback              0042a260 f   pjlib-util-i386-win32-vc14-release-dynamic:srv_resolver.obj
 0001:00029b60       _resolve_hostnames         0042ab60 f   pjlib-util-i386-win32-vc14-release-dynamic:srv_resolver.obj
 0001:00029c80       _init_mutex                0042ac80 f   pjlib-i386-win32-vc14-release-dynamic:os_core_win32.obj
 0001:0002a7d0       _pj_sem_wait_for           0042b7d0 f   pjlib-i386-win32-vc14-release-dynamic:os_core_win32.obj
 0001:0002ae50       _thread_main@4             0042be50 f   pjlib-i386-win32-vc14-release-dynamic:os_core_win32.obj
 0001:0002aed0       _invoke_log                0042bed0 f   pjlib-i386-win32-vc14-release-dynamic:errno.obj
 0001:0002af90       _pj_perror_imp             0042bf90 f   pjlib-i386-win32-vc14-release-dynamic:errno.obj
 0001:0002b1e0       _pjlib_error               0042c1e0 f   pjlib-i386-win32-vc14-release-dynamic:errno.obj
 0001:0002c960       _pj_pool_create_block      0042d960 f   pjlib-i386-win32-vc14-release-dynamic:pool.obj
 0001:0002cbf0       _reset_pool                0042dbf0 f   pjlib-i386-win32-vc14-release-dynamic:pool.obj
 0001:0002cc70       _cpool_create_pool         0042dc70 f   pjlib-i386-win32-vc14-release-dynamic:pool_caching.obj
 0001:0002cda0       _cpool_dump_status         0042dda0 f   pjlib-i386-win32-vc14-release-dynamic:pool_caching.obj
 0001:0002cef0       _cpool_on_block_alloc      0042def0 f   pjlib-i386-win32-vc14-release-dynamic:pool_caching.obj
 0001:0002cf10       _cpool_on_block_free       0042df10 f   pjlib-i386-win32-vc14-release-dynamic:pool_caching.obj
 0001:0002cf20       _cpool_release_pool        0042df20 f   pjlib-i386-win32-vc14-release-dynamic:pool_caching.obj
 0001:0002d190       _pj_hex_digit_to_val       0042e190 f   pjlib-i386-win32-vc14-release-dynamic:string.obj
 0001:0002de30       _logging_shutdown          0042ee30 f   pjlib-i386-win32-vc14-release-dynamic:log.obj
 0001:0002e45c       $LN14                      0042f45c     pjlib-i386-win32-vc14-release-dynamic:log.obj
 0001:0002efe0       _create_mutex_lock         0042ffe0 f   pjlib-i386-win32-vc14-release-dynamic:lock.obj
 0001:0002f050       _grp_lock_acquire          00430050 f   pjlib-i386-win32-vc14-release-dynamic:lock.obj
 0001:0002f0c0       _grp_lock_destroy          004300c0 f   pjlib-i386-win32-vc14-release-dynamic:lock.obj
 0001:0002f170       _grp_lock_release          00430170 f   pjlib-i386-win32-vc14-release-dynamic:lock.obj
 0001:0002f1e0       _grp_lock_tryacquire       004301e0 f   pjlib-i386-win32-vc14-release-dynamic:lock.obj
 0001:0002f670       _cancel                    00430670 f   pjlib-i386-win32-vc14-release-dynamic:timer.obj
 0001:0002f6e0       _grow_heap                 004306e0 f   pjlib-i386-win32-vc14-release-dynamic:timer.obj
 0001:0002f7f0       _insert_node               004307f0 f   pjlib-i386-win32-vc14-release-dynamic:timer.obj
 0001:0002ff30       _reheap_down               00430f30 f   pjlib-i386-win32-vc14-release-dynamic:timer.obj
 0001:00030040       _reheap_up                 00431040 f   pjlib-i386-win32-vc14-release-dynamic:timer.obj
 0001:000300e0       _remove_node               004310e0 f   pjlib-i386-win32-vc14-release-dynamic:timer.obj
 0001:00030230       _schedule_entry            00431230 f   pjlib-i386-win32-vc14-release-dynamic:timer.obj
 0001:00030280       _schedule_w_grp_lock_dbg   00431280 f   pjlib-i386-win32-vc14-release-dynamic:timer.obj
 0001:00030500       _decrement_counter         00431500 f   pjlib-i386-win32-vc14-release-dynamic:ioqueue_select.obj
 0001:00030590       _increment_counter         00431590 f   pjlib-i386-win32-vc14-release-dynamic:ioqueue_select.obj
 0001:00030be0       _ioqueue_init_key          00431be0 f   pjlib-i386-win32-vc14-release-dynamic:ioqueue_select.obj
 0001:00031d80       _scan_closing_keys         00432d80 f   pjlib-i386-win32-vc14-release-dynamic:ioqueue_select.obj
 0001:00031e10       _exception_cleanup         00432e10 f   pjlib-i386-win32-vc14-release-dynamic:except.obj
 0001:00032100       _find_entry                00433100 f   pjlib-i386-win32-vc14-release-dynamic:hash.obj
 0001:000327f0       _guid_to_str               004337f0 f   pjlib-i386-win32-vc14-release-dynamic:guid_win32.obj
 0001:00032a30       _ioqueue_on_accept_complete 00433a30 f   pjlib-i386-win32-vc14-release-dynamic:activesock.obj
 0001:00032b80       _ioqueue_on_connect_complete 00433b80 f   pjlib-i386-win32-vc14-release-dynamic:activesock.obj
 0001:00032bb0       _ioqueue_on_read_complete  00433bb0 f   pjlib-i386-win32-vc14-release-dynamic:activesock.obj
 0001:00032db0       _ioqueue_on_write_complete 00433db0 f   pjlib-i386-win32-vc14-release-dynamic:activesock.obj
 0001:00033310       _send_remaining            00434310 f   pjlib-i386-win32-vc14-release-dynamic:activesock.obj
 0001:000336e0       _pool_buf_cleanup          004346e0 f   pjlib-i386-win32-vc14-release-dynamic:pool_buf.obj
 0001:00033710       _stack_alloc               00434710 f   pjlib-i386-win32-vc14-release-dynamic:pool_buf.obj
 0001:00033750       _MyGetAdapterAddresses     00434750 f   pjlib-i386-win32-vc14-release-dynamic:ip_helper_win32.obj
 0001:000337d0       _MyGetIfEntry              004347d0 f   pjlib-i386-win32-vc14-release-dynamic:ip_helper_win32.obj
 0001:00033840       _MyGetIpAddrTable          00434840 f   pjlib-i386-win32-vc14-release-dynamic:ip_helper_win32.obj
 0001:000338b0       _enum_ipv4_interface       004348b0 f   pjlib-i386-win32-vc14-release-dynamic:ip_helper_win32.obj
 0001:00033a90       _enum_ipv4_ipv6_interface  00434a90 f   pjlib-i386-win32-vc14-release-dynamic:ip_helper_win32.obj
 0001:00033cd0       _unload_iphlp_module       00434cd0 f   pjlib-i386-win32-vc14-release-dynamic:ip_helper_win32.obj
 0001:00033d10       _default_block_alloc       00434d10 f   pjlib-i386-win32-vc14-release-dynamic:pool_policy_malloc.obj
 0001:00033d70       _default_block_free        00434d70 f   pjlib-i386-win32-vc14-release-dynamic:pool_policy_malloc.obj
 0001:00033db0       _default_pool_callback     00434db0 f   pjlib-i386-win32-vc14-release-dynamic:pool_policy_malloc.obj
 0001:00034163       ?pre_c_initialization@@YAHXZ 00435163 f   MSVCRT:exe_main.obj
 0001:00034207       ?post_pgo_initialization@@YAHXZ 00435207 f   MSVCRT:exe_main.obj
 0001:0003420f       ?pre_cpp_initialization@@YAXXZ 0043520f f   MSVCRT:exe_main.obj
 0001:00034221       ?__scrt_common_main_seh@@YAHXZ 00435221 f   MSVCRT:exe_main.obj
 0001:00034740       $$000000                   00435740     MSVCRT:lldiv.obj
 0001:000347f0       $$000000                   004357f0     MSVCRT:llmul.obj
 0001:00034830       $$000000                   00435830     MSVCRT:_ftol3_.obj
 0001:00034ba7       ?find_pe_section@@YAPAU_IMAGE_SECTION_HEADER@@QAEI@Z 00435ba7 f   MSVCRT:utility.obj
 0001:00035130       $$000000                   00436130     MSVCRT:_sehprolg4_.obj
 0002:00000218       ?pre_cpp_initializer@@3P6AXXZA 00437218     MSVCRT:exe_main.obj
 0002:00000224       ?pre_c_initializer@@3P6AHXZA 00437224     MSVCRT:exe_main.obj
 0002:00000228       ?post_pgo_initializer@@3P6AHXZA 00437228     MSVCRT:exe_main.obj
 0002:00000308       _pjsip_update_method       00437308     pjsip-ua-i386-win32-vc14-release-dynamic:sip_inv.obj
 0002:000008e0       _tag_100rel                004378e0     pjsip-ua-i386-win32-vc14-release-dynamic:sip_100rel.obj
 0002:000008e8       _RSEQ                      004378e8     pjsip-ua-i386-win32-vc14-release-dynamic:sip_100rel.obj
 0002:000008f0       _RACK                      004378f0     pjsip-ua-i386-win32-vc14-release-dynamic:sip_100rel.obj
 0002:00000b20       _STR_SE                    00437b20     pjsip-ua-i386-win32-vc14-release-dynamic:sip_timer.obj
 0002:00000b28       _STR_SHORT_SE              00437b28     pjsip-ua-i386-win32-vc14-release-dynamic:sip_timer.obj
 0002:00000b30       _STR_MIN_SE                00437b30     pjsip-ua-i386-win32-vc14-release-dynamic:sip_timer.obj
 0002:00000b38       _STR_REFRESHER             00437b38     pjsip-ua-i386-win32-vc14-release-dynamic:sip_timer.obj
 0002:00000b40       _STR_UAC                   00437b40     pjsip-ua-i386-win32-vc14-release-dynamic:sip_timer.obj
 0002:00000b48       _STR_UAS                   00437b48     pjsip-ua-i386-win32-vc14-release-dynamic:sip_timer.obj
 0002:00000b50       _STR_TIMER                 00437b50     pjsip-ua-i386-win32-vc14-release-dynamic:sip_timer.obj
 0002:000029d0       _HCONTACT                  004399d0     pjsip-core-i386-win32-vc14-release-dynamic:sip_dialog.obj
 0002:000032a8       _err_str                   0043a2a8     pjsip-core-i386-win32-vc14-release-dynamic:sip_errno.obj
 0002:00004ab8       _err_str                   0043bab8     pjlib-util-i386-win32-vc14-release-dynamic:errno.obj
 0002:00005f10       _err_str                   0043cf10     pjlib-i386-win32-vc14-release-dynamic:errno.obj
 0002:00006968       _gaErrorList               0043d968     pjlib-i386-win32-vc14-release-dynamic:os_error_win32.obj
 0002:00007308       _qos_map                   0043e308     pjlib-i386-win32-vc14-release-dynamic:sock_qos_common.obj
 0002:000074c4       _GS_ExceptionPointers      0043e4c4     MSVCRT:gs_report.obj
 0002:000074d0       _Int32ToUInt32             0043e4d0     MSVCRT:_ftol3_.obj
 0002:000074d8       _DP2to32                   0043e4d8     MSVCRT:_ftol3_.obj
 0002:000074e0       _MantissaMask              0043e4e0     MSVCRT:_ftol3_.obj
 0002:000074e8       _IntegerBit                0043e4e8     MSVCRT:_ftol3_.obj
 0002:000074f0       _SignBit64                 0043e4f0     MSVCRT:_ftol3_.obj
 0002:000074f8       _MinFP64                   0043e4f8     MSVCRT:_ftol3_.obj
 0002:00007500       _MinInt64                  0043e500     MSVCRT:_ftol3_.obj
 0002:00007508       _MaxInt64                  0043e508     MSVCRT:_ftol3_.obj
 0002:00007510       _MaxUInt64                 0043e510     MSVCRT:_ftol3_.obj
 0002:00007518       _MaxFP32                   0043e518     MSVCRT:_ftol3_.obj
 0002:00007520       _MinFP32                   0043e520     MSVCRT:_ftol3_.obj
 0002:00007528       _MinSubInexact             0043e528     MSVCRT:_ftol3_.obj
 0002:00007530       _FpExcptTable              0043e530     MSVCRT:_ftol3_.obj
 0002:00007540       _i1075                     0043e540     MSVCRT:_ftol3_.obj
 0002:00007544       _i1087                     0043e544     MSVCRT:_ftol3_.obj
 0002:00007548       _x0800                     0043e548     MSVCRT:_ftol3_.obj
 0002:0000754c       _x17FF                     0043e54c     MSVCRT:_ftol3_.obj
 0002:00007550       _CWMask                    0043e550     MSVCRT:_ftol3_.obj
 0002:00007838       __sehtable$?__scrt_common_main_seh@@YAHXZ 0043e838     MSVCRT:exe_main.obj
 0002:00007858       __sehtable$___scrt_is_nonwritable_in_current_image 0043e858     MSVCRT:utility.obj
 0002:00007b98       .idata$6                   0043eb98     ole32:ole32.dll
 0002:00007be8       .idata$6                   0043ebe8     ws2_32:WS2_32.dll
 0002:00007f10       .idata$6                   0043ef10     kernel32:KERNEL32.dll
 0002:00007f80       .idata$6                   0043ef80     vcruntime:VCRUNTIME140.dll
 0002:00008240       .idata$6                   0043f240     ucrt:api-ms-win-crt-stdio-l1-1-0.dll
 0002:00008260       .idata$6                   0043f260     ucrt:api-ms-win-crt-convert-l1-1-0.dll
 0002:00008282       .idata$6                   0043f282     ucrt:api-ms-win-crt-string-l1-1-0.dll
 0002:000082a4       .idata$6                   0043f2a4     ucrt:api-ms-win-crt-utility-l1-1-0.dll
 0002:000082c6       .idata$6                   0043f2c6     ucrt:api-ms-win-crt-math-l1-1-0.dll
 0002:000082e6       .idata$6                   0043f2e6     ucrt:api-ms-win-crt-heap-l1-1-0.dll
 0002:00008306       .idata$6                   0043f306     ucrt:api-ms-win-crt-runtime-l1-1-0.dll
 0002:00008328       .idata$6                   0043f328     ucrt:api-ms-win-crt-locale-l1-1-0.dll
 0003:00000000       $SG16681                   00440000     sipecho.obj
 0003:00000014       $SG16682                   00440014     sipecho.obj
 0003:00000028       $SG18789                   00440028     sipecho.obj
 0003:0000003c       $SG18836                   0044003c     sipecho.obj
 0003:00000040       $SG18837                   00440040     sipecho.obj
 0003:00000044       $SG18838                   00440044     sipecho.obj
 0003:0000004c       $SG18839                   0044004c     sipecho.obj
 0003:00000054       $SG18840                   00440054     sipecho.obj
 0003:0000005c       $SG18841                   0044005c     sipecho.obj
 0003:00000064       $SG18842                   00440064     sipecho.obj
 0003:0000006c       $SG18843                   0044006c     sipecho.obj
 0003:00000074       $SG18844                   00440074     sipecho.obj
 0003:00000078       $SG18845                   00440078     sipecho.obj
 0003:0000007c       $SG18846                   0044007c     sipecho.obj
 0003:00000088       $SG18850                   00440088     sipecho.obj
 0003:000000ac       $SG18854                   004400ac     sipecho.obj
 0003:000000d0       $SG18858                   004400d0     sipecho.obj
 0003:000000f0       $SG18862                   004400f0     sipecho.obj
 0003:00000114       $SG18866                   00440114     sipecho.obj
 0003:0000013c       $SG18869                   0044013c     sipecho.obj
 0003:00000158       $SG18888                   00440158     sipecho.obj
 0003:00000188       _sip_port                  00440188     sipecho.obj
 0003:0000018c       _mod_sipecho               0044018c     sipecho.obj
 0003:000001c8       $SG18938                   004401c8     sipecho.obj
 0003:000001d4       $SG18949                   004401d4     sipecho.obj
 0003:00000204       $SG18950                   00440204     sipecho.obj
 0003:00000210       $SG18961                   00440210     sipecho.obj
 0003:00000240       $SG18962                   00440240     sipecho.obj
 0003:0000024c       _msg_logger                0044024c     sipecho.obj
 0003:00000288       $SG18971                   00440288     sipecho.obj
 0003:00000294       $SG19013                   00440294     sipecho.obj
 0003:000002a4       $SG19014                   004402a4     sipecho.obj
 0003:000002b0       $SG19020                   004402b0     sipecho.obj
 0003:000002bc       $SG19054                   004402bc     sipecho.obj
 0003:000002c4       $SG19064                   004402c4     sipecho.obj
 0003:000002cc       $SG19128                   004402cc     sipecho.obj
 0003:000002d8       $SG19129                   004402d8     sipecho.obj
 0003:000002e4       $SG19130                   004402e4     sipecho.obj
 0003:000002f0       $SG19131                   004402f0     sipecho.obj
 0003:000002fc       $SG19132                   004402fc     sipecho.obj
 0003:00000308       $SG19133                   00440308     sipecho.obj
 0003:00000314       $SG19134                   00440314     sipecho.obj
 0003:00000320       $SG19135                   00440320     sipecho.obj
 0003:0000032c       $SG19136                   0044032c     sipecho.obj
 0003:00000334       $SG19137                   00440334     sipecho.obj
 0003:0000033c       $SG19138                   0044033c     sipecho.obj
 0003:00000348       $SG19139                   00440348     sipecho.obj
 0003:00000354       $SG19140                   00440354     sipecho.obj
 0003:00000360       $SG19141                   00440360     sipecho.obj
 0003:0000036c       $SG19143                   0044036c     sipecho.obj
 0003:00000388       $SG19144                   00440388     sipecho.obj
 0003:00000394       $SG19145                   00440394     sipecho.obj
 0003:0000039c       $SG19149                   0044039c     sipecho.obj
 0003:000003a8       $SG19150                   004403a8     sipecho.obj
 0003:000003b4       $SG19153                   004403b4     sipecho.obj
 0003:000003c0       $SG19154                   004403c0     sipecho.obj
 0003:000003cc       $SG19156                   004403cc     sipecho.obj
 0003:000003d8       $SG19157                   004403d8     sipecho.obj
 0003:000003e4       $SG19160                   004403e4     sipecho.obj
 0003:000003f0       $SG19161                   004403f0     sipecho.obj
 0003:00000414       $SG19162                   00440414     sipecho.obj
 0003:00000420       $SG19181                   00440420     sipecho.obj
 0003:00000448       $SG19182                   00440448     sipecho.obj
 0003:00000454       $SG19184                   00440454     sipecho.obj
 0003:00000474       $SG19185                   00440474     sipecho.obj
 0003:00000480       $SG19264                   00440480     sipecho.obj
 0003:00000490       $SG19265                   00440490     sipecho.obj
 0003:0000049c       $SG19269                   0044049c     sipecho.obj
 0003:000004a8       $SG19270                   004404a8     sipecho.obj
 0003:000004b4       $SG19275                   004404b4     sipecho.obj
 0003:000004bc       $SG19278                   004404bc     sipecho.obj
 0003:000004d0       $SG19281                   004404d0     sipecho.obj
 0003:000004dc       $SG19283                   004404dc     sipecho.obj
 0003:00000500       $SG19284                   00440500     sipecho.obj
 0003:0000050c       $SG19285                   0044050c     sipecho.obj
 0003:00000520       $SG19306                   00440520     sipecho.obj
 0003:0000053c       $SG19307                   0044053c     sipecho.obj
 0003:00000540       $SG19308                   00440540     sipecho.obj
 0003:00000550       $SG19309                   00440550     sipecho.obj
 0003:00000584       $SG19310                   00440584     sipecho.obj
 0003:000005bc       $SG19311                   004405bc     sipecho.obj
 0003:000005f0       $SG19312                   004405f0     sipecho.obj
 0003:00000628       $SG19350                   00440628     sipecho.obj
 0003:00000634       $SG19351                   00440634     sipecho.obj
 0003:00000640       $SG19352                   00440640     sipecho.obj
 0003:00000644       $SG19353                   00440644     sipecho.obj
 0003:00000648       $SG19354                   00440648     sipecho.obj
 0003:00000650       $SG19355                   00440650     sipecho.obj
 0003:00000658       $SG19356                   00440658     sipecho.obj
 0003:00000660       $SG19357                   00440660     sipecho.obj
 0003:00000668       $SG19358                   00440668     sipecho.obj
 0003:00000670       $SG19365                   00440670     sipecho.obj
 0003:000006a4       $SG19366                   004406a4     sipecho.obj
 0003:000006b0       $SG19372                   004406b0     sipecho.obj
 0003:000006d4       $SG19373                   004406d4     sipecho.obj
 0003:000006e0       $SG19374                   004406e0     sipecho.obj
 0003:000006f4       $SG19376                   004406f4     sipecho.obj
 0003:00000710       $SG19377                   00440710     sipecho.obj
 0003:0000071c       $SG19381                   0044071c     sipecho.obj
 0003:00000734       $SG19382                   00440734     sipecho.obj
 0003:00000768       $SG19383                   00440768     sipecho.obj
 0003:00000770       $SG19384                   00440770     sipecho.obj
 0003:00000778       $SG19385                   00440778     sipecho.obj
 0003:000007c0       $SG19390                   004407c0     sipecho.obj
 0003:000007cc       $SG19391                   004407cc     sipecho.obj
 0003:000007f8       _inv_state_handler         004407f8     pjsip-ua-i386-win32-vc14-release-dynamic:sip_inv.obj
 0003:00000818       _mod_inv                   00440818     pjsip-ua-i386-win32-vc14-release-dynamic:sip_inv.obj
 0003:00000880       _inv_state_names           00440880     pjsip-ua-i386-win32-vc14-release-dynamic:sip_inv.obj
 0003:000008a0       _mod_100rel                004408a0     pjsip-ua-i386-win32-vc14-release-dynamic:sip_100rel.obj
 0003:000008e0       _se_hdr_vptr               004408e0     pjsip-ua-i386-win32-vc14-release-dynamic:sip_timer.obj
 0003:000008ec       _min_se_hdr_vptr           004408ec     pjsip-ua-i386-win32-vc14-release-dynamic:sip_timer.obj
 0003:000008f8       _retry_after_hdr_vptr      004408f8     pjsip-core-i386-win32-vc14-release-dynamic:sip_msg.obj
 0003:00000904       _via_hdr_vptr              00440904     pjsip-core-i386-win32-vc14-release-dynamic:sip_msg.obj
 0003:00000910       _generic_hdr_vptr          00440910     pjsip-core-i386-win32-vc14-release-dynamic:sip_msg.obj
 0003:0000091c       _generic_int_hdr_vptr      0044091c     pjsip-core-i386-win32-vc14-release-dynamic:sip_msg.obj
 0003:00000928       _generic_array_hdr_vptr    00440928     pjsip-core-i386-win32-vc14-release-dynamic:sip_msg.obj
 0003:00000934       _clen_hdr_vptr             00440934     pjsip-core-i386-win32-vc14-release-dynamic:sip_msg.obj
 0003:00000940       _cseq_hdr_vptr             00440940     pjsip-core-i386-win32-vc14-release-dynamic:sip_msg.obj
 0003:0000094c       _contact_hdr_vptr          0044094c     pjsip-core-i386-win32-vc14-release-dynamic:sip_msg.obj
 0003:00000958       _ctype_hdr_vptr            00440958     pjsip-core-i386-win32-vc14-release-dynamic:sip_msg.obj
 0003:00000964       _fromto_hdr_vptr           00440964     pjsip-core-i386-win32-vc14-release-dynamic:sip_msg.obj
 0003:00000970       _routing_hdr_vptr          00440970     pjsip-core-i386-win32-vc14-release-dynamic:sip_msg.obj
 0003:0000097c       _method_names              0044097c     pjsip-core-i386-win32-vc14-release-dynamic:sip_msg.obj
 0003:00000998       _mod_msg_print             00440998     pjsip-core-i386-win32-vc14-release-dynamic:sip_transport.obj
 0003:000009d8       _transport_names           004409d8     pjsip-core-i386-win32-vc14-release-dynamic:sip_transport.obj
 0003:00000c58       _event_str                 00440c58     pjsip-core-i386-win32-vc14-release-dynamic:sip_util.obj
 0003:00000c74       _str_TEXT                  00440c74     pjsip-core-i386-win32-vc14-release-dynamic:sip_util.obj
 0003:00000c7c       _str_PLAIN                 00440c7c     pjsip-core-i386-win32-vc14-release-dynamic:sip_util.obj
 0003:00000cc0       _mod_tsx_layer             00440cc0     pjsip-core-i386-win32-vc14-release-dynamic:sip_transaction.obj
 0003:00000d0c       _t1_timer_val              00440d0c     pjsip-core-i386-win32-vc14-release-dynamic:sip_transaction.obj
 0003:00000d14       _t2_timer_val              00440d14     pjsip-core-i386-win32-vc14-release-dynamic:sip_transaction.obj
 0003:00000d1c       _timeout_timer_val         00440d1c     pjsip-core-i386-win32-vc14-release-dynamic:sip_transaction.obj
 0003:00000d24       _state_str                 00440d24     pjsip-core-i386-win32-vc14-release-dynamic:sip_transaction.obj
 0003:00000d44       _role_name                 00440d44     pjsip-core-i386-win32-vc14-release-dynamic:sip_transaction.obj
 0003:00000d4c       _t4_timer_val              00440d4c     pjsip-core-i386-win32-vc14-release-dynamic:sip_transaction.obj
 0003:00000d54       _td_timer_val              00440d54     pjsip-core-i386-win32-vc14-release-dynamic:sip_transaction.obj
 0003:00000d5c       _tsx_state_handler_uac     00440d5c     pjsip-core-i386-win32-vc14-release-dynamic:sip_transaction.obj
 0003:00000d7c       _tsx_state_handler_uas     00440d7c     pjsip-core-i386-win32-vc14-release-dynamic:sip_transaction.obj
 0003:00000da0       _mod_ua                    00440da0     pjsip-core-i386-win32-vc14-release-dynamic:sip_ua_layer.obj
 0003:00000e18       _pconst                    00440e18     pjsip-core-i386-win32-vc14-release-dynamic:sip_parser.obj
 0003:00000fac       _sip_str                   00440fac     pjsip-core-i386-win32-vc14-release-dynamic:sip_uri.obj
 0003:00000fb4       _sips_str                  00440fb4     pjsip-core-i386-win32-vc14-release-dynamic:sip_uri.obj
 0003:00000fbc       _sip_url_vptr              00440fbc     pjsip-core-i386-win32-vc14-release-dynamic:sip_uri.obj
 0003:00000fd0       _sips_url_vptr             00440fd0     pjsip-core-i386-win32-vc14-release-dynamic:sip_uri.obj
 0003:00000fe4       _name_addr_vptr            00440fe4     pjsip-core-i386-win32-vc14-release-dynamic:sip_uri.obj
 0003:00000ff8       _other_uri_vptr            00440ff8     pjsip-core-i386-win32-vc14-release-dynamic:sip_uri.obj
 0003:0000100c       _pjsip_ISUB_STR            0044100c     pjsip-core-i386-win32-vc14-release-dynamic:sip_tel_uri.obj
 0003:00001014       _pjsip_EXT_STR             00441014     pjsip-core-i386-win32-vc14-release-dynamic:sip_tel_uri.obj
 0003:0000101c       _pjsip_PH_CTX_STR          0044101c     pjsip-core-i386-win32-vc14-release-dynamic:sip_tel_uri.obj
 0003:00001024       _tel_uri_vptr              00441024     pjsip-core-i386-win32-vc14-release-dynamic:sip_tel_uri.obj
 0003:00001038       _authorization_hdr_vptr    00441038     pjsip-core-i386-win32-vc14-release-dynamic:sip_auth_msg.obj
 0003:00001044       _www_authenticate_hdr_vptr 00441044     pjsip-core-i386-win32-vc14-release-dynamic:sip_auth_msg.obj
 0003:00001050       _state_str                 00441050     pjmedia-i386-win32-vc14-release-dynamic:sdp_neg.obj
 0003:0000106c       _state_names               0044106c     pjlib-util-i386-win32-vc14-release-dynamic:resolver.obj
 0003:00001078       _thread_tls_id             00441078     pjlib-i386-win32-vc14-release-dynamic:os_core_win32.obj
 0003:00001080       _pool_sizes                00441080     pjlib-i386-win32-vc14-release-dynamic:pool_caching.obj
 0003:000010c0       _thread_suspended_tls_id   004410c0     pjlib-i386-win32-vc14-release-dynamic:log.obj
 0003:000010c4       _thread_indent_tls_id      004410c4     pjlib-i386-win32-vc14-release-dynamic:log.obj
 0003:000010c8       _pj_log_max_level          004410c8     pjlib-i386-win32-vc14-release-dynamic:log.obj
 0003:000010cc       _log_writer                004410cc     pjlib-i386-win32-vc14-release-dynamic:log.obj
 0003:000010d0       _log_decor                 004410d0     pjlib-i386-win32-vc14-release-dynamic:log.obj
 0003:000010d4       _PJ_LOG_COLOR_0            004410d4     pjlib-i386-win32-vc14-release-dynamic:log.obj
 0003:000010d8       _PJ_LOG_COLOR_1            004410d8     pjlib-i386-win32-vc14-release-dynamic:log.obj
 0003:000010dc       _PJ_LOG_COLOR_2            004410dc     pjlib-i386-win32-vc14-release-dynamic:log.obj
 0003:000010e0       _PJ_LOG_COLOR_3            004410e0     pjlib-i386-win32-vc14-release-dynamic:log.obj
 0003:000010e4       _PJ_LOG_COLOR_4            004410e4     pjlib-i386-win32-vc14-release-dynamic:log.obj
 0003:000010e8       _PJ_LOG_COLOR_5            004410e8     pjlib-i386-win32-vc14-release-dynamic:log.obj
 0003:000010ec       _PJ_LOG_COLOR_6            004410ec     pjlib-i386-win32-vc14-release-dynamic:log.obj
 0003:000010f0       _PJ_LOG_COLOR_77           004410f0     pjlib-i386-win32-vc14-release-dynamic:log.obj
 0003:000010f4       ?ltexts@?2??pj_log@@9@9    004410f4     pjlib-i386-win32-vc14-release-dynamic:log.obj
 0003:00001110       ?wdays@?3??pj_log@@9@9     00441110     pjlib-i386-win32-vc14-release-dynamic:log.obj
 0003:0000112c       _mutex_lock_template       0044112c     pjlib-i386-win32-vc14-release-dynamic:lock.obj
 0003:00001140       _null_lock_template        00441140     pjlib-i386-win32-vc14-release-dynamic:lock.obj
 0003:00001154       _sem_lock_template         00441154     pjlib-i386-win32-vc14-release-dynamic:lock.obj
 0003:00001168       _thread_local_id           00441168     pjlib-i386-win32-vc14-release-dynamic:except.obj
 0003:0000116c       ?hex@?1??hex2digit@@9@9    0044116c     pjlib-i386-win32-vc14-release-dynamic:guid_win32.obj
 0003:0000117c       _tls                       0044117c     pjlib-i386-win32-vc14-release-dynamic:pool_buf.obj
 0003:00001184       _id                        00441184     pjlib-i386-win32-vc14-release-dynamic:config.obj
 0003:000011c8       _app                       004411c8     sipecho.obj
 0003:000013c0       _sip_af                    004413c0     sipecho.obj
 0003:000013c4       _sip_tcp                   004413c4     sipecho.obj
 0003:000013c8       _is_initialized            004413c8     pjsip-ua-i386-win32-vc14-release-dynamic:sip_timer.obj
 0003:000013d0       _status_phrase             004413d0     pjsip-core-i386-win32-vc14-release-dynamic:sip_msg.obj
 0003:00002a00       ?is_initialized@?1??pjsip_get_status_text@@9@9 00442a00     pjsip-core-i386-win32-vc14-release-dynamic:sip_msg.obj
 0003:00002a08       _handler                   00442a08     pjsip-core-i386-win32-vc14-release-dynamic:sip_parser.obj
 0003:00004088       _handler_count             00444088     pjsip-core-i386-win32-vc14-release-dynamic:sip_parser.obj
 0003:0000408c       _parser_is_initialized     0044408c     pjsip-core-i386-win32-vc14-release-dynamic:sip_parser.obj
 0003:00004090       _uri_handler               00444090     pjsip-core-i386-win32-vc14-release-dynamic:sip_parser.obj
 0003:000040c0       _uri_handler_count         004440c0     pjsip-core-i386-win32-vc14-release-dynamic:sip_parser.obj
 0003:000040c8       _cis_buf                   004440c8     pjsip-core-i386-win32-vc14-release-dynamic:sip_parser.obj
 0003:000044d0       _pjsip_TEL_NUMBER_SPEC     004444d0     pjsip-core-i386-win32-vc14-release-dynamic:sip_tel_uri.obj
 0003:000044d8       _pjsip_TEL_EXT_VALUE_SPEC  004444d8     pjsip-core-i386-win32-vc14-release-dynamic:sip_tel_uri.obj
 0003:000044e0       _pjsip_TEL_PHONE_CONTEXT_SPEC 004444e0     pjsip-core-i386-win32-vc14-release-dynamic:sip_tel_uri.obj
 0003:000044e8       _pjsip_TEL_URIC_SPEC       004444e8     pjsip-core-i386-win32-vc14-release-dynamic:sip_tel_uri.obj
 0003:000044f0       _pjsip_TEL_PNAME_SPEC      004444f0     pjsip-core-i386-win32-vc14-release-dynamic:sip_tel_uri.obj
 0003:000044f8       _pjsip_TEL_PVALUE_SPEC     004444f8     pjsip-core-i386-win32-vc14-release-dynamic:sip_tel_uri.obj
 0003:00004500       _cis_buf                   00444500     pjsip-core-i386-win32-vc14-release-dynamic:sip_tel_uri.obj
 0003:00004904       _pjsip_TEL_VISUAL_SEP_SPEC 00444904     pjsip-core-i386-win32-vc14-release-dynamic:sip_tel_uri.obj
 0003:0000490c       _pjsip_TEL_PVALUE_SPEC_ESC 0044490c     pjsip-core-i386-win32-vc14-release-dynamic:sip_tel_uri.obj
 0003:00004914       _pjsip_TEL_PARSING_PVALUE_SPEC 00444914     pjsip-core-i386-win32-vc14-release-dynamic:sip_tel_uri.obj
 0003:0000491c       _pjsip_TEL_PARSING_PVALUE_SPEC_ESC 0044491c     pjsip-core-i386-win32-vc14-release-dynamic:sip_tel_uri.obj
 0003:00004928       _is_initialized            00444928     pjmedia-i386-win32-vc14-release-dynamic:sdp.obj
 0003:00004930       _cis_buf                   00444930     pjmedia-i386-win32-vc14-release-dynamic:sdp.obj
 0003:00004d34       _cs_digit                  00444d34     pjmedia-i386-win32-vc14-release-dynamic:sdp.obj
 0003:00004d3c       _cs_token                  00444d3c     pjmedia-i386-win32-vc14-release-dynamic:sdp.obj
 0003:00004d48       _fmt_match_cb_cnt          00444d48     pjmedia-i386-win32-vc14-release-dynamic:sdp_neg.obj
 0003:00004d50       _fmt_match_cb              00444d50     pjmedia-i386-win32-vc14-release-dynamic:sdp_neg.obj
 0003:00004db4       ___getopt_initialized      00444db4     pjlib-util-i386-win32-vc14-release-dynamic:getopt.obj
 0003:00004db8       _nextchar                  00444db8     pjlib-util-i386-win32-vc14-release-dynamic:getopt.obj
 0003:00004dbc       _ordering                  00444dbc     pjlib-util-i386-win32-vc14-release-dynamic:getopt.obj
 0003:00004dc0       _posixly_correct           00444dc0     pjlib-util-i386-win32-vc14-release-dynamic:getopt.obj
 0003:00004dc4       _first_nonopt              00444dc4     pjlib-util-i386-win32-vc14-release-dynamic:getopt.obj
 0003:00004dc8       _last_nonopt               00444dc8     pjlib-util-i386-win32-vc14-release-dynamic:getopt.obj
 0003:00004dd0       _initialized               00444dd0     pjlib-i386-win32-vc14-release-dynamic:os_core_win32.obj
 0003:00004dd4       _atexit_count              00444dd4     pjlib-i386-win32-vc14-release-dynamic:os_core_win32.obj
 0003:00004dd8       _main_thread               00444dd8     pjlib-i386-win32-vc14-release-dynamic:os_core_win32.obj
 0003:00004ed8       _critical_section_mutex    00444ed8     pjlib-i386-win32-vc14-release-dynamic:os_core_win32.obj
 0003:00004f10       _atexit_func               00444f10     pjlib-i386-win32-vc14-release-dynamic:os_core_win32.obj
 0003:00004f90       _err_msg_hnd_cnt           00444f90     pjlib-i386-win32-vc14-release-dynamic:errno.obj
 0003:00004f98       _err_msg_hnd               00444f98     pjlib-i386-win32-vc14-release-dynamic:errno.obj
 0003:00005010       _g_last_thread             00445010     pjlib-i386-win32-vc14-release-dynamic:log.obj
 0003:00005018       ?buf@?1??pj_gethostname@@9@9 00445018     pjlib-i386-win32-vc14-release-dynamic:sock_bsd.obj
 0003:00005098       ?hostname@?1??pj_gethostname@@9@9 00445098     pjlib-i386-win32-vc14-release-dynamic:sock_bsd.obj
 0003:000050a0       _base_time                 004450a0     pjlib-i386-win32-vc14-release-dynamic:os_time_win32.obj
 0003:000050a8       _exception_id_names        004450a8     pjlib-i386-win32-vc14-release-dynamic:except.obj
 0003:000050e8       ?unknown_name@?1??pj_exception_id_name@@9@9 004450e8     pjlib-i386-win32-vc14-release-dynamic:except.obj
 0003:00005108       _stack_based_factory       00445108     pjlib-i386-win32-vc14-release-dynamic:pool_buf.obj
 0003:0000512c       _is_initialized            0044512c     pjlib-i386-win32-vc14-release-dynamic:pool_buf.obj
 0003:00005130       _s_hDLL                    00445130     pjlib-i386-win32-vc14-release-dynamic:ip_helper_win32.obj
 0003:00005134       _s_pfnGetIpAddrTable       00445134     pjlib-i386-win32-vc14-release-dynamic:ip_helper_win32.obj
 0003:00005138       _s_pfnGetAdapterAddresses  00445138     pjlib-i386-win32-vc14-release-dynamic:ip_helper_win32.obj
 0003:0000513c       _s_pfnGetIpForwardTable    0044513c     pjlib-i386-win32-vc14-release-dynamic:ip_helper_win32.obj
 0003:00005140       _s_pfnGetIfEntry           00445140     pjlib-i386-win32-vc14-release-dynamic:ip_helper_win32.obj
 0003:00005148       _GS_ExceptionRecord        00445148     MSVCRT:gs_report.obj
 0003:00005198       _GS_ContextRecord          00445198     MSVCRT:gs_report.obj
 0003:00005474       ?module_local_atexit_table@@3U_onexit_table_t@@A 00445474     MSVCRT:utility.obj
 0003:00005480       ?module_local_at_quick_exit_table@@3U_onexit_table_t@@A 00445480     MSVCRT:utility.obj
 0003:0000548c       ?is_initialized_as_dll@@3_NA 0044548c     MSVCRT:utility.obj
 0004:00000000       __guard_fids__             00446000     MSVCRT:exe_main.obj
 0004:00000004       __guard_fids__             00446004     MSVCRT:exe_main.obj
 0004:00000008       __guard_fids__             00446008     MSVCRT:exe_main.obj
 0004:0000000c       __guard_fids_?pre_c_initialization@@YAHXZ 0044600c     MSVCRT:exe_main.obj
 0004:00000014       __guard_fids____scrt_set_unhandled_exception_filter 00446014     MSVCRT:utility_desktop.obj
 0004:00000018       __guard_fids___except_handler4 00446018     MSVCRT:_chandler4gs_.obj
 0004:0000001c       __guard_fids__             0044601c     MSVCRT:guard_support.obj
